(dp1
S'output'
p2
S"<type 'exceptions.IndexError'> list index out of range"
p3
sS'layer'
p4
S'/home/xchen/web2py/applications/Betsy/controllers/default.py'
p5
sS'code'
p6
S'# -*- coding: utf-8 -*-\n# this file is released under public domain and you can use without limitations\n\n#########################################################################\n## This is a samples controller\n## - index is the default action of any application\n## - user is required for authentication and authorization\n## - download is for downloading files uploaded in the db (does streaming)\n## - call exposes all registered services (none by default)\n#########################################################################\n\nupload_path = \'/home/xchen/chencode/upload/\'\n@auth.requires_login()\ndef first():\n    form = SQLFORM.factory(Field(\'command\',requires=IS_NOT_EMPTY()),\n        Field(\'myfile1\', \'upload\',\n        uploadfolder=upload_path),\n        Field(\'myfile2\', \'upload\',\n        uploadfolder=upload_path),\n        Field(\'myfile3\', \'upload\',\n        uploadfolder=upload_path),\n        Field(\'myfile4\', \'upload\',\n        uploadfolder=upload_path),\n        Field(\'myfile5\', \'upload\',\n        uploadfolder=upload_path),\n        Field(\'myfile6\', \'upload\',\n        uploadfolder=upload_path),\n        )\n    form_queue = FORM(INPUT(_type=\'submit\',_value=\'show jobs status\'))\n    if form.process().accepted:\n        session.command=form.vars.command\n        session.myfile1 = form.vars.myfile1\n        session.myfile2 = form.vars.myfile2\n        session.myfile3 = form.vars.myfile3\n        session.myfile4 = form.vars.myfile4\n        session.myfile5 = form.vars.myfile5\n        session.myfile6 = form.vars.myfile6\n        redirect(URL(\'second\'))\n    if form_queue.process().accepted:\n        redirect(URL(\'show_status\'))\n    return dict(form=form,form_queue=form_queue)\n    \n    \ndef show_status():\n    import subprocess\n    all_cmd = [\'python\',\'/home/xchen/chencode/tmp/try_parallel/queue.py\',\'--list\']    \n    process = subprocess.Popen(all_cmd, shell=False,\n                               stdout=subprocess.PIPE,\n                               stderr=subprocess.STDOUT)\n    process.wait()\n    log_information = process.stdout.read().split(\'\\n\')\n    for log_line in log_information:\n        lines = log_line.split(\'\\t\')\n        print lines\n        id=db.status.insert(Jobnumber=lines[0],Jobname=lines[1], Status=lines[2], Started=lines[3],\n        Ended=lines[4],Submitted=lines[5],Command=lines[6],Link=lines[7])\n    form=db().select(db.status.ALL)\n    return dict(form=form)\n    \ndef second():\n    if session.command:\n        import subprocess\n        import os\n        command = session.command.replace(\'myfile1\',os.path.join(upload_path,session.myfile1))\n        command = command.replace(\'myfile2\',os.path.join(upload_path,session.myfile2))\n        command = command.replace(\'myfile3\',os.path.join(upload_path,session.myfile3))\n        command = command.replace(\'myfile4\',os.path.join(upload_path,session.myfile4))\n        command = command.replace(\'myfile5\',os.path.join(upload_path,session.myfile5))\n        command = command.replace(\'myfile6\',os.path.join(upload_path,session.myfile6))\n        command_list=command.split()\n        \n        cmd = [\'python\',os.path.join(\'/home/xchen/chencode/Betsy/scripts\',command_list[0])]+command_list[1:]\n        all_cmd = [\'python\',\'/home/xchen/chencode/tmp/try_parallel/queue.py\' ,\' \' .join(cmd)]\n        session.cmd=all_cmd\n        process1 = subprocess.Popen(all_cmd, shell=False,\n                               stdout=subprocess.PIPE,\n                               stderr=subprocess.STDOUT)\n        process1.wait()                       \n        all_cmd = [\'python\',\'/home/xchen/chencode/tmp/try_parallel/queue.py\',\'--list\']    \n        process2 = subprocess.Popen(all_cmd, shell=False,\n                               stdout=subprocess.PIPE,\n                               stderr=subprocess.STDOUT)\n        process2.wait()\n        session.output = process2.stdout.read().split(\'\\n\')\n        \n    return dict()\n    \n    \ndef index():\n    """\n    example action using the internationalization operator T and flash\n    rendered by views/default/index.html or views/generic.html\n\n    if you need a simple wiki simple replace the two lines below with:\n    return auth.wiki()\n    """\n    #response.flash = T("Welcome to web2py!")\n    #return dict(message=T(\'Hello World\'))\n\n\ndef user():\n    """\n    exposes:\n    http://..../[app]/default/user/login\n    http://..../[app]/default/user/logout\n    http://..../[app]/default/user/register\n    http://..../[app]/default/user/profile\n    http://..../[app]/default/user/retrieve_password\n    http://..../[app]/default/user/change_password\n    use @auth.requires_login()\n        @auth.requires_membership(\'group name\')\n        @auth.requires_permission(\'read\',\'table name\',record_id)\n    to decorate functions that need access control\n    """\n    return dict(form=auth())\n\n\ndef download():\n    """\n    allows downloading of uploaded files\n    http://..../[app]/default/download/[filename]\n    """\n    return response.download(request, db)\n\n\ndef call():\n    """\n    exposes services. for example:\n    http://..../[app]/default/call/jsonrpc\n    decorate with @services.jsonrpc the functions to expose\n    supports xml, json, xmlrpc, jsonrpc, amfrpc, rss, csv\n    """\n    return service()\n\n\n@auth.requires_signature()\ndef data():\n    """\n    http://..../[app]/default/data/tables\n    http://..../[app]/default/data/create/[table]\n    http://..../[app]/default/data/read/[table]/[id]\n    http://..../[app]/default/data/update/[table]/[id]\n    http://..../[app]/default/data/delete/[table]/[id]\n    http://..../[app]/default/data/select/[table]\n    http://..../[app]/default/data/search/[table]\n    but URLs must be signed, i.e. linked with\n      A(\'table\',_href=URL(\'data/tables\',user_signature=True))\n    or with the signed load operator\n      LOAD(\'default\',\'data.load\',args=\'tables\',ajax=True,user_signature=True)\n    """\n    return dict(form=crud())\n\nresponse._vars=response._caller(show_status)\n'
p7
sS'snapshot'
p8
(dp9
S'exception'
p10
(dp11
S'__hash__'
p12
S"<method-wrapper '__hash__' of exceptions.IndexError object>"
p13
sS'__setattr__'
p14
S"<method-wrapper '__setattr__' of exceptions.IndexError object>"
p15
sS'__reduce_ex__'
p16
S'<built-in method __reduce_ex__ of exceptions.IndexError object>'
p17
sS'__getslice__'
p18
S"<method-wrapper '__getslice__' of exceptions.IndexError object>"
p19
sS'__getitem__'
p20
S"<method-wrapper '__getitem__' of exceptions.IndexError object>"
p21
sS'__setstate__'
p22
S'<built-in method __setstate__ of exceptions.IndexError object>'
p23
sS'args'
p24
S"('list index out of range',)"
p25
sS'__reduce__'
p26
S'<built-in method __reduce__ of exceptions.IndexError object>'
p27
sS'__str__'
p28
S"<method-wrapper '__str__' of exceptions.IndexError object>"
p29
sS'__format__'
p30
S'<built-in method __format__ of exceptions.IndexError object>'
p31
sS'__getattribute__'
p32
S"<method-wrapper '__getattribute__' of exceptions.IndexError object>"
p33
sS'__class__'
p34
S"<type 'exceptions.IndexError'>"
p35
sS'__unicode__'
p36
S'<built-in method __unicode__ of exceptions.IndexError object>'
p37
sS'__delattr__'
p38
S"<method-wrapper '__delattr__' of exceptions.IndexError object>"
p39
sS'__subclasshook__'
p40
S'<built-in method __subclasshook__ of type object>'
p41
sS'__repr__'
p42
S"<method-wrapper '__repr__' of exceptions.IndexError object>"
p43
sS'__dict__'
p44
S'{}'
p45
sS'__sizeof__'
p46
S'<built-in method __sizeof__ of exceptions.IndexError object>'
p47
sS'__doc__'
p48
S"'Sequence index out of range.'"
p49
sS'__init__'
p50
S"<method-wrapper '__init__' of exceptions.IndexError object>"
p51
sS'__new__'
p52
S'<built-in method __new__ of type object>'
p53
ssS'evalue'
p54
S'list index out of range'
p55
sS'request'
p56
ccopy_reg
_reconstructor
p57
(cgluon.html
BEAUTIFY
p58
c__builtin__
object
p59
NtRp60
(dp61
S'attributes'
p62
(dp63
sS'components'
p64
(lp65
g57
(cgluon.html
TABLE
p66
g59
NtRp67
(dp68
g62
(dp69
S'level'
p70
I5
ssS'parent'
p71
Nsg64
(lp72
g57
(cgluon.html
TR
p73
g59
NtRp74
(dp75
g62
(dp76
sg71
g67
sg64
(lp77
g57
(cgluon.html
TD
p78
g59
NtRp79
(dp80
g62
(dp81
S'_style'
p82
S'font-weight:bold;vertical-align:top'
p83
ssg71
g74
sg64
(lp84
S'ajax'
p85
asbag57
(g78
g59
NtRp86
(dp87
g62
(dp88
S'_valign'
p89
S'top'
p90
ssg71
g74
sg64
(lp91
S':'
asbag57
(g78
g59
NtRp92
(dp93
g62
(dp94
sg71
g74
sg64
(lp95
g57
(g58
g59
NtRp96
(dp97
g62
(dp98
g70
I5
ssg71
g92
sg64
(lp99
S'False'
p100
asbasbasbag57
(g73
g59
NtRp101
(dp102
g62
(dp103
sg71
g67
sg64
(lp104
g57
(g78
g59
NtRp105
(dp106
g62
(dp107
g82
g83
ssg71
g101
sg64
(lp108
S'application'
p109
asbag57
(g78
g59
NtRp110
(dp111
g62
(dp112
g89
g90
ssg71
g101
sg64
(lp113
S':'
asbag57
(g78
g59
NtRp114
(dp115
g62
(dp116
sg71
g101
sg64
(lp117
g57
(g58
g59
NtRp118
(dp119
g62
(dp120
g70
I5
ssg71
g114
sg64
(lp121
S'Betsy'
p122
asbasbasbag57
(g73
g59
NtRp123
(dp124
g62
(dp125
sg71
g67
sg64
(lp126
g57
(g78
g59
NtRp127
(dp128
g62
(dp129
g82
g83
ssg71
g123
sg64
(lp130
g24
asbag57
(g78
g59
NtRp131
(dp132
g62
(dp133
g89
g90
ssg71
g123
sg64
(lp134
S':'
asbag57
(g78
g59
NtRp135
(dp136
g62
(dp137
sg71
g123
sg64
(lp138
g57
(g58
g59
NtRp139
(dp140
g62
(dp141
g70
I5
ssg71
g135
sg64
(lp142
g57
(g66
g59
NtRp143
(dp144
g62
(dp145
g70
I4
ssg71
Nsg64
(lp146
sbasbasbasbag57
(g73
g59
NtRp147
(dp148
g62
(dp149
sg71
g67
sg64
(lp150
g57
(g78
g59
NtRp151
(dp152
g62
(dp153
g82
g83
ssg71
g147
sg64
(lp154
S'body'
p155
asbag57
(g78
g59
NtRp156
(dp157
g62
(dp158
g89
g90
ssg71
g147
sg64
(lp159
S':'
asbag57
(g78
g59
NtRp160
(dp161
g62
(dp162
sg71
g147
sg64
(lp163
g57
(g58
g59
NtRp164
(dp165
g62
(dp166
g70
I5
ssg71
g160
sg64
(lp167
S'<cStringIO.StringO object at 0x1e9445a8>'
p168
asbasbasbag57
(g73
g59
NtRp169
(dp170
g62
(dp171
sg71
g67
sg64
(lp172
g57
(g78
g59
NtRp173
(dp174
g62
(dp175
g82
g83
ssg71
g169
sg64
(lp176
S'cid'
p177
asbag57
(g78
g59
NtRp178
(dp179
g62
(dp180
g89
g90
ssg71
g169
sg64
(lp181
S':'
asbag57
(g78
g59
NtRp182
(dp183
g62
(dp184
sg71
g169
sg64
(lp185
g57
(g58
g59
NtRp186
(dp187
g62
(dp188
g70
I5
ssg71
g182
sg64
(lp189
S'None'
p190
asbasbasbag57
(g73
g59
NtRp191
(dp192
g62
(dp193
sg71
g67
sg64
(lp194
g57
(g78
g59
NtRp195
(dp196
g62
(dp197
g82
g83
ssg71
g191
sg64
(lp198
S'client'
p199
asbag57
(g78
g59
NtRp200
(dp201
g62
(dp202
g89
g90
ssg71
g191
sg64
(lp203
S':'
asbag57
(g78
g59
NtRp204
(dp205
g62
(dp206
sg71
g191
sg64
(lp207
g57
(g58
g59
NtRp208
(dp209
g62
(dp210
g70
I5
ssg71
g204
sg64
(lp211
S'127.0.0.1'
p212
asbasbasbag57
(g73
g59
NtRp213
(dp214
g62
(dp215
sg71
g67
sg64
(lp216
g57
(g78
g59
NtRp217
(dp218
g62
(dp219
g82
g83
ssg71
g213
sg64
(lp220
S'controller'
p221
asbag57
(g78
g59
NtRp222
(dp223
g62
(dp224
g89
g90
ssg71
g213
sg64
(lp225
S':'
asbag57
(g78
g59
NtRp226
(dp227
g62
(dp228
sg71
g213
sg64
(lp229
g57
(g58
g59
NtRp230
(dp231
g62
(dp232
g70
I5
ssg71
g226
sg64
(lp233
S'default'
p234
asbasbasbag57
(g73
g59
NtRp235
(dp236
g62
(dp237
sg71
g67
sg64
(lp238
g57
(g78
g59
NtRp239
(dp240
g62
(dp241
g82
g83
ssg71
g235
sg64
(lp242
S'cookies'
p243
asbag57
(g78
g59
NtRp244
(dp245
g62
(dp246
g89
g90
ssg71
g235
sg64
(lp247
S':'
asbag57
(g78
g59
NtRp248
(dp249
g62
(dp250
sg71
g235
sg64
(lp251
g57
(g58
g59
NtRp252
(dp253
g62
(dp254
g70
I5
ssg71
g248
sg64
(lp255
g57
(g66
g59
NtRp256
(dp257
g62
(dp258
g70
I4
ssg71
Nsg64
(lp259
g57
(g73
g59
NtRp260
(dp261
g62
(dp262
sg71
g256
sg64
(lp263
g57
(g78
g59
NtRp264
(dp265
g62
(dp266
g82
g83
ssg71
g260
sg64
(lp267
S'session_id_admin'
p268
asbag57
(g78
g59
NtRp269
(dp270
g62
(dp271
g89
g90
ssg71
g260
sg64
(lp272
S':'
asbag57
(g78
g59
NtRp273
(dp274
g62
(dp275
sg71
g260
sg64
(lp276
g57
(g58
g59
NtRp277
(dp278
g62
(dp279
g70
I4
ssg71
g273
sg64
(lp280
S'127.0.0.1-4ff97c33-9373-41bc-bf95-984240ad1aeb'
p281
ag57
(g66
g59
NtRp282
(dp283
g62
(dp284
g70
I3
ssg71
Nsg64
(lp285
g57
(g73
g59
NtRp286
(dp287
g62
(dp288
sg71
g282
sg64
(lp289
g57
(g78
g59
NtRp290
(dp291
g62
(dp292
g82
g83
ssg71
g286
sg64
(lp293
S'comment'
p294
asbag57
(g78
g59
NtRp295
(dp296
g62
(dp297
g89
g90
ssg71
g286
sg64
(lp298
S':'
asbag57
(g78
g59
NtRp299
(dp300
g62
(dp301
sg71
g286
sg64
(lp302
g57
(g58
g59
NtRp303
(dp304
g62
(dp305
g70
I3
ssg71
g299
sg64
(lp306
S''
asbasbasbag57
(g73
g59
NtRp307
(dp308
g62
(dp309
sg71
g282
sg64
(lp310
g57
(g78
g59
NtRp311
(dp312
g62
(dp313
g82
g83
ssg71
g307
sg64
(lp314
S'domain'
p315
asbag57
(g78
g59
NtRp316
(dp317
g62
(dp318
g89
g90
ssg71
g307
sg64
(lp319
S':'
asbag57
(g78
g59
NtRp320
(dp321
g62
(dp322
sg71
g307
sg64
(lp323
g57
(g58
g59
NtRp324
(dp325
g62
(dp326
g70
I3
ssg71
g320
sg64
(lp327
S''
asbasbasbag57
(g73
g59
NtRp328
(dp329
g62
(dp330
sg71
g282
sg64
(lp331
g57
(g78
g59
NtRp332
(dp333
g62
(dp334
g82
g83
ssg71
g328
sg64
(lp335
S'expires'
p336
asbag57
(g78
g59
NtRp337
(dp338
g62
(dp339
g89
g90
ssg71
g328
sg64
(lp340
S':'
asbag57
(g78
g59
NtRp341
(dp342
g62
(dp343
sg71
g328
sg64
(lp344
g57
(g58
g59
NtRp345
(dp346
g62
(dp347
g70
I3
ssg71
g341
sg64
(lp348
S''
asbasbasbag57
(g73
g59
NtRp349
(dp350
g62
(dp351
sg71
g282
sg64
(lp352
g57
(g78
g59
NtRp353
(dp354
g62
(dp355
g82
g83
ssg71
g349
sg64
(lp356
S'httponly'
p357
asbag57
(g78
g59
NtRp358
(dp359
g62
(dp360
g89
g90
ssg71
g349
sg64
(lp361
S':'
asbag57
(g78
g59
NtRp362
(dp363
g62
(dp364
sg71
g349
sg64
(lp365
g57
(g58
g59
NtRp366
(dp367
g62
(dp368
g70
I3
ssg71
g362
sg64
(lp369
S''
asbasbasbag57
(g73
g59
NtRp370
(dp371
g62
(dp372
sg71
g282
sg64
(lp373
g57
(g78
g59
NtRp374
(dp375
g62
(dp376
g82
g83
ssg71
g370
sg64
(lp377
S'max-age'
p378
asbag57
(g78
g59
NtRp379
(dp380
g62
(dp381
g89
g90
ssg71
g370
sg64
(lp382
S':'
asbag57
(g78
g59
NtRp383
(dp384
g62
(dp385
sg71
g370
sg64
(lp386
g57
(g58
g59
NtRp387
(dp388
g62
(dp389
g70
I3
ssg71
g383
sg64
(lp390
S''
asbasbasbag57
(g73
g59
NtRp391
(dp392
g62
(dp393
sg71
g282
sg64
(lp394
g57
(g78
g59
NtRp395
(dp396
g62
(dp397
g82
g83
ssg71
g391
sg64
(lp398
S'path'
p399
asbag57
(g78
g59
NtRp400
(dp401
g62
(dp402
g89
g90
ssg71
g391
sg64
(lp403
S':'
asbag57
(g78
g59
NtRp404
(dp405
g62
(dp406
sg71
g391
sg64
(lp407
g57
(g58
g59
NtRp408
(dp409
g62
(dp410
g70
I3
ssg71
g404
sg64
(lp411
S''
asbasbasbag57
(g73
g59
NtRp412
(dp413
g62
(dp414
sg71
g282
sg64
(lp415
g57
(g78
g59
NtRp416
(dp417
g62
(dp418
g82
g83
ssg71
g412
sg64
(lp419
S'secure'
p420
asbag57
(g78
g59
NtRp421
(dp422
g62
(dp423
g89
g90
ssg71
g412
sg64
(lp424
S':'
asbag57
(g78
g59
NtRp425
(dp426
g62
(dp427
sg71
g412
sg64
(lp428
g57
(g58
g59
NtRp429
(dp430
g62
(dp431
g70
I3
ssg71
g425
sg64
(lp432
S''
asbasbasbag57
(g73
g59
NtRp433
(dp434
g62
(dp435
sg71
g282
sg64
(lp436
g57
(g78
g59
NtRp437
(dp438
g62
(dp439
g82
g83
ssg71
g433
sg64
(lp440
S'version'
p441
asbag57
(g78
g59
NtRp442
(dp443
g62
(dp444
g89
g90
ssg71
g433
sg64
(lp445
S':'
asbag57
(g78
g59
NtRp446
(dp447
g62
(dp448
sg71
g433
sg64
(lp449
g57
(g58
g59
NtRp450
(dp451
g62
(dp452
g70
I3
ssg71
g446
sg64
(lp453
S''
asbasbasbasbasbasbasbag57
(g73
g59
NtRp454
(dp455
g62
(dp456
sg71
g256
sg64
(lp457
g57
(g78
g59
NtRp458
(dp459
g62
(dp460
g82
g83
ssg71
g454
sg64
(lp461
S'session_id_betsy'
p462
asbag57
(g78
g59
NtRp463
(dp464
g62
(dp465
g89
g90
ssg71
g454
sg64
(lp466
S':'
asbag57
(g78
g59
NtRp467
(dp468
g62
(dp469
sg71
g454
sg64
(lp470
g57
(g58
g59
NtRp471
(dp472
g62
(dp473
g70
I4
ssg71
g467
sg64
(lp474
S'127.0.0.1-70d52105-0f5d-4884-a4e3-dce6830f30e0'
p475
ag57
(g66
g59
NtRp476
(dp477
g62
(dp478
g70
I3
ssg71
Nsg64
(lp479
g57
(g73
g59
NtRp480
(dp481
g62
(dp482
sg71
g476
sg64
(lp483
g57
(g78
g59
NtRp484
(dp485
g62
(dp486
g82
g83
ssg71
g480
sg64
(lp487
g294
asbag57
(g78
g59
NtRp488
(dp489
g62
(dp490
g89
g90
ssg71
g480
sg64
(lp491
S':'
asbag57
(g78
g59
NtRp492
(dp493
g62
(dp494
sg71
g480
sg64
(lp495
g57
(g58
g59
NtRp496
(dp497
g62
(dp498
g70
I3
ssg71
g492
sg64
(lp499
S''
asbasbasbag57
(g73
g59
NtRp500
(dp501
g62
(dp502
sg71
g476
sg64
(lp503
g57
(g78
g59
NtRp504
(dp505
g62
(dp506
g82
g83
ssg71
g500
sg64
(lp507
g315
asbag57
(g78
g59
NtRp508
(dp509
g62
(dp510
g89
g90
ssg71
g500
sg64
(lp511
S':'
asbag57
(g78
g59
NtRp512
(dp513
g62
(dp514
sg71
g500
sg64
(lp515
g57
(g58
g59
NtRp516
(dp517
g62
(dp518
g70
I3
ssg71
g512
sg64
(lp519
S''
asbasbasbag57
(g73
g59
NtRp520
(dp521
g62
(dp522
sg71
g476
sg64
(lp523
g57
(g78
g59
NtRp524
(dp525
g62
(dp526
g82
g83
ssg71
g520
sg64
(lp527
g336
asbag57
(g78
g59
NtRp528
(dp529
g62
(dp530
g89
g90
ssg71
g520
sg64
(lp531
S':'
asbag57
(g78
g59
NtRp532
(dp533
g62
(dp534
sg71
g520
sg64
(lp535
g57
(g58
g59
NtRp536
(dp537
g62
(dp538
g70
I3
ssg71
g532
sg64
(lp539
S''
asbasbasbag57
(g73
g59
NtRp540
(dp541
g62
(dp542
sg71
g476
sg64
(lp543
g57
(g78
g59
NtRp544
(dp545
g62
(dp546
g82
g83
ssg71
g540
sg64
(lp547
g357
asbag57
(g78
g59
NtRp548
(dp549
g62
(dp550
g89
g90
ssg71
g540
sg64
(lp551
S':'
asbag57
(g78
g59
NtRp552
(dp553
g62
(dp554
sg71
g540
sg64
(lp555
g57
(g58
g59
NtRp556
(dp557
g62
(dp558
g70
I3
ssg71
g552
sg64
(lp559
S''
asbasbasbag57
(g73
g59
NtRp560
(dp561
g62
(dp562
sg71
g476
sg64
(lp563
g57
(g78
g59
NtRp564
(dp565
g62
(dp566
g82
g83
ssg71
g560
sg64
(lp567
g378
asbag57
(g78
g59
NtRp568
(dp569
g62
(dp570
g89
g90
ssg71
g560
sg64
(lp571
S':'
asbag57
(g78
g59
NtRp572
(dp573
g62
(dp574
sg71
g560
sg64
(lp575
g57
(g58
g59
NtRp576
(dp577
g62
(dp578
g70
I3
ssg71
g572
sg64
(lp579
S''
asbasbasbag57
(g73
g59
NtRp580
(dp581
g62
(dp582
sg71
g476
sg64
(lp583
g57
(g78
g59
NtRp584
(dp585
g62
(dp586
g82
g83
ssg71
g580
sg64
(lp587
g399
asbag57
(g78
g59
NtRp588
(dp589
g62
(dp590
g89
g90
ssg71
g580
sg64
(lp591
S':'
asbag57
(g78
g59
NtRp592
(dp593
g62
(dp594
sg71
g580
sg64
(lp595
g57
(g58
g59
NtRp596
(dp597
g62
(dp598
g70
I3
ssg71
g592
sg64
(lp599
S''
asbasbasbag57
(g73
g59
NtRp600
(dp601
g62
(dp602
sg71
g476
sg64
(lp603
g57
(g78
g59
NtRp604
(dp605
g62
(dp606
g82
g83
ssg71
g600
sg64
(lp607
g420
asbag57
(g78
g59
NtRp608
(dp609
g62
(dp610
g89
g90
ssg71
g600
sg64
(lp611
S':'
asbag57
(g78
g59
NtRp612
(dp613
g62
(dp614
sg71
g600
sg64
(lp615
g57
(g58
g59
NtRp616
(dp617
g62
(dp618
g70
I3
ssg71
g612
sg64
(lp619
S''
asbasbasbag57
(g73
g59
NtRp620
(dp621
g62
(dp622
sg71
g476
sg64
(lp623
g57
(g78
g59
NtRp624
(dp625
g62
(dp626
g82
g83
ssg71
g620
sg64
(lp627
g441
asbag57
(g78
g59
NtRp628
(dp629
g62
(dp630
g89
g90
ssg71
g620
sg64
(lp631
S':'
asbag57
(g78
g59
NtRp632
(dp633
g62
(dp634
sg71
g620
sg64
(lp635
g57
(g58
g59
NtRp636
(dp637
g62
(dp638
g70
I3
ssg71
g632
sg64
(lp639
S''
asbasbasbasbasbasbasbag57
(g73
g59
NtRp640
(dp641
g62
(dp642
sg71
g256
sg64
(lp643
g57
(g78
g59
NtRp644
(dp645
g62
(dp646
g82
g83
ssg71
g640
sg64
(lp647
S'session_id_welcome'
p648
asbag57
(g78
g59
NtRp649
(dp650
g62
(dp651
g89
g90
ssg71
g640
sg64
(lp652
S':'
asbag57
(g78
g59
NtRp653
(dp654
g62
(dp655
sg71
g640
sg64
(lp656
g57
(g58
g59
NtRp657
(dp658
g62
(dp659
g70
I4
ssg71
g653
sg64
(lp660
S'127.0.0.1-533f3f4f-bab3-44d0-a5c6-4c1f3e175539'
p661
ag57
(g66
g59
NtRp662
(dp663
g62
(dp664
g70
I3
ssg71
Nsg64
(lp665
g57
(g73
g59
NtRp666
(dp667
g62
(dp668
sg71
g662
sg64
(lp669
g57
(g78
g59
NtRp670
(dp671
g62
(dp672
g82
g83
ssg71
g666
sg64
(lp673
g294
asbag57
(g78
g59
NtRp674
(dp675
g62
(dp676
g89
g90
ssg71
g666
sg64
(lp677
S':'
asbag57
(g78
g59
NtRp678
(dp679
g62
(dp680
sg71
g666
sg64
(lp681
g57
(g58
g59
NtRp682
(dp683
g62
(dp684
g70
I3
ssg71
g678
sg64
(lp685
S''
asbasbasbag57
(g73
g59
NtRp686
(dp687
g62
(dp688
sg71
g662
sg64
(lp689
g57
(g78
g59
NtRp690
(dp691
g62
(dp692
g82
g83
ssg71
g686
sg64
(lp693
g315
asbag57
(g78
g59
NtRp694
(dp695
g62
(dp696
g89
g90
ssg71
g686
sg64
(lp697
S':'
asbag57
(g78
g59
NtRp698
(dp699
g62
(dp700
sg71
g686
sg64
(lp701
g57
(g58
g59
NtRp702
(dp703
g62
(dp704
g70
I3
ssg71
g698
sg64
(lp705
S''
asbasbasbag57
(g73
g59
NtRp706
(dp707
g62
(dp708
sg71
g662
sg64
(lp709
g57
(g78
g59
NtRp710
(dp711
g62
(dp712
g82
g83
ssg71
g706
sg64
(lp713
g336
asbag57
(g78
g59
NtRp714
(dp715
g62
(dp716
g89
g90
ssg71
g706
sg64
(lp717
S':'
asbag57
(g78
g59
NtRp718
(dp719
g62
(dp720
sg71
g706
sg64
(lp721
g57
(g58
g59
NtRp722
(dp723
g62
(dp724
g70
I3
ssg71
g718
sg64
(lp725
S''
asbasbasbag57
(g73
g59
NtRp726
(dp727
g62
(dp728
sg71
g662
sg64
(lp729
g57
(g78
g59
NtRp730
(dp731
g62
(dp732
g82
g83
ssg71
g726
sg64
(lp733
g357
asbag57
(g78
g59
NtRp734
(dp735
g62
(dp736
g89
g90
ssg71
g726
sg64
(lp737
S':'
asbag57
(g78
g59
NtRp738
(dp739
g62
(dp740
sg71
g726
sg64
(lp741
g57
(g58
g59
NtRp742
(dp743
g62
(dp744
g70
I3
ssg71
g738
sg64
(lp745
S''
asbasbasbag57
(g73
g59
NtRp746
(dp747
g62
(dp748
sg71
g662
sg64
(lp749
g57
(g78
g59
NtRp750
(dp751
g62
(dp752
g82
g83
ssg71
g746
sg64
(lp753
g378
asbag57
(g78
g59
NtRp754
(dp755
g62
(dp756
g89
g90
ssg71
g746
sg64
(lp757
S':'
asbag57
(g78
g59
NtRp758
(dp759
g62
(dp760
sg71
g746
sg64
(lp761
g57
(g58
g59
NtRp762
(dp763
g62
(dp764
g70
I3
ssg71
g758
sg64
(lp765
S''
asbasbasbag57
(g73
g59
NtRp766
(dp767
g62
(dp768
sg71
g662
sg64
(lp769
g57
(g78
g59
NtRp770
(dp771
g62
(dp772
g82
g83
ssg71
g766
sg64
(lp773
g399
asbag57
(g78
g59
NtRp774
(dp775
g62
(dp776
g89
g90
ssg71
g766
sg64
(lp777
S':'
asbag57
(g78
g59
NtRp778
(dp779
g62
(dp780
sg71
g766
sg64
(lp781
g57
(g58
g59
NtRp782
(dp783
g62
(dp784
g70
I3
ssg71
g778
sg64
(lp785
S''
asbasbasbag57
(g73
g59
NtRp786
(dp787
g62
(dp788
sg71
g662
sg64
(lp789
g57
(g78
g59
NtRp790
(dp791
g62
(dp792
g82
g83
ssg71
g786
sg64
(lp793
g420
asbag57
(g78
g59
NtRp794
(dp795
g62
(dp796
g89
g90
ssg71
g786
sg64
(lp797
S':'
asbag57
(g78
g59
NtRp798
(dp799
g62
(dp800
sg71
g786
sg64
(lp801
g57
(g58
g59
NtRp802
(dp803
g62
(dp804
g70
I3
ssg71
g798
sg64
(lp805
S''
asbasbasbag57
(g73
g59
NtRp806
(dp807
g62
(dp808
sg71
g662
sg64
(lp809
g57
(g78
g59
NtRp810
(dp811
g62
(dp812
g82
g83
ssg71
g806
sg64
(lp813
g441
asbag57
(g78
g59
NtRp814
(dp815
g62
(dp816
g89
g90
ssg71
g806
sg64
(lp817
S':'
asbag57
(g78
g59
NtRp818
(dp819
g62
(dp820
sg71
g806
sg64
(lp821
g57
(g58
g59
NtRp822
(dp823
g62
(dp824
g70
I3
ssg71
g818
sg64
(lp825
S''
asbasbasbasbasbasbasbasbasbasbasbag57
(g73
g59
NtRp826
(dp827
g62
(dp828
sg71
g67
sg64
(lp829
g57
(g78
g59
NtRp830
(dp831
g62
(dp832
g82
g83
ssg71
g826
sg64
(lp833
S'env'
p834
asbag57
(g78
g59
NtRp835
(dp836
g62
(dp837
g89
g90
ssg71
g826
sg64
(lp838
S':'
asbag57
(g78
g59
NtRp839
(dp840
g62
(dp841
sg71
g826
sg64
(lp842
g57
(g58
g59
NtRp843
(dp844
g62
(dp845
g70
I5
ssg71
g839
sg64
(lp846
g57
(g66
g59
NtRp847
(dp848
g62
(dp849
g70
I4
ssg71
Nsg64
(lp850
g57
(g73
g59
NtRp851
(dp852
g62
(dp853
sg71
g847
sg64
(lp854
g57
(g78
g59
NtRp855
(dp856
g62
(dp857
g82
g83
ssg71
g851
sg64
(lp858
S'app_folders'
p859
asbag57
(g78
g59
NtRp860
(dp861
g62
(dp862
g89
g90
ssg71
g851
sg64
(lp863
S':'
asbag57
(g78
g59
NtRp864
(dp865
g62
(dp866
sg71
g851
sg64
(lp867
g57
(g58
g59
NtRp868
(dp869
g62
(dp870
g70
I4
ssg71
g864
sg64
(lp871
S"set(['/home/xchen/web2py/applications/Betsy/', '/home/xchen/web2py/applications/admin/', '/home/xchen/web2py/applications/welcome/'])"
p872
asbasbasbag57
(g73
g59
NtRp873
(dp874
g62
(dp875
sg71
g847
sg64
(lp876
g57
(g78
g59
NtRp877
(dp878
g62
(dp879
g82
g83
ssg71
g873
sg64
(lp880
S'applications_parent'
p881
asbag57
(g78
g59
NtRp882
(dp883
g62
(dp884
g89
g90
ssg71
g873
sg64
(lp885
S':'
asbag57
(g78
g59
NtRp886
(dp887
g62
(dp888
sg71
g873
sg64
(lp889
g57
(g58
g59
NtRp890
(dp891
g62
(dp892
g70
I4
ssg71
g886
sg64
(lp893
S'/home/xchen/web2py'
p894
asbasbasbag57
(g73
g59
NtRp895
(dp896
g62
(dp897
sg71
g847
sg64
(lp898
g57
(g78
g59
NtRp899
(dp900
g62
(dp901
g82
g83
ssg71
g895
sg64
(lp902
S'cmd_args'
p903
asbag57
(g78
g59
NtRp904
(dp905
g62
(dp906
g89
g90
ssg71
g895
sg64
(lp907
S':'
asbag57
(g78
g59
NtRp908
(dp909
g62
(dp910
sg71
g895
sg64
(lp911
g57
(g58
g59
NtRp912
(dp913
g62
(dp914
g70
I4
ssg71
g908
sg64
(lp915
g57
(g66
g59
NtRp916
(dp917
g62
(dp918
g70
I3
ssg71
Nsg64
(lp919
sbasbasbasbag57
(g73
g59
NtRp920
(dp921
g62
(dp922
sg71
g847
sg64
(lp923
g57
(g78
g59
NtRp924
(dp925
g62
(dp926
g82
g83
ssg71
g920
sg64
(lp927
S'cmd_options'
p928
asbag57
(g78
g59
NtRp929
(dp930
g62
(dp931
g89
g90
ssg71
g920
sg64
(lp932
S':'
asbag57
(g78
g59
NtRp933
(dp934
g62
(dp935
sg71
g920
sg64
(lp936
g57
(g58
g59
NtRp937
(dp938
g62
(dp939
g70
I4
ssg71
g933
sg64
(lp940
S"<Values at 0x19e61e18: {'verbose': False, 'ip': '127.0.0.1', 'with_scheduler': False, 'ips': [], 'shutdown_timeout': 5, 'taskbar': False, 'port': 8080, 'maxthreads': None, 'softcron': False, 'server_name': 'unicron.shis.uth.tmc.edu', 'bpython': False, 'nogui': False, 'pid_filename': 'httpserver.pid', 'extcron': False, 'runcron': False, 'run_system_tests': False, 'test': None, 'folder': '/home/xchen/web2py', 'config': '', 'minthreads': None, 'winservice': '', 'shell': None, 'run': '', 'log_filename': 'httpserver.log', 'debuglevel': 30, 'args': [''], 'socket_timeout': 5, 'ssl_ca_certificate': None, 'scheduler': None, 'profiler_filename': None, 'ssl_private_key': '', 'scheduler_groups': None, 'password': 'baby2008', 'request_queue_size': 5, 'ssl_certificate': '', 'cronjob': False, 'numthreads': None, 'quiet': False, 'interfaces': None, 'import_models': False, 'timeout': 10, 'plain': False, 'nobanner': False}>"
p941
asbasbasbag57
(g73
g59
NtRp942
(dp943
g62
(dp944
sg71
g847
sg64
(lp945
g57
(g78
g59
NtRp946
(dp947
g62
(dp948
g82
g83
ssg71
g942
sg64
(lp949
S'db_sessions'
p950
asbag57
(g78
g59
NtRp951
(dp952
g62
(dp953
g89
g90
ssg71
g942
sg64
(lp954
S':'
asbag57
(g78
g59
NtRp955
(dp956
g62
(dp957
sg71
g942
sg64
(lp958
g57
(g58
g59
NtRp959
(dp960
g62
(dp961
g70
I4
ssg71
g955
sg64
(lp962
S'set([])'
p963
asbasbasbag57
(g73
g59
NtRp964
(dp965
g62
(dp966
sg71
g847
sg64
(lp967
g57
(g78
g59
NtRp968
(dp969
g62
(dp970
g82
g83
ssg71
g964
sg64
(lp971
S'debugging'
p972
asbag57
(g78
g59
NtRp973
(dp974
g62
(dp975
g89
g90
ssg71
g964
sg64
(lp976
S':'
asbag57
(g78
g59
NtRp977
(dp978
g62
(dp979
sg71
g964
sg64
(lp980
g57
(g58
g59
NtRp981
(dp982
g62
(dp983
g70
I4
ssg71
g977
sg64
(lp984
g100
asbasbasbag57
(g73
g59
NtRp985
(dp986
g62
(dp987
sg71
g847
sg64
(lp988
g57
(g78
g59
NtRp989
(dp990
g62
(dp991
g82
g83
ssg71
g985
sg64
(lp992
S'gluon_parent'
p993
asbag57
(g78
g59
NtRp994
(dp995
g62
(dp996
g89
g90
ssg71
g985
sg64
(lp997
S':'
asbag57
(g78
g59
NtRp998
(dp999
g62
(dp1000
sg71
g985
sg64
(lp1001
g57
(g58
g59
NtRp1002
(dp1003
g62
(dp1004
g70
I4
ssg71
g998
sg64
(lp1005
S'/home/xchen/web2py'
p1006
asbasbasbag57
(g73
g59
NtRp1007
(dp1008
g62
(dp1009
sg71
g847
sg64
(lp1010
g57
(g78
g59
NtRp1011
(dp1012
g62
(dp1013
g82
g83
ssg71
g1007
sg64
(lp1014
S'http_accept'
p1015
asbag57
(g78
g59
NtRp1016
(dp1017
g62
(dp1018
g89
g90
ssg71
g1007
sg64
(lp1019
S':'
asbag57
(g78
g59
NtRp1020
(dp1021
g62
(dp1022
sg71
g1007
sg64
(lp1023
g57
(g58
g59
NtRp1024
(dp1025
g62
(dp1026
g70
I4
ssg71
g1020
sg64
(lp1027
S'text/html,application/xhtml+xml,application/xml;q=0.9,*/*;q=0.8'
p1028
asbasbasbag57
(g73
g59
NtRp1029
(dp1030
g62
(dp1031
sg71
g847
sg64
(lp1032
g57
(g78
g59
NtRp1033
(dp1034
g62
(dp1035
g82
g83
ssg71
g1029
sg64
(lp1036
S'http_accept_encoding'
p1037
asbag57
(g78
g59
NtRp1038
(dp1039
g62
(dp1040
g89
g90
ssg71
g1029
sg64
(lp1041
S':'
asbag57
(g78
g59
NtRp1042
(dp1043
g62
(dp1044
sg71
g1029
sg64
(lp1045
g57
(g58
g59
NtRp1046
(dp1047
g62
(dp1048
g70
I4
ssg71
g1042
sg64
(lp1049
S'gzip, deflate'
p1050
asbasbasbag57
(g73
g59
NtRp1051
(dp1052
g62
(dp1053
sg71
g847
sg64
(lp1054
g57
(g78
g59
NtRp1055
(dp1056
g62
(dp1057
g82
g83
ssg71
g1051
sg64
(lp1058
S'http_accept_language'
p1059
asbag57
(g78
g59
NtRp1060
(dp1061
g62
(dp1062
g89
g90
ssg71
g1051
sg64
(lp1063
S':'
asbag57
(g78
g59
NtRp1064
(dp1065
g62
(dp1066
sg71
g1051
sg64
(lp1067
g57
(g58
g59
NtRp1068
(dp1069
g62
(dp1070
g70
I4
ssg71
g1064
sg64
(lp1071
S'en-US,en;q=0.5'
p1072
asbasbasbag57
(g73
g59
NtRp1073
(dp1074
g62
(dp1075
sg71
g847
sg64
(lp1076
g57
(g78
g59
NtRp1077
(dp1078
g62
(dp1079
g82
g83
ssg71
g1073
sg64
(lp1080
S'http_connection'
p1081
asbag57
(g78
g59
NtRp1082
(dp1083
g62
(dp1084
g89
g90
ssg71
g1073
sg64
(lp1085
S':'
asbag57
(g78
g59
NtRp1086
(dp1087
g62
(dp1088
sg71
g1073
sg64
(lp1089
g57
(g58
g59
NtRp1090
(dp1091
g62
(dp1092
g70
I4
ssg71
g1086
sg64
(lp1093
S'keep-alive'
p1094
asbasbasbag57
(g73
g59
NtRp1095
(dp1096
g62
(dp1097
sg71
g847
sg64
(lp1098
g57
(g78
g59
NtRp1099
(dp1100
g62
(dp1101
g82
g83
ssg71
g1095
sg64
(lp1102
S'http_cookie'
p1103
asbag57
(g78
g59
NtRp1104
(dp1105
g62
(dp1106
g89
g90
ssg71
g1095
sg64
(lp1107
S':'
asbag57
(g78
g59
NtRp1108
(dp1109
g62
(dp1110
sg71
g1095
sg64
(lp1111
g57
(g58
g59
NtRp1112
(dp1113
g62
(dp1114
g70
I4
ssg71
g1108
sg64
(lp1115
S'session_id_betsy=127.0.0.1-70d52105-0f5d-4884-a4e3-dce6830f30e0; session_id_admin=127.0.0.1-4ff97c33-9373-41bc-bf95-984240ad1aeb; session_id_welcome=127.0.0.1-533f3f4f-bab3-44d0-a5c6-4c1f3e175539'
p1116
asbasbasbag57
(g73
g59
NtRp1117
(dp1118
g62
(dp1119
sg71
g847
sg64
(lp1120
g57
(g78
g59
NtRp1121
(dp1122
g62
(dp1123
g82
g83
ssg71
g1117
sg64
(lp1124
S'http_host'
p1125
asbag57
(g78
g59
NtRp1126
(dp1127
g62
(dp1128
g89
g90
ssg71
g1117
sg64
(lp1129
S':'
asbag57
(g78
g59
NtRp1130
(dp1131
g62
(dp1132
sg71
g1117
sg64
(lp1133
g57
(g58
g59
NtRp1134
(dp1135
g62
(dp1136
g70
I4
ssg71
g1130
sg64
(lp1137
S'localhost:8080'
p1138
asbasbasbag57
(g73
g59
NtRp1139
(dp1140
g62
(dp1141
sg71
g847
sg64
(lp1142
g57
(g78
g59
NtRp1143
(dp1144
g62
(dp1145
g82
g83
ssg71
g1139
sg64
(lp1146
S'http_referer'
p1147
asbag57
(g78
g59
NtRp1148
(dp1149
g62
(dp1150
g89
g90
ssg71
g1139
sg64
(lp1151
S':'
asbag57
(g78
g59
NtRp1152
(dp1153
g62
(dp1154
sg71
g1139
sg64
(lp1155
g57
(g58
g59
NtRp1156
(dp1157
g62
(dp1158
g70
I4
ssg71
g1152
sg64
(lp1159
S'http://localhost:8080/Betsy/default/first'
p1160
asbasbasbag57
(g73
g59
NtRp1161
(dp1162
g62
(dp1163
sg71
g847
sg64
(lp1164
g57
(g78
g59
NtRp1165
(dp1166
g62
(dp1167
g82
g83
ssg71
g1161
sg64
(lp1168
S'http_user_agent'
p1169
asbag57
(g78
g59
NtRp1170
(dp1171
g62
(dp1172
g89
g90
ssg71
g1161
sg64
(lp1173
S':'
asbag57
(g78
g59
NtRp1174
(dp1175
g62
(dp1176
sg71
g1161
sg64
(lp1177
g57
(g58
g59
NtRp1178
(dp1179
g62
(dp1180
g70
I4
ssg71
g1174
sg64
(lp1181
S'Mozilla/5.0 (Macintosh; Intel Mac OS X 10.6; rv:18.0) Gecko/20100101 Firefox/18.0'
p1182
asbasbasbag57
(g73
g59
NtRp1183
(dp1184
g62
(dp1185
sg71
g847
sg64
(lp1186
g57
(g78
g59
NtRp1187
(dp1188
g62
(dp1189
g82
g83
ssg71
g1183
sg64
(lp1190
S'is_jython'
p1191
asbag57
(g78
g59
NtRp1192
(dp1193
g62
(dp1194
g89
g90
ssg71
g1183
sg64
(lp1195
S':'
asbag57
(g78
g59
NtRp1196
(dp1197
g62
(dp1198
sg71
g1183
sg64
(lp1199
g57
(g58
g59
NtRp1200
(dp1201
g62
(dp1202
g70
I4
ssg71
g1196
sg64
(lp1203
g100
asbasbasbag57
(g73
g59
NtRp1204
(dp1205
g62
(dp1206
sg71
g847
sg64
(lp1207
g57
(g78
g59
NtRp1208
(dp1209
g62
(dp1210
g82
g83
ssg71
g1204
sg64
(lp1211
S'is_pypy'
p1212
asbag57
(g78
g59
NtRp1213
(dp1214
g62
(dp1215
g89
g90
ssg71
g1204
sg64
(lp1216
S':'
asbag57
(g78
g59
NtRp1217
(dp1218
g62
(dp1219
sg71
g1204
sg64
(lp1220
g57
(g58
g59
NtRp1221
(dp1222
g62
(dp1223
g70
I4
ssg71
g1217
sg64
(lp1224
g100
asbasbasbag57
(g73
g59
NtRp1225
(dp1226
g62
(dp1227
sg71
g847
sg64
(lp1228
g57
(g78
g59
NtRp1229
(dp1230
g62
(dp1231
g82
g83
ssg71
g1225
sg64
(lp1232
S'local_hosts'
p1233
asbag57
(g78
g59
NtRp1234
(dp1235
g62
(dp1236
g89
g90
ssg71
g1225
sg64
(lp1237
S':'
asbag57
(g78
g59
NtRp1238
(dp1239
g62
(dp1240
sg71
g1225
sg64
(lp1241
g57
(g58
g59
NtRp1242
(dp1243
g62
(dp1244
g70
I4
ssg71
g1238
sg64
(lp1245
g57
(g66
g59
NtRp1246
(dp1247
g62
(dp1248
g70
I3
ssg71
Nsg64
(lp1249
g57
(g73
g59
NtRp1250
(dp1251
g62
(dp1252
sg71
g1246
sg64
(lp1253
g57
(g78
g59
NtRp1254
(dp1255
g62
(dp1256
sg71
g1250
sg64
(lp1257
g57
(g58
g59
NtRp1258
(dp1259
g62
(dp1260
g70
I3
ssg71
g1254
sg64
(lp1261
S'127.0.0.1'
p1262
asbasbasbag57
(g73
g59
NtRp1263
(dp1264
g62
(dp1265
sg71
g1246
sg64
(lp1266
g57
(g78
g59
NtRp1267
(dp1268
g62
(dp1269
sg71
g1263
sg64
(lp1270
g57
(g58
g59
NtRp1271
(dp1272
g62
(dp1273
g70
I3
ssg71
g1267
sg64
(lp1274
S'::ffff:127.0.0.1'
p1275
asbasbasbag57
(g73
g59
NtRp1276
(dp1277
g62
(dp1278
sg71
g1246
sg64
(lp1279
g57
(g78
g59
NtRp1280
(dp1281
g62
(dp1282
sg71
g1276
sg64
(lp1283
g57
(g58
g59
NtRp1284
(dp1285
g62
(dp1286
g70
I3
ssg71
g1280
sg64
(lp1287
S'unicron.shis.uth.tmc.edu'
p1288
asbasbasbag57
(g73
g59
NtRp1289
(dp1290
g62
(dp1291
sg71
g1246
sg64
(lp1292
g57
(g78
g59
NtRp1293
(dp1294
g62
(dp1295
sg71
g1289
sg64
(lp1296
g57
(g58
g59
NtRp1297
(dp1298
g62
(dp1299
g70
I3
ssg71
g1293
sg64
(lp1300
S'unicron.shis.uth.tmc.edu'
p1301
asbasbasbag57
(g73
g59
NtRp1302
(dp1303
g62
(dp1304
sg71
g1246
sg64
(lp1305
g57
(g78
g59
NtRp1306
(dp1307
g62
(dp1308
sg71
g1302
sg64
(lp1309
g57
(g58
g59
NtRp1310
(dp1311
g62
(dp1312
g70
I3
ssg71
g1306
sg64
(lp1313
S'127.0.0.1'
p1314
asbasbasbasbasbasbasbag57
(g73
g59
NtRp1315
(dp1316
g62
(dp1317
sg71
g847
sg64
(lp1318
g57
(g78
g59
NtRp1319
(dp1320
g62
(dp1321
g82
g83
ssg71
g1315
sg64
(lp1322
S'path_info'
p1323
asbag57
(g78
g59
NtRp1324
(dp1325
g62
(dp1326
g89
g90
ssg71
g1315
sg64
(lp1327
S':'
asbag57
(g78
g59
NtRp1328
(dp1329
g62
(dp1330
sg71
g1315
sg64
(lp1331
g57
(g58
g59
NtRp1332
(dp1333
g62
(dp1334
g70
I4
ssg71
g1328
sg64
(lp1335
S'/Betsy/default/show_status'
p1336
asbasbasbag57
(g73
g59
NtRp1337
(dp1338
g62
(dp1339
sg71
g847
sg64
(lp1340
g57
(g78
g59
NtRp1341
(dp1342
g62
(dp1343
g82
g83
ssg71
g1337
sg64
(lp1344
S'query_string'
p1345
asbag57
(g78
g59
NtRp1346
(dp1347
g62
(dp1348
g89
g90
ssg71
g1337
sg64
(lp1349
S':'
asbag57
(g78
g59
NtRp1350
(dp1351
g62
(dp1352
sg71
g1337
sg64
(lp1353
g57
(g58
g59
NtRp1354
(dp1355
g62
(dp1356
g70
I4
ssg71
g1350
sg64
(lp1357
S''
asbasbasbag57
(g73
g59
NtRp1358
(dp1359
g62
(dp1360
sg71
g847
sg64
(lp1361
g57
(g78
g59
NtRp1362
(dp1363
g62
(dp1364
g82
g83
ssg71
g1358
sg64
(lp1365
S'remote_addr'
p1366
asbag57
(g78
g59
NtRp1367
(dp1368
g62
(dp1369
g89
g90
ssg71
g1358
sg64
(lp1370
S':'
asbag57
(g78
g59
NtRp1371
(dp1372
g62
(dp1373
sg71
g1358
sg64
(lp1374
g57
(g58
g59
NtRp1375
(dp1376
g62
(dp1377
g70
I4
ssg71
g1371
sg64
(lp1378
g212
asbasbasbag57
(g73
g59
NtRp1379
(dp1380
g62
(dp1381
sg71
g847
sg64
(lp1382
g57
(g78
g59
NtRp1383
(dp1384
g62
(dp1385
g82
g83
ssg71
g1379
sg64
(lp1386
S'remote_port'
p1387
asbag57
(g78
g59
NtRp1388
(dp1389
g62
(dp1390
g89
g90
ssg71
g1379
sg64
(lp1391
S':'
asbag57
(g78
g59
NtRp1392
(dp1393
g62
(dp1394
sg71
g1379
sg64
(lp1395
g57
(g58
g59
NtRp1396
(dp1397
g62
(dp1398
g70
I4
ssg71
g1392
sg64
(lp1399
S'53028'
p1400
asbasbasbag57
(g73
g59
NtRp1401
(dp1402
g62
(dp1403
sg71
g847
sg64
(lp1404
g57
(g78
g59
NtRp1405
(dp1406
g62
(dp1407
g82
g83
ssg71
g1401
sg64
(lp1408
S'request_method'
p1409
asbag57
(g78
g59
NtRp1410
(dp1411
g62
(dp1412
g89
g90
ssg71
g1401
sg64
(lp1413
S':'
asbag57
(g78
g59
NtRp1414
(dp1415
g62
(dp1416
sg71
g1401
sg64
(lp1417
g57
(g58
g59
NtRp1418
(dp1419
g62
(dp1420
g70
I4
ssg71
g1414
sg64
(lp1421
S'GET'
p1422
asbasbasbag57
(g73
g59
NtRp1423
(dp1424
g62
(dp1425
sg71
g847
sg64
(lp1426
g57
(g78
g59
NtRp1427
(dp1428
g62
(dp1429
g82
g83
ssg71
g1423
sg64
(lp1430
S'request_uri'
p1431
asbag57
(g78
g59
NtRp1432
(dp1433
g62
(dp1434
g89
g90
ssg71
g1423
sg64
(lp1435
S':'
asbag57
(g78
g59
NtRp1436
(dp1437
g62
(dp1438
sg71
g1423
sg64
(lp1439
g57
(g58
g59
NtRp1440
(dp1441
g62
(dp1442
g70
I4
ssg71
g1436
sg64
(lp1443
g1336
asbasbasbag57
(g73
g59
NtRp1444
(dp1445
g62
(dp1446
sg71
g847
sg64
(lp1447
g57
(g78
g59
NtRp1448
(dp1449
g62
(dp1450
g82
g83
ssg71
g1444
sg64
(lp1451
S'script_name'
p1452
asbag57
(g78
g59
NtRp1453
(dp1454
g62
(dp1455
g89
g90
ssg71
g1444
sg64
(lp1456
S':'
asbag57
(g78
g59
NtRp1457
(dp1458
g62
(dp1459
sg71
g1444
sg64
(lp1460
g57
(g58
g59
NtRp1461
(dp1462
g62
(dp1463
g70
I4
ssg71
g1457
sg64
(lp1464
S''
asbasbasbag57
(g73
g59
NtRp1465
(dp1466
g62
(dp1467
sg71
g847
sg64
(lp1468
g57
(g78
g59
NtRp1469
(dp1470
g62
(dp1471
g82
g83
ssg71
g1465
sg64
(lp1472
S'server_name'
p1473
asbag57
(g78
g59
NtRp1474
(dp1475
g62
(dp1476
g89
g90
ssg71
g1465
sg64
(lp1477
S':'
asbag57
(g78
g59
NtRp1478
(dp1479
g62
(dp1480
sg71
g1465
sg64
(lp1481
g57
(g58
g59
NtRp1482
(dp1483
g62
(dp1484
g70
I4
ssg71
g1478
sg64
(lp1485
g1301
asbasbasbag57
(g73
g59
NtRp1486
(dp1487
g62
(dp1488
sg71
g847
sg64
(lp1489
g57
(g78
g59
NtRp1490
(dp1491
g62
(dp1492
g82
g83
ssg71
g1486
sg64
(lp1493
S'server_port'
p1494
asbag57
(g78
g59
NtRp1495
(dp1496
g62
(dp1497
g89
g90
ssg71
g1486
sg64
(lp1498
S':'
asbag57
(g78
g59
NtRp1499
(dp1500
g62
(dp1501
sg71
g1486
sg64
(lp1502
g57
(g58
g59
NtRp1503
(dp1504
g62
(dp1505
g70
I4
ssg71
g1499
sg64
(lp1506
S'8080'
p1507
asbasbasbag57
(g73
g59
NtRp1508
(dp1509
g62
(dp1510
sg71
g847
sg64
(lp1511
g57
(g78
g59
NtRp1512
(dp1513
g62
(dp1514
g82
g83
ssg71
g1508
sg64
(lp1515
S'server_protocol'
p1516
asbag57
(g78
g59
NtRp1517
(dp1518
g62
(dp1519
g89
g90
ssg71
g1508
sg64
(lp1520
S':'
asbag57
(g78
g59
NtRp1521
(dp1522
g62
(dp1523
sg71
g1508
sg64
(lp1524
g57
(g58
g59
NtRp1525
(dp1526
g62
(dp1527
g70
I4
ssg71
g1521
sg64
(lp1528
S'HTTP/1.1'
p1529
asbasbasbag57
(g73
g59
NtRp1530
(dp1531
g62
(dp1532
sg71
g847
sg64
(lp1533
g57
(g78
g59
NtRp1534
(dp1535
g62
(dp1536
g82
g83
ssg71
g1530
sg64
(lp1537
S'server_software'
p1538
asbag57
(g78
g59
NtRp1539
(dp1540
g62
(dp1541
g89
g90
ssg71
g1530
sg64
(lp1542
S':'
asbag57
(g78
g59
NtRp1543
(dp1544
g62
(dp1545
sg71
g1530
sg64
(lp1546
g57
(g58
g59
NtRp1547
(dp1548
g62
(dp1549
g70
I4
ssg71
g1543
sg64
(lp1550
S'Rocket 1.2.5'
p1551
asbasbasbag57
(g73
g59
NtRp1552
(dp1553
g62
(dp1554
sg71
g847
sg64
(lp1555
g57
(g78
g59
NtRp1556
(dp1557
g62
(dp1558
g82
g83
ssg71
g1552
sg64
(lp1559
S'web2py_path'
p1560
asbag57
(g78
g59
NtRp1561
(dp1562
g62
(dp1563
g89
g90
ssg71
g1552
sg64
(lp1564
S':'
asbag57
(g78
g59
NtRp1565
(dp1566
g62
(dp1567
sg71
g1552
sg64
(lp1568
g57
(g58
g59
NtRp1569
(dp1570
g62
(dp1571
g70
I4
ssg71
g1565
sg64
(lp1572
g894
asbasbasbag57
(g73
g59
NtRp1573
(dp1574
g62
(dp1575
sg71
g847
sg64
(lp1576
g57
(g78
g59
NtRp1577
(dp1578
g62
(dp1579
g82
g83
ssg71
g1573
sg64
(lp1580
S'web2py_version'
p1581
asbag57
(g78
g59
NtRp1582
(dp1583
g62
(dp1584
g89
g90
ssg71
g1573
sg64
(lp1585
S':'
asbag57
(g78
g59
NtRp1586
(dp1587
g62
(dp1588
sg71
g1573
sg64
(lp1589
g57
(g58
g59
NtRp1590
(dp1591
g62
(dp1592
g70
I4
ssg71
g1586
sg64
(lp1593
g57
(g66
g59
NtRp1594
(dp1595
g62
(dp1596
g70
I3
ssg71
Nsg64
(lp1597
g57
(g73
g59
NtRp1598
(dp1599
g62
(dp1600
sg71
g1594
sg64
(lp1601
g57
(g78
g59
NtRp1602
(dp1603
g62
(dp1604
sg71
g1598
sg64
(lp1605
g57
(g58
g59
NtRp1606
(dp1607
g62
(dp1608
g70
I3
ssg71
g1602
sg64
(lp1609
S'2'
asbasbasbag57
(g73
g59
NtRp1610
(dp1611
g62
(dp1612
sg71
g1594
sg64
(lp1613
g57
(g78
g59
NtRp1614
(dp1615
g62
(dp1616
sg71
g1610
sg64
(lp1617
g57
(g58
g59
NtRp1618
(dp1619
g62
(dp1620
g70
I3
ssg71
g1614
sg64
(lp1621
S'2'
asbasbasbag57
(g73
g59
NtRp1622
(dp1623
g62
(dp1624
sg71
g1594
sg64
(lp1625
g57
(g78
g59
NtRp1626
(dp1627
g62
(dp1628
sg71
g1622
sg64
(lp1629
g57
(g58
g59
NtRp1630
(dp1631
g62
(dp1632
g70
I3
ssg71
g1626
sg64
(lp1633
S'1'
asbasbasbag57
(g73
g59
NtRp1634
(dp1635
g62
(dp1636
sg71
g1594
sg64
(lp1637
g57
(g78
g59
NtRp1638
(dp1639
g62
(dp1640
sg71
g1634
sg64
(lp1641
g57
(g58
g59
NtRp1642
(dp1643
g62
(dp1644
g70
I3
ssg71
g1638
sg64
(lp1645
S'datetime.datetime(2012, 10, 21, 16, 57, 4)'
p1646
asbasbasbag57
(g73
g59
NtRp1647
(dp1648
g62
(dp1649
sg71
g1594
sg64
(lp1650
g57
(g78
g59
NtRp1651
(dp1652
g62
(dp1653
sg71
g1647
sg64
(lp1654
g57
(g58
g59
NtRp1655
(dp1656
g62
(dp1657
g70
I3
ssg71
g1651
sg64
(lp1658
S'stable'
p1659
asbasbasbasbasbasbasbag57
(g73
g59
NtRp1660
(dp1661
g62
(dp1662
sg71
g847
sg64
(lp1663
g57
(g78
g59
NtRp1664
(dp1665
g62
(dp1666
g82
g83
ssg71
g1660
sg64
(lp1667
S'wsgi_errors'
p1668
asbag57
(g78
g59
NtRp1669
(dp1670
g62
(dp1671
g89
g90
ssg71
g1660
sg64
(lp1672
S':'
asbag57
(g78
g59
NtRp1673
(dp1674
g62
(dp1675
sg71
g1660
sg64
(lp1676
g57
(g58
g59
NtRp1677
(dp1678
g62
(dp1679
g70
I4
ssg71
g1673
sg64
(lp1680
S"<open file '<stderr>', mode 'w' at 0x2b1166cb5270>"
p1681
asbasbasbag57
(g73
g59
NtRp1682
(dp1683
g62
(dp1684
sg71
g847
sg64
(lp1685
g57
(g78
g59
NtRp1686
(dp1687
g62
(dp1688
g82
g83
ssg71
g1682
sg64
(lp1689
S'wsgi_file_wrapper'
p1690
asbag57
(g78
g59
NtRp1691
(dp1692
g62
(dp1693
g89
g90
ssg71
g1682
sg64
(lp1694
S':'
asbag57
(g78
g59
NtRp1695
(dp1696
g62
(dp1697
sg71
g1682
sg64
(lp1698
g57
(g58
g59
NtRp1699
(dp1700
g62
(dp1701
g70
I4
ssg71
g1695
sg64
(lp1702
S'<class wsgiref.util.FileWrapper at 0x19dbfa78>'
p1703
asbasbasbag57
(g73
g59
NtRp1704
(dp1705
g62
(dp1706
sg71
g847
sg64
(lp1707
g57
(g78
g59
NtRp1708
(dp1709
g62
(dp1710
g82
g83
ssg71
g1704
sg64
(lp1711
S'wsgi_input'
p1712
asbag57
(g78
g59
NtRp1713
(dp1714
g62
(dp1715
g89
g90
ssg71
g1704
sg64
(lp1716
S':'
asbag57
(g78
g59
NtRp1717
(dp1718
g62
(dp1719
sg71
g1704
sg64
(lp1720
g57
(g58
g59
NtRp1721
(dp1722
g62
(dp1723
g70
I4
ssg71
g1717
sg64
(lp1724
S'<socket._fileobject object at 0x1ac4cf50>'
p1725
asbasbasbag57
(g73
g59
NtRp1726
(dp1727
g62
(dp1728
sg71
g847
sg64
(lp1729
g57
(g78
g59
NtRp1730
(dp1731
g62
(dp1732
g82
g83
ssg71
g1726
sg64
(lp1733
S'wsgi_multiprocess'
p1734
asbag57
(g78
g59
NtRp1735
(dp1736
g62
(dp1737
g89
g90
ssg71
g1726
sg64
(lp1738
S':'
asbag57
(g78
g59
NtRp1739
(dp1740
g62
(dp1741
sg71
g1726
sg64
(lp1742
g57
(g58
g59
NtRp1743
(dp1744
g62
(dp1745
g70
I4
ssg71
g1739
sg64
(lp1746
g100
asbasbasbag57
(g73
g59
NtRp1747
(dp1748
g62
(dp1749
sg71
g847
sg64
(lp1750
g57
(g78
g59
NtRp1751
(dp1752
g62
(dp1753
g82
g83
ssg71
g1747
sg64
(lp1754
S'wsgi_multithread'
p1755
asbag57
(g78
g59
NtRp1756
(dp1757
g62
(dp1758
g89
g90
ssg71
g1747
sg64
(lp1759
S':'
asbag57
(g78
g59
NtRp1760
(dp1761
g62
(dp1762
sg71
g1747
sg64
(lp1763
g57
(g58
g59
NtRp1764
(dp1765
g62
(dp1766
g70
I4
ssg71
g1760
sg64
(lp1767
S'True'
p1768
asbasbasbag57
(g73
g59
NtRp1769
(dp1770
g62
(dp1771
sg71
g847
sg64
(lp1772
g57
(g78
g59
NtRp1773
(dp1774
g62
(dp1775
g82
g83
ssg71
g1769
sg64
(lp1776
S'wsgi_run_once'
p1777
asbag57
(g78
g59
NtRp1778
(dp1779
g62
(dp1780
g89
g90
ssg71
g1769
sg64
(lp1781
S':'
asbag57
(g78
g59
NtRp1782
(dp1783
g62
(dp1784
sg71
g1769
sg64
(lp1785
g57
(g58
g59
NtRp1786
(dp1787
g62
(dp1788
g70
I4
ssg71
g1782
sg64
(lp1789
g100
asbasbasbag57
(g73
g59
NtRp1790
(dp1791
g62
(dp1792
sg71
g847
sg64
(lp1793
g57
(g78
g59
NtRp1794
(dp1795
g62
(dp1796
g82
g83
ssg71
g1790
sg64
(lp1797
S'wsgi_url_scheme'
p1798
asbag57
(g78
g59
NtRp1799
(dp1800
g62
(dp1801
g89
g90
ssg71
g1790
sg64
(lp1802
S':'
asbag57
(g78
g59
NtRp1803
(dp1804
g62
(dp1805
sg71
g1790
sg64
(lp1806
g57
(g58
g59
NtRp1807
(dp1808
g62
(dp1809
g70
I4
ssg71
g1803
sg64
(lp1810
S'http'
p1811
asbasbasbag57
(g73
g59
NtRp1812
(dp1813
g62
(dp1814
sg71
g847
sg64
(lp1815
g57
(g78
g59
NtRp1816
(dp1817
g62
(dp1818
g82
g83
ssg71
g1812
sg64
(lp1819
S'wsgi_version'
p1820
asbag57
(g78
g59
NtRp1821
(dp1822
g62
(dp1823
g89
g90
ssg71
g1812
sg64
(lp1824
S':'
asbag57
(g78
g59
NtRp1825
(dp1826
g62
(dp1827
sg71
g1812
sg64
(lp1828
g57
(g58
g59
NtRp1829
(dp1830
g62
(dp1831
g70
I4
ssg71
g1825
sg64
(lp1832
g57
(g66
g59
NtRp1833
(dp1834
g62
(dp1835
g70
I3
ssg71
Nsg64
(lp1836
g57
(g73
g59
NtRp1837
(dp1838
g62
(dp1839
sg71
g1833
sg64
(lp1840
g57
(g78
g59
NtRp1841
(dp1842
g62
(dp1843
sg71
g1837
sg64
(lp1844
g57
(g58
g59
NtRp1845
(dp1846
g62
(dp1847
g70
I3
ssg71
g1841
sg64
(lp1848
S'1'
asbasbasbag57
(g73
g59
NtRp1849
(dp1850
g62
(dp1851
sg71
g1833
sg64
(lp1852
g57
(g78
g59
NtRp1853
(dp1854
g62
(dp1855
sg71
g1849
sg64
(lp1856
g57
(g58
g59
NtRp1857
(dp1858
g62
(dp1859
g70
I3
ssg71
g1853
sg64
(lp1860
S'0'
asbasbasbasbasbasbasbasbasbasbasbag57
(g73
g59
NtRp1861
(dp1862
g62
(dp1863
sg71
g67
sg64
(lp1864
g57
(g78
g59
NtRp1865
(dp1866
g62
(dp1867
g82
g83
ssg71
g1861
sg64
(lp1868
S'extension'
p1869
asbag57
(g78
g59
NtRp1870
(dp1871
g62
(dp1872
g89
g90
ssg71
g1861
sg64
(lp1873
S':'
asbag57
(g78
g59
NtRp1874
(dp1875
g62
(dp1876
sg71
g1861
sg64
(lp1877
g57
(g58
g59
NtRp1878
(dp1879
g62
(dp1880
g70
I5
ssg71
g1874
sg64
(lp1881
S'html'
p1882
asbasbasbag57
(g73
g59
NtRp1883
(dp1884
g62
(dp1885
sg71
g67
sg64
(lp1886
g57
(g78
g59
NtRp1887
(dp1888
g62
(dp1889
g82
g83
ssg71
g1883
sg64
(lp1890
S'folder'
p1891
asbag57
(g78
g59
NtRp1892
(dp1893
g62
(dp1894
g89
g90
ssg71
g1883
sg64
(lp1895
S':'
asbag57
(g78
g59
NtRp1896
(dp1897
g62
(dp1898
sg71
g1883
sg64
(lp1899
g57
(g58
g59
NtRp1900
(dp1901
g62
(dp1902
g70
I5
ssg71
g1896
sg64
(lp1903
S'/home/xchen/web2py/applications/Betsy/'
p1904
asbasbasbag57
(g73
g59
NtRp1905
(dp1906
g62
(dp1907
sg71
g67
sg64
(lp1908
g57
(g78
g59
NtRp1909
(dp1910
g62
(dp1911
g82
g83
ssg71
g1905
sg64
(lp1912
S'function'
p1913
asbag57
(g78
g59
NtRp1914
(dp1915
g62
(dp1916
g89
g90
ssg71
g1905
sg64
(lp1917
S':'
asbag57
(g78
g59
NtRp1918
(dp1919
g62
(dp1920
sg71
g1905
sg64
(lp1921
g57
(g58
g59
NtRp1922
(dp1923
g62
(dp1924
g70
I5
ssg71
g1918
sg64
(lp1925
S'show_status'
p1926
asbasbasbag57
(g73
g59
NtRp1927
(dp1928
g62
(dp1929
sg71
g67
sg64
(lp1930
g57
(g78
g59
NtRp1931
(dp1932
g62
(dp1933
g82
g83
ssg71
g1927
sg64
(lp1934
S'get_vars'
p1935
asbag57
(g78
g59
NtRp1936
(dp1937
g62
(dp1938
g89
g90
ssg71
g1927
sg64
(lp1939
S':'
asbag57
(g78
g59
NtRp1940
(dp1941
g62
(dp1942
sg71
g1927
sg64
(lp1943
g57
(g58
g59
NtRp1944
(dp1945
g62
(dp1946
g70
I5
ssg71
g1940
sg64
(lp1947
g57
(g66
g59
NtRp1948
(dp1949
g62
(dp1950
g70
I4
ssg71
Nsg64
(lp1951
sbasbasbasbag57
(g73
g59
NtRp1952
(dp1953
g62
(dp1954
sg71
g67
sg64
(lp1955
g57
(g78
g59
NtRp1956
(dp1957
g62
(dp1958
g82
g83
ssg71
g1952
sg64
(lp1959
S'global_settings'
p1960
asbag57
(g78
g59
NtRp1961
(dp1962
g62
(dp1963
g89
g90
ssg71
g1952
sg64
(lp1964
S':'
asbag57
(g78
g59
NtRp1965
(dp1966
g62
(dp1967
sg71
g1952
sg64
(lp1968
g57
(g58
g59
NtRp1969
(dp1970
g62
(dp1971
g70
I5
ssg71
g1965
sg64
(lp1972
g57
(g66
g59
NtRp1973
(dp1974
g62
(dp1975
g70
I4
ssg71
Nsg64
(lp1976
g57
(g73
g59
NtRp1977
(dp1978
g62
(dp1979
sg71
g1973
sg64
(lp1980
g57
(g78
g59
NtRp1981
(dp1982
g62
(dp1983
g82
g83
ssg71
g1977
sg64
(lp1984
g859
asbag57
(g78
g59
NtRp1985
(dp1986
g62
(dp1987
g89
g90
ssg71
g1977
sg64
(lp1988
S':'
asbag57
(g78
g59
NtRp1989
(dp1990
g62
(dp1991
sg71
g1977
sg64
(lp1992
g57
(g58
g59
NtRp1993
(dp1994
g62
(dp1995
g70
I4
ssg71
g1989
sg64
(lp1996
S"set(['/home/xchen/web2py/applications/Betsy/', '/home/xchen/web2py/applications/admin/', '/home/xchen/web2py/applications/welcome/'])"
p1997
asbasbasbag57
(g73
g59
NtRp1998
(dp1999
g62
(dp2000
sg71
g1973
sg64
(lp2001
g57
(g78
g59
NtRp2002
(dp2003
g62
(dp2004
g82
g83
ssg71
g1998
sg64
(lp2005
g881
asbag57
(g78
g59
NtRp2006
(dp2007
g62
(dp2008
g89
g90
ssg71
g1998
sg64
(lp2009
S':'
asbag57
(g78
g59
NtRp2010
(dp2011
g62
(dp2012
sg71
g1998
sg64
(lp2013
g57
(g58
g59
NtRp2014
(dp2015
g62
(dp2016
g70
I4
ssg71
g2010
sg64
(lp2017
g894
asbasbasbag57
(g73
g59
NtRp2018
(dp2019
g62
(dp2020
sg71
g1973
sg64
(lp2021
g57
(g78
g59
NtRp2022
(dp2023
g62
(dp2024
g82
g83
ssg71
g2018
sg64
(lp2025
g903
asbag57
(g78
g59
NtRp2026
(dp2027
g62
(dp2028
g89
g90
ssg71
g2018
sg64
(lp2029
S':'
asbag57
(g78
g59
NtRp2030
(dp2031
g62
(dp2032
sg71
g2018
sg64
(lp2033
g57
(g58
g59
NtRp2034
(dp2035
g62
(dp2036
g70
I4
ssg71
g2030
sg64
(lp2037
g57
(g66
g59
NtRp2038
(dp2039
g62
(dp2040
g70
I3
ssg71
Nsg64
(lp2041
sbasbasbasbag57
(g73
g59
NtRp2042
(dp2043
g62
(dp2044
sg71
g1973
sg64
(lp2045
g57
(g78
g59
NtRp2046
(dp2047
g62
(dp2048
g82
g83
ssg71
g2042
sg64
(lp2049
g928
asbag57
(g78
g59
NtRp2050
(dp2051
g62
(dp2052
g89
g90
ssg71
g2042
sg64
(lp2053
S':'
asbag57
(g78
g59
NtRp2054
(dp2055
g62
(dp2056
sg71
g2042
sg64
(lp2057
g57
(g58
g59
NtRp2058
(dp2059
g62
(dp2060
g70
I4
ssg71
g2054
sg64
(lp2061
S"<Values at 0x19e61e18: {'verbose': False, 'ip': '127.0.0.1', 'with_scheduler': False, 'ips': [], 'shutdown_timeout': 5, 'taskbar': False, 'port': 8080, 'maxthreads': None, 'softcron': False, 'server_name': 'unicron.shis.uth.tmc.edu', 'bpython': False, 'nogui': False, 'pid_filename': 'httpserver.pid', 'extcron': False, 'runcron': False, 'run_system_tests': False, 'test': None, 'folder': '/home/xchen/web2py', 'config': '', 'minthreads': None, 'winservice': '', 'shell': None, 'run': '', 'log_filename': 'httpserver.log', 'debuglevel': 30, 'args': [''], 'socket_timeout': 5, 'ssl_ca_certificate': None, 'scheduler': None, 'profiler_filename': None, 'ssl_private_key': '', 'scheduler_groups': None, 'password': 'baby2008', 'request_queue_size': 5, 'ssl_certificate': '', 'cronjob': False, 'numthreads': None, 'quiet': False, 'interfaces': None, 'import_models': False, 'timeout': 10, 'plain': False, 'nobanner': False}>"
p2062
asbasbasbag57
(g73
g59
NtRp2063
(dp2064
g62
(dp2065
sg71
g1973
sg64
(lp2066
g57
(g78
g59
NtRp2067
(dp2068
g62
(dp2069
g82
g83
ssg71
g2063
sg64
(lp2070
g950
asbag57
(g78
g59
NtRp2071
(dp2072
g62
(dp2073
g89
g90
ssg71
g2063
sg64
(lp2074
S':'
asbag57
(g78
g59
NtRp2075
(dp2076
g62
(dp2077
sg71
g2063
sg64
(lp2078
g57
(g58
g59
NtRp2079
(dp2080
g62
(dp2081
g70
I4
ssg71
g2075
sg64
(lp2082
S'set([])'
p2083
asbasbasbag57
(g73
g59
NtRp2084
(dp2085
g62
(dp2086
sg71
g1973
sg64
(lp2087
g57
(g78
g59
NtRp2088
(dp2089
g62
(dp2090
g82
g83
ssg71
g2084
sg64
(lp2091
g972
asbag57
(g78
g59
NtRp2092
(dp2093
g62
(dp2094
g89
g90
ssg71
g2084
sg64
(lp2095
S':'
asbag57
(g78
g59
NtRp2096
(dp2097
g62
(dp2098
sg71
g2084
sg64
(lp2099
g57
(g58
g59
NtRp2100
(dp2101
g62
(dp2102
g70
I4
ssg71
g2096
sg64
(lp2103
g100
asbasbasbag57
(g73
g59
NtRp2104
(dp2105
g62
(dp2106
sg71
g1973
sg64
(lp2107
g57
(g78
g59
NtRp2108
(dp2109
g62
(dp2110
g82
g83
ssg71
g2104
sg64
(lp2111
g993
asbag57
(g78
g59
NtRp2112
(dp2113
g62
(dp2114
g89
g90
ssg71
g2104
sg64
(lp2115
S':'
asbag57
(g78
g59
NtRp2116
(dp2117
g62
(dp2118
sg71
g2104
sg64
(lp2119
g57
(g58
g59
NtRp2120
(dp2121
g62
(dp2122
g70
I4
ssg71
g2116
sg64
(lp2123
g1006
asbasbasbag57
(g73
g59
NtRp2124
(dp2125
g62
(dp2126
sg71
g1973
sg64
(lp2127
g57
(g78
g59
NtRp2128
(dp2129
g62
(dp2130
g82
g83
ssg71
g2124
sg64
(lp2131
g1191
asbag57
(g78
g59
NtRp2132
(dp2133
g62
(dp2134
g89
g90
ssg71
g2124
sg64
(lp2135
S':'
asbag57
(g78
g59
NtRp2136
(dp2137
g62
(dp2138
sg71
g2124
sg64
(lp2139
g57
(g58
g59
NtRp2140
(dp2141
g62
(dp2142
g70
I4
ssg71
g2136
sg64
(lp2143
g100
asbasbasbag57
(g73
g59
NtRp2144
(dp2145
g62
(dp2146
sg71
g1973
sg64
(lp2147
g57
(g78
g59
NtRp2148
(dp2149
g62
(dp2150
g82
g83
ssg71
g2144
sg64
(lp2151
g1212
asbag57
(g78
g59
NtRp2152
(dp2153
g62
(dp2154
g89
g90
ssg71
g2144
sg64
(lp2155
S':'
asbag57
(g78
g59
NtRp2156
(dp2157
g62
(dp2158
sg71
g2144
sg64
(lp2159
g57
(g58
g59
NtRp2160
(dp2161
g62
(dp2162
g70
I4
ssg71
g2156
sg64
(lp2163
g100
asbasbasbag57
(g73
g59
NtRp2164
(dp2165
g62
(dp2166
sg71
g1973
sg64
(lp2167
g57
(g78
g59
NtRp2168
(dp2169
g62
(dp2170
g82
g83
ssg71
g2164
sg64
(lp2171
g1233
asbag57
(g78
g59
NtRp2172
(dp2173
g62
(dp2174
g89
g90
ssg71
g2164
sg64
(lp2175
S':'
asbag57
(g78
g59
NtRp2176
(dp2177
g62
(dp2178
sg71
g2164
sg64
(lp2179
g57
(g58
g59
NtRp2180
(dp2181
g62
(dp2182
g70
I4
ssg71
g2176
sg64
(lp2183
g57
(g66
g59
NtRp2184
(dp2185
g62
(dp2186
g70
I3
ssg71
Nsg64
(lp2187
g57
(g73
g59
NtRp2188
(dp2189
g62
(dp2190
sg71
g2184
sg64
(lp2191
g57
(g78
g59
NtRp2192
(dp2193
g62
(dp2194
sg71
g2188
sg64
(lp2195
g57
(g58
g59
NtRp2196
(dp2197
g62
(dp2198
g70
I3
ssg71
g2192
sg64
(lp2199
g1262
asbasbasbag57
(g73
g59
NtRp2200
(dp2201
g62
(dp2202
sg71
g2184
sg64
(lp2203
g57
(g78
g59
NtRp2204
(dp2205
g62
(dp2206
sg71
g2200
sg64
(lp2207
g57
(g58
g59
NtRp2208
(dp2209
g62
(dp2210
g70
I3
ssg71
g2204
sg64
(lp2211
g1275
asbasbasbag57
(g73
g59
NtRp2212
(dp2213
g62
(dp2214
sg71
g2184
sg64
(lp2215
g57
(g78
g59
NtRp2216
(dp2217
g62
(dp2218
sg71
g2212
sg64
(lp2219
g57
(g58
g59
NtRp2220
(dp2221
g62
(dp2222
g70
I3
ssg71
g2216
sg64
(lp2223
g1288
asbasbasbag57
(g73
g59
NtRp2224
(dp2225
g62
(dp2226
sg71
g2184
sg64
(lp2227
g57
(g78
g59
NtRp2228
(dp2229
g62
(dp2230
sg71
g2224
sg64
(lp2231
g57
(g58
g59
NtRp2232
(dp2233
g62
(dp2234
g70
I3
ssg71
g2228
sg64
(lp2235
g1301
asbasbasbag57
(g73
g59
NtRp2236
(dp2237
g62
(dp2238
sg71
g2184
sg64
(lp2239
g57
(g78
g59
NtRp2240
(dp2241
g62
(dp2242
sg71
g2236
sg64
(lp2243
g57
(g58
g59
NtRp2244
(dp2245
g62
(dp2246
g70
I3
ssg71
g2240
sg64
(lp2247
g1314
asbasbasbasbasbasbasbag57
(g73
g59
NtRp2248
(dp2249
g62
(dp2250
sg71
g1973
sg64
(lp2251
g57
(g78
g59
NtRp2252
(dp2253
g62
(dp2254
g82
g83
ssg71
g2248
sg64
(lp2255
g1581
asbag57
(g78
g59
NtRp2256
(dp2257
g62
(dp2258
g89
g90
ssg71
g2248
sg64
(lp2259
S':'
asbag57
(g78
g59
NtRp2260
(dp2261
g62
(dp2262
sg71
g2248
sg64
(lp2263
g57
(g58
g59
NtRp2264
(dp2265
g62
(dp2266
g70
I4
ssg71
g2260
sg64
(lp2267
g57
(g66
g59
NtRp2268
(dp2269
g62
(dp2270
g70
I3
ssg71
Nsg64
(lp2271
g57
(g73
g59
NtRp2272
(dp2273
g62
(dp2274
sg71
g2268
sg64
(lp2275
g57
(g78
g59
NtRp2276
(dp2277
g62
(dp2278
sg71
g2272
sg64
(lp2279
g57
(g58
g59
NtRp2280
(dp2281
g62
(dp2282
g70
I3
ssg71
g2276
sg64
(lp2283
S'2'
asbasbasbag57
(g73
g59
NtRp2284
(dp2285
g62
(dp2286
sg71
g2268
sg64
(lp2287
g57
(g78
g59
NtRp2288
(dp2289
g62
(dp2290
sg71
g2284
sg64
(lp2291
g57
(g58
g59
NtRp2292
(dp2293
g62
(dp2294
g70
I3
ssg71
g2288
sg64
(lp2295
S'2'
asbasbasbag57
(g73
g59
NtRp2296
(dp2297
g62
(dp2298
sg71
g2268
sg64
(lp2299
g57
(g78
g59
NtRp2300
(dp2301
g62
(dp2302
sg71
g2296
sg64
(lp2303
g57
(g58
g59
NtRp2304
(dp2305
g62
(dp2306
g70
I3
ssg71
g2300
sg64
(lp2307
S'1'
asbasbasbag57
(g73
g59
NtRp2308
(dp2309
g62
(dp2310
sg71
g2268
sg64
(lp2311
g57
(g78
g59
NtRp2312
(dp2313
g62
(dp2314
sg71
g2308
sg64
(lp2315
g57
(g58
g59
NtRp2316
(dp2317
g62
(dp2318
g70
I3
ssg71
g2312
sg64
(lp2319
S'datetime.datetime(2012, 10, 21, 16, 57, 4)'
p2320
asbasbasbag57
(g73
g59
NtRp2321
(dp2322
g62
(dp2323
sg71
g2268
sg64
(lp2324
g57
(g78
g59
NtRp2325
(dp2326
g62
(dp2327
sg71
g2321
sg64
(lp2328
g57
(g58
g59
NtRp2329
(dp2330
g62
(dp2331
g70
I3
ssg71
g2325
sg64
(lp2332
g1659
asbasbasbasbasbasbasbasbasbasbasbag57
(g73
g59
NtRp2333
(dp2334
g62
(dp2335
sg71
g67
sg64
(lp2336
g57
(g78
g59
NtRp2337
(dp2338
g62
(dp2339
g82
g83
ssg71
g2333
sg64
(lp2340
S'is_https'
p2341
asbag57
(g78
g59
NtRp2342
(dp2343
g62
(dp2344
g89
g90
ssg71
g2333
sg64
(lp2345
S':'
asbag57
(g78
g59
NtRp2346
(dp2347
g62
(dp2348
sg71
g2333
sg64
(lp2349
g57
(g58
g59
NtRp2350
(dp2351
g62
(dp2352
g70
I5
ssg71
g2346
sg64
(lp2353
g100
asbasbasbag57
(g73
g59
NtRp2354
(dp2355
g62
(dp2356
sg71
g67
sg64
(lp2357
g57
(g78
g59
NtRp2358
(dp2359
g62
(dp2360
g82
g83
ssg71
g2354
sg64
(lp2361
S'is_local'
p2362
asbag57
(g78
g59
NtRp2363
(dp2364
g62
(dp2365
g89
g90
ssg71
g2354
sg64
(lp2366
S':'
asbag57
(g78
g59
NtRp2367
(dp2368
g62
(dp2369
sg71
g2354
sg64
(lp2370
g57
(g58
g59
NtRp2371
(dp2372
g62
(dp2373
g70
I5
ssg71
g2367
sg64
(lp2374
g1768
asbasbasbag57
(g73
g59
NtRp2375
(dp2376
g62
(dp2377
sg71
g67
sg64
(lp2378
g57
(g78
g59
NtRp2379
(dp2380
g62
(dp2381
g82
g83
ssg71
g2375
sg64
(lp2382
S'is_restful'
p2383
asbag57
(g78
g59
NtRp2384
(dp2385
g62
(dp2386
g89
g90
ssg71
g2375
sg64
(lp2387
S':'
asbag57
(g78
g59
NtRp2388
(dp2389
g62
(dp2390
sg71
g2375
sg64
(lp2391
g57
(g58
g59
NtRp2392
(dp2393
g62
(dp2394
g70
I5
ssg71
g2388
sg64
(lp2395
g100
asbasbasbag57
(g73
g59
NtRp2396
(dp2397
g62
(dp2398
sg71
g67
sg64
(lp2399
g57
(g78
g59
NtRp2400
(dp2401
g62
(dp2402
g82
g83
ssg71
g2396
sg64
(lp2403
S'now'
p2404
asbag57
(g78
g59
NtRp2405
(dp2406
g62
(dp2407
g89
g90
ssg71
g2396
sg64
(lp2408
S':'
asbag57
(g78
g59
NtRp2409
(dp2410
g62
(dp2411
sg71
g2396
sg64
(lp2412
g57
(g58
g59
NtRp2413
(dp2414
g62
(dp2415
g70
I5
ssg71
g2409
sg64
(lp2416
S'datetime.datetime(2013, 2, 5, 9, 47, 24, 777433)'
p2417
asbasbasbag57
(g73
g59
NtRp2418
(dp2419
g62
(dp2420
sg71
g67
sg64
(lp2421
g57
(g78
g59
NtRp2422
(dp2423
g62
(dp2424
g82
g83
ssg71
g2418
sg64
(lp2425
S'post_vars'
p2426
asbag57
(g78
g59
NtRp2427
(dp2428
g62
(dp2429
g89
g90
ssg71
g2418
sg64
(lp2430
S':'
asbag57
(g78
g59
NtRp2431
(dp2432
g62
(dp2433
sg71
g2418
sg64
(lp2434
g57
(g58
g59
NtRp2435
(dp2436
g62
(dp2437
g70
I5
ssg71
g2431
sg64
(lp2438
g57
(g66
g59
NtRp2439
(dp2440
g62
(dp2441
g70
I4
ssg71
Nsg64
(lp2442
sbasbasbasbag57
(g73
g59
NtRp2443
(dp2444
g62
(dp2445
sg71
g67
sg64
(lp2446
g57
(g78
g59
NtRp2447
(dp2448
g62
(dp2449
g82
g83
ssg71
g2443
sg64
(lp2450
S'raw_args'
p2451
asbag57
(g78
g59
NtRp2452
(dp2453
g62
(dp2454
g89
g90
ssg71
g2443
sg64
(lp2455
S':'
asbag57
(g78
g59
NtRp2456
(dp2457
g62
(dp2458
sg71
g2443
sg64
(lp2459
g57
(g58
g59
NtRp2460
(dp2461
g62
(dp2462
g70
I5
ssg71
g2456
sg64
(lp2463
S''
asbasbasbag57
(g73
g59
NtRp2464
(dp2465
g62
(dp2466
sg71
g67
sg64
(lp2467
g57
(g78
g59
NtRp2468
(dp2469
g62
(dp2470
g82
g83
ssg71
g2464
sg64
(lp2471
S'raw_extension'
p2472
asbag57
(g78
g59
NtRp2473
(dp2474
g62
(dp2475
g89
g90
ssg71
g2464
sg64
(lp2476
S':'
asbag57
(g78
g59
NtRp2477
(dp2478
g62
(dp2479
sg71
g2464
sg64
(lp2480
g57
(g58
g59
NtRp2481
(dp2482
g62
(dp2483
g70
I5
ssg71
g2477
sg64
(lp2484
S'None'
p2485
asbasbasbag57
(g73
g59
NtRp2486
(dp2487
g62
(dp2488
sg71
g67
sg64
(lp2489
g57
(g78
g59
NtRp2490
(dp2491
g62
(dp2492
g82
g83
ssg71
g2486
sg64
(lp2493
S'url'
p2494
asbag57
(g78
g59
NtRp2495
(dp2496
g62
(dp2497
g89
g90
ssg71
g2486
sg64
(lp2498
S':'
asbag57
(g78
g59
NtRp2499
(dp2500
g62
(dp2501
sg71
g2486
sg64
(lp2502
g57
(g58
g59
NtRp2503
(dp2504
g62
(dp2505
g70
I5
ssg71
g2499
sg64
(lp2506
g1336
asbasbasbag57
(g73
g59
NtRp2507
(dp2508
g62
(dp2509
sg71
g67
sg64
(lp2510
g57
(g78
g59
NtRp2511
(dp2512
g62
(dp2513
g82
g83
ssg71
g2507
sg64
(lp2514
S'utcnow'
p2515
asbag57
(g78
g59
NtRp2516
(dp2517
g62
(dp2518
g89
g90
ssg71
g2507
sg64
(lp2519
S':'
asbag57
(g78
g59
NtRp2520
(dp2521
g62
(dp2522
sg71
g2507
sg64
(lp2523
g57
(g58
g59
NtRp2524
(dp2525
g62
(dp2526
g70
I5
ssg71
g2520
sg64
(lp2527
S'datetime.datetime(2013, 2, 5, 15, 47, 24, 777440)'
p2528
asbasbasbag57
(g73
g59
NtRp2529
(dp2530
g62
(dp2531
sg71
g67
sg64
(lp2532
g57
(g78
g59
NtRp2533
(dp2534
g62
(dp2535
g82
g83
ssg71
g2529
sg64
(lp2536
S'uuid'
p2537
asbag57
(g78
g59
NtRp2538
(dp2539
g62
(dp2540
g89
g90
ssg71
g2529
sg64
(lp2541
S':'
asbag57
(g78
g59
NtRp2542
(dp2543
g62
(dp2544
sg71
g2529
sg64
(lp2545
g57
(g58
g59
NtRp2546
(dp2547
g62
(dp2548
g70
I5
ssg71
g2542
sg64
(lp2549
S'Betsy/127.0.0.1.2013-02-05.09-47-24.632451da-1dcd-417b-9984-32a2d443e091'
p2550
asbasbasbag57
(g73
g59
NtRp2551
(dp2552
g62
(dp2553
sg71
g67
sg64
(lp2554
g57
(g78
g59
NtRp2555
(dp2556
g62
(dp2557
g82
g83
ssg71
g2551
sg64
(lp2558
S'vars'
p2559
asbag57
(g78
g59
NtRp2560
(dp2561
g62
(dp2562
g89
g90
ssg71
g2551
sg64
(lp2563
S':'
asbag57
(g78
g59
NtRp2564
(dp2565
g62
(dp2566
sg71
g2551
sg64
(lp2567
g57
(g58
g59
NtRp2568
(dp2569
g62
(dp2570
g70
I5
ssg71
g2564
sg64
(lp2571
g57
(g66
g59
NtRp2572
(dp2573
g62
(dp2574
g70
I4
ssg71
Nsg64
(lp2575
sbasbasbasbag57
(g73
g59
NtRp2576
(dp2577
g62
(dp2578
sg71
g67
sg64
(lp2579
g57
(g78
g59
NtRp2580
(dp2581
g62
(dp2582
g82
g83
ssg71
g2576
sg64
(lp2583
S'wsgi'
p2584
asbag57
(g78
g59
NtRp2585
(dp2586
g62
(dp2587
g89
g90
ssg71
g2576
sg64
(lp2588
S':'
asbag57
(g78
g59
NtRp2589
(dp2590
g62
(dp2591
sg71
g2576
sg64
(lp2592
g57
(g58
g59
NtRp2593
(dp2594
g62
(dp2595
g70
I5
ssg71
g2589
sg64
(lp2596
g57
(g66
g59
NtRp2597
(dp2598
g62
(dp2599
g70
I4
ssg71
Nsg64
(lp2600
g57
(g73
g59
NtRp2601
(dp2602
g62
(dp2603
sg71
g2597
sg64
(lp2604
g57
(g78
g59
NtRp2605
(dp2606
g62
(dp2607
g82
g83
ssg71
g2601
sg64
(lp2608
S'environ'
p2609
asbag57
(g78
g59
NtRp2610
(dp2611
g62
(dp2612
g89
g90
ssg71
g2601
sg64
(lp2613
S':'
asbag57
(g78
g59
NtRp2614
(dp2615
g62
(dp2616
sg71
g2601
sg64
(lp2617
g57
(g58
g59
NtRp2618
(dp2619
g62
(dp2620
g70
I4
ssg71
g2614
sg64
(lp2621
g57
(g66
g59
NtRp2622
(dp2623
g62
(dp2624
g70
I3
ssg71
Nsg64
(lp2625
g57
(g73
g59
NtRp2626
(dp2627
g62
(dp2628
sg71
g2622
sg64
(lp2629
g57
(g78
g59
NtRp2630
(dp2631
g62
(dp2632
g82
g83
ssg71
g2626
sg64
(lp2633
S'HTTP_ACCEPT'
p2634
asbag57
(g78
g59
NtRp2635
(dp2636
g62
(dp2637
g89
g90
ssg71
g2626
sg64
(lp2638
S':'
asbag57
(g78
g59
NtRp2639
(dp2640
g62
(dp2641
sg71
g2626
sg64
(lp2642
g57
(g58
g59
NtRp2643
(dp2644
g62
(dp2645
g70
I3
ssg71
g2639
sg64
(lp2646
g1028
asbasbasbag57
(g73
g59
NtRp2647
(dp2648
g62
(dp2649
sg71
g2622
sg64
(lp2650
g57
(g78
g59
NtRp2651
(dp2652
g62
(dp2653
g82
g83
ssg71
g2647
sg64
(lp2654
S'HTTP_ACCEPT_ENCODING'
p2655
asbag57
(g78
g59
NtRp2656
(dp2657
g62
(dp2658
g89
g90
ssg71
g2647
sg64
(lp2659
S':'
asbag57
(g78
g59
NtRp2660
(dp2661
g62
(dp2662
sg71
g2647
sg64
(lp2663
g57
(g58
g59
NtRp2664
(dp2665
g62
(dp2666
g70
I3
ssg71
g2660
sg64
(lp2667
g1050
asbasbasbag57
(g73
g59
NtRp2668
(dp2669
g62
(dp2670
sg71
g2622
sg64
(lp2671
g57
(g78
g59
NtRp2672
(dp2673
g62
(dp2674
g82
g83
ssg71
g2668
sg64
(lp2675
S'HTTP_ACCEPT_LANGUAGE'
p2676
asbag57
(g78
g59
NtRp2677
(dp2678
g62
(dp2679
g89
g90
ssg71
g2668
sg64
(lp2680
S':'
asbag57
(g78
g59
NtRp2681
(dp2682
g62
(dp2683
sg71
g2668
sg64
(lp2684
g57
(g58
g59
NtRp2685
(dp2686
g62
(dp2687
g70
I3
ssg71
g2681
sg64
(lp2688
g1072
asbasbasbag57
(g73
g59
NtRp2689
(dp2690
g62
(dp2691
sg71
g2622
sg64
(lp2692
g57
(g78
g59
NtRp2693
(dp2694
g62
(dp2695
g82
g83
ssg71
g2689
sg64
(lp2696
S'HTTP_CONNECTION'
p2697
asbag57
(g78
g59
NtRp2698
(dp2699
g62
(dp2700
g89
g90
ssg71
g2689
sg64
(lp2701
S':'
asbag57
(g78
g59
NtRp2702
(dp2703
g62
(dp2704
sg71
g2689
sg64
(lp2705
g57
(g58
g59
NtRp2706
(dp2707
g62
(dp2708
g70
I3
ssg71
g2702
sg64
(lp2709
g1094
asbasbasbag57
(g73
g59
NtRp2710
(dp2711
g62
(dp2712
sg71
g2622
sg64
(lp2713
g57
(g78
g59
NtRp2714
(dp2715
g62
(dp2716
g82
g83
ssg71
g2710
sg64
(lp2717
S'HTTP_COOKIE'
p2718
asbag57
(g78
g59
NtRp2719
(dp2720
g62
(dp2721
g89
g90
ssg71
g2710
sg64
(lp2722
S':'
asbag57
(g78
g59
NtRp2723
(dp2724
g62
(dp2725
sg71
g2710
sg64
(lp2726
g57
(g58
g59
NtRp2727
(dp2728
g62
(dp2729
g70
I3
ssg71
g2723
sg64
(lp2730
g1116
asbasbasbag57
(g73
g59
NtRp2731
(dp2732
g62
(dp2733
sg71
g2622
sg64
(lp2734
g57
(g78
g59
NtRp2735
(dp2736
g62
(dp2737
g82
g83
ssg71
g2731
sg64
(lp2738
S'HTTP_HOST'
p2739
asbag57
(g78
g59
NtRp2740
(dp2741
g62
(dp2742
g89
g90
ssg71
g2731
sg64
(lp2743
S':'
asbag57
(g78
g59
NtRp2744
(dp2745
g62
(dp2746
sg71
g2731
sg64
(lp2747
g57
(g58
g59
NtRp2748
(dp2749
g62
(dp2750
g70
I3
ssg71
g2744
sg64
(lp2751
g1138
asbasbasbag57
(g73
g59
NtRp2752
(dp2753
g62
(dp2754
sg71
g2622
sg64
(lp2755
g57
(g78
g59
NtRp2756
(dp2757
g62
(dp2758
g82
g83
ssg71
g2752
sg64
(lp2759
S'HTTP_REFERER'
p2760
asbag57
(g78
g59
NtRp2761
(dp2762
g62
(dp2763
g89
g90
ssg71
g2752
sg64
(lp2764
S':'
asbag57
(g78
g59
NtRp2765
(dp2766
g62
(dp2767
sg71
g2752
sg64
(lp2768
g57
(g58
g59
NtRp2769
(dp2770
g62
(dp2771
g70
I3
ssg71
g2765
sg64
(lp2772
g1160
asbasbasbag57
(g73
g59
NtRp2773
(dp2774
g62
(dp2775
sg71
g2622
sg64
(lp2776
g57
(g78
g59
NtRp2777
(dp2778
g62
(dp2779
g82
g83
ssg71
g2773
sg64
(lp2780
S'HTTP_USER_AGENT'
p2781
asbag57
(g78
g59
NtRp2782
(dp2783
g62
(dp2784
g89
g90
ssg71
g2773
sg64
(lp2785
S':'
asbag57
(g78
g59
NtRp2786
(dp2787
g62
(dp2788
sg71
g2773
sg64
(lp2789
g57
(g58
g59
NtRp2790
(dp2791
g62
(dp2792
g70
I3
ssg71
g2786
sg64
(lp2793
g1182
asbasbasbag57
(g73
g59
NtRp2794
(dp2795
g62
(dp2796
sg71
g2622
sg64
(lp2797
g57
(g78
g59
NtRp2798
(dp2799
g62
(dp2800
g82
g83
ssg71
g2794
sg64
(lp2801
S'PATH_INFO'
p2802
asbag57
(g78
g59
NtRp2803
(dp2804
g62
(dp2805
g89
g90
ssg71
g2794
sg64
(lp2806
S':'
asbag57
(g78
g59
NtRp2807
(dp2808
g62
(dp2809
sg71
g2794
sg64
(lp2810
g57
(g58
g59
NtRp2811
(dp2812
g62
(dp2813
g70
I3
ssg71
g2807
sg64
(lp2814
g1336
asbasbasbag57
(g73
g59
NtRp2815
(dp2816
g62
(dp2817
sg71
g2622
sg64
(lp2818
g57
(g78
g59
NtRp2819
(dp2820
g62
(dp2821
g82
g83
ssg71
g2815
sg64
(lp2822
S'QUERY_STRING'
p2823
asbag57
(g78
g59
NtRp2824
(dp2825
g62
(dp2826
g89
g90
ssg71
g2815
sg64
(lp2827
S':'
asbag57
(g78
g59
NtRp2828
(dp2829
g62
(dp2830
sg71
g2815
sg64
(lp2831
g57
(g58
g59
NtRp2832
(dp2833
g62
(dp2834
g70
I3
ssg71
g2828
sg64
(lp2835
S''
asbasbasbag57
(g73
g59
NtRp2836
(dp2837
g62
(dp2838
sg71
g2622
sg64
(lp2839
g57
(g78
g59
NtRp2840
(dp2841
g62
(dp2842
g82
g83
ssg71
g2836
sg64
(lp2843
S'REMOTE_ADDR'
p2844
asbag57
(g78
g59
NtRp2845
(dp2846
g62
(dp2847
g89
g90
ssg71
g2836
sg64
(lp2848
S':'
asbag57
(g78
g59
NtRp2849
(dp2850
g62
(dp2851
sg71
g2836
sg64
(lp2852
g57
(g58
g59
NtRp2853
(dp2854
g62
(dp2855
g70
I3
ssg71
g2849
sg64
(lp2856
g212
asbasbasbag57
(g73
g59
NtRp2857
(dp2858
g62
(dp2859
sg71
g2622
sg64
(lp2860
g57
(g78
g59
NtRp2861
(dp2862
g62
(dp2863
g82
g83
ssg71
g2857
sg64
(lp2864
S'REMOTE_PORT'
p2865
asbag57
(g78
g59
NtRp2866
(dp2867
g62
(dp2868
g89
g90
ssg71
g2857
sg64
(lp2869
S':'
asbag57
(g78
g59
NtRp2870
(dp2871
g62
(dp2872
sg71
g2857
sg64
(lp2873
g57
(g58
g59
NtRp2874
(dp2875
g62
(dp2876
g70
I3
ssg71
g2870
sg64
(lp2877
g1400
asbasbasbag57
(g73
g59
NtRp2878
(dp2879
g62
(dp2880
sg71
g2622
sg64
(lp2881
g57
(g78
g59
NtRp2882
(dp2883
g62
(dp2884
g82
g83
ssg71
g2878
sg64
(lp2885
S'REQUEST_METHOD'
p2886
asbag57
(g78
g59
NtRp2887
(dp2888
g62
(dp2889
g89
g90
ssg71
g2878
sg64
(lp2890
S':'
asbag57
(g78
g59
NtRp2891
(dp2892
g62
(dp2893
sg71
g2878
sg64
(lp2894
g57
(g58
g59
NtRp2895
(dp2896
g62
(dp2897
g70
I3
ssg71
g2891
sg64
(lp2898
g1422
asbasbasbag57
(g73
g59
NtRp2899
(dp2900
g62
(dp2901
sg71
g2622
sg64
(lp2902
g57
(g78
g59
NtRp2903
(dp2904
g62
(dp2905
g82
g83
ssg71
g2899
sg64
(lp2906
S'REQUEST_URI'
p2907
asbag57
(g78
g59
NtRp2908
(dp2909
g62
(dp2910
g89
g90
ssg71
g2899
sg64
(lp2911
S':'
asbag57
(g78
g59
NtRp2912
(dp2913
g62
(dp2914
sg71
g2899
sg64
(lp2915
g57
(g58
g59
NtRp2916
(dp2917
g62
(dp2918
g70
I3
ssg71
g2912
sg64
(lp2919
g1336
asbasbasbag57
(g73
g59
NtRp2920
(dp2921
g62
(dp2922
sg71
g2622
sg64
(lp2923
g57
(g78
g59
NtRp2924
(dp2925
g62
(dp2926
g82
g83
ssg71
g2920
sg64
(lp2927
S'SCRIPT_NAME'
p2928
asbag57
(g78
g59
NtRp2929
(dp2930
g62
(dp2931
g89
g90
ssg71
g2920
sg64
(lp2932
S':'
asbag57
(g78
g59
NtRp2933
(dp2934
g62
(dp2935
sg71
g2920
sg64
(lp2936
g57
(g58
g59
NtRp2937
(dp2938
g62
(dp2939
g70
I3
ssg71
g2933
sg64
(lp2940
S''
asbasbasbag57
(g73
g59
NtRp2941
(dp2942
g62
(dp2943
sg71
g2622
sg64
(lp2944
g57
(g78
g59
NtRp2945
(dp2946
g62
(dp2947
g82
g83
ssg71
g2941
sg64
(lp2948
S'SERVER_NAME'
p2949
asbag57
(g78
g59
NtRp2950
(dp2951
g62
(dp2952
g89
g90
ssg71
g2941
sg64
(lp2953
S':'
asbag57
(g78
g59
NtRp2954
(dp2955
g62
(dp2956
sg71
g2941
sg64
(lp2957
g57
(g58
g59
NtRp2958
(dp2959
g62
(dp2960
g70
I3
ssg71
g2954
sg64
(lp2961
g1301
asbasbasbag57
(g73
g59
NtRp2962
(dp2963
g62
(dp2964
sg71
g2622
sg64
(lp2965
g57
(g78
g59
NtRp2966
(dp2967
g62
(dp2968
g82
g83
ssg71
g2962
sg64
(lp2969
S'SERVER_PORT'
p2970
asbag57
(g78
g59
NtRp2971
(dp2972
g62
(dp2973
g89
g90
ssg71
g2962
sg64
(lp2974
S':'
asbag57
(g78
g59
NtRp2975
(dp2976
g62
(dp2977
sg71
g2962
sg64
(lp2978
g57
(g58
g59
NtRp2979
(dp2980
g62
(dp2981
g70
I3
ssg71
g2975
sg64
(lp2982
g1507
asbasbasbag57
(g73
g59
NtRp2983
(dp2984
g62
(dp2985
sg71
g2622
sg64
(lp2986
g57
(g78
g59
NtRp2987
(dp2988
g62
(dp2989
g82
g83
ssg71
g2983
sg64
(lp2990
S'SERVER_PROTOCOL'
p2991
asbag57
(g78
g59
NtRp2992
(dp2993
g62
(dp2994
g89
g90
ssg71
g2983
sg64
(lp2995
S':'
asbag57
(g78
g59
NtRp2996
(dp2997
g62
(dp2998
sg71
g2983
sg64
(lp2999
g57
(g58
g59
NtRp3000
(dp3001
g62
(dp3002
g70
I3
ssg71
g2996
sg64
(lp3003
g1529
asbasbasbag57
(g73
g59
NtRp3004
(dp3005
g62
(dp3006
sg71
g2622
sg64
(lp3007
g57
(g78
g59
NtRp3008
(dp3009
g62
(dp3010
g82
g83
ssg71
g3004
sg64
(lp3011
S'SERVER_SOFTWARE'
p3012
asbag57
(g78
g59
NtRp3013
(dp3014
g62
(dp3015
g89
g90
ssg71
g3004
sg64
(lp3016
S':'
asbag57
(g78
g59
NtRp3017
(dp3018
g62
(dp3019
sg71
g3004
sg64
(lp3020
g57
(g58
g59
NtRp3021
(dp3022
g62
(dp3023
g70
I3
ssg71
g3017
sg64
(lp3024
g1551
asbasbasbag57
(g73
g59
NtRp3025
(dp3026
g62
(dp3027
sg71
g2622
sg64
(lp3028
g57
(g78
g59
NtRp3029
(dp3030
g62
(dp3031
g82
g83
ssg71
g3025
sg64
(lp3032
S'wsgi.errors'
p3033
asbag57
(g78
g59
NtRp3034
(dp3035
g62
(dp3036
g89
g90
ssg71
g3025
sg64
(lp3037
S':'
asbag57
(g78
g59
NtRp3038
(dp3039
g62
(dp3040
sg71
g3025
sg64
(lp3041
g57
(g58
g59
NtRp3042
(dp3043
g62
(dp3044
g70
I3
ssg71
g3038
sg64
(lp3045
S"<open file '<stderr>', mode 'w' at 0x2b1166cb5270>"
p3046
asbasbasbag57
(g73
g59
NtRp3047
(dp3048
g62
(dp3049
sg71
g2622
sg64
(lp3050
g57
(g78
g59
NtRp3051
(dp3052
g62
(dp3053
g82
g83
ssg71
g3047
sg64
(lp3054
S'wsgi.file_wrapper'
p3055
asbag57
(g78
g59
NtRp3056
(dp3057
g62
(dp3058
g89
g90
ssg71
g3047
sg64
(lp3059
S':'
asbag57
(g78
g59
NtRp3060
(dp3061
g62
(dp3062
sg71
g3047
sg64
(lp3063
g57
(g58
g59
NtRp3064
(dp3065
g62
(dp3066
g70
I3
ssg71
g3060
sg64
(lp3067
S'<class wsgiref.util.FileWrapper at 0x19dbfa78>'
p3068
asbasbasbag57
(g73
g59
NtRp3069
(dp3070
g62
(dp3071
sg71
g2622
sg64
(lp3072
g57
(g78
g59
NtRp3073
(dp3074
g62
(dp3075
g82
g83
ssg71
g3069
sg64
(lp3076
S'wsgi.input'
p3077
asbag57
(g78
g59
NtRp3078
(dp3079
g62
(dp3080
g89
g90
ssg71
g3069
sg64
(lp3081
S':'
asbag57
(g78
g59
NtRp3082
(dp3083
g62
(dp3084
sg71
g3069
sg64
(lp3085
g57
(g58
g59
NtRp3086
(dp3087
g62
(dp3088
g70
I3
ssg71
g3082
sg64
(lp3089
S'<cStringIO.StringO object at 0x1e9445a8>'
p3090
asbasbasbag57
(g73
g59
NtRp3091
(dp3092
g62
(dp3093
sg71
g2622
sg64
(lp3094
g57
(g78
g59
NtRp3095
(dp3096
g62
(dp3097
g82
g83
ssg71
g3091
sg64
(lp3098
S'wsgi.multiprocess'
p3099
asbag57
(g78
g59
NtRp3100
(dp3101
g62
(dp3102
g89
g90
ssg71
g3091
sg64
(lp3103
S':'
asbag57
(g78
g59
NtRp3104
(dp3105
g62
(dp3106
sg71
g3091
sg64
(lp3107
g57
(g58
g59
NtRp3108
(dp3109
g62
(dp3110
g70
I3
ssg71
g3104
sg64
(lp3111
g100
asbasbasbag57
(g73
g59
NtRp3112
(dp3113
g62
(dp3114
sg71
g2622
sg64
(lp3115
g57
(g78
g59
NtRp3116
(dp3117
g62
(dp3118
g82
g83
ssg71
g3112
sg64
(lp3119
S'wsgi.multithread'
p3120
asbag57
(g78
g59
NtRp3121
(dp3122
g62
(dp3123
g89
g90
ssg71
g3112
sg64
(lp3124
S':'
asbag57
(g78
g59
NtRp3125
(dp3126
g62
(dp3127
sg71
g3112
sg64
(lp3128
g57
(g58
g59
NtRp3129
(dp3130
g62
(dp3131
g70
I3
ssg71
g3125
sg64
(lp3132
g1768
asbasbasbag57
(g73
g59
NtRp3133
(dp3134
g62
(dp3135
sg71
g2622
sg64
(lp3136
g57
(g78
g59
NtRp3137
(dp3138
g62
(dp3139
g82
g83
ssg71
g3133
sg64
(lp3140
S'wsgi.run_once'
p3141
asbag57
(g78
g59
NtRp3142
(dp3143
g62
(dp3144
g89
g90
ssg71
g3133
sg64
(lp3145
S':'
asbag57
(g78
g59
NtRp3146
(dp3147
g62
(dp3148
sg71
g3133
sg64
(lp3149
g57
(g58
g59
NtRp3150
(dp3151
g62
(dp3152
g70
I3
ssg71
g3146
sg64
(lp3153
g100
asbasbasbag57
(g73
g59
NtRp3154
(dp3155
g62
(dp3156
sg71
g2622
sg64
(lp3157
g57
(g78
g59
NtRp3158
(dp3159
g62
(dp3160
g82
g83
ssg71
g3154
sg64
(lp3161
S'wsgi.url_scheme'
p3162
asbag57
(g78
g59
NtRp3163
(dp3164
g62
(dp3165
g89
g90
ssg71
g3154
sg64
(lp3166
S':'
asbag57
(g78
g59
NtRp3167
(dp3168
g62
(dp3169
sg71
g3154
sg64
(lp3170
g57
(g58
g59
NtRp3171
(dp3172
g62
(dp3173
g70
I3
ssg71
g3167
sg64
(lp3174
g1811
asbasbasbag57
(g73
g59
NtRp3175
(dp3176
g62
(dp3177
sg71
g2622
sg64
(lp3178
g57
(g78
g59
NtRp3179
(dp3180
g62
(dp3181
g82
g83
ssg71
g3175
sg64
(lp3182
S'wsgi.version'
p3183
asbag57
(g78
g59
NtRp3184
(dp3185
g62
(dp3186
g89
g90
ssg71
g3175
sg64
(lp3187
S':'
asbag57
(g78
g59
NtRp3188
(dp3189
g62
(dp3190
sg71
g3175
sg64
(lp3191
g57
(g58
g59
NtRp3192
(dp3193
g62
(dp3194
g70
I3
ssg71
g3188
sg64
(lp3195
S'1'
asbasbasbasbasbasbasbasbasbasbasbasbasbsS'frames'
p3196
(lp3197
(dp3198
S'file'
p3199
S'/home/xchen/web2py/gluon/restricted.py'
p3200
sS'dump'
p3201
(dp3202
S'environment'
p3203
S"{'A': <class 'gluon.html.A'>, 'Auth': <class 'gluon.tools.Auth'>, 'B': <class 'gluon.html.B'>, 'BEAUTIFY': <class 'gluon.html.BEAUTIFY'>, 'BODY': <class 'gluon.html.BODY'>, 'BR': <class 'gluon.html.BR'>, 'BUTTON': <class 'gluon.html.BUTTON'>, 'CAT': <class 'gluon.html.CAT'>, 'CENTER': <class 'gluon.html.CENTER'>, 'CLEANUP': <class 'gluon.validators.CLEANUP'>, ...}"
p3204
sS'ccode'
p3205
S'<code object <module> at 0x1d430730, file "/home...lications/Betsy/controllers/default.py", line 12>'
p3206
ssS'lnum'
p3207
I212
sS'lines'
p3208
(dp3209
I207
S'    try:'
p3210
sI208
S'        if isinstance(code, types.CodeType):'
p3211
sI209
S'            ccode = code'
p3212
sI210
S'        else:'
p3213
sI211
S'            ccode = compile2(code, layer)'
p3214
sI212
S'        exec ccode in environment'
p3215
sI213
S'    except HTTP:'
p3216
sI214
S'        raise'
p3217
sI215
S'    except RestrictedError:'
p3218
sI216
S'        # do not encapsulate (obfuscate) the original RestrictedError'
p3219
ssS'call'
p3220
S"(code='# -*- coding: utf-8 -*-\\n# this file is released ...))\\n\\nresponse._vars=response._caller(show_status)\\n', environment={'A': <class 'gluon.html.A'>, 'Auth': <class 'gluon.tools.Auth'>, 'B': <class 'gluon.html.B'>, 'BEAUTIFY': <class 'gluon.html.BEAUTIFY'>, 'BODY': <class 'gluon.html.BODY'>, 'BR': <class 'gluon.html.BR'>, 'BUTTON': <class 'gluon.html.BUTTON'>, 'CAT': <class 'gluon.html.CAT'>, 'CENTER': <class 'gluon.html.CENTER'>, 'CLEANUP': <class 'gluon.validators.CLEANUP'>, ...}, layer='/home/xchen/web2py/applications/Betsy/controllers/default.py')"
p3221
sS'func'
p3222
S'restricted'
p3223
sa(dp3224
g3199
S'/home/xchen/web2py/applications/Betsy/controllers/default.py'
p3225
sg3201
(dp3226
sg3207
I153
sg3208
(dp3227
I142
S'    http://..../[app]/default/data/update/[table]/[id]'
p3228
sI143
S'    http://..../[app]/default/data/delete/[table]/[id]'
p3229
sI144
S'    http://..../[app]/default/data/select/[table]'
p3230
sI145
S'    http://..../[app]/default/data/search/[table]'
p3231
sI146
S'    but URLs must be signed, i.e. linked with'
p3232
sI147
S"      A('table',_href=URL('data/tables',user_signature=True))"
p3233
sI148
S'    or with the signed load operator'
p3234
sI149
S"      LOAD('default','data.load',args='tables',ajax=True,user_signature=True)"
p3235
sI150
S'    """'
p3236
sI151
S'    return dict(form=crud())'
p3237
ssg3220
S'()'
p3238
sg3222
S'<module>'
p3239
sa(dp3240
g3199
S'/home/xchen/web2py/gluon/globals.py'
p3241
sg3201
(dp3242
S'self'
p3243
S'undefined'
p3244
sS'f'
S'<function show_status>'
p3245
ssg3207
I188
sg3208
(dp3246
I192
S''
sI183
S'        self.menu = []             # used by the default view layout'
p3247
sI184
S'        self.files = []            # used by web2py_ajax.html'
p3248
sI185
S'        self.generic_patterns = []  # patterns to allow generic views'
p3249
sI186
S"        self.delimiters = ('{{', '}}')"
p3250
sI187
S'        self._vars = None'
p3251
sI188
S'        self._caller = lambda f: f()'
p3252
sI189
S'        self._view_environment = None'
p3253
sI190
S'        self._custom_commit = None'
p3254
sI191
S'        self._custom_rollback = None'
p3255
ssg3220
S'(f=<function show_status>)'
p3256
sg3222
S'<lambda>'
p3257
sa(dp3258
g3199
S'/home/xchen/web2py/applications/Betsy/controllers/default.py'
p3259
sg3201
(dp3260
S'Ended'
p3261
g3244
sS'Command'
p3262
g3244
sS'Link'
p3263
g3244
sS'lines'
p3264
S"['Jobnumber', 'Jobname', 'Status', 'Started', 'Ended', 'Submitted', 'Command']"
p3265
sS'Submitted'
p3266
g3244
ssg3207
I56
sg3208
(dp3267
I51
S"    log_information = process.stdout.read().split('\\n')"
p3268
sI52
S'    for log_line in log_information:'
p3269
sI53
S"        lines = log_line.split('\\t')"
p3270
sI54
S'        print lines'
p3271
sI55
S'        id=db.status.insert(Jobnumber=lines[0],Jobname=lines[1], Status=lines[2], Started=lines[3],'
p3272
sI56
S'        Ended=lines[4],Submitted=lines[5],Command=lines[6],Link=lines[7])'
p3273
sI57
S'    form=db().select(db.status.ALL)'
p3274
sI58
S'    return dict(form=form)'
p3275
sI59
S''
sI60
S'def second():'
p3276
ssg3220
S'()'
p3277
sg3222
S'show_status'
p3278
sasS'pyver'
p3279
S'Python 2.7.3: /usr/local/bin/python'
p3280
sS'session'
p3281
g57
(g58
g59
NtRp3282
(dp3283
g62
(dp3284
sg64
(lp3285
g57
(g66
g59
NtRp3286
(dp3287
g62
(dp3288
g70
I5
ssg71
Nsg64
(lp3289
g57
(g73
g59
NtRp3290
(dp3291
g62
(dp3292
sg71
g3286
sg64
(lp3293
g57
(g78
g59
NtRp3294
(dp3295
g62
(dp3296
g82
g83
ssg71
g3290
sg64
(lp3297
S'auth'
p3298
asbag57
(g78
g59
NtRp3299
(dp3300
g62
(dp3301
g89
g90
ssg71
g3290
sg64
(lp3302
S':'
asbag57
(g78
g59
NtRp3303
(dp3304
g62
(dp3305
sg71
g3290
sg64
(lp3306
g57
(g58
g59
NtRp3307
(dp3308
g62
(dp3309
g70
I5
ssg71
g3303
sg64
(lp3310
g57
(g66
g59
NtRp3311
(dp3312
g62
(dp3313
g70
I4
ssg71
Nsg64
(lp3314
g57
(g73
g59
NtRp3315
(dp3316
g62
(dp3317
sg71
g3311
sg64
(lp3318
g57
(g78
g59
NtRp3319
(dp3320
g62
(dp3321
g82
g83
ssg71
g3315
sg64
(lp3322
S'expiration'
p3323
asbag57
(g78
g59
NtRp3324
(dp3325
g62
(dp3326
g89
g90
ssg71
g3315
sg64
(lp3327
S':'
asbag57
(g78
g59
NtRp3328
(dp3329
g62
(dp3330
sg71
g3315
sg64
(lp3331
g57
(g58
g59
NtRp3332
(dp3333
g62
(dp3334
g70
I4
ssg71
g3328
sg64
(lp3335
S'2592000'
p3336
asbasbasbag57
(g73
g59
NtRp3337
(dp3338
g62
(dp3339
sg71
g3311
sg64
(lp3340
g57
(g78
g59
NtRp3341
(dp3342
g62
(dp3343
g82
g83
ssg71
g3337
sg64
(lp3344
S'hmac_key'
p3345
asbag57
(g78
g59
NtRp3346
(dp3347
g62
(dp3348
g89
g90
ssg71
g3337
sg64
(lp3349
S':'
asbag57
(g78
g59
NtRp3350
(dp3351
g62
(dp3352
sg71
g3337
sg64
(lp3353
g57
(g58
g59
NtRp3354
(dp3355
g62
(dp3356
g70
I4
ssg71
g3350
sg64
(lp3357
S'739afc94-a36b-429c-8715-edcd03ea4351'
p3358
asbasbasbag57
(g73
g59
NtRp3359
(dp3360
g62
(dp3361
sg71
g3311
sg64
(lp3362
g57
(g78
g59
NtRp3363
(dp3364
g62
(dp3365
g82
g83
ssg71
g3359
sg64
(lp3366
S'last_visit'
p3367
asbag57
(g78
g59
NtRp3368
(dp3369
g62
(dp3370
g89
g90
ssg71
g3359
sg64
(lp3371
S':'
asbag57
(g78
g59
NtRp3372
(dp3373
g62
(dp3374
sg71
g3359
sg64
(lp3375
g57
(g58
g59
NtRp3376
(dp3377
g62
(dp3378
g70
I4
ssg71
g3372
sg64
(lp3379
S'datetime.datetime(2013, 2, 4, 10, 24, 37, 237452)'
p3380
asbasbasbag57
(g73
g59
NtRp3381
(dp3382
g62
(dp3383
sg71
g3311
sg64
(lp3384
g57
(g78
g59
NtRp3385
(dp3386
g62
(dp3387
g82
g83
ssg71
g3381
sg64
(lp3388
S'remember'
p3389
asbag57
(g78
g59
NtRp3390
(dp3391
g62
(dp3392
g89
g90
ssg71
g3381
sg64
(lp3393
S':'
asbag57
(g78
g59
NtRp3394
(dp3395
g62
(dp3396
sg71
g3381
sg64
(lp3397
g57
(g58
g59
NtRp3398
(dp3399
g62
(dp3400
g70
I4
ssg71
g3394
sg64
(lp3401
g1768
asbasbasbag57
(g73
g59
NtRp3402
(dp3403
g62
(dp3404
sg71
g3311
sg64
(lp3405
g57
(g78
g59
NtRp3406
(dp3407
g62
(dp3408
g82
g83
ssg71
g3402
sg64
(lp3409
S'user'
p3410
asbag57
(g78
g59
NtRp3411
(dp3412
g62
(dp3413
g89
g90
ssg71
g3402
sg64
(lp3414
S':'
asbag57
(g78
g59
NtRp3415
(dp3416
g62
(dp3417
sg71
g3402
sg64
(lp3418
g57
(g58
g59
NtRp3419
(dp3420
g62
(dp3421
g70
I4
ssg71
g3415
sg64
(lp3422
g57
(g66
g59
NtRp3423
(dp3424
g62
(dp3425
g70
I3
ssg71
Nsg64
(lp3426
g57
(g73
g59
NtRp3427
(dp3428
g62
(dp3429
sg71
g3423
sg64
(lp3430
g57
(g78
g59
NtRp3431
(dp3432
g62
(dp3433
g82
g83
ssg71
g3427
sg64
(lp3434
S'email'
p3435
asbag57
(g78
g59
NtRp3436
(dp3437
g62
(dp3438
g89
g90
ssg71
g3427
sg64
(lp3439
S':'
asbag57
(g78
g59
NtRp3440
(dp3441
g62
(dp3442
sg71
g3427
sg64
(lp3443
g57
(g58
g59
NtRp3444
(dp3445
g62
(dp3446
g70
I3
ssg71
g3440
sg64
(lp3447
S'xiaoling.chen@uth.tmc.edu'
p3448
asbasbasbag57
(g73
g59
NtRp3449
(dp3450
g62
(dp3451
sg71
g3423
sg64
(lp3452
g57
(g78
g59
NtRp3453
(dp3454
g62
(dp3455
g82
g83
ssg71
g3449
sg64
(lp3456
S'first_name'
p3457
asbag57
(g78
g59
NtRp3458
(dp3459
g62
(dp3460
g89
g90
ssg71
g3449
sg64
(lp3461
S':'
asbag57
(g78
g59
NtRp3462
(dp3463
g62
(dp3464
sg71
g3449
sg64
(lp3465
g57
(g58
g59
NtRp3466
(dp3467
g62
(dp3468
g70
I3
ssg71
g3462
sg64
(lp3469
S'Xiaoling'
p3470
asbasbasbag57
(g73
g59
NtRp3471
(dp3472
g62
(dp3473
sg71
g3423
sg64
(lp3474
g57
(g78
g59
NtRp3475
(dp3476
g62
(dp3477
g82
g83
ssg71
g3471
sg64
(lp3478
S'id'
p3479
asbag57
(g78
g59
NtRp3480
(dp3481
g62
(dp3482
g89
g90
ssg71
g3471
sg64
(lp3483
S':'
asbag57
(g78
g59
NtRp3484
(dp3485
g62
(dp3486
sg71
g3471
sg64
(lp3487
g57
(g58
g59
NtRp3488
(dp3489
g62
(dp3490
g70
I3
ssg71
g3484
sg64
(lp3491
S'1'
asbasbasbag57
(g73
g59
NtRp3492
(dp3493
g62
(dp3494
sg71
g3423
sg64
(lp3495
g57
(g78
g59
NtRp3496
(dp3497
g62
(dp3498
g82
g83
ssg71
g3492
sg64
(lp3499
S'last_name'
p3500
asbag57
(g78
g59
NtRp3501
(dp3502
g62
(dp3503
g89
g90
ssg71
g3492
sg64
(lp3504
S':'
asbag57
(g78
g59
NtRp3505
(dp3506
g62
(dp3507
sg71
g3492
sg64
(lp3508
g57
(g58
g59
NtRp3509
(dp3510
g62
(dp3511
g70
I3
ssg71
g3505
sg64
(lp3512
S'Chen'
p3513
asbasbasbag57
(g73
g59
NtRp3514
(dp3515
g62
(dp3516
sg71
g3423
sg64
(lp3517
g57
(g78
g59
NtRp3518
(dp3519
g62
(dp3520
g82
g83
ssg71
g3514
sg64
(lp3521
S'registration_id'
p3522
asbag57
(g78
g59
NtRp3523
(dp3524
g62
(dp3525
g89
g90
ssg71
g3514
sg64
(lp3526
S':'
asbag57
(g78
g59
NtRp3527
(dp3528
g62
(dp3529
sg71
g3514
sg64
(lp3530
g57
(g58
g59
NtRp3531
(dp3532
g62
(dp3533
g70
I3
ssg71
g3527
sg64
(lp3534
S''
asbasbasbag57
(g73
g59
NtRp3535
(dp3536
g62
(dp3537
sg71
g3423
sg64
(lp3538
g57
(g78
g59
NtRp3539
(dp3540
g62
(dp3541
g82
g83
ssg71
g3535
sg64
(lp3542
S'registration_key'
p3543
asbag57
(g78
g59
NtRp3544
(dp3545
g62
(dp3546
g89
g90
ssg71
g3535
sg64
(lp3547
S':'
asbag57
(g78
g59
NtRp3548
(dp3549
g62
(dp3550
sg71
g3535
sg64
(lp3551
g57
(g58
g59
NtRp3552
(dp3553
g62
(dp3554
g70
I3
ssg71
g3548
sg64
(lp3555
S''
asbasbasbag57
(g73
g59
NtRp3556
(dp3557
g62
(dp3558
sg71
g3423
sg64
(lp3559
g57
(g78
g59
NtRp3560
(dp3561
g62
(dp3562
g82
g83
ssg71
g3556
sg64
(lp3563
S'reset_password_key'
p3564
asbag57
(g78
g59
NtRp3565
(dp3566
g62
(dp3567
g89
g90
ssg71
g3556
sg64
(lp3568
S':'
asbag57
(g78
g59
NtRp3569
(dp3570
g62
(dp3571
sg71
g3556
sg64
(lp3572
g57
(g58
g59
NtRp3573
(dp3574
g62
(dp3575
g70
I3
ssg71
g3569
sg64
(lp3576
S''
asbasbasbasbasbasbasbag57
(g73
g59
NtRp3577
(dp3578
g62
(dp3579
sg71
g3311
sg64
(lp3580
g57
(g78
g59
NtRp3581
(dp3582
g62
(dp3583
g82
g83
ssg71
g3577
sg64
(lp3584
S'user_groups'
p3585
asbag57
(g78
g59
NtRp3586
(dp3587
g62
(dp3588
g89
g90
ssg71
g3577
sg64
(lp3589
S':'
asbag57
(g78
g59
NtRp3590
(dp3591
g62
(dp3592
sg71
g3577
sg64
(lp3593
g57
(g58
g59
NtRp3594
(dp3595
g62
(dp3596
g70
I4
ssg71
g3590
sg64
(lp3597
g57
(g66
g59
NtRp3598
(dp3599
g62
(dp3600
g70
I3
ssg71
Nsg64
(lp3601
g57
(g73
g59
NtRp3602
(dp3603
g62
(dp3604
sg71
g3598
sg64
(lp3605
g57
(g78
g59
NtRp3606
(dp3607
g62
(dp3608
g82
g83
ssg71
g3602
sg64
(lp3609
S'1'
asbag57
(g78
g59
NtRp3610
(dp3611
g62
(dp3612
g89
g90
ssg71
g3602
sg64
(lp3613
S':'
asbag57
(g78
g59
NtRp3614
(dp3615
g62
(dp3616
sg71
g3602
sg64
(lp3617
g57
(g58
g59
NtRp3618
(dp3619
g62
(dp3620
g70
I3
ssg71
g3614
sg64
(lp3621
S'user_1'
p3622
asbasbasbasbasbasbasbasbasbasbasbag57
(g73
g59
NtRp3623
(dp3624
g62
(dp3625
sg71
g3286
sg64
(lp3626
g57
(g78
g59
NtRp3627
(dp3628
g62
(dp3629
g82
g83
ssg71
g3623
sg64
(lp3630
S'flash'
p3631
asbag57
(g78
g59
NtRp3632
(dp3633
g62
(dp3634
g89
g90
ssg71
g3623
sg64
(lp3635
S':'
asbag57
(g78
g59
NtRp3636
(dp3637
g62
(dp3638
sg71
g3623
sg64
(lp3639
g57
(g58
g59
NtRp3640
(dp3641
g62
(dp3642
g70
I5
ssg71
g3636
sg64
(lp3643
S'None'
p3644
asbasbasbag57
(g73
g59
NtRp3645
(dp3646
g62
(dp3647
sg71
g3286
sg64
(lp3648
g57
(g78
g59
NtRp3649
(dp3650
g62
(dp3651
g82
g83
ssg71
g3645
sg64
(lp3652
S'output'
p3653
asbag57
(g78
g59
NtRp3654
(dp3655
g62
(dp3656
g89
g90
ssg71
g3645
sg64
(lp3657
S':'
asbag57
(g78
g59
NtRp3658
(dp3659
g62
(dp3660
sg71
g3645
sg64
(lp3661
g57
(g58
g59
NtRp3662
(dp3663
g62
(dp3664
g70
I5
ssg71
g3658
sg64
(lp3665
g57
(g66
g59
NtRp3666
(dp3667
g62
(dp3668
g70
I4
ssg71
Nsg64
(lp3669
g57
(g73
g59
NtRp3670
(dp3671
g62
(dp3672
sg71
g3666
sg64
(lp3673
g57
(g78
g59
NtRp3674
(dp3675
g62
(dp3676
sg71
g3670
sg64
(lp3677
g57
(g58
g59
NtRp3678
(dp3679
g62
(dp3680
g70
I4
ssg71
g3674
sg64
(lp3681
S'Jobnumber\tJobname\tStatus\tStarted\tEnded\tSubmitted\tCommand'
p3682
asbasbasbag57
(g73
g59
NtRp3683
(dp3684
g62
(dp3685
sg71
g3666
sg64
(lp3686
g57
(g78
g59
NtRp3687
(dp3688
g62
(dp3689
sg71
g3683
sg64
(lp3690
g57
(g58
g59
NtRp3691
(dp3692
g62
(dp3693
g70
I4
ssg71
g3687
sg64
(lp3694
S'241\tF8QMFC\tkilled\tNA\t01/30/13:10:54:58\t01/30/13:10:54:41\tpython run_command.py'
p3695
asbasbasbag57
(g73
g59
NtRp3696
(dp3697
g62
(dp3698
sg71
g3666
sg64
(lp3699
g57
(g78
g59
NtRp3700
(dp3701
g62
(dp3702
sg71
g3696
sg64
(lp3703
g57
(g58
g59
NtRp3704
(dp3705
g62
(dp3706
g70
I4
ssg71
g3700
sg64
(lp3707
S'242\t1\tkilled\tNA\t01/30/13:10:56:50\t01/30/13:10:55:43\tpython run_command.py'
p3708
asbasbasbag57
(g73
g59
NtRp3709
(dp3710
g62
(dp3711
sg71
g3666
sg64
(lp3712
g57
(g78
g59
NtRp3713
(dp3714
g62
(dp3715
sg71
g3709
sg64
(lp3716
g57
(g58
g59
NtRp3717
(dp3718
g62
(dp3719
g70
I4
ssg71
g3713
sg64
(lp3720
S'243\t1JCM7W\tcompleted\tNA\t01/31/13:11:02:08\t01/30/13:16:23:56\tpython /home/xchen/chencode/Betsy/scripts/run_protocol.py --protocol normalize_file --input input_signal_file:/home/xchen/chencode/upload/no_table.myfile1.bc230362ce4171ba.616c6c5f616d6c5f747261696e5f66696c742e676374.gct --parameters has_missing_value:zero_fill --parameters preprocess:unknown_preprocess'
p3721
asbasbasbag57
(g73
g59
NtRp3722
(dp3723
g62
(dp3724
sg71
g3666
sg64
(lp3725
g57
(g78
g59
NtRp3726
(dp3727
g62
(dp3728
sg71
g3722
sg64
(lp3729
g57
(g58
g59
NtRp3730
(dp3731
g62
(dp3732
g70
I4
ssg71
g3726
sg64
(lp3733
S'244\tMD5OVN\tcompleted\tNA\t01/31/13:11:02:08\t01/30/13:16:26:25\tpython /home/xchen/chencode/Betsy/scripts/run_protocol.py --protocol normalize_file --input input_signal_file:/home/xchen/chencode/upload/no_table.myfile1.ac92b1b80e18666e.7369676e616c5f756e6c6f67747261696e2e70636c.pcl --parameters has_missing_value:zero_fill --parameters preprocess:unknown_preprocess'
p3734
asbasbasbag57
(g73
g59
NtRp3735
(dp3736
g62
(dp3737
sg71
g3666
sg64
(lp3738
g57
(g78
g59
NtRp3739
(dp3740
g62
(dp3741
sg71
g3735
sg64
(lp3742
g57
(g58
g59
NtRp3743
(dp3744
g62
(dp3745
g70
I4
ssg71
g3739
sg64
(lp3746
S'245\t2XXAAY\tcompleted\t01/31/13:11:02:08\t01/31/13:11:36:29\t01/31/13:11:02:08\tpython /home/xchen/chencode/Betsy/scripts/python run_command.py /home/xchen/chencode/upload/no_table.myfile1.9c934921a246486e.6a6f627175657565.txt'
p3747
asbasbasbag57
(g73
g59
NtRp3748
(dp3749
g62
(dp3750
sg71
g3666
sg64
(lp3751
g57
(g78
g59
NtRp3752
(dp3753
g62
(dp3754
sg71
g3748
sg64
(lp3755
g57
(g58
g59
NtRp3756
(dp3757
g62
(dp3758
g70
I4
ssg71
g3752
sg64
(lp3759
S'254\tKQFWA9\tcompleted\tNA\t02/04/13:15:52:33\t01/31/13:12:50:49\tpython /home/xchen/chencode/Betsy/scripts/python run_command.py /home/xchen/chencode/upload/no_table.myfile1.9c934921a246486e.6a6f627175657565.txt'
p3760
asbasbasbag57
(g73
g59
NtRp3761
(dp3762
g62
(dp3763
sg71
g3666
sg64
(lp3764
g57
(g78
g59
NtRp3765
(dp3766
g62
(dp3767
sg71
g3761
sg64
(lp3768
g57
(g58
g59
NtRp3769
(dp3770
g62
(dp3771
g70
I4
ssg71
g3765
sg64
(lp3772
S'255\t5O5TN9\tcompleted\tNA\t02/04/13:15:52:33\t01/31/13:13:38:12\tpython /home/xchen/chencode/Betsy/scripts/python run_command.py /home/xchen/chencode/upload/no_table.myfile1.9c934921a246486e.6a6f627175657565.txt'
p3773
asbasbasbag57
(g73
g59
NtRp3774
(dp3775
g62
(dp3776
sg71
g3666
sg64
(lp3777
g57
(g78
g59
NtRp3778
(dp3779
g62
(dp3780
sg71
g3774
sg64
(lp3781
g57
(g58
g59
NtRp3782
(dp3783
g62
(dp3784
g70
I4
ssg71
g3778
sg64
(lp3785
S'256\t66OKZZ\tcompleted\tNA\t02/04/13:15:52:33\t01/31/13:15:20:40\tpython /home/xchen/chencode/Betsy/scripts/run_rule.py --plin input_signal_file([contents,[a],status,given],[]) --plout signal_raw([contents,[a],format,tdf,is_logged,unknown_logged,preprocess,unknown_preprocess,predataset,no_predataset],A)'
p3786
asbasbasbag57
(g73
g59
NtRp3787
(dp3788
g62
(dp3789
sg71
g3666
sg64
(lp3790
g57
(g78
g59
NtRp3791
(dp3792
g62
(dp3793
sg71
g3787
sg64
(lp3794
g57
(g58
g59
NtRp3795
(dp3796
g62
(dp3797
g70
I4
ssg71
g3791
sg64
(lp3798
S''
asbasbasbasbasbasbasbasbasbsS'etype'
p3799
S"<type 'exceptions.IndexError'>"
p3800
sS'date'
p3801
S'Tue Feb  5 09:47:24 2013'
p3802
sS'response'
p3803
g57
(g58
g59
NtRp3804
(dp3805
g62
(dp3806
sg64
(lp3807
g57
(g66
g59
NtRp3808
(dp3809
g62
(dp3810
g70
I5
ssg71
Nsg64
(lp3811
g57
(g73
g59
NtRp3812
(dp3813
g62
(dp3814
sg71
g3808
sg64
(lp3815
g57
(g78
g59
NtRp3816
(dp3817
g62
(dp3818
g82
g83
ssg71
g3812
sg64
(lp3819
g155
asbag57
(g78
g59
NtRp3820
(dp3821
g62
(dp3822
g89
g90
ssg71
g3812
sg64
(lp3823
S':'
asbag57
(g78
g59
NtRp3824
(dp3825
g62
(dp3826
sg71
g3812
sg64
(lp3827
g57
(g58
g59
NtRp3828
(dp3829
g62
(dp3830
g70
I5
ssg71
g3824
sg64
(lp3831
S'<cStringIO.StringO object at 0x1e9445e0>'
p3832
asbasbasbag57
(g73
g59
NtRp3833
(dp3834
g62
(dp3835
sg71
g3808
sg64
(lp3836
g57
(g78
g59
NtRp3837
(dp3838
g62
(dp3839
g82
g83
ssg71
g3833
sg64
(lp3840
g243
asbag57
(g78
g59
NtRp3841
(dp3842
g62
(dp3843
g89
g90
ssg71
g3833
sg64
(lp3844
S':'
asbag57
(g78
g59
NtRp3845
(dp3846
g62
(dp3847
sg71
g3833
sg64
(lp3848
g57
(g58
g59
NtRp3849
(dp3850
g62
(dp3851
g70
I5
ssg71
g3845
sg64
(lp3852
g57
(g66
g59
NtRp3853
(dp3854
g62
(dp3855
g70
I4
ssg71
Nsg64
(lp3856
g57
(g73
g59
NtRp3857
(dp3858
g62
(dp3859
sg71
g3853
sg64
(lp3860
g57
(g78
g59
NtRp3861
(dp3862
g62
(dp3863
g82
g83
ssg71
g3857
sg64
(lp3864
S'session_id_betsy'
p3865
asbag57
(g78
g59
NtRp3866
(dp3867
g62
(dp3868
g89
g90
ssg71
g3857
sg64
(lp3869
S':'
asbag57
(g78
g59
NtRp3870
(dp3871
g62
(dp3872
sg71
g3857
sg64
(lp3873
g57
(g58
g59
NtRp3874
(dp3875
g62
(dp3876
g70
I4
ssg71
g3870
sg64
(lp3877
g475
ag57
(g66
g59
NtRp3878
(dp3879
g62
(dp3880
g70
I3
ssg71
Nsg64
(lp3881
g57
(g73
g59
NtRp3882
(dp3883
g62
(dp3884
sg71
g3878
sg64
(lp3885
g57
(g78
g59
NtRp3886
(dp3887
g62
(dp3888
g82
g83
ssg71
g3882
sg64
(lp3889
g294
asbag57
(g78
g59
NtRp3890
(dp3891
g62
(dp3892
g89
g90
ssg71
g3882
sg64
(lp3893
S':'
asbag57
(g78
g59
NtRp3894
(dp3895
g62
(dp3896
sg71
g3882
sg64
(lp3897
g57
(g58
g59
NtRp3898
(dp3899
g62
(dp3900
g70
I3
ssg71
g3894
sg64
(lp3901
S''
asbasbasbag57
(g73
g59
NtRp3902
(dp3903
g62
(dp3904
sg71
g3878
sg64
(lp3905
g57
(g78
g59
NtRp3906
(dp3907
g62
(dp3908
g82
g83
ssg71
g3902
sg64
(lp3909
g315
asbag57
(g78
g59
NtRp3910
(dp3911
g62
(dp3912
g89
g90
ssg71
g3902
sg64
(lp3913
S':'
asbag57
(g78
g59
NtRp3914
(dp3915
g62
(dp3916
sg71
g3902
sg64
(lp3917
g57
(g58
g59
NtRp3918
(dp3919
g62
(dp3920
g70
I3
ssg71
g3914
sg64
(lp3921
S''
asbasbasbag57
(g73
g59
NtRp3922
(dp3923
g62
(dp3924
sg71
g3878
sg64
(lp3925
g57
(g78
g59
NtRp3926
(dp3927
g62
(dp3928
g82
g83
ssg71
g3922
sg64
(lp3929
g336
asbag57
(g78
g59
NtRp3930
(dp3931
g62
(dp3932
g89
g90
ssg71
g3922
sg64
(lp3933
S':'
asbag57
(g78
g59
NtRp3934
(dp3935
g62
(dp3936
sg71
g3922
sg64
(lp3937
g57
(g58
g59
NtRp3938
(dp3939
g62
(dp3940
g70
I3
ssg71
g3934
sg64
(lp3941
S'2592000'
p3942
asbasbasbag57
(g73
g59
NtRp3943
(dp3944
g62
(dp3945
sg71
g3878
sg64
(lp3946
g57
(g78
g59
NtRp3947
(dp3948
g62
(dp3949
g82
g83
ssg71
g3943
sg64
(lp3950
g357
asbag57
(g78
g59
NtRp3951
(dp3952
g62
(dp3953
g89
g90
ssg71
g3943
sg64
(lp3954
S':'
asbag57
(g78
g59
NtRp3955
(dp3956
g62
(dp3957
sg71
g3943
sg64
(lp3958
g57
(g58
g59
NtRp3959
(dp3960
g62
(dp3961
g70
I3
ssg71
g3955
sg64
(lp3962
S''
asbasbasbag57
(g73
g59
NtRp3963
(dp3964
g62
(dp3965
sg71
g3878
sg64
(lp3966
g57
(g78
g59
NtRp3967
(dp3968
g62
(dp3969
g82
g83
ssg71
g3963
sg64
(lp3970
g378
asbag57
(g78
g59
NtRp3971
(dp3972
g62
(dp3973
g89
g90
ssg71
g3963
sg64
(lp3974
S':'
asbag57
(g78
g59
NtRp3975
(dp3976
g62
(dp3977
sg71
g3963
sg64
(lp3978
g57
(g58
g59
NtRp3979
(dp3980
g62
(dp3981
g70
I3
ssg71
g3975
sg64
(lp3982
S''
asbasbasbag57
(g73
g59
NtRp3983
(dp3984
g62
(dp3985
sg71
g3878
sg64
(lp3986
g57
(g78
g59
NtRp3987
(dp3988
g62
(dp3989
g82
g83
ssg71
g3983
sg64
(lp3990
g399
asbag57
(g78
g59
NtRp3991
(dp3992
g62
(dp3993
g89
g90
ssg71
g3983
sg64
(lp3994
S':'
asbag57
(g78
g59
NtRp3995
(dp3996
g62
(dp3997
sg71
g3983
sg64
(lp3998
g57
(g58
g59
NtRp3999
(dp4000
g62
(dp4001
g70
I3
ssg71
g3995
sg64
(lp4002
S'/'
asbasbasbag57
(g73
g59
NtRp4003
(dp4004
g62
(dp4005
sg71
g3878
sg64
(lp4006
g57
(g78
g59
NtRp4007
(dp4008
g62
(dp4009
g82
g83
ssg71
g4003
sg64
(lp4010
g420
asbag57
(g78
g59
NtRp4011
(dp4012
g62
(dp4013
g89
g90
ssg71
g4003
sg64
(lp4014
S':'
asbag57
(g78
g59
NtRp4015
(dp4016
g62
(dp4017
sg71
g4003
sg64
(lp4018
g57
(g58
g59
NtRp4019
(dp4020
g62
(dp4021
g70
I3
ssg71
g4015
sg64
(lp4022
S''
asbasbasbag57
(g73
g59
NtRp4023
(dp4024
g62
(dp4025
sg71
g3878
sg64
(lp4026
g57
(g78
g59
NtRp4027
(dp4028
g62
(dp4029
g82
g83
ssg71
g4023
sg64
(lp4030
g441
asbag57
(g78
g59
NtRp4031
(dp4032
g62
(dp4033
g89
g90
ssg71
g4023
sg64
(lp4034
S':'
asbag57
(g78
g59
NtRp4035
(dp4036
g62
(dp4037
sg71
g4023
sg64
(lp4038
g57
(g58
g59
NtRp4039
(dp4040
g62
(dp4041
g70
I3
ssg71
g4035
sg64
(lp4042
S''
asbasbasbasbasbasbasbasbasbasbasbag57
(g73
g59
NtRp4043
(dp4044
g62
(dp4045
sg71
g3808
sg64
(lp4046
g57
(g78
g59
NtRp4047
(dp4048
g62
(dp4049
g82
g83
ssg71
g4043
sg64
(lp4050
S'delimiters'
p4051
asbag57
(g78
g59
NtRp4052
(dp4053
g62
(dp4054
g89
g90
ssg71
g4043
sg64
(lp4055
S':'
asbag57
(g78
g59
NtRp4056
(dp4057
g62
(dp4058
sg71
g4043
sg64
(lp4059
g57
(g58
g59
NtRp4060
(dp4061
g62
(dp4062
g70
I5
ssg71
g4056
sg64
(lp4063
g57
(g66
g59
NtRp4064
(dp4065
g62
(dp4066
g70
I4
ssg71
Nsg64
(lp4067
g57
(g73
g59
NtRp4068
(dp4069
g62
(dp4070
sg71
g4064
sg64
(lp4071
g57
(g78
g59
NtRp4072
(dp4073
g62
(dp4074
sg71
g4068
sg64
(lp4075
g57
(g58
g59
NtRp4076
(dp4077
g62
(dp4078
g70
I4
ssg71
g4072
sg64
(lp4079
S'{{'
p4080
asbasbasbag57
(g73
g59
NtRp4081
(dp4082
g62
(dp4083
sg71
g4064
sg64
(lp4084
g57
(g78
g59
NtRp4085
(dp4086
g62
(dp4087
sg71
g4081
sg64
(lp4088
g57
(g58
g59
NtRp4089
(dp4090
g62
(dp4091
g70
I4
ssg71
g4085
sg64
(lp4092
S'}}'
p4093
asbasbasbasbasbasbasbag57
(g73
g59
NtRp4094
(dp4095
g62
(dp4096
sg71
g3808
sg64
(lp4097
g57
(g78
g59
NtRp4098
(dp4099
g62
(dp4100
g82
g83
ssg71
g4094
sg64
(lp4101
S'files'
p4102
asbag57
(g78
g59
NtRp4103
(dp4104
g62
(dp4105
g89
g90
ssg71
g4094
sg64
(lp4106
S':'
asbag57
(g78
g59
NtRp4107
(dp4108
g62
(dp4109
sg71
g4094
sg64
(lp4110
g57
(g58
g59
NtRp4111
(dp4112
g62
(dp4113
g70
I5
ssg71
g4107
sg64
(lp4114
g57
(g66
g59
NtRp4115
(dp4116
g62
(dp4117
g70
I4
ssg71
Nsg64
(lp4118
sbasbasbasbag57
(g73
g59
NtRp4119
(dp4120
g62
(dp4121
sg71
g3808
sg64
(lp4122
g57
(g78
g59
NtRp4123
(dp4124
g62
(dp4125
g82
g83
ssg71
g4119
sg64
(lp4126
S'flash'
p4127
asbag57
(g78
g59
NtRp4128
(dp4129
g62
(dp4130
g89
g90
ssg71
g4119
sg64
(lp4131
S':'
asbag57
(g78
g59
NtRp4132
(dp4133
g62
(dp4134
sg71
g4119
sg64
(lp4135
g57
(g58
g59
NtRp4136
(dp4137
g62
(dp4138
g70
I5
ssg71
g4132
sg64
(lp4139
S''
asbasbasbag57
(g73
g59
NtRp4140
(dp4141
g62
(dp4142
sg71
g3808
sg64
(lp4143
g57
(g78
g59
NtRp4144
(dp4145
g62
(dp4146
g82
g83
ssg71
g4140
sg64
(lp4147
S'generic_patterns'
p4148
asbag57
(g78
g59
NtRp4149
(dp4150
g62
(dp4151
g89
g90
ssg71
g4140
sg64
(lp4152
S':'
asbag57
(g78
g59
NtRp4153
(dp4154
g62
(dp4155
sg71
g4140
sg64
(lp4156
g57
(g58
g59
NtRp4157
(dp4158
g62
(dp4159
g70
I5
ssg71
g4153
sg64
(lp4160
g57
(g66
g59
NtRp4161
(dp4162
g62
(dp4163
g70
I4
ssg71
Nsg64
(lp4164
g57
(g73
g59
NtRp4165
(dp4166
g62
(dp4167
sg71
g4161
sg64
(lp4168
g57
(g78
g59
NtRp4169
(dp4170
g62
(dp4171
sg71
g4165
sg64
(lp4172
g57
(g58
g59
NtRp4173
(dp4174
g62
(dp4175
g70
I4
ssg71
g4169
sg64
(lp4176
S'*'
asbasbasbasbasbasbasbag57
(g73
g59
NtRp4177
(dp4178
g62
(dp4179
sg71
g3808
sg64
(lp4180
g57
(g78
g59
NtRp4181
(dp4182
g62
(dp4183
g82
g83
ssg71
g4177
sg64
(lp4184
S'google_analytics_id'
p4185
asbag57
(g78
g59
NtRp4186
(dp4187
g62
(dp4188
g89
g90
ssg71
g4177
sg64
(lp4189
S':'
asbag57
(g78
g59
NtRp4190
(dp4191
g62
(dp4192
sg71
g4177
sg64
(lp4193
g57
(g58
g59
NtRp4194
(dp4195
g62
(dp4196
g70
I5
ssg71
g4190
sg64
(lp4197
S'None'
p4198
asbasbasbag57
(g73
g59
NtRp4199
(dp4200
g62
(dp4201
sg71
g3808
sg64
(lp4202
g57
(g78
g59
NtRp4203
(dp4204
g62
(dp4205
g82
g83
ssg71
g4199
sg64
(lp4206
S'headers'
p4207
asbag57
(g78
g59
NtRp4208
(dp4209
g62
(dp4210
g89
g90
ssg71
g4199
sg64
(lp4211
S':'
asbag57
(g78
g59
NtRp4212
(dp4213
g62
(dp4214
sg71
g4199
sg64
(lp4215
g57
(g58
g59
NtRp4216
(dp4217
g62
(dp4218
g70
I5
ssg71
g4212
sg64
(lp4219
g57
(g66
g59
NtRp4220
(dp4221
g62
(dp4222
g70
I4
ssg71
Nsg64
(lp4223
g57
(g73
g59
NtRp4224
(dp4225
g62
(dp4226
sg71
g4220
sg64
(lp4227
g57
(g78
g59
NtRp4228
(dp4229
g62
(dp4230
g82
g83
ssg71
g4224
sg64
(lp4231
S'X-Powered-By'
p4232
asbag57
(g78
g59
NtRp4233
(dp4234
g62
(dp4235
g89
g90
ssg71
g4224
sg64
(lp4236
S':'
asbag57
(g78
g59
NtRp4237
(dp4238
g62
(dp4239
sg71
g4224
sg64
(lp4240
g57
(g58
g59
NtRp4241
(dp4242
g62
(dp4243
g70
I4
ssg71
g4237
sg64
(lp4244
S'web2py'
p4245
asbasbasbasbasbasbasbag57
(g73
g59
NtRp4246
(dp4247
g62
(dp4248
sg71
g3808
sg64
(lp4249
g57
(g78
g59
NtRp4250
(dp4251
g62
(dp4252
g82
g83
ssg71
g4246
sg64
(lp4253
S'menu'
p4254
asbag57
(g78
g59
NtRp4255
(dp4256
g62
(dp4257
g89
g90
ssg71
g4246
sg64
(lp4258
S':'
asbag57
(g78
g59
NtRp4259
(dp4260
g62
(dp4261
sg71
g4246
sg64
(lp4262
g57
(g58
g59
NtRp4263
(dp4264
g62
(dp4265
g70
I5
ssg71
g4259
sg64
(lp4266
g57
(g66
g59
NtRp4267
(dp4268
g62
(dp4269
g70
I4
ssg71
Nsg64
(lp4270
g57
(g73
g59
NtRp4271
(dp4272
g62
(dp4273
sg71
g4267
sg64
(lp4274
g57
(g78
g59
NtRp4275
(dp4276
g62
(dp4277
sg71
g4271
sg64
(lp4278
g57
(g58
g59
NtRp4279
(dp4280
g62
(dp4281
g70
I4
ssg71
g4275
sg64
(lp4282
g57
(g66
g59
NtRp4283
(dp4284
g62
(dp4285
g70
I3
ssg71
Nsg64
(lp4286
g57
(g73
g59
NtRp4287
(dp4288
g62
(dp4289
sg71
g4283
sg64
(lp4290
g57
(g78
g59
NtRp4291
(dp4292
g62
(dp4293
sg71
g4287
sg64
(lp4294
g57
(g58
g59
NtRp4295
(dp4296
g62
(dp4297
g70
I3
ssg71
g4291
sg64
(lp4298
cgluon.languages
lazyT_unpickle
p4299
(S's\x04\x00\x00\x00Home'
tRp4300
asbasbasbag57
(g73
g59
NtRp4301
(dp4302
g62
(dp4303
sg71
g4283
sg64
(lp4304
g57
(g78
g59
NtRp4305
(dp4306
g62
(dp4307
sg71
g4301
sg64
(lp4308
g57
(g58
g59
NtRp4309
(dp4310
g62
(dp4311
g70
I3
ssg71
g4305
sg64
(lp4312
g100
asbasbasbag57
(g73
g59
NtRp4313
(dp4314
g62
(dp4315
sg71
g4283
sg64
(lp4316
g57
(g78
g59
NtRp4317
(dp4318
g62
(dp4319
sg71
g4313
sg64
(lp4320
g57
(g58
g59
NtRp4321
(dp4322
g62
(dp4323
g70
I3
ssg71
g4317
sg64
(lp4324
S'/Betsy/default/index'
p4325
asbasbasbag57
(g73
g59
NtRp4326
(dp4327
g62
(dp4328
sg71
g4283
sg64
(lp4329
g57
(g78
g59
NtRp4330
(dp4331
g62
(dp4332
sg71
g4326
sg64
(lp4333
g57
(g58
g59
NtRp4334
(dp4335
g62
(dp4336
g70
I3
ssg71
g4330
sg64
(lp4337
g57
(g66
g59
NtRp4338
(dp4339
g62
(dp4340
g70
I2
ssg71
Nsg64
(lp4341
sbasbasbasbasbasbasbasbag57
(g73
g59
NtRp4342
(dp4343
g62
(dp4344
sg71
g4267
sg64
(lp4345
g57
(g78
g59
NtRp4346
(dp4347
g62
(dp4348
sg71
g4342
sg64
(lp4349
g57
(g58
g59
NtRp4350
(dp4351
g62
(dp4352
g70
I4
ssg71
g4346
sg64
(lp4353
g57
(g66
g59
NtRp4354
(dp4355
g62
(dp4356
g70
I3
ssg71
Nsg64
(lp4357
g57
(g73
g59
NtRp4358
(dp4359
g62
(dp4360
sg71
g4354
sg64
(lp4361
g57
(g78
g59
NtRp4362
(dp4363
g62
(dp4364
sg71
g4358
sg64
(lp4365
g57
(g58
g59
NtRp4366
(dp4367
g62
(dp4368
g70
I3
ssg71
g4362
sg64
(lp4369
g57
(cgluon.html
SPAN
p4370
g59
NtRp4371
(dp4372
g62
(dp4373
S'_class'
p4374
S'highlighted'
p4375
ssg71
Nsg64
(lp4376
g4245
asbasbasbasbag57
(g73
g59
NtRp4377
(dp4378
g62
(dp4379
sg71
g4354
sg64
(lp4380
g57
(g78
g59
NtRp4381
(dp4382
g62
(dp4383
sg71
g4377
sg64
(lp4384
g57
(g58
g59
NtRp4385
(dp4386
g62
(dp4387
g70
I3
ssg71
g4381
sg64
(lp4388
g100
asbasbasbag57
(g73
g59
NtRp4389
(dp4390
g62
(dp4391
sg71
g4354
sg64
(lp4392
g57
(g78
g59
NtRp4393
(dp4394
g62
(dp4395
sg71
g4389
sg64
(lp4396
g57
(g58
g59
NtRp4397
(dp4398
g62
(dp4399
g70
I3
ssg71
g4393
sg64
(lp4400
S'http://web2py.com'
p4401
asbasbasbag57
(g73
g59
NtRp4402
(dp4403
g62
(dp4404
sg71
g4354
sg64
(lp4405
g57
(g78
g59
NtRp4406
(dp4407
g62
(dp4408
sg71
g4402
sg64
(lp4409
g57
(g58
g59
NtRp4410
(dp4411
g62
(dp4412
g70
I3
ssg71
g4406
sg64
(lp4413
g57
(g66
g59
NtRp4414
(dp4415
g62
(dp4416
g70
I2
ssg71
Nsg64
(lp4417
g57
(g73
g59
NtRp4418
(dp4419
g62
(dp4420
sg71
g4414
sg64
(lp4421
g57
(g78
g59
NtRp4422
(dp4423
g62
(dp4424
sg71
g4418
sg64
(lp4425
g57
(g58
g59
NtRp4426
(dp4427
g62
(dp4428
g70
I2
ssg71
g4422
sg64
(lp4429
g57
(g66
g59
NtRp4430
(dp4431
g62
(dp4432
g70
I1
ssg71
Nsg64
(lp4433
g57
(g73
g59
NtRp4434
(dp4435
g62
(dp4436
sg71
g4430
sg64
(lp4437
g57
(g78
g59
NtRp4438
(dp4439
g62
(dp4440
sg71
g4434
sg64
(lp4441
g57
(g58
g59
NtRp4442
(dp4443
g62
(dp4444
g70
I1
ssg71
g4438
sg64
(lp4445
g4299
(S's\x08\x00\x00\x00My Sites'
tRp4446
asbasbasbag57
(g73
g59
NtRp4447
(dp4448
g62
(dp4449
sg71
g4430
sg64
(lp4450
g57
(g78
g59
NtRp4451
(dp4452
g62
(dp4453
sg71
g4447
sg64
(lp4454
g57
(g58
g59
NtRp4455
(dp4456
g62
(dp4457
g70
I1
ssg71
g4451
sg64
(lp4458
I00
asbasbasbag57
(g73
g59
NtRp4459
(dp4460
g62
(dp4461
sg71
g4430
sg64
(lp4462
g57
(g78
g59
NtRp4463
(dp4464
g62
(dp4465
sg71
g4459
sg64
(lp4466
g57
(g58
g59
NtRp4467
(dp4468
g62
(dp4469
g70
I1
ssg71
g4463
sg64
(lp4470
S'/admin/default/site'
p4471
asbasbasbasbasbasbasbag57
(g73
g59
NtRp4472
(dp4473
g62
(dp4474
sg71
g4414
sg64
(lp4475
g57
(g78
g59
NtRp4476
(dp4477
g62
(dp4478
sg71
g4472
sg64
(lp4479
g57
(g58
g59
NtRp4480
(dp4481
g62
(dp4482
g70
I2
ssg71
g4476
sg64
(lp4483
g57
(g66
g59
NtRp4484
(dp4485
g62
(dp4486
g70
I1
ssg71
Nsg64
(lp4487
g57
(g73
g59
NtRp4488
(dp4489
g62
(dp4490
sg71
g4484
sg64
(lp4491
g57
(g78
g59
NtRp4492
(dp4493
g62
(dp4494
sg71
g4488
sg64
(lp4495
g57
(g58
g59
NtRp4496
(dp4497
g62
(dp4498
g70
I1
ssg71
g4492
sg64
(lp4499
g4299
(S's\x08\x00\x00\x00This App'
tRp4500
asbasbasbag57
(g73
g59
NtRp4501
(dp4502
g62
(dp4503
sg71
g4484
sg64
(lp4504
g57
(g78
g59
NtRp4505
(dp4506
g62
(dp4507
sg71
g4501
sg64
(lp4508
g57
(g58
g59
NtRp4509
(dp4510
g62
(dp4511
g70
I1
ssg71
g4505
sg64
(lp4512
I00
asbasbasbag57
(g73
g59
NtRp4513
(dp4514
g62
(dp4515
sg71
g4484
sg64
(lp4516
g57
(g78
g59
NtRp4517
(dp4518
g62
(dp4519
sg71
g4513
sg64
(lp4520
g57
(g58
g59
NtRp4521
(dp4522
g62
(dp4523
g70
I1
ssg71
g4517
sg64
(lp4524
S'/admin/default/design/Betsy'
p4525
asbasbasbag57
(g73
g59
NtRp4526
(dp4527
g62
(dp4528
sg71
g4484
sg64
(lp4529
g57
(g78
g59
NtRp4530
(dp4531
g62
(dp4532
sg71
g4526
sg64
(lp4533
g57
(g58
g59
NtRp4534
(dp4535
g62
(dp4536
g70
I1
ssg71
g4530
sg64
(lp4537
(lp4538
(g4299
(S's\n\x00\x00\x00Controller'
tRp4539
I00
S'/admin/default/edit/Betsy/controllers/default.py'
tp4540
a(g4299
(S's\x04\x00\x00\x00View'
tRp4541
I00
S'/admin/default/edit/Betsy/views/default/show_status.html'
tp4542
a(g4299
(S's\x06\x00\x00\x00Layout'
tRp4543
I00
S'/admin/default/edit/Betsy/views/layout.html'
tp4544
a(g4299
(S's\n\x00\x00\x00Stylesheet'
tRp4545
I00
S'/admin/default/edit/Betsy/static/css/web2py.css'
tp4546
a(g4299
(S's\x08\x00\x00\x00DB Model'
tRp4547
I00
S'/admin/default/edit/Betsy/models/db.py'
tp4548
a(g4299
(S's\n\x00\x00\x00Menu Model'
tRp4549
I00
S'/admin/default/edit/Betsy/models/menu.py'
tp4550
a(g4299
(S's\x08\x00\x00\x00Database'
tRp4551
I00
S'/Betsy/appadmin/index'
tp4552
a(g4299
(S's\x06\x00\x00\x00Errors'
tRp4553
I00
S'/admin/default/errors/Betsy'
tp4554
a(g4299
(S's\x05\x00\x00\x00About'
tRp4555
I00
S'/admin/default/about/Betsy'
tp4556
aasbasbasbasbasbasbasbag57
(g73
g59
NtRp4557
(dp4558
g62
(dp4559
sg71
g4414
sg64
(lp4560
g57
(g78
g59
NtRp4561
(dp4562
g62
(dp4563
sg71
g4557
sg64
(lp4564
g57
(g58
g59
NtRp4565
(dp4566
g62
(dp4567
g70
I2
ssg71
g4561
sg64
(lp4568
g57
(g66
g59
NtRp4569
(dp4570
g62
(dp4571
g70
I1
ssg71
Nsg64
(lp4572
g57
(g73
g59
NtRp4573
(dp4574
g62
(dp4575
sg71
g4569
sg64
(lp4576
g57
(g78
g59
NtRp4577
(dp4578
g62
(dp4579
sg71
g4573
sg64
(lp4580
g57
(g58
g59
NtRp4581
(dp4582
g62
(dp4583
g70
I1
ssg71
g4577
sg64
(lp4584
S'web2py.com'
p4585
asbasbasbag57
(g73
g59
NtRp4586
(dp4587
g62
(dp4588
sg71
g4569
sg64
(lp4589
g57
(g78
g59
NtRp4590
(dp4591
g62
(dp4592
sg71
g4586
sg64
(lp4593
g57
(g58
g59
NtRp4594
(dp4595
g62
(dp4596
g70
I1
ssg71
g4590
sg64
(lp4597
I00
asbasbasbag57
(g73
g59
NtRp4598
(dp4599
g62
(dp4600
sg71
g4569
sg64
(lp4601
g57
(g78
g59
NtRp4602
(dp4603
g62
(dp4604
sg71
g4598
sg64
(lp4605
g57
(g58
g59
NtRp4606
(dp4607
g62
(dp4608
g70
I1
ssg71
g4602
sg64
(lp4609
S'http://www.web2py.com'
p4610
asbasbasbag57
(g73
g59
NtRp4611
(dp4612
g62
(dp4613
sg71
g4569
sg64
(lp4614
g57
(g78
g59
NtRp4615
(dp4616
g62
(dp4617
sg71
g4611
sg64
(lp4618
g57
(g58
g59
NtRp4619
(dp4620
g62
(dp4621
g70
I1
ssg71
g4615
sg64
(lp4622
(lp4623
(g4299
(S's\x08\x00\x00\x00Download'
tRp4624
I00
S'http://www.web2py.com/examples/default/download'
p4625
tp4626
a(g4299
(S's\x07\x00\x00\x00Support'
tRp4627
I00
S'http://www.web2py.com/examples/default/support'
p4628
tp4629
a(g4299
(S's\x04\x00\x00\x00Demo'
tRp4630
I00
S'http://web2py.com/demo_admin'
p4631
tp4632
a(g4299
(S's\x0e\x00\x00\x00Quick Examples'
tRp4633
I00
S'http://web2py.com/examples/default/examples'
p4634
tp4635
a(g4299
(S's\x03\x00\x00\x00FAQ'
tRp4636
I00
S'http://web2py.com/AlterEgo'
p4637
tp4638
a(g4299
(S's\x06\x00\x00\x00Videos'
tRp4639
I00
S'http://www.web2py.com/examples/default/videos/'
p4640
tp4641
a(g4299
(S's\x11\x00\x00\x00Free Applications'
tRp4642
I00
S'http://web2py.com/appliances'
p4643
tp4644
a(g4299
(S's\x07\x00\x00\x00Plugins'
tRp4645
I00
S'http://web2py.com/plugins'
p4646
tp4647
a(g4299
(S's\x07\x00\x00\x00Layouts'
tRp4648
I00
S'http://web2py.com/layouts'
p4649
tp4650
a(g4299
(S's\x07\x00\x00\x00Recipes'
tRp4651
I00
S'http://web2pyslices.com/'
p4652
tp4653
a(g4299
(S's\x08\x00\x00\x00Semantic'
tRp4654
I00
S'http://web2py.com/semantic'
p4655
tp4656
aasbasbasbasbasbasbasbag57
(g73
g59
NtRp4657
(dp4658
g62
(dp4659
sg71
g4414
sg64
(lp4660
g57
(g78
g59
NtRp4661
(dp4662
g62
(dp4663
sg71
g4657
sg64
(lp4664
g57
(g58
g59
NtRp4665
(dp4666
g62
(dp4667
g70
I2
ssg71
g4661
sg64
(lp4668
g57
(g66
g59
NtRp4669
(dp4670
g62
(dp4671
g70
I1
ssg71
Nsg64
(lp4672
g57
(g73
g59
NtRp4673
(dp4674
g62
(dp4675
sg71
g4669
sg64
(lp4676
g57
(g78
g59
NtRp4677
(dp4678
g62
(dp4679
sg71
g4673
sg64
(lp4680
g57
(g58
g59
NtRp4681
(dp4682
g62
(dp4683
g70
I1
ssg71
g4677
sg64
(lp4684
g4299
(S's\r\x00\x00\x00Documentation'
tRp4685
asbasbasbag57
(g73
g59
NtRp4686
(dp4687
g62
(dp4688
sg71
g4669
sg64
(lp4689
g57
(g78
g59
NtRp4690
(dp4691
g62
(dp4692
sg71
g4686
sg64
(lp4693
g57
(g58
g59
NtRp4694
(dp4695
g62
(dp4696
g70
I1
ssg71
g4690
sg64
(lp4697
I00
asbasbasbag57
(g73
g59
NtRp4698
(dp4699
g62
(dp4700
sg71
g4669
sg64
(lp4701
g57
(g78
g59
NtRp4702
(dp4703
g62
(dp4704
sg71
g4698
sg64
(lp4705
g57
(g58
g59
NtRp4706
(dp4707
g62
(dp4708
g70
I1
ssg71
g4702
sg64
(lp4709
S'http://www.web2py.com/book'
p4710
asbasbasbag57
(g73
g59
NtRp4711
(dp4712
g62
(dp4713
sg71
g4669
sg64
(lp4714
g57
(g78
g59
NtRp4715
(dp4716
g62
(dp4717
sg71
g4711
sg64
(lp4718
g57
(g58
g59
NtRp4719
(dp4720
g62
(dp4721
g70
I1
ssg71
g4715
sg64
(lp4722
(lp4723
(g4299
(S's\x07\x00\x00\x00Preface'
tRp4724
I00
S'http://www.web2py.com/book/default/chapter/00'
p4725
tp4726
a(g4299
(S's\x0c\x00\x00\x00Introduction'
tRp4727
I00
S'http://www.web2py.com/book/default/chapter/01'
p4728
tp4729
a(g4299
(S's\x06\x00\x00\x00Python'
tRp4730
I00
S'http://www.web2py.com/book/default/chapter/02'
p4731
tp4732
a(g4299
(S's\x08\x00\x00\x00Overview'
tRp4733
I00
S'http://www.web2py.com/book/default/chapter/03'
p4734
tp4735
a(g4299
(S's\x08\x00\x00\x00The Core'
tRp4736
I00
S'http://www.web2py.com/book/default/chapter/04'
p4737
tp4738
a(g4299
(S's\t\x00\x00\x00The Views'
tRp4739
I00
S'http://www.web2py.com/book/default/chapter/05'
p4740
tp4741
a(g4299
(S's\x08\x00\x00\x00Database'
tRp4742
I00
S'http://www.web2py.com/book/default/chapter/06'
p4743
tp4744
a(g4299
(S's\x14\x00\x00\x00Forms and Validators'
tRp4745
I00
S'http://www.web2py.com/book/default/chapter/07'
p4746
tp4747
a(g4299
(S's\r\x00\x00\x00Email and SMS'
tRp4748
I00
S'http://www.web2py.com/book/default/chapter/08'
p4749
tp4750
a(g4299
(S's\x0e\x00\x00\x00Access Control'
tRp4751
I00
S'http://www.web2py.com/book/default/chapter/09'
p4752
tp4753
a(g4299
(S's\x08\x00\x00\x00Services'
tRp4754
I00
S'http://www.web2py.com/book/default/chapter/10'
p4755
tp4756
a(g4299
(S's\x0c\x00\x00\x00Ajax Recipes'
tRp4757
I00
S'http://www.web2py.com/book/default/chapter/11'
p4758
tp4759
a(g4299
(S's\x16\x00\x00\x00Components and Plugins'
tRp4760
I00
S'http://www.web2py.com/book/default/chapter/12'
p4761
tp4762
a(g4299
(S's\x12\x00\x00\x00Deployment Recipes'
tRp4763
I00
S'http://www.web2py.com/book/default/chapter/13'
p4764
tp4765
a(g4299
(S's\r\x00\x00\x00Other Recipes'
tRp4766
I00
S'http://www.web2py.com/book/default/chapter/14'
p4767
tp4768
a(g4299
(S's\r\x00\x00\x00Buy this book'
tRp4769
I00
S'http://stores.lulu.com/web2py'
p4770
tp4771
aasbasbasbasbasbasbasbag57
(g73
g59
NtRp4772
(dp4773
g62
(dp4774
sg71
g4414
sg64
(lp4775
g57
(g78
g59
NtRp4776
(dp4777
g62
(dp4778
sg71
g4772
sg64
(lp4779
g57
(g58
g59
NtRp4780
(dp4781
g62
(dp4782
g70
I2
ssg71
g4776
sg64
(lp4783
g57
(g66
g59
NtRp4784
(dp4785
g62
(dp4786
g70
I1
ssg71
Nsg64
(lp4787
g57
(g73
g59
NtRp4788
(dp4789
g62
(dp4790
sg71
g4784
sg64
(lp4791
g57
(g78
g59
NtRp4792
(dp4793
g62
(dp4794
sg71
g4788
sg64
(lp4795
g57
(g58
g59
NtRp4796
(dp4797
g62
(dp4798
g70
I1
ssg71
g4792
sg64
(lp4799
g4299
(S's\t\x00\x00\x00Community'
tRp4800
asbasbasbag57
(g73
g59
NtRp4801
(dp4802
g62
(dp4803
sg71
g4784
sg64
(lp4804
g57
(g78
g59
NtRp4805
(dp4806
g62
(dp4807
sg71
g4801
sg64
(lp4808
g57
(g58
g59
NtRp4809
(dp4810
g62
(dp4811
g70
I1
ssg71
g4805
sg64
(lp4812
I00
asbasbasbag57
(g73
g59
NtRp4813
(dp4814
g62
(dp4815
sg71
g4784
sg64
(lp4816
g57
(g78
g59
NtRp4817
(dp4818
g62
(dp4819
sg71
g4813
sg64
(lp4820
g57
(g58
g59
NtRp4821
(dp4822
g62
(dp4823
g70
I1
ssg71
g4817
sg64
(lp4824
Nasbasbasbag57
(g73
g59
NtRp4825
(dp4826
g62
(dp4827
sg71
g4784
sg64
(lp4828
g57
(g78
g59
NtRp4829
(dp4830
g62
(dp4831
sg71
g4825
sg64
(lp4832
g57
(g58
g59
NtRp4833
(dp4834
g62
(dp4835
g70
I1
ssg71
g4829
sg64
(lp4836
(lp4837
(g4299
(S's\x06\x00\x00\x00Groups'
tRp4838
I00
S'http://www.web2py.com/examples/default/usergroups'
p4839
tp4840
a(g4299
(S's\x07\x00\x00\x00Twitter'
tRp4841
I00
S'http://twitter.com/web2py'
p4842
tp4843
a(g4299
(S's\t\x00\x00\x00Live Chat'
tRp4844
I00
S'http://webchat.freenode.net/?channels=web2py'
p4845
tp4846
aasbasbasbasbasbasbasbag57
(g73
g59
NtRp4847
(dp4848
g62
(dp4849
sg71
g4414
sg64
(lp4850
g57
(g78
g59
NtRp4851
(dp4852
g62
(dp4853
sg71
g4847
sg64
(lp4854
g57
(g58
g59
NtRp4855
(dp4856
g62
(dp4857
g70
I2
ssg71
g4851
sg64
(lp4858
g57
(g66
g59
NtRp4859
(dp4860
g62
(dp4861
g70
I1
ssg71
Nsg64
(lp4862
g57
(g73
g59
NtRp4863
(dp4864
g62
(dp4865
sg71
g4859
sg64
(lp4866
g57
(g78
g59
NtRp4867
(dp4868
g62
(dp4869
sg71
g4863
sg64
(lp4870
g57
(g58
g59
NtRp4871
(dp4872
g62
(dp4873
g70
I1
ssg71
g4867
sg64
(lp4874
g4299
(S's\x07\x00\x00\x00Plugins'
tRp4875
asbasbasbag57
(g73
g59
NtRp4876
(dp4877
g62
(dp4878
sg71
g4859
sg64
(lp4879
g57
(g78
g59
NtRp4880
(dp4881
g62
(dp4882
sg71
g4876
sg64
(lp4883
g57
(g58
g59
NtRp4884
(dp4885
g62
(dp4886
g70
I1
ssg71
g4880
sg64
(lp4887
I00
asbasbasbag57
(g73
g59
NtRp4888
(dp4889
g62
(dp4890
sg71
g4859
sg64
(lp4891
g57
(g78
g59
NtRp4892
(dp4893
g62
(dp4894
sg71
g4888
sg64
(lp4895
g57
(g58
g59
NtRp4896
(dp4897
g62
(dp4898
g70
I1
ssg71
g4892
sg64
(lp4899
Nasbasbasbag57
(g73
g59
NtRp4900
(dp4901
g62
(dp4902
sg71
g4859
sg64
(lp4903
g57
(g78
g59
NtRp4904
(dp4905
g62
(dp4906
sg71
g4900
sg64
(lp4907
g57
(g58
g59
NtRp4908
(dp4909
g62
(dp4910
g70
I1
ssg71
g4904
sg64
(lp4911
(lp4912
(S'plugin_wiki'
p4913
I00
S'http://web2py.com/examples/default/download'
p4914
tp4915
a(g4299
(S's\r\x00\x00\x00Other Plugins'
tRp4916
I00
g4646
tp4917
a(g4299
(S's\x0e\x00\x00\x00Layout Plugins'
tRp4918
I00
g4649
tp4919
aasbasbasbasbasbasbasbasbasbasbasbasbasbasbasbasbasbasbasbag57
(g73
g59
NtRp4920
(dp4921
g62
(dp4922
sg71
g3808
sg64
(lp4923
g57
(g78
g59
NtRp4924
(dp4925
g62
(dp4926
g82
g83
ssg71
g4920
sg64
(lp4927
S'meta'
p4928
asbag57
(g78
g59
NtRp4929
(dp4930
g62
(dp4931
g89
g90
ssg71
g4920
sg64
(lp4932
S':'
asbag57
(g78
g59
NtRp4933
(dp4934
g62
(dp4935
sg71
g4920
sg64
(lp4936
g57
(g58
g59
NtRp4937
(dp4938
g62
(dp4939
g70
I5
ssg71
g4933
sg64
(lp4940
g57
(g66
g59
NtRp4941
(dp4942
g62
(dp4943
g70
I4
ssg71
Nsg64
(lp4944
g57
(g73
g59
NtRp4945
(dp4946
g62
(dp4947
sg71
g4941
sg64
(lp4948
g57
(g78
g59
NtRp4949
(dp4950
g62
(dp4951
g82
g83
ssg71
g4945
sg64
(lp4952
S'author'
p4953
asbag57
(g78
g59
NtRp4954
(dp4955
g62
(dp4956
g89
g90
ssg71
g4945
sg64
(lp4957
S':'
asbag57
(g78
g59
NtRp4958
(dp4959
g62
(dp4960
sg71
g4945
sg64
(lp4961
g57
(g58
g59
NtRp4962
(dp4963
g62
(dp4964
g70
I4
ssg71
g4958
sg64
(lp4965
S'Your Name <you@example.com>'
p4966
asbasbasbag57
(g73
g59
NtRp4967
(dp4968
g62
(dp4969
sg71
g4941
sg64
(lp4970
g57
(g78
g59
NtRp4971
(dp4972
g62
(dp4973
g82
g83
ssg71
g4967
sg64
(lp4974
S'description'
p4975
asbag57
(g78
g59
NtRp4976
(dp4977
g62
(dp4978
g89
g90
ssg71
g4967
sg64
(lp4979
S':'
asbag57
(g78
g59
NtRp4980
(dp4981
g62
(dp4982
sg71
g4967
sg64
(lp4983
g57
(g58
g59
NtRp4984
(dp4985
g62
(dp4986
g70
I4
ssg71
g4980
sg64
(lp4987
S'a cool new app'
p4988
asbasbasbag57
(g73
g59
NtRp4989
(dp4990
g62
(dp4991
sg71
g4941
sg64
(lp4992
g57
(g78
g59
NtRp4993
(dp4994
g62
(dp4995
g82
g83
ssg71
g4989
sg64
(lp4996
S'generator'
p4997
asbag57
(g78
g59
NtRp4998
(dp4999
g62
(dp5000
g89
g90
ssg71
g4989
sg64
(lp5001
S':'
asbag57
(g78
g59
NtRp5002
(dp5003
g62
(dp5004
sg71
g4989
sg64
(lp5005
g57
(g58
g59
NtRp5006
(dp5007
g62
(dp5008
g70
I4
ssg71
g5002
sg64
(lp5009
S'Web2py Web Framework'
p5010
asbasbasbag57
(g73
g59
NtRp5011
(dp5012
g62
(dp5013
sg71
g4941
sg64
(lp5014
g57
(g78
g59
NtRp5015
(dp5016
g62
(dp5017
g82
g83
ssg71
g5011
sg64
(lp5018
S'keywords'
p5019
asbag57
(g78
g59
NtRp5020
(dp5021
g62
(dp5022
g89
g90
ssg71
g5011
sg64
(lp5023
S':'
asbag57
(g78
g59
NtRp5024
(dp5025
g62
(dp5026
sg71
g5011
sg64
(lp5027
g57
(g58
g59
NtRp5028
(dp5029
g62
(dp5030
g70
I4
ssg71
g5024
sg64
(lp5031
S'web2py, python, framework'
p5032
asbasbasbasbasbasbasbag57
(g73
g59
NtRp5033
(dp5034
g62
(dp5035
sg71
g3808
sg64
(lp5036
g57
(g78
g59
NtRp5037
(dp5038
g62
(dp5039
g82
g83
ssg71
g5033
sg64
(lp5040
S'models_to_run'
p5041
asbag57
(g78
g59
NtRp5042
(dp5043
g62
(dp5044
g89
g90
ssg71
g5033
sg64
(lp5045
S':'
asbag57
(g78
g59
NtRp5046
(dp5047
g62
(dp5048
sg71
g5033
sg64
(lp5049
g57
(g58
g59
NtRp5050
(dp5051
g62
(dp5052
g70
I5
ssg71
g5046
sg64
(lp5053
g57
(g66
g59
NtRp5054
(dp5055
g62
(dp5056
g70
I4
ssg71
Nsg64
(lp5057
g57
(g73
g59
NtRp5058
(dp5059
g62
(dp5060
sg71
g5054
sg64
(lp5061
g57
(g78
g59
NtRp5062
(dp5063
g62
(dp5064
sg71
g5058
sg64
(lp5065
g57
(g58
g59
NtRp5066
(dp5067
g62
(dp5068
g70
I4
ssg71
g5062
sg64
(lp5069
S'^\\w+\\.py$'
p5070
asbasbasbag57
(g73
g59
NtRp5071
(dp5072
g62
(dp5073
sg71
g5054
sg64
(lp5074
g57
(g78
g59
NtRp5075
(dp5076
g62
(dp5077
sg71
g5071
sg64
(lp5078
g57
(g58
g59
NtRp5079
(dp5080
g62
(dp5081
g70
I4
ssg71
g5075
sg64
(lp5082
S'^default/\\w+\\.py$'
p5083
asbasbasbag57
(g73
g59
NtRp5084
(dp5085
g62
(dp5086
sg71
g5054
sg64
(lp5087
g57
(g78
g59
NtRp5088
(dp5089
g62
(dp5090
sg71
g5084
sg64
(lp5091
g57
(g58
g59
NtRp5092
(dp5093
g62
(dp5094
g70
I4
ssg71
g5088
sg64
(lp5095
S'^default/show_status/\\w+\\.py$'
p5096
asbasbasbasbasbasbasbag57
(g73
g59
NtRp5097
(dp5098
g62
(dp5099
sg71
g3808
sg64
(lp5100
g57
(g78
g59
NtRp5101
(dp5102
g62
(dp5103
g82
g83
ssg71
g5097
sg64
(lp5104
S'postprocessing'
p5105
asbag57
(g78
g59
NtRp5106
(dp5107
g62
(dp5108
g89
g90
ssg71
g5097
sg64
(lp5109
S':'
asbag57
(g78
g59
NtRp5110
(dp5111
g62
(dp5112
sg71
g5097
sg64
(lp5113
g57
(g58
g59
NtRp5114
(dp5115
g62
(dp5116
g70
I5
ssg71
g5110
sg64
(lp5117
g57
(g66
g59
NtRp5118
(dp5119
g62
(dp5120
g70
I4
ssg71
Nsg64
(lp5121
sbasbasbasbag57
(g73
g59
NtRp5122
(dp5123
g62
(dp5124
sg71
g3808
sg64
(lp5125
g57
(g78
g59
NtRp5126
(dp5127
g62
(dp5128
g82
g83
ssg71
g5122
sg64
(lp5129
S'session_cookie_expires'
p5130
asbag57
(g78
g59
NtRp5131
(dp5132
g62
(dp5133
g89
g90
ssg71
g5122
sg64
(lp5134
S':'
asbag57
(g78
g59
NtRp5135
(dp5136
g62
(dp5137
sg71
g5122
sg64
(lp5138
g57
(g58
g59
NtRp5139
(dp5140
g62
(dp5141
g70
I5
ssg71
g5135
sg64
(lp5142
S'None'
p5143
asbasbasbag57
(g73
g59
NtRp5144
(dp5145
g62
(dp5146
sg71
g3808
sg64
(lp5147
g57
(g78
g59
NtRp5148
(dp5149
g62
(dp5150
g82
g83
ssg71
g5144
sg64
(lp5151
S'session_data_name'
p5152
asbag57
(g78
g59
NtRp5153
(dp5154
g62
(dp5155
g89
g90
ssg71
g5144
sg64
(lp5156
S':'
asbag57
(g78
g59
NtRp5157
(dp5158
g62
(dp5159
sg71
g5144
sg64
(lp5160
g57
(g58
g59
NtRp5161
(dp5162
g62
(dp5163
g70
I5
ssg71
g5157
sg64
(lp5164
S'session_data_betsy'
p5165
asbasbasbag57
(g73
g59
NtRp5166
(dp5167
g62
(dp5168
sg71
g3808
sg64
(lp5169
g57
(g78
g59
NtRp5170
(dp5171
g62
(dp5172
g82
g83
ssg71
g5166
sg64
(lp5173
S'session_file'
p5174
asbag57
(g78
g59
NtRp5175
(dp5176
g62
(dp5177
g89
g90
ssg71
g5166
sg64
(lp5178
S':'
asbag57
(g78
g59
NtRp5179
(dp5180
g62
(dp5181
sg71
g5166
sg64
(lp5182
g57
(g58
g59
NtRp5183
(dp5184
g62
(dp5185
g70
I5
ssg71
g5179
sg64
(lp5186
S"<open file '/home/xchen/web2py/applications/Betsy/sessions/127.0.0.1-70d52105-0f5d-4884-a4e3-dce6830f30e0', mode 'rb+' at 0x1d7c8660>"
p5187
asbasbasbag57
(g73
g59
NtRp5188
(dp5189
g62
(dp5190
sg71
g3808
sg64
(lp5191
g57
(g78
g59
NtRp5192
(dp5193
g62
(dp5194
g82
g83
ssg71
g5188
sg64
(lp5195
S'session_filename'
p5196
asbag57
(g78
g59
NtRp5197
(dp5198
g62
(dp5199
g89
g90
ssg71
g5188
sg64
(lp5200
S':'
asbag57
(g78
g59
NtRp5201
(dp5202
g62
(dp5203
sg71
g5188
sg64
(lp5204
g57
(g58
g59
NtRp5205
(dp5206
g62
(dp5207
g70
I5
ssg71
g5201
sg64
(lp5208
S'/home/xchen/web2py/applications/Betsy/sessions/127.0.0.1-70d52105-0f5d-4884-a4e3-dce6830f30e0'
p5209
asbasbasbag57
(g73
g59
NtRp5210
(dp5211
g62
(dp5212
sg71
g3808
sg64
(lp5213
g57
(g78
g59
NtRp5214
(dp5215
g62
(dp5216
g82
g83
ssg71
g5210
sg64
(lp5217
S'session_id'
p5218
asbag57
(g78
g59
NtRp5219
(dp5220
g62
(dp5221
g89
g90
ssg71
g5210
sg64
(lp5222
S':'
asbag57
(g78
g59
NtRp5223
(dp5224
g62
(dp5225
sg71
g5210
sg64
(lp5226
g57
(g58
g59
NtRp5227
(dp5228
g62
(dp5229
g70
I5
ssg71
g5223
sg64
(lp5230
g475
asbasbasbag57
(g73
g59
NtRp5231
(dp5232
g62
(dp5233
sg71
g3808
sg64
(lp5234
g57
(g78
g59
NtRp5235
(dp5236
g62
(dp5237
g82
g83
ssg71
g5231
sg64
(lp5238
S'session_id_name'
p5239
asbag57
(g78
g59
NtRp5240
(dp5241
g62
(dp5242
g89
g90
ssg71
g5231
sg64
(lp5243
S':'
asbag57
(g78
g59
NtRp5244
(dp5245
g62
(dp5246
sg71
g5231
sg64
(lp5247
g57
(g58
g59
NtRp5248
(dp5249
g62
(dp5250
g70
I5
ssg71
g5244
sg64
(lp5251
g3865
asbasbasbag57
(g73
g59
NtRp5252
(dp5253
g62
(dp5254
sg71
g3808
sg64
(lp5255
g57
(g78
g59
NtRp5256
(dp5257
g62
(dp5258
g82
g83
ssg71
g5252
sg64
(lp5259
S'session_locked'
p5260
asbag57
(g78
g59
NtRp5261
(dp5262
g62
(dp5263
g89
g90
ssg71
g5252
sg64
(lp5264
S':'
asbag57
(g78
g59
NtRp5265
(dp5266
g62
(dp5267
sg71
g5252
sg64
(lp5268
g57
(g58
g59
NtRp5269
(dp5270
g62
(dp5271
g70
I5
ssg71
g5265
sg64
(lp5272
g1768
asbasbasbag57
(g73
g59
NtRp5273
(dp5274
g62
(dp5275
sg71
g3808
sg64
(lp5276
g57
(g78
g59
NtRp5277
(dp5278
g62
(dp5279
g82
g83
ssg71
g5273
sg64
(lp5280
S'session_new'
p5281
asbag57
(g78
g59
NtRp5282
(dp5283
g62
(dp5284
g89
g90
ssg71
g5273
sg64
(lp5285
S':'
asbag57
(g78
g59
NtRp5286
(dp5287
g62
(dp5288
sg71
g5273
sg64
(lp5289
g57
(g58
g59
NtRp5290
(dp5291
g62
(dp5292
g70
I5
ssg71
g5286
sg64
(lp5293
g100
asbasbasbag57
(g73
g59
NtRp5294
(dp5295
g62
(dp5296
sg71
g3808
sg64
(lp5297
g57
(g78
g59
NtRp5298
(dp5299
g62
(dp5300
g82
g83
ssg71
g5294
sg64
(lp5301
S'session_storage_type'
p5302
asbag57
(g78
g59
NtRp5303
(dp5304
g62
(dp5305
g89
g90
ssg71
g5294
sg64
(lp5306
S':'
asbag57
(g78
g59
NtRp5307
(dp5308
g62
(dp5309
sg71
g5294
sg64
(lp5310
g57
(g58
g59
NtRp5311
(dp5312
g62
(dp5313
g70
I5
ssg71
g5307
sg64
(lp5314
g3199
asbasbasbag57
(g73
g59
NtRp5315
(dp5316
g62
(dp5317
sg71
g3808
sg64
(lp5318
g57
(g78
g59
NtRp5319
(dp5320
g62
(dp5321
g82
g83
ssg71
g5315
sg64
(lp5322
S'status'
p5323
asbag57
(g78
g59
NtRp5324
(dp5325
g62
(dp5326
g89
g90
ssg71
g5315
sg64
(lp5327
S':'
asbag57
(g78
g59
NtRp5328
(dp5329
g62
(dp5330
sg71
g5315
sg64
(lp5331
g57
(g58
g59
NtRp5332
(dp5333
g62
(dp5334
g70
I5
ssg71
g5328
sg64
(lp5335
S'200'
p5336
asbasbasbag57
(g73
g59
NtRp5337
(dp5338
g62
(dp5339
sg71
g3808
sg64
(lp5340
g57
(g78
g59
NtRp5341
(dp5342
g62
(dp5343
g82
g83
ssg71
g5337
sg64
(lp5344
S'subtitle'
p5345
asbag57
(g78
g59
NtRp5346
(dp5347
g62
(dp5348
g89
g90
ssg71
g5337
sg64
(lp5349
S':'
asbag57
(g78
g59
NtRp5350
(dp5351
g62
(dp5352
sg71
g5337
sg64
(lp5353
g57
(g58
g59
NtRp5354
(dp5355
g62
(dp5356
g70
I5
ssg71
g5350
sg64
(lp5357
g4299
(S's\r\x00\x00\x00customize me!'
tRp5358
asbasbasbag57
(g73
g59
NtRp5359
(dp5360
g62
(dp5361
sg71
g3808
sg64
(lp5362
g57
(g78
g59
NtRp5363
(dp5364
g62
(dp5365
g82
g83
ssg71
g5359
sg64
(lp5366
S'title'
p5367
asbag57
(g78
g59
NtRp5368
(dp5369
g62
(dp5370
g89
g90
ssg71
g5359
sg64
(lp5371
S':'
asbag57
(g78
g59
NtRp5372
(dp5373
g62
(dp5374
sg71
g5359
sg64
(lp5375
g57
(g58
g59
NtRp5376
(dp5377
g62
(dp5378
g70
I5
ssg71
g5372
sg64
(lp5379
S'Betsy'
p5380
asbasbasbag57
(g73
g59
NtRp5381
(dp5382
g62
(dp5383
sg71
g3808
sg64
(lp5384
g57
(g78
g59
NtRp5385
(dp5386
g62
(dp5387
g82
g83
ssg71
g5381
sg64
(lp5388
S'view'
p5389
asbag57
(g78
g59
NtRp5390
(dp5391
g62
(dp5392
g89
g90
ssg71
g5381
sg64
(lp5393
S':'
asbag57
(g78
g59
NtRp5394
(dp5395
g62
(dp5396
sg71
g5381
sg64
(lp5397
g57
(g58
g59
NtRp5398
(dp5399
g62
(dp5400
g70
I5
ssg71
g5394
sg64
(lp5401
S'default/show_status.html'
p5402
asbasbasbasbasbsS'locals'
p5403
(dp5404
S'log_line'
p5405
S"'Jobnumber\\tJobname\\tStatus\\tStarted\\tEnded\\tSubmitted\\tCommand'"
p5406
sS'log_information'
p5407
S"['Jobnumber\\tJobname\\tStatus\\tStarted\\tEnded\\tSubmitted\\tCommand', '241\\tF8QMFC\\tkilled\\tNA\\t01/30/13:10:54:58\\t01/30/13:10:54:41\\tpython run_command.py', '242\\t1\\tkilled\\tNA\\t01/30/13:10:56:50\\t01/30/13:10:55:43\\tpython run_command.py', '243\\t1JCM7W\\tcompleted\\tNA\\t01/31/13:11:02:08\\t01/30/...o_fill --parameters preprocess:unknown_preprocess', '244\\tMD5OVN\\tcompleted\\tNA\\t01/31/13:11:02:08\\t01/30/...o_fill --parameters preprocess:unknown_preprocess', '245\\t2XXAAY\\tcompleted\\t01/31/13:11:02:08\\t01/31/13:...ble.myfile1.9c934921a246486e.6a6f627175657565.txt', '254\\tKQFWA9\\tcompleted\\tNA\\t02/04/13:15:52:33\\t01/31/...ble.myfile1.9c934921a246486e.6a6f627175657565.txt', '255\\t5O5TN9\\tcompleted\\tNA\\t02/04/13:15:52:33\\t01/31/...ble.myfile1.9c934921a246486e.6a6f627175657565.txt', '256\\t66OKZZ\\tcompleted\\tNA\\t02/04/13:15:52:33\\t01/31/...s,unknown_preprocess,predataset,no_predataset],A)', '']"
p5408
sS'process'
p5409
S'<subprocess.Popen object>'
p5410
sg3208
S"['Jobnumber', 'Jobname', 'Status', 'Started', 'Ended', 'Submitted', 'Command']"
p5411
sS'subprocess'
p5412
S"<module 'subprocess' from '/usr/local/lib/python2.7/subprocess.pyc'>"
p5413
sS'all_cmd'
p5414
S"['python', '/home/xchen/chencode/tmp/try_parallel/queue.py', '--list']"
p5415
sssS'traceback'
p5416
S'Traceback (most recent call last):\n  File "/home/xchen/web2py/gluon/restricted.py", line 212, in restricted\n    exec ccode in environment\n  File "/home/xchen/web2py/applications/Betsy/controllers/default.py", line 153, in <module>\n  File "/home/xchen/web2py/gluon/globals.py", line 188, in <lambda>\n    self._caller = lambda f: f()\n  File "/home/xchen/web2py/applications/Betsy/controllers/default.py", line 56, in show_status\n    Ended=lines[4],Submitted=lines[5],Command=lines[6],Link=lines[7])\nIndexError: list index out of range\n'
p5417
s.