(dp1
S'output'
p2
S"<type 'exceptions.IOError'> [Errno 21] Is a directory: '/home/xchen/web2py/applications/Betsy/result_files/annotate_probes_BETSYHASH1_b1f614a2950cb2af2d6bd155a72232b7'"
p3
sS'layer'
p4
S'/home/xchen/web2py/applications/Betsy/controllers/default.py'
p5
sS'code'
p6
S'# -*- coding: utf-8 -*-\n# this file is released under public domain and you can use without limitations\n\n#########################################################################\n## This is a samples controller\n## - index is the default action of any application\n## - user is required for authentication and authorization\n## - download is for downloading files uploaded in the db (does streaming)\n## - call exposes all registered services (none by default)\n#########################################################################\nupload_path = \'/home/xchen/chencode/upload/\'\n\nimport os\ndef hash_command(time, command_line):\n    from hashlib import md5\n    hashstring=time+command_line\n    hash = md5()\n    hash.update(hashstring)\n    hash_result = hash.hexdigest()\n    return hash_result\n\n@auth.requires_login()\ndef index():\n    form1 = FORM(INPUT(_type=\'submit\',_value=\'normalize file\',_name=\'normalize\'))\n    form2 = FORM(INPUT(_type=\'submit\',_value=\'cluster genes\',_name=\'cluster\'))\n    form3 = FORM(INPUT(_type=\'submit\',_value=\'make heatmap\',_name=\'heatmap\'))\n    form4 = FORM(INPUT(_type=\'submit\',_value=\'classification\',_name=\'classification\'))\n    form5 = FORM(INPUT(_type=\'submit\',_value=\'batch_effect_remove\',_name=\'batch\'))\n    form6 = FORM(INPUT(_type=\'submit\',_value=\'differential expressed gene analysis\',_name=\'diffgene\'))\n    form7 = FORM(INPUT(_type=\'submit\',_value=\'geneset analysis\',_name=\'geneset\'))\n    form_queue = FORM(INPUT(_type=\'submit\',_value=\'show jobs status\',_name=\'status\'))\n    if form_queue.process(formname=\'status\').accepted:\n        redirect(URL(\'show_status\'))\n    if form1.process(formname=\'normalize\').accepted:\n        redirect(URL(\'normalize_file\'))\n    if form2.process(formname=\'cluster\').accepted:\n        redirect(URL(\'cluster_genes\'))\n    if form3.process(formname=\'heatmap\').accepted:\n        redirect(URL(\'heatmap\'))\n    if form4.process(formname=\'classification\').accepted:\n        redirect(URL(\'classification\'))\n    if form5.process(formname=\'batch\').accepted:\n        redirect(URL(\'batch_effect\'))\n    if form6.process(formname=\'diffgene\').accepted:\n        redirect(URL(\'diffgene\'))\n    if form7.process(formname=\'geneset\').accepted:\n        redirect(URL(\'geneset\'))\n    return dict(form1=form1,form2=form2,form3=form3,form4=form4,form5=form5,form6=form6,form7=form7,form_queue=form_queue)\n    \n\ndef normalize_file():\n    form = SQLFORM.factory(Field(\'command\',requires=IS_NOT_EMPTY()),\n        Field(\'myfile1\', \'upload\',\n        uploadfolder=upload_path),\n        Field(\'myfile2\', \'upload\',\n        uploadfolder=upload_path),\n        Field(\'myfile3\', \'upload\',\n        uploadfolder=upload_path),\n        Field(\'myfile4\', \'upload\',\n        uploadfolder=upload_path),\n        Field(\'myfile5\', \'upload\',\n        uploadfolder=upload_path),\n        Field(\'myfile6\', \'upload\',\n        uploadfolder=upload_path),\n        )\n    form_queue = FORM(INPUT(_type=\'submit\',_value=\'show jobs status\'))\n    if form.process().accepted:\n        session.command=form.vars.command\n        session.myfile1 = form.vars.myfile1\n        session.myfile2 = form.vars.myfile2\n        session.myfile3 = form.vars.myfile3\n        session.myfile4 = form.vars.myfile4\n        session.myfile5 = form.vars.myfile5\n        session.myfile6 = form.vars.myfile6\n        session.protocol = \'normalize_file\'\n        redirect(URL(\'submit_job\'))\n    if form_queue.process().accepted:\n        redirect(URL(\'show_status\'))\n    return dict(form=form,form_queue=form_queue)\n\n\ndef cluster_genes():\n    form = SQLFORM.factory(Field(\'command\',requires=IS_NOT_EMPTY()),\n        Field(\'myfile1\', \'upload\',\n        uploadfolder=upload_path),\n        Field(\'myfile2\', \'upload\',\n        uploadfolder=upload_path),\n        Field(\'myfile3\', \'upload\',\n        uploadfolder=upload_path),\n        Field(\'myfile4\', \'upload\',\n        uploadfolder=upload_path),\n        Field(\'myfile5\', \'upload\',\n        uploadfolder=upload_path),\n        Field(\'myfile6\', \'upload\',\n        uploadfolder=upload_path),\n        )\n    form_queue = FORM(INPUT(_type=\'submit\',_value=\'show jobs status\'))\n    if form.process().accepted:\n        session.command=form.vars.command\n        session.myfile1 = form.vars.myfile1\n        session.myfile2 = form.vars.myfile2\n        session.myfile3 = form.vars.myfile3\n        session.myfile4 = form.vars.myfile4\n        session.myfile5 = form.vars.myfile5\n        session.myfile6 = form.vars.myfile6\n        session.protocol = \'cluster_genes\'\n        redirect(URL(\'submit_job\'))\n    if form_queue.process().accepted:\n        redirect(URL(\'show_status\'))\n    return dict(form=form,form_queue=form_queue)\n    \ndef heatmap():\n    form = SQLFORM.factory(Field(\'command\',requires=IS_NOT_EMPTY()),\n        Field(\'myfile1\', \'upload\',\n        uploadfolder=upload_path),\n        Field(\'myfile2\', \'upload\',\n        uploadfolder=upload_path),\n        Field(\'myfile3\', \'upload\',\n        uploadfolder=upload_path),\n        Field(\'myfile4\', \'upload\',\n        uploadfolder=upload_path),\n        Field(\'myfile5\', \'upload\',\n        uploadfolder=upload_path),\n        Field(\'myfile6\', \'upload\',\n        uploadfolder=upload_path),\n        )\n    form_queue = FORM(INPUT(_type=\'submit\',_value=\'show jobs status\'))\n    if form.process().accepted:\n        session.command=form.vars.command\n        session.myfile1 = form.vars.myfile1\n        session.myfile2 = form.vars.myfile2\n        session.myfile3 = form.vars.myfile3\n        session.myfile4 = form.vars.myfile4\n        session.myfile5 = form.vars.myfile5\n        session.myfile6 = form.vars.myfile6\n        session.protocol = \'make_heatmap\'\n        redirect(URL(\'submit_job\'))\n    if form_queue.process().accepted:\n        redirect(URL(\'show_status\'))\n    return dict(form=form,form_queue=form_queue)\n    \ndef classification():\n    form = SQLFORM.factory(Field(\'command\',requires=IS_NOT_EMPTY()),\n        Field(\'myfile1\', \'upload\',\n        uploadfolder=upload_path),\n        Field(\'myfile2\', \'upload\',\n        uploadfolder=upload_path),\n        Field(\'myfile3\', \'upload\',\n        uploadfolder=upload_path),\n        Field(\'myfile4\', \'upload\',\n        uploadfolder=upload_path),\n        Field(\'myfile5\', \'upload\',\n        uploadfolder=upload_path),\n        Field(\'myfile6\', \'upload\',\n        uploadfolder=upload_path),\n        )\n    form_queue = FORM(INPUT(_type=\'submit\',_value=\'show jobs status\'))\n    if form.process().accepted:\n        session.command=form.vars.command\n        session.myfile1 = form.vars.myfile1\n        session.myfile2 = form.vars.myfile2\n        session.myfile3 = form.vars.myfile3\n        session.myfile4 = form.vars.myfile4\n        session.myfile5 = form.vars.myfile5\n        session.myfile6 = form.vars.myfile6\n        session.protocol = \'classification\'\n        redirect(URL(\'submit_job\'))\n    if form_queue.process().accepted:\n        redirect(URL(\'show_status\'))\n    return dict(form=form,form_queue=form_queue)\n\ndef batch_effect():\n    form = SQLFORM.factory(Field(\'command\',requires=IS_NOT_EMPTY()),\n        Field(\'myfile1\', \'upload\',\n        uploadfolder=upload_path),\n        Field(\'myfile2\', \'upload\',\n        uploadfolder=upload_path),\n        Field(\'myfile3\', \'upload\',\n        uploadfolder=upload_path),\n        Field(\'myfile4\', \'upload\',\n        uploadfolder=upload_path),\n        Field(\'myfile5\', \'upload\',\n        uploadfolder=upload_path),\n        Field(\'myfile6\', \'upload\',\n        uploadfolder=upload_path),\n        )\n    form_queue = FORM(INPUT(_type=\'submit\',_value=\'show jobs status\'))\n    if form.process().accepted:\n        session.command=form.vars.command\n        session.myfile1 = form.vars.myfile1\n        session.myfile2 = form.vars.myfile2\n        session.myfile3 = form.vars.myfile3\n        session.myfile4 = form.vars.myfile4\n        session.myfile5 = form.vars.myfile5\n        session.myfile6 = form.vars.myfile6\n        session.protocol = \'batch_effect_remove\'\n        redirect(URL(\'submit_job\'))\n    if form_queue.process().accepted:\n        redirect(URL(\'show_status\'))\n    return dict(form=form,form_queue=form_queue)\n\ndef diffgene():\n    form = SQLFORM.factory(Field(\'command\',requires=IS_NOT_EMPTY()),\n        Field(\'myfile1\', \'upload\',\n        uploadfolder=upload_path),\n        Field(\'myfile2\', \'upload\',\n        uploadfolder=upload_path),\n        Field(\'myfile3\', \'upload\',\n        uploadfolder=upload_path),\n        Field(\'myfile4\', \'upload\',\n        uploadfolder=upload_path),\n        Field(\'myfile5\', \'upload\',\n        uploadfolder=upload_path),\n        Field(\'myfile6\', \'upload\',\n        uploadfolder=upload_path),\n        )\n    form_queue = FORM(INPUT(_type=\'submit\',_value=\'show jobs status\'))\n    if form.process().accepted:\n        session.command=form.vars.command\n        session.myfile1 = form.vars.myfile1\n        session.myfile2 = form.vars.myfile2\n        session.myfile3 = form.vars.myfile3\n        session.myfile4 = form.vars.myfile4\n        session.myfile5 = form.vars.myfile5\n        session.myfile6 = form.vars.myfile6\n        session.protocol = \'differential_expressed_gene_analysis\'\n        redirect(URL(\'submit_job\'))\n    if form_queue.process().accepted:\n        redirect(URL(\'show_status\'))\n    return dict(form=form,form_queue=form_queue)\n\ndef geneset():\n    form = SQLFORM.factory(Field(\'command\',requires=IS_NOT_EMPTY()),\n        Field(\'myfile1\', \'upload\',\n        uploadfolder=upload_path),\n        Field(\'myfile2\', \'upload\',\n        uploadfolder=upload_path),\n        Field(\'myfile3\', \'upload\',\n        uploadfolder=upload_path),\n        Field(\'myfile4\', \'upload\',\n        uploadfolder=upload_path),\n        Field(\'myfile5\', \'upload\',\n        uploadfolder=upload_path),\n        Field(\'myfile6\', \'upload\',\n        uploadfolder=upload_path),\n        )\n    form_queue = FORM(INPUT(_type=\'submit\',_value=\'show jobs status\'))\n    if form.process().accepted:\n        session.command=form.vars.command\n        session.myfile1 = form.vars.myfile1\n        session.myfile2 = form.vars.myfile2\n        session.myfile3 = form.vars.myfile3\n        session.myfile4 = form.vars.myfile4\n        session.myfile5 = form.vars.myfile5\n        session.myfile6 = form.vars.myfile6\n        session.protocol = \'geneset_analysis\'\n        redirect(URL(\'submit_job\'))\n    if form_queue.process().accepted:\n        redirect(URL(\'show_status\'))\n    return dict(form=form,form_queue=form_queue) \n    \n    \ndef show_status():\n    import subprocess\n    all_cmd = [\'python\',\'/home/xchen/chencode/tmp/try_parallel/queue.py\',\'--list\']    \n    process = subprocess.Popen(all_cmd, shell=False,\n                               stdout=subprocess.PIPE,\n                               stderr=subprocess.STDOUT)\n    process.wait()\n    log_information = process.stdout.read().split(\'\\n\')[1:]\n    log_information = [i for i in log_information if i]\n    for log_line in log_information:\n        lines = log_line.split(\'\\t\')\n        db.status.update_or_insert(db.status.Jobnumber==lines[0],Jobnumber=lines[0],\n                Jobname=lines[1], Status=lines[2], Started=lines[3],\n                Ended=lines[4],Submitted=lines[5],Command=lines[6])\n    form=db().select(db.status.ALL)\n    return dict(form=form)\n    \ndef show_job():\n    "show a job page"\n    session.output=[]\n    show_status()\n    this_job = db.status(request.args(0)) or redirect(URL(\'first\'))\n    db.status.id.default=this_job.id\n    text = \'\'\n    newtext=\'\'\n    if  this_job.Status in [\'running\',\'completed\']:\n        #from Modules import common_utlis \n        hash_string = hash_command(this_job.Submitted,this_job.Command)\n        pro_file = os.path.join(\'/home/xchen/chencode/tmp/processing_info/\', hash_string+\'.txt\')\n        f=file(pro_file,\'r\')\n        text = f.read().split(\'\\n\')\n        f.close()\n        newtext=text[:]\n        for i in range(len(text)):\n            text[i]=text[i].replace(\'/home/xchen/web2py/applications/Betsy/views/default/\',\'/home/xchen/web2py/applications/Betsy/\')\n            if os.path.exists(text[i].strip()):\n                #newtext[i]=text[i].strip().replace(\'/home/xchen/\',\'/Users/xchen2/Desktop/unicron/\')\n                newtext[i]=os.path.join(text[i].strip().split(\'/\')[-2:])\n                print newtext[i]\n            else:\n                newtext[i]=text[i]\n    info = \'Job is \' + this_job.Status\n    return dict(job=this_job,info=info,text=text,newtext=newtext,session=session)\n    \n\ndef submit_job():\n    if session.command:\n        import subprocess\n        import os\n        command = session.command.replace(\'myfile1\',os.path.join(upload_path,session.myfile1))\n        command = command.replace(\'myfile2\',os.path.join(upload_path,session.myfile2))\n        command = command.replace(\'myfile3\',os.path.join(upload_path,session.myfile3))\n        command = command.replace(\'myfile4\',os.path.join(upload_path,session.myfile4))\n        command = command.replace(\'myfile5\',os.path.join(upload_path,session.myfile5))\n        command = command.replace(\'myfile6\',os.path.join(upload_path,session.myfile6))\n        command_list=command.split()\n        cmd = [\'python\', \'/home/xchen/chencode/Betsy/scripts/run_protocol.py\', \'--protocol\', session.protocol] + command_list\n        all_cmd = [\'python\',\'/home/xchen/chencode/tmp/try_parallel/queue.py\' ,\' \' .join(cmd)]\n        process = subprocess.Popen(all_cmd, shell=False,\n                               stdout=subprocess.PIPE,\n                               stderr=subprocess.STDOUT)\n        process.wait()                      \n        redirect(URL(\'show_status\'))\n    return dict()\n    \ndef result_folder():\n    filename=request.args[0]\n    #response.headers[\'Content-Type\']=contenttype(filename)\n    folder,name = os.path.split(filename)\n    path = os.path.join(request.folder,\'result_files/\',filename)\n    print path\n    return open(path,\'rb\').read()\n    #return open(os.path.join(request.folder,\'result_files/\',folder,\'%s\' % filename),\'rb\').read()\n\n\ndef user():\n    """\n    exposes:\n    http://..../[app]/default/user/login\n    http://..../[app]/default/user/logout\n    http://..../[app]/default/user/register\n    http://..../[app]/default/user/profile\n    http://..../[app]/default/user/retrieve_password\n    http://..../[app]/default/user/change_password\n    use @auth.requires_login()\n        @auth.requires_membership(\'group name\')\n        @auth.requires_permission(\'read\',\'table name\',record_id)\n    to decorate functions that need access control\n    """\n    return dict(form=auth())\n\n\ndef download():\n    """\n    allows downloading of uploaded files\n    http://..../[app]/default/download/[filename]\n    """\n    return response.download(request, db)\n\n    \ndef call():\n    """\n    exposes services. for example:\n    http://..../[app]/default/call/jsonrpc\n    decorate with @services.jsonrpc the functions to expose\n    supports xml, json, xmlrpc, jsonrpc, amfrpc, rss, csv\n    """\n    return service()\n\n\n@auth.requires_signature()\ndef data():\n    """\n    http://..../[app]/default/data/tables\n    http://..../[app]/default/data/create/[table]\n    http://..../[app]/default/data/read/[table]/[id]\n    http://..../[app]/default/data/update/[table]/[id]\n    http://..../[app]/default/data/delete/[table]/[id]\n    http://..../[app]/default/data/select/[table]\n    http://..../[app]/default/data/search/[table]\n    but URLs must be signed, i.e. linked with\n      A(\'table\',_href=URL(\'data/tables\',user_signature=True))\n    or with the signed load operator\n      LOAD(\'default\',\'data.load\',args=\'tables\',ajax=True,user_signature=True)\n    """\n    return dict(form=crud())\n\nresponse._vars=response._caller(result_folder)\n'
p7
sS'snapshot'
p8
(dp9
S'exception'
p10
(dp11
S'__getslice__'
p12
S"<method-wrapper '__getslice__' of exceptions.IOError object>"
p13
sS'__str__'
p14
S"<method-wrapper '__str__' of exceptions.IOError object>"
p15
sS'__reduce__'
p16
S'<built-in method __reduce__ of exceptions.IOError object>'
p17
sS'__dict__'
p18
S'{}'
p19
sS'__sizeof__'
p20
S'<built-in method __sizeof__ of exceptions.IOError object>'
p21
sS'__init__'
p22
S"<method-wrapper '__init__' of exceptions.IOError object>"
p23
sS'__setattr__'
p24
S"<method-wrapper '__setattr__' of exceptions.IOError object>"
p25
sS'__reduce_ex__'
p26
S'<built-in method __reduce_ex__ of exceptions.IOError object>'
p27
sS'__new__'
p28
S'<built-in method __new__ of type object>'
p29
sS'errno'
p30
S'21'
p31
sS'__format__'
p32
S'<built-in method __format__ of exceptions.IOError object>'
p33
sS'__class__'
p34
S"<type 'exceptions.IOError'>"
p35
sS'filename'
p36
S"'/home/xchen/web2py/applications/Betsy/result_fil...robes_BETSYHASH1_b1f614a2950cb2af2d6bd155a72232b7'"
p37
sS'__doc__'
p38
S"'I/O operation failed.'"
p39
sS'__getitem__'
p40
S"<method-wrapper '__getitem__' of exceptions.IOError object>"
p41
sS'__setstate__'
p42
S'<built-in method __setstate__ of exceptions.IOError object>'
p43
sS'__getattribute__'
p44
S"<method-wrapper '__getattribute__' of exceptions.IOError object>"
p45
sS'args'
p46
S"(21, 'Is a directory')"
p47
sS'__subclasshook__'
p48
S'<built-in method __subclasshook__ of type object>'
p49
sS'__unicode__'
p50
S'<built-in method __unicode__ of exceptions.IOError object>'
p51
sS'strerror'
p52
S"'Is a directory'"
p53
sS'__delattr__'
p54
S"<method-wrapper '__delattr__' of exceptions.IOError object>"
p55
sS'__repr__'
p56
S"<method-wrapper '__repr__' of exceptions.IOError object>"
p57
sS'__hash__'
p58
S"<method-wrapper '__hash__' of exceptions.IOError object>"
p59
ssS'evalue'
p60
S"[Errno 21] Is a directory: '/home/xchen/web2py/applications/Betsy/result_files/annotate_probes_BETSYHASH1_b1f614a2950cb2af2d6bd155a72232b7'"
p61
sS'request'
p62
ccopy_reg
_reconstructor
p63
(cgluon.html
BEAUTIFY
p64
c__builtin__
object
p65
NtRp66
(dp67
S'attributes'
p68
(dp69
sS'components'
p70
(lp71
g63
(cgluon.html
TABLE
p72
g65
NtRp73
(dp74
g68
(dp75
S'level'
p76
I5
ssS'parent'
p77
Nsg70
(lp78
g63
(cgluon.html
TR
p79
g65
NtRp80
(dp81
g68
(dp82
sg77
g73
sg70
(lp83
g63
(cgluon.html
TD
p84
g65
NtRp85
(dp86
g68
(dp87
S'_style'
p88
S'font-weight:bold;vertical-align:top'
p89
ssg77
g80
sg70
(lp90
S'ajax'
p91
asbag63
(g84
g65
NtRp92
(dp93
g68
(dp94
S'_valign'
p95
S'top'
p96
ssg77
g80
sg70
(lp97
S':'
asbag63
(g84
g65
NtRp98
(dp99
g68
(dp100
sg77
g80
sg70
(lp101
g63
(g64
g65
NtRp102
(dp103
g68
(dp104
g76
I5
ssg77
g98
sg70
(lp105
S'False'
p106
asbasbasbag63
(g79
g65
NtRp107
(dp108
g68
(dp109
sg77
g73
sg70
(lp110
g63
(g84
g65
NtRp111
(dp112
g68
(dp113
g88
g89
ssg77
g107
sg70
(lp114
S'application'
p115
asbag63
(g84
g65
NtRp116
(dp117
g68
(dp118
g95
g96
ssg77
g107
sg70
(lp119
S':'
asbag63
(g84
g65
NtRp120
(dp121
g68
(dp122
sg77
g107
sg70
(lp123
g63
(g64
g65
NtRp124
(dp125
g68
(dp126
g76
I5
ssg77
g120
sg70
(lp127
S'Betsy'
p128
asbasbasbag63
(g79
g65
NtRp129
(dp130
g68
(dp131
sg77
g73
sg70
(lp132
g63
(g84
g65
NtRp133
(dp134
g68
(dp135
g88
g89
ssg77
g129
sg70
(lp136
g46
asbag63
(g84
g65
NtRp137
(dp138
g68
(dp139
g95
g96
ssg77
g129
sg70
(lp140
S':'
asbag63
(g84
g65
NtRp141
(dp142
g68
(dp143
sg77
g129
sg70
(lp144
g63
(g64
g65
NtRp145
(dp146
g68
(dp147
g76
I5
ssg77
g141
sg70
(lp148
g63
(g72
g65
NtRp149
(dp150
g68
(dp151
g76
I4
ssg77
Nsg70
(lp152
g63
(g79
g65
NtRp153
(dp154
g68
(dp155
sg77
g149
sg70
(lp156
g63
(g84
g65
NtRp157
(dp158
g68
(dp159
sg77
g153
sg70
(lp160
g63
(g64
g65
NtRp161
(dp162
g68
(dp163
g76
I4
ssg77
g157
sg70
(lp164
S'annotate_probes_BETSYHASH1_b1f614a2950cb2af2d6bd155a72232b7'
p165
asbasbasbag63
(g79
g65
NtRp166
(dp167
g68
(dp168
sg77
g149
sg70
(lp169
g63
(g84
g65
NtRp170
(dp171
g68
(dp172
sg77
g166
sg70
(lp173
g63
(g64
g65
NtRp174
(dp175
g68
(dp176
g76
I4
ssg77
g170
sg70
(lp177
S'signal_file_annot_table.myfile1.a9f0589e6b566198.4368616e675f415230303431302e70636c.txt'
p178
asbasbasbasbasbasbasbag63
(g79
g65
NtRp179
(dp180
g68
(dp181
sg77
g73
sg70
(lp182
g63
(g84
g65
NtRp183
(dp184
g68
(dp185
g88
g89
ssg77
g179
sg70
(lp186
S'body'
p187
asbag63
(g84
g65
NtRp188
(dp189
g68
(dp190
g95
g96
ssg77
g179
sg70
(lp191
S':'
asbag63
(g84
g65
NtRp192
(dp193
g68
(dp194
sg77
g179
sg70
(lp195
g63
(g64
g65
NtRp196
(dp197
g68
(dp198
g76
I5
ssg77
g192
sg70
(lp199
S'<cStringIO.StringO object at 0x1f7f43b0>'
p200
asbasbasbag63
(g79
g65
NtRp201
(dp202
g68
(dp203
sg77
g73
sg70
(lp204
g63
(g84
g65
NtRp205
(dp206
g68
(dp207
g88
g89
ssg77
g201
sg70
(lp208
S'cid'
p209
asbag63
(g84
g65
NtRp210
(dp211
g68
(dp212
g95
g96
ssg77
g201
sg70
(lp213
S':'
asbag63
(g84
g65
NtRp214
(dp215
g68
(dp216
sg77
g201
sg70
(lp217
g63
(g64
g65
NtRp218
(dp219
g68
(dp220
g76
I5
ssg77
g214
sg70
(lp221
S'None'
p222
asbasbasbag63
(g79
g65
NtRp223
(dp224
g68
(dp225
sg77
g73
sg70
(lp226
g63
(g84
g65
NtRp227
(dp228
g68
(dp229
g88
g89
ssg77
g223
sg70
(lp230
S'client'
p231
asbag63
(g84
g65
NtRp232
(dp233
g68
(dp234
g95
g96
ssg77
g223
sg70
(lp235
S':'
asbag63
(g84
g65
NtRp236
(dp237
g68
(dp238
sg77
g223
sg70
(lp239
g63
(g64
g65
NtRp240
(dp241
g68
(dp242
g76
I5
ssg77
g236
sg70
(lp243
S'127.0.0.1'
p244
asbasbasbag63
(g79
g65
NtRp245
(dp246
g68
(dp247
sg77
g73
sg70
(lp248
g63
(g84
g65
NtRp249
(dp250
g68
(dp251
g88
g89
ssg77
g245
sg70
(lp252
S'controller'
p253
asbag63
(g84
g65
NtRp254
(dp255
g68
(dp256
g95
g96
ssg77
g245
sg70
(lp257
S':'
asbag63
(g84
g65
NtRp258
(dp259
g68
(dp260
sg77
g245
sg70
(lp261
g63
(g64
g65
NtRp262
(dp263
g68
(dp264
g76
I5
ssg77
g258
sg70
(lp265
S'default'
p266
asbasbasbag63
(g79
g65
NtRp267
(dp268
g68
(dp269
sg77
g73
sg70
(lp270
g63
(g84
g65
NtRp271
(dp272
g68
(dp273
g88
g89
ssg77
g267
sg70
(lp274
S'cookies'
p275
asbag63
(g84
g65
NtRp276
(dp277
g68
(dp278
g95
g96
ssg77
g267
sg70
(lp279
S':'
asbag63
(g84
g65
NtRp280
(dp281
g68
(dp282
sg77
g267
sg70
(lp283
g63
(g64
g65
NtRp284
(dp285
g68
(dp286
g76
I5
ssg77
g280
sg70
(lp287
g63
(g72
g65
NtRp288
(dp289
g68
(dp290
g76
I4
ssg77
Nsg70
(lp291
g63
(g79
g65
NtRp292
(dp293
g68
(dp294
sg77
g288
sg70
(lp295
g63
(g84
g65
NtRp296
(dp297
g68
(dp298
g88
g89
ssg77
g292
sg70
(lp299
S'session_id_admin'
p300
asbag63
(g84
g65
NtRp301
(dp302
g68
(dp303
g95
g96
ssg77
g292
sg70
(lp304
S':'
asbag63
(g84
g65
NtRp305
(dp306
g68
(dp307
sg77
g292
sg70
(lp308
g63
(g64
g65
NtRp309
(dp310
g68
(dp311
g76
I4
ssg77
g305
sg70
(lp312
S'127.0.0.1-a90c1b80-785c-48ac-90de-4101982650f7'
p313
ag63
(g72
g65
NtRp314
(dp315
g68
(dp316
g76
I3
ssg77
Nsg70
(lp317
g63
(g79
g65
NtRp318
(dp319
g68
(dp320
sg77
g314
sg70
(lp321
g63
(g84
g65
NtRp322
(dp323
g68
(dp324
g88
g89
ssg77
g318
sg70
(lp325
S'comment'
p326
asbag63
(g84
g65
NtRp327
(dp328
g68
(dp329
g95
g96
ssg77
g318
sg70
(lp330
S':'
asbag63
(g84
g65
NtRp331
(dp332
g68
(dp333
sg77
g318
sg70
(lp334
g63
(g64
g65
NtRp335
(dp336
g68
(dp337
g76
I3
ssg77
g331
sg70
(lp338
S''
asbasbasbag63
(g79
g65
NtRp339
(dp340
g68
(dp341
sg77
g314
sg70
(lp342
g63
(g84
g65
NtRp343
(dp344
g68
(dp345
g88
g89
ssg77
g339
sg70
(lp346
S'domain'
p347
asbag63
(g84
g65
NtRp348
(dp349
g68
(dp350
g95
g96
ssg77
g339
sg70
(lp351
S':'
asbag63
(g84
g65
NtRp352
(dp353
g68
(dp354
sg77
g339
sg70
(lp355
g63
(g64
g65
NtRp356
(dp357
g68
(dp358
g76
I3
ssg77
g352
sg70
(lp359
S''
asbasbasbag63
(g79
g65
NtRp360
(dp361
g68
(dp362
sg77
g314
sg70
(lp363
g63
(g84
g65
NtRp364
(dp365
g68
(dp366
g88
g89
ssg77
g360
sg70
(lp367
S'expires'
p368
asbag63
(g84
g65
NtRp369
(dp370
g68
(dp371
g95
g96
ssg77
g360
sg70
(lp372
S':'
asbag63
(g84
g65
NtRp373
(dp374
g68
(dp375
sg77
g360
sg70
(lp376
g63
(g64
g65
NtRp377
(dp378
g68
(dp379
g76
I3
ssg77
g373
sg70
(lp380
S''
asbasbasbag63
(g79
g65
NtRp381
(dp382
g68
(dp383
sg77
g314
sg70
(lp384
g63
(g84
g65
NtRp385
(dp386
g68
(dp387
g88
g89
ssg77
g381
sg70
(lp388
S'httponly'
p389
asbag63
(g84
g65
NtRp390
(dp391
g68
(dp392
g95
g96
ssg77
g381
sg70
(lp393
S':'
asbag63
(g84
g65
NtRp394
(dp395
g68
(dp396
sg77
g381
sg70
(lp397
g63
(g64
g65
NtRp398
(dp399
g68
(dp400
g76
I3
ssg77
g394
sg70
(lp401
S''
asbasbasbag63
(g79
g65
NtRp402
(dp403
g68
(dp404
sg77
g314
sg70
(lp405
g63
(g84
g65
NtRp406
(dp407
g68
(dp408
g88
g89
ssg77
g402
sg70
(lp409
S'max-age'
p410
asbag63
(g84
g65
NtRp411
(dp412
g68
(dp413
g95
g96
ssg77
g402
sg70
(lp414
S':'
asbag63
(g84
g65
NtRp415
(dp416
g68
(dp417
sg77
g402
sg70
(lp418
g63
(g64
g65
NtRp419
(dp420
g68
(dp421
g76
I3
ssg77
g415
sg70
(lp422
S''
asbasbasbag63
(g79
g65
NtRp423
(dp424
g68
(dp425
sg77
g314
sg70
(lp426
g63
(g84
g65
NtRp427
(dp428
g68
(dp429
g88
g89
ssg77
g423
sg70
(lp430
S'path'
p431
asbag63
(g84
g65
NtRp432
(dp433
g68
(dp434
g95
g96
ssg77
g423
sg70
(lp435
S':'
asbag63
(g84
g65
NtRp436
(dp437
g68
(dp438
sg77
g423
sg70
(lp439
g63
(g64
g65
NtRp440
(dp441
g68
(dp442
g76
I3
ssg77
g436
sg70
(lp443
S''
asbasbasbag63
(g79
g65
NtRp444
(dp445
g68
(dp446
sg77
g314
sg70
(lp447
g63
(g84
g65
NtRp448
(dp449
g68
(dp450
g88
g89
ssg77
g444
sg70
(lp451
S'secure'
p452
asbag63
(g84
g65
NtRp453
(dp454
g68
(dp455
g95
g96
ssg77
g444
sg70
(lp456
S':'
asbag63
(g84
g65
NtRp457
(dp458
g68
(dp459
sg77
g444
sg70
(lp460
g63
(g64
g65
NtRp461
(dp462
g68
(dp463
g76
I3
ssg77
g457
sg70
(lp464
S''
asbasbasbag63
(g79
g65
NtRp465
(dp466
g68
(dp467
sg77
g314
sg70
(lp468
g63
(g84
g65
NtRp469
(dp470
g68
(dp471
g88
g89
ssg77
g465
sg70
(lp472
S'version'
p473
asbag63
(g84
g65
NtRp474
(dp475
g68
(dp476
g95
g96
ssg77
g465
sg70
(lp477
S':'
asbag63
(g84
g65
NtRp478
(dp479
g68
(dp480
sg77
g465
sg70
(lp481
g63
(g64
g65
NtRp482
(dp483
g68
(dp484
g76
I3
ssg77
g478
sg70
(lp485
S''
asbasbasbasbasbasbasbag63
(g79
g65
NtRp486
(dp487
g68
(dp488
sg77
g288
sg70
(lp489
g63
(g84
g65
NtRp490
(dp491
g68
(dp492
g88
g89
ssg77
g486
sg70
(lp493
S'session_id_betsy'
p494
asbag63
(g84
g65
NtRp495
(dp496
g68
(dp497
g95
g96
ssg77
g486
sg70
(lp498
S':'
asbag63
(g84
g65
NtRp499
(dp500
g68
(dp501
sg77
g486
sg70
(lp502
g63
(g64
g65
NtRp503
(dp504
g68
(dp505
g76
I4
ssg77
g499
sg70
(lp506
S'127.0.0.1-70d52105-0f5d-4884-a4e3-dce6830f30e0'
p507
ag63
(g72
g65
NtRp508
(dp509
g68
(dp510
g76
I3
ssg77
Nsg70
(lp511
g63
(g79
g65
NtRp512
(dp513
g68
(dp514
sg77
g508
sg70
(lp515
g63
(g84
g65
NtRp516
(dp517
g68
(dp518
g88
g89
ssg77
g512
sg70
(lp519
g326
asbag63
(g84
g65
NtRp520
(dp521
g68
(dp522
g95
g96
ssg77
g512
sg70
(lp523
S':'
asbag63
(g84
g65
NtRp524
(dp525
g68
(dp526
sg77
g512
sg70
(lp527
g63
(g64
g65
NtRp528
(dp529
g68
(dp530
g76
I3
ssg77
g524
sg70
(lp531
S''
asbasbasbag63
(g79
g65
NtRp532
(dp533
g68
(dp534
sg77
g508
sg70
(lp535
g63
(g84
g65
NtRp536
(dp537
g68
(dp538
g88
g89
ssg77
g532
sg70
(lp539
g347
asbag63
(g84
g65
NtRp540
(dp541
g68
(dp542
g95
g96
ssg77
g532
sg70
(lp543
S':'
asbag63
(g84
g65
NtRp544
(dp545
g68
(dp546
sg77
g532
sg70
(lp547
g63
(g64
g65
NtRp548
(dp549
g68
(dp550
g76
I3
ssg77
g544
sg70
(lp551
S''
asbasbasbag63
(g79
g65
NtRp552
(dp553
g68
(dp554
sg77
g508
sg70
(lp555
g63
(g84
g65
NtRp556
(dp557
g68
(dp558
g88
g89
ssg77
g552
sg70
(lp559
g368
asbag63
(g84
g65
NtRp560
(dp561
g68
(dp562
g95
g96
ssg77
g552
sg70
(lp563
S':'
asbag63
(g84
g65
NtRp564
(dp565
g68
(dp566
sg77
g552
sg70
(lp567
g63
(g64
g65
NtRp568
(dp569
g68
(dp570
g76
I3
ssg77
g564
sg70
(lp571
S''
asbasbasbag63
(g79
g65
NtRp572
(dp573
g68
(dp574
sg77
g508
sg70
(lp575
g63
(g84
g65
NtRp576
(dp577
g68
(dp578
g88
g89
ssg77
g572
sg70
(lp579
g389
asbag63
(g84
g65
NtRp580
(dp581
g68
(dp582
g95
g96
ssg77
g572
sg70
(lp583
S':'
asbag63
(g84
g65
NtRp584
(dp585
g68
(dp586
sg77
g572
sg70
(lp587
g63
(g64
g65
NtRp588
(dp589
g68
(dp590
g76
I3
ssg77
g584
sg70
(lp591
S''
asbasbasbag63
(g79
g65
NtRp592
(dp593
g68
(dp594
sg77
g508
sg70
(lp595
g63
(g84
g65
NtRp596
(dp597
g68
(dp598
g88
g89
ssg77
g592
sg70
(lp599
g410
asbag63
(g84
g65
NtRp600
(dp601
g68
(dp602
g95
g96
ssg77
g592
sg70
(lp603
S':'
asbag63
(g84
g65
NtRp604
(dp605
g68
(dp606
sg77
g592
sg70
(lp607
g63
(g64
g65
NtRp608
(dp609
g68
(dp610
g76
I3
ssg77
g604
sg70
(lp611
S''
asbasbasbag63
(g79
g65
NtRp612
(dp613
g68
(dp614
sg77
g508
sg70
(lp615
g63
(g84
g65
NtRp616
(dp617
g68
(dp618
g88
g89
ssg77
g612
sg70
(lp619
g431
asbag63
(g84
g65
NtRp620
(dp621
g68
(dp622
g95
g96
ssg77
g612
sg70
(lp623
S':'
asbag63
(g84
g65
NtRp624
(dp625
g68
(dp626
sg77
g612
sg70
(lp627
g63
(g64
g65
NtRp628
(dp629
g68
(dp630
g76
I3
ssg77
g624
sg70
(lp631
S''
asbasbasbag63
(g79
g65
NtRp632
(dp633
g68
(dp634
sg77
g508
sg70
(lp635
g63
(g84
g65
NtRp636
(dp637
g68
(dp638
g88
g89
ssg77
g632
sg70
(lp639
g452
asbag63
(g84
g65
NtRp640
(dp641
g68
(dp642
g95
g96
ssg77
g632
sg70
(lp643
S':'
asbag63
(g84
g65
NtRp644
(dp645
g68
(dp646
sg77
g632
sg70
(lp647
g63
(g64
g65
NtRp648
(dp649
g68
(dp650
g76
I3
ssg77
g644
sg70
(lp651
S''
asbasbasbag63
(g79
g65
NtRp652
(dp653
g68
(dp654
sg77
g508
sg70
(lp655
g63
(g84
g65
NtRp656
(dp657
g68
(dp658
g88
g89
ssg77
g652
sg70
(lp659
g473
asbag63
(g84
g65
NtRp660
(dp661
g68
(dp662
g95
g96
ssg77
g652
sg70
(lp663
S':'
asbag63
(g84
g65
NtRp664
(dp665
g68
(dp666
sg77
g652
sg70
(lp667
g63
(g64
g65
NtRp668
(dp669
g68
(dp670
g76
I3
ssg77
g664
sg70
(lp671
S''
asbasbasbasbasbasbasbag63
(g79
g65
NtRp672
(dp673
g68
(dp674
sg77
g288
sg70
(lp675
g63
(g84
g65
NtRp676
(dp677
g68
(dp678
g88
g89
ssg77
g672
sg70
(lp679
S'session_id_cookbook'
p680
asbag63
(g84
g65
NtRp681
(dp682
g68
(dp683
g95
g96
ssg77
g672
sg70
(lp684
S':'
asbag63
(g84
g65
NtRp685
(dp686
g68
(dp687
sg77
g672
sg70
(lp688
g63
(g64
g65
NtRp689
(dp690
g68
(dp691
g76
I4
ssg77
g685
sg70
(lp692
S'127.0.0.1-0c407cea-5342-424c-96ef-e79162dcd0b6'
p693
ag63
(g72
g65
NtRp694
(dp695
g68
(dp696
g76
I3
ssg77
Nsg70
(lp697
g63
(g79
g65
NtRp698
(dp699
g68
(dp700
sg77
g694
sg70
(lp701
g63
(g84
g65
NtRp702
(dp703
g68
(dp704
g88
g89
ssg77
g698
sg70
(lp705
g326
asbag63
(g84
g65
NtRp706
(dp707
g68
(dp708
g95
g96
ssg77
g698
sg70
(lp709
S':'
asbag63
(g84
g65
NtRp710
(dp711
g68
(dp712
sg77
g698
sg70
(lp713
g63
(g64
g65
NtRp714
(dp715
g68
(dp716
g76
I3
ssg77
g710
sg70
(lp717
S''
asbasbasbag63
(g79
g65
NtRp718
(dp719
g68
(dp720
sg77
g694
sg70
(lp721
g63
(g84
g65
NtRp722
(dp723
g68
(dp724
g88
g89
ssg77
g718
sg70
(lp725
g347
asbag63
(g84
g65
NtRp726
(dp727
g68
(dp728
g95
g96
ssg77
g718
sg70
(lp729
S':'
asbag63
(g84
g65
NtRp730
(dp731
g68
(dp732
sg77
g718
sg70
(lp733
g63
(g64
g65
NtRp734
(dp735
g68
(dp736
g76
I3
ssg77
g730
sg70
(lp737
S''
asbasbasbag63
(g79
g65
NtRp738
(dp739
g68
(dp740
sg77
g694
sg70
(lp741
g63
(g84
g65
NtRp742
(dp743
g68
(dp744
g88
g89
ssg77
g738
sg70
(lp745
g368
asbag63
(g84
g65
NtRp746
(dp747
g68
(dp748
g95
g96
ssg77
g738
sg70
(lp749
S':'
asbag63
(g84
g65
NtRp750
(dp751
g68
(dp752
sg77
g738
sg70
(lp753
g63
(g64
g65
NtRp754
(dp755
g68
(dp756
g76
I3
ssg77
g750
sg70
(lp757
S''
asbasbasbag63
(g79
g65
NtRp758
(dp759
g68
(dp760
sg77
g694
sg70
(lp761
g63
(g84
g65
NtRp762
(dp763
g68
(dp764
g88
g89
ssg77
g758
sg70
(lp765
g389
asbag63
(g84
g65
NtRp766
(dp767
g68
(dp768
g95
g96
ssg77
g758
sg70
(lp769
S':'
asbag63
(g84
g65
NtRp770
(dp771
g68
(dp772
sg77
g758
sg70
(lp773
g63
(g64
g65
NtRp774
(dp775
g68
(dp776
g76
I3
ssg77
g770
sg70
(lp777
S''
asbasbasbag63
(g79
g65
NtRp778
(dp779
g68
(dp780
sg77
g694
sg70
(lp781
g63
(g84
g65
NtRp782
(dp783
g68
(dp784
g88
g89
ssg77
g778
sg70
(lp785
g410
asbag63
(g84
g65
NtRp786
(dp787
g68
(dp788
g95
g96
ssg77
g778
sg70
(lp789
S':'
asbag63
(g84
g65
NtRp790
(dp791
g68
(dp792
sg77
g778
sg70
(lp793
g63
(g64
g65
NtRp794
(dp795
g68
(dp796
g76
I3
ssg77
g790
sg70
(lp797
S''
asbasbasbag63
(g79
g65
NtRp798
(dp799
g68
(dp800
sg77
g694
sg70
(lp801
g63
(g84
g65
NtRp802
(dp803
g68
(dp804
g88
g89
ssg77
g798
sg70
(lp805
g431
asbag63
(g84
g65
NtRp806
(dp807
g68
(dp808
g95
g96
ssg77
g798
sg70
(lp809
S':'
asbag63
(g84
g65
NtRp810
(dp811
g68
(dp812
sg77
g798
sg70
(lp813
g63
(g64
g65
NtRp814
(dp815
g68
(dp816
g76
I3
ssg77
g810
sg70
(lp817
S''
asbasbasbag63
(g79
g65
NtRp818
(dp819
g68
(dp820
sg77
g694
sg70
(lp821
g63
(g84
g65
NtRp822
(dp823
g68
(dp824
g88
g89
ssg77
g818
sg70
(lp825
g452
asbag63
(g84
g65
NtRp826
(dp827
g68
(dp828
g95
g96
ssg77
g818
sg70
(lp829
S':'
asbag63
(g84
g65
NtRp830
(dp831
g68
(dp832
sg77
g818
sg70
(lp833
g63
(g64
g65
NtRp834
(dp835
g68
(dp836
g76
I3
ssg77
g830
sg70
(lp837
S''
asbasbasbag63
(g79
g65
NtRp838
(dp839
g68
(dp840
sg77
g694
sg70
(lp841
g63
(g84
g65
NtRp842
(dp843
g68
(dp844
g88
g89
ssg77
g838
sg70
(lp845
g473
asbag63
(g84
g65
NtRp846
(dp847
g68
(dp848
g95
g96
ssg77
g838
sg70
(lp849
S':'
asbag63
(g84
g65
NtRp850
(dp851
g68
(dp852
sg77
g838
sg70
(lp853
g63
(g64
g65
NtRp854
(dp855
g68
(dp856
g76
I3
ssg77
g850
sg70
(lp857
S''
asbasbasbasbasbasbasbag63
(g79
g65
NtRp858
(dp859
g68
(dp860
sg77
g288
sg70
(lp861
g63
(g84
g65
NtRp862
(dp863
g68
(dp864
g88
g89
ssg77
g858
sg70
(lp865
S'session_id_imagegallery'
p866
asbag63
(g84
g65
NtRp867
(dp868
g68
(dp869
g95
g96
ssg77
g858
sg70
(lp870
S':'
asbag63
(g84
g65
NtRp871
(dp872
g68
(dp873
sg77
g858
sg70
(lp874
g63
(g64
g65
NtRp875
(dp876
g68
(dp877
g76
I4
ssg77
g871
sg70
(lp878
S'127.0.0.1-e030a8c0-798d-4ebd-9174-b4e9a1535bda'
p879
ag63
(g72
g65
NtRp880
(dp881
g68
(dp882
g76
I3
ssg77
Nsg70
(lp883
g63
(g79
g65
NtRp884
(dp885
g68
(dp886
sg77
g880
sg70
(lp887
g63
(g84
g65
NtRp888
(dp889
g68
(dp890
g88
g89
ssg77
g884
sg70
(lp891
g326
asbag63
(g84
g65
NtRp892
(dp893
g68
(dp894
g95
g96
ssg77
g884
sg70
(lp895
S':'
asbag63
(g84
g65
NtRp896
(dp897
g68
(dp898
sg77
g884
sg70
(lp899
g63
(g64
g65
NtRp900
(dp901
g68
(dp902
g76
I3
ssg77
g896
sg70
(lp903
S''
asbasbasbag63
(g79
g65
NtRp904
(dp905
g68
(dp906
sg77
g880
sg70
(lp907
g63
(g84
g65
NtRp908
(dp909
g68
(dp910
g88
g89
ssg77
g904
sg70
(lp911
g347
asbag63
(g84
g65
NtRp912
(dp913
g68
(dp914
g95
g96
ssg77
g904
sg70
(lp915
S':'
asbag63
(g84
g65
NtRp916
(dp917
g68
(dp918
sg77
g904
sg70
(lp919
g63
(g64
g65
NtRp920
(dp921
g68
(dp922
g76
I3
ssg77
g916
sg70
(lp923
S''
asbasbasbag63
(g79
g65
NtRp924
(dp925
g68
(dp926
sg77
g880
sg70
(lp927
g63
(g84
g65
NtRp928
(dp929
g68
(dp930
g88
g89
ssg77
g924
sg70
(lp931
g368
asbag63
(g84
g65
NtRp932
(dp933
g68
(dp934
g95
g96
ssg77
g924
sg70
(lp935
S':'
asbag63
(g84
g65
NtRp936
(dp937
g68
(dp938
sg77
g924
sg70
(lp939
g63
(g64
g65
NtRp940
(dp941
g68
(dp942
g76
I3
ssg77
g936
sg70
(lp943
S''
asbasbasbag63
(g79
g65
NtRp944
(dp945
g68
(dp946
sg77
g880
sg70
(lp947
g63
(g84
g65
NtRp948
(dp949
g68
(dp950
g88
g89
ssg77
g944
sg70
(lp951
g389
asbag63
(g84
g65
NtRp952
(dp953
g68
(dp954
g95
g96
ssg77
g944
sg70
(lp955
S':'
asbag63
(g84
g65
NtRp956
(dp957
g68
(dp958
sg77
g944
sg70
(lp959
g63
(g64
g65
NtRp960
(dp961
g68
(dp962
g76
I3
ssg77
g956
sg70
(lp963
S''
asbasbasbag63
(g79
g65
NtRp964
(dp965
g68
(dp966
sg77
g880
sg70
(lp967
g63
(g84
g65
NtRp968
(dp969
g68
(dp970
g88
g89
ssg77
g964
sg70
(lp971
g410
asbag63
(g84
g65
NtRp972
(dp973
g68
(dp974
g95
g96
ssg77
g964
sg70
(lp975
S':'
asbag63
(g84
g65
NtRp976
(dp977
g68
(dp978
sg77
g964
sg70
(lp979
g63
(g64
g65
NtRp980
(dp981
g68
(dp982
g76
I3
ssg77
g976
sg70
(lp983
S''
asbasbasbag63
(g79
g65
NtRp984
(dp985
g68
(dp986
sg77
g880
sg70
(lp987
g63
(g84
g65
NtRp988
(dp989
g68
(dp990
g88
g89
ssg77
g984
sg70
(lp991
g431
asbag63
(g84
g65
NtRp992
(dp993
g68
(dp994
g95
g96
ssg77
g984
sg70
(lp995
S':'
asbag63
(g84
g65
NtRp996
(dp997
g68
(dp998
sg77
g984
sg70
(lp999
g63
(g64
g65
NtRp1000
(dp1001
g68
(dp1002
g76
I3
ssg77
g996
sg70
(lp1003
S''
asbasbasbag63
(g79
g65
NtRp1004
(dp1005
g68
(dp1006
sg77
g880
sg70
(lp1007
g63
(g84
g65
NtRp1008
(dp1009
g68
(dp1010
g88
g89
ssg77
g1004
sg70
(lp1011
g452
asbag63
(g84
g65
NtRp1012
(dp1013
g68
(dp1014
g95
g96
ssg77
g1004
sg70
(lp1015
S':'
asbag63
(g84
g65
NtRp1016
(dp1017
g68
(dp1018
sg77
g1004
sg70
(lp1019
g63
(g64
g65
NtRp1020
(dp1021
g68
(dp1022
g76
I3
ssg77
g1016
sg70
(lp1023
S''
asbasbasbag63
(g79
g65
NtRp1024
(dp1025
g68
(dp1026
sg77
g880
sg70
(lp1027
g63
(g84
g65
NtRp1028
(dp1029
g68
(dp1030
g88
g89
ssg77
g1024
sg70
(lp1031
g473
asbag63
(g84
g65
NtRp1032
(dp1033
g68
(dp1034
g95
g96
ssg77
g1024
sg70
(lp1035
S':'
asbag63
(g84
g65
NtRp1036
(dp1037
g68
(dp1038
sg77
g1024
sg70
(lp1039
g63
(g64
g65
NtRp1040
(dp1041
g68
(dp1042
g76
I3
ssg77
g1036
sg70
(lp1043
S''
asbasbasbasbasbasbasbag63
(g79
g65
NtRp1044
(dp1045
g68
(dp1046
sg77
g288
sg70
(lp1047
g63
(g84
g65
NtRp1048
(dp1049
g68
(dp1050
g88
g89
ssg77
g1044
sg70
(lp1051
S'session_id_welcome'
p1052
asbag63
(g84
g65
NtRp1053
(dp1054
g68
(dp1055
g95
g96
ssg77
g1044
sg70
(lp1056
S':'
asbag63
(g84
g65
NtRp1057
(dp1058
g68
(dp1059
sg77
g1044
sg70
(lp1060
g63
(g64
g65
NtRp1061
(dp1062
g68
(dp1063
g76
I4
ssg77
g1057
sg70
(lp1064
S'127.0.0.1-24757799-98ac-44f7-8b04-217ea56c4199'
p1065
ag63
(g72
g65
NtRp1066
(dp1067
g68
(dp1068
g76
I3
ssg77
Nsg70
(lp1069
g63
(g79
g65
NtRp1070
(dp1071
g68
(dp1072
sg77
g1066
sg70
(lp1073
g63
(g84
g65
NtRp1074
(dp1075
g68
(dp1076
g88
g89
ssg77
g1070
sg70
(lp1077
g326
asbag63
(g84
g65
NtRp1078
(dp1079
g68
(dp1080
g95
g96
ssg77
g1070
sg70
(lp1081
S':'
asbag63
(g84
g65
NtRp1082
(dp1083
g68
(dp1084
sg77
g1070
sg70
(lp1085
g63
(g64
g65
NtRp1086
(dp1087
g68
(dp1088
g76
I3
ssg77
g1082
sg70
(lp1089
S''
asbasbasbag63
(g79
g65
NtRp1090
(dp1091
g68
(dp1092
sg77
g1066
sg70
(lp1093
g63
(g84
g65
NtRp1094
(dp1095
g68
(dp1096
g88
g89
ssg77
g1090
sg70
(lp1097
g347
asbag63
(g84
g65
NtRp1098
(dp1099
g68
(dp1100
g95
g96
ssg77
g1090
sg70
(lp1101
S':'
asbag63
(g84
g65
NtRp1102
(dp1103
g68
(dp1104
sg77
g1090
sg70
(lp1105
g63
(g64
g65
NtRp1106
(dp1107
g68
(dp1108
g76
I3
ssg77
g1102
sg70
(lp1109
S''
asbasbasbag63
(g79
g65
NtRp1110
(dp1111
g68
(dp1112
sg77
g1066
sg70
(lp1113
g63
(g84
g65
NtRp1114
(dp1115
g68
(dp1116
g88
g89
ssg77
g1110
sg70
(lp1117
g368
asbag63
(g84
g65
NtRp1118
(dp1119
g68
(dp1120
g95
g96
ssg77
g1110
sg70
(lp1121
S':'
asbag63
(g84
g65
NtRp1122
(dp1123
g68
(dp1124
sg77
g1110
sg70
(lp1125
g63
(g64
g65
NtRp1126
(dp1127
g68
(dp1128
g76
I3
ssg77
g1122
sg70
(lp1129
S''
asbasbasbag63
(g79
g65
NtRp1130
(dp1131
g68
(dp1132
sg77
g1066
sg70
(lp1133
g63
(g84
g65
NtRp1134
(dp1135
g68
(dp1136
g88
g89
ssg77
g1130
sg70
(lp1137
g389
asbag63
(g84
g65
NtRp1138
(dp1139
g68
(dp1140
g95
g96
ssg77
g1130
sg70
(lp1141
S':'
asbag63
(g84
g65
NtRp1142
(dp1143
g68
(dp1144
sg77
g1130
sg70
(lp1145
g63
(g64
g65
NtRp1146
(dp1147
g68
(dp1148
g76
I3
ssg77
g1142
sg70
(lp1149
S''
asbasbasbag63
(g79
g65
NtRp1150
(dp1151
g68
(dp1152
sg77
g1066
sg70
(lp1153
g63
(g84
g65
NtRp1154
(dp1155
g68
(dp1156
g88
g89
ssg77
g1150
sg70
(lp1157
g410
asbag63
(g84
g65
NtRp1158
(dp1159
g68
(dp1160
g95
g96
ssg77
g1150
sg70
(lp1161
S':'
asbag63
(g84
g65
NtRp1162
(dp1163
g68
(dp1164
sg77
g1150
sg70
(lp1165
g63
(g64
g65
NtRp1166
(dp1167
g68
(dp1168
g76
I3
ssg77
g1162
sg70
(lp1169
S''
asbasbasbag63
(g79
g65
NtRp1170
(dp1171
g68
(dp1172
sg77
g1066
sg70
(lp1173
g63
(g84
g65
NtRp1174
(dp1175
g68
(dp1176
g88
g89
ssg77
g1170
sg70
(lp1177
g431
asbag63
(g84
g65
NtRp1178
(dp1179
g68
(dp1180
g95
g96
ssg77
g1170
sg70
(lp1181
S':'
asbag63
(g84
g65
NtRp1182
(dp1183
g68
(dp1184
sg77
g1170
sg70
(lp1185
g63
(g64
g65
NtRp1186
(dp1187
g68
(dp1188
g76
I3
ssg77
g1182
sg70
(lp1189
S''
asbasbasbag63
(g79
g65
NtRp1190
(dp1191
g68
(dp1192
sg77
g1066
sg70
(lp1193
g63
(g84
g65
NtRp1194
(dp1195
g68
(dp1196
g88
g89
ssg77
g1190
sg70
(lp1197
g452
asbag63
(g84
g65
NtRp1198
(dp1199
g68
(dp1200
g95
g96
ssg77
g1190
sg70
(lp1201
S':'
asbag63
(g84
g65
NtRp1202
(dp1203
g68
(dp1204
sg77
g1190
sg70
(lp1205
g63
(g64
g65
NtRp1206
(dp1207
g68
(dp1208
g76
I3
ssg77
g1202
sg70
(lp1209
S''
asbasbasbag63
(g79
g65
NtRp1210
(dp1211
g68
(dp1212
sg77
g1066
sg70
(lp1213
g63
(g84
g65
NtRp1214
(dp1215
g68
(dp1216
g88
g89
ssg77
g1210
sg70
(lp1217
g473
asbag63
(g84
g65
NtRp1218
(dp1219
g68
(dp1220
g95
g96
ssg77
g1210
sg70
(lp1221
S':'
asbag63
(g84
g65
NtRp1222
(dp1223
g68
(dp1224
sg77
g1210
sg70
(lp1225
g63
(g64
g65
NtRp1226
(dp1227
g68
(dp1228
g76
I3
ssg77
g1222
sg70
(lp1229
S''
asbasbasbasbasbasbasbasbasbasbasbag63
(g79
g65
NtRp1230
(dp1231
g68
(dp1232
sg77
g73
sg70
(lp1233
g63
(g84
g65
NtRp1234
(dp1235
g68
(dp1236
g88
g89
ssg77
g1230
sg70
(lp1237
S'env'
p1238
asbag63
(g84
g65
NtRp1239
(dp1240
g68
(dp1241
g95
g96
ssg77
g1230
sg70
(lp1242
S':'
asbag63
(g84
g65
NtRp1243
(dp1244
g68
(dp1245
sg77
g1230
sg70
(lp1246
g63
(g64
g65
NtRp1247
(dp1248
g68
(dp1249
g76
I5
ssg77
g1243
sg70
(lp1250
g63
(g72
g65
NtRp1251
(dp1252
g68
(dp1253
g76
I4
ssg77
Nsg70
(lp1254
g63
(g79
g65
NtRp1255
(dp1256
g68
(dp1257
sg77
g1251
sg70
(lp1258
g63
(g84
g65
NtRp1259
(dp1260
g68
(dp1261
g88
g89
ssg77
g1255
sg70
(lp1262
S'app_folders'
p1263
asbag63
(g84
g65
NtRp1264
(dp1265
g68
(dp1266
g95
g96
ssg77
g1255
sg70
(lp1267
S':'
asbag63
(g84
g65
NtRp1268
(dp1269
g68
(dp1270
sg77
g1255
sg70
(lp1271
g63
(g64
g65
NtRp1272
(dp1273
g68
(dp1274
g76
I4
ssg77
g1268
sg70
(lp1275
S"set(['/home/xchen/web2py/applications/Betsy/', '/home/xchen/web2py/applications/cookbook/', '/home/xchen/web2py/applications/admin/', '/home/xchen/web2py/applications/welcome/', '/home/xchen/web2py/applications/imageGallery/'])"
p1276
asbasbasbag63
(g79
g65
NtRp1277
(dp1278
g68
(dp1279
sg77
g1251
sg70
(lp1280
g63
(g84
g65
NtRp1281
(dp1282
g68
(dp1283
g88
g89
ssg77
g1277
sg70
(lp1284
S'applications_parent'
p1285
asbag63
(g84
g65
NtRp1286
(dp1287
g68
(dp1288
g95
g96
ssg77
g1277
sg70
(lp1289
S':'
asbag63
(g84
g65
NtRp1290
(dp1291
g68
(dp1292
sg77
g1277
sg70
(lp1293
g63
(g64
g65
NtRp1294
(dp1295
g68
(dp1296
g76
I4
ssg77
g1290
sg70
(lp1297
S'/home/xchen/web2py'
p1298
asbasbasbag63
(g79
g65
NtRp1299
(dp1300
g68
(dp1301
sg77
g1251
sg70
(lp1302
g63
(g84
g65
NtRp1303
(dp1304
g68
(dp1305
g88
g89
ssg77
g1299
sg70
(lp1306
S'cmd_args'
p1307
asbag63
(g84
g65
NtRp1308
(dp1309
g68
(dp1310
g95
g96
ssg77
g1299
sg70
(lp1311
S':'
asbag63
(g84
g65
NtRp1312
(dp1313
g68
(dp1314
sg77
g1299
sg70
(lp1315
g63
(g64
g65
NtRp1316
(dp1317
g68
(dp1318
g76
I4
ssg77
g1312
sg70
(lp1319
g63
(g72
g65
NtRp1320
(dp1321
g68
(dp1322
g76
I3
ssg77
Nsg70
(lp1323
sbasbasbasbag63
(g79
g65
NtRp1324
(dp1325
g68
(dp1326
sg77
g1251
sg70
(lp1327
g63
(g84
g65
NtRp1328
(dp1329
g68
(dp1330
g88
g89
ssg77
g1324
sg70
(lp1331
S'cmd_options'
p1332
asbag63
(g84
g65
NtRp1333
(dp1334
g68
(dp1335
g95
g96
ssg77
g1324
sg70
(lp1336
S':'
asbag63
(g84
g65
NtRp1337
(dp1338
g68
(dp1339
sg77
g1324
sg70
(lp1340
g63
(g64
g65
NtRp1341
(dp1342
g68
(dp1343
g76
I4
ssg77
g1337
sg70
(lp1344
S"<Values at 0x1ef26e18: {'verbose': False, 'ip': '127.0.0.1', 'with_scheduler': False, 'ips': [], 'shutdown_timeout': 5, 'taskbar': False, 'port': 8080, 'maxthreads': None, 'softcron': False, 'server_name': 'unicron.shis.uth.tmc.edu', 'bpython': False, 'nogui': False, 'pid_filename': 'httpserver.pid', 'extcron': False, 'runcron': False, 'run_system_tests': False, 'test': None, 'folder': '/home/xchen/web2py', 'config': '', 'minthreads': None, 'winservice': '', 'shell': None, 'run': '', 'log_filename': 'httpserver.log', 'debuglevel': 30, 'args': [''], 'socket_timeout': 5, 'ssl_ca_certificate': None, 'scheduler': None, 'profiler_filename': None, 'ssl_private_key': '', 'scheduler_groups': None, 'password': 'baby2008', 'request_queue_size': 5, 'ssl_certificate': '', 'cronjob': False, 'numthreads': None, 'quiet': False, 'interfaces': None, 'import_models': False, 'timeout': 10, 'plain': False, 'nobanner': False}>"
p1345
asbasbasbag63
(g79
g65
NtRp1346
(dp1347
g68
(dp1348
sg77
g1251
sg70
(lp1349
g63
(g84
g65
NtRp1350
(dp1351
g68
(dp1352
g88
g89
ssg77
g1346
sg70
(lp1353
S'db_sessions'
p1354
asbag63
(g84
g65
NtRp1355
(dp1356
g68
(dp1357
g95
g96
ssg77
g1346
sg70
(lp1358
S':'
asbag63
(g84
g65
NtRp1359
(dp1360
g68
(dp1361
sg77
g1346
sg70
(lp1362
g63
(g64
g65
NtRp1363
(dp1364
g68
(dp1365
g76
I4
ssg77
g1359
sg70
(lp1366
S'set([])'
p1367
asbasbasbag63
(g79
g65
NtRp1368
(dp1369
g68
(dp1370
sg77
g1251
sg70
(lp1371
g63
(g84
g65
NtRp1372
(dp1373
g68
(dp1374
g88
g89
ssg77
g1368
sg70
(lp1375
S'debugging'
p1376
asbag63
(g84
g65
NtRp1377
(dp1378
g68
(dp1379
g95
g96
ssg77
g1368
sg70
(lp1380
S':'
asbag63
(g84
g65
NtRp1381
(dp1382
g68
(dp1383
sg77
g1368
sg70
(lp1384
g63
(g64
g65
NtRp1385
(dp1386
g68
(dp1387
g76
I4
ssg77
g1381
sg70
(lp1388
g106
asbasbasbag63
(g79
g65
NtRp1389
(dp1390
g68
(dp1391
sg77
g1251
sg70
(lp1392
g63
(g84
g65
NtRp1393
(dp1394
g68
(dp1395
g88
g89
ssg77
g1389
sg70
(lp1396
S'gluon_parent'
p1397
asbag63
(g84
g65
NtRp1398
(dp1399
g68
(dp1400
g95
g96
ssg77
g1389
sg70
(lp1401
S':'
asbag63
(g84
g65
NtRp1402
(dp1403
g68
(dp1404
sg77
g1389
sg70
(lp1405
g63
(g64
g65
NtRp1406
(dp1407
g68
(dp1408
g76
I4
ssg77
g1402
sg70
(lp1409
S'/home/xchen/web2py'
p1410
asbasbasbag63
(g79
g65
NtRp1411
(dp1412
g68
(dp1413
sg77
g1251
sg70
(lp1414
g63
(g84
g65
NtRp1415
(dp1416
g68
(dp1417
g88
g89
ssg77
g1411
sg70
(lp1418
S'http_accept'
p1419
asbag63
(g84
g65
NtRp1420
(dp1421
g68
(dp1422
g95
g96
ssg77
g1411
sg70
(lp1423
S':'
asbag63
(g84
g65
NtRp1424
(dp1425
g68
(dp1426
sg77
g1411
sg70
(lp1427
g63
(g64
g65
NtRp1428
(dp1429
g68
(dp1430
g76
I4
ssg77
g1424
sg70
(lp1431
S'text/html,application/xhtml+xml,application/xml;q=0.9,*/*;q=0.8'
p1432
asbasbasbag63
(g79
g65
NtRp1433
(dp1434
g68
(dp1435
sg77
g1251
sg70
(lp1436
g63
(g84
g65
NtRp1437
(dp1438
g68
(dp1439
g88
g89
ssg77
g1433
sg70
(lp1440
S'http_accept_encoding'
p1441
asbag63
(g84
g65
NtRp1442
(dp1443
g68
(dp1444
g95
g96
ssg77
g1433
sg70
(lp1445
S':'
asbag63
(g84
g65
NtRp1446
(dp1447
g68
(dp1448
sg77
g1433
sg70
(lp1449
g63
(g64
g65
NtRp1450
(dp1451
g68
(dp1452
g76
I4
ssg77
g1446
sg70
(lp1453
S'gzip, deflate'
p1454
asbasbasbag63
(g79
g65
NtRp1455
(dp1456
g68
(dp1457
sg77
g1251
sg70
(lp1458
g63
(g84
g65
NtRp1459
(dp1460
g68
(dp1461
g88
g89
ssg77
g1455
sg70
(lp1462
S'http_accept_language'
p1463
asbag63
(g84
g65
NtRp1464
(dp1465
g68
(dp1466
g95
g96
ssg77
g1455
sg70
(lp1467
S':'
asbag63
(g84
g65
NtRp1468
(dp1469
g68
(dp1470
sg77
g1455
sg70
(lp1471
g63
(g64
g65
NtRp1472
(dp1473
g68
(dp1474
g76
I4
ssg77
g1468
sg70
(lp1475
S'en-US,en;q=0.5'
p1476
asbasbasbag63
(g79
g65
NtRp1477
(dp1478
g68
(dp1479
sg77
g1251
sg70
(lp1480
g63
(g84
g65
NtRp1481
(dp1482
g68
(dp1483
g88
g89
ssg77
g1477
sg70
(lp1484
S'http_connection'
p1485
asbag63
(g84
g65
NtRp1486
(dp1487
g68
(dp1488
g95
g96
ssg77
g1477
sg70
(lp1489
S':'
asbag63
(g84
g65
NtRp1490
(dp1491
g68
(dp1492
sg77
g1477
sg70
(lp1493
g63
(g64
g65
NtRp1494
(dp1495
g68
(dp1496
g76
I4
ssg77
g1490
sg70
(lp1497
S'keep-alive'
p1498
asbasbasbag63
(g79
g65
NtRp1499
(dp1500
g68
(dp1501
sg77
g1251
sg70
(lp1502
g63
(g84
g65
NtRp1503
(dp1504
g68
(dp1505
g88
g89
ssg77
g1499
sg70
(lp1506
S'http_cookie'
p1507
asbag63
(g84
g65
NtRp1508
(dp1509
g68
(dp1510
g95
g96
ssg77
g1499
sg70
(lp1511
S':'
asbag63
(g84
g65
NtRp1512
(dp1513
g68
(dp1514
sg77
g1499
sg70
(lp1515
g63
(g64
g65
NtRp1516
(dp1517
g68
(dp1518
g76
I4
ssg77
g1512
sg70
(lp1519
S'session_id_betsy=127.0.0.1-70d52105-0f5d-4884-a4e3-dce6830f30e0; session_id_welcome=127.0.0.1-24757799-98ac-44f7-8b04-217ea56c4199; session_id_admin=127.0.0.1-a90c1b80-785c-48ac-90de-4101982650f7; session_id_cookbook=127.0.0.1-0c407cea-5342-424c-96ef-e79162dcd0b6; session_id_imagegallery=127.0.0.1-e030a8c0-798d-4ebd-9174-b4e9a1535bda'
p1520
asbasbasbag63
(g79
g65
NtRp1521
(dp1522
g68
(dp1523
sg77
g1251
sg70
(lp1524
g63
(g84
g65
NtRp1525
(dp1526
g68
(dp1527
g88
g89
ssg77
g1521
sg70
(lp1528
S'http_host'
p1529
asbag63
(g84
g65
NtRp1530
(dp1531
g68
(dp1532
g95
g96
ssg77
g1521
sg70
(lp1533
S':'
asbag63
(g84
g65
NtRp1534
(dp1535
g68
(dp1536
sg77
g1521
sg70
(lp1537
g63
(g64
g65
NtRp1538
(dp1539
g68
(dp1540
g76
I4
ssg77
g1534
sg70
(lp1541
S'localhost:8080'
p1542
asbasbasbag63
(g79
g65
NtRp1543
(dp1544
g68
(dp1545
sg77
g1251
sg70
(lp1546
g63
(g84
g65
NtRp1547
(dp1548
g68
(dp1549
g88
g89
ssg77
g1543
sg70
(lp1550
S'http_referer'
p1551
asbag63
(g84
g65
NtRp1552
(dp1553
g68
(dp1554
g95
g96
ssg77
g1543
sg70
(lp1555
S':'
asbag63
(g84
g65
NtRp1556
(dp1557
g68
(dp1558
sg77
g1543
sg70
(lp1559
g63
(g64
g65
NtRp1560
(dp1561
g68
(dp1562
g76
I4
ssg77
g1556
sg70
(lp1563
S'http://localhost:8080/Betsy/default/show_job/142'
p1564
asbasbasbag63
(g79
g65
NtRp1565
(dp1566
g68
(dp1567
sg77
g1251
sg70
(lp1568
g63
(g84
g65
NtRp1569
(dp1570
g68
(dp1571
g88
g89
ssg77
g1565
sg70
(lp1572
S'http_user_agent'
p1573
asbag63
(g84
g65
NtRp1574
(dp1575
g68
(dp1576
g95
g96
ssg77
g1565
sg70
(lp1577
S':'
asbag63
(g84
g65
NtRp1578
(dp1579
g68
(dp1580
sg77
g1565
sg70
(lp1581
g63
(g64
g65
NtRp1582
(dp1583
g68
(dp1584
g76
I4
ssg77
g1578
sg70
(lp1585
S'Mozilla/5.0 (Macintosh; Intel Mac OS X 10.6; rv:18.0) Gecko/20100101 Firefox/18.0'
p1586
asbasbasbag63
(g79
g65
NtRp1587
(dp1588
g68
(dp1589
sg77
g1251
sg70
(lp1590
g63
(g84
g65
NtRp1591
(dp1592
g68
(dp1593
g88
g89
ssg77
g1587
sg70
(lp1594
S'is_jython'
p1595
asbag63
(g84
g65
NtRp1596
(dp1597
g68
(dp1598
g95
g96
ssg77
g1587
sg70
(lp1599
S':'
asbag63
(g84
g65
NtRp1600
(dp1601
g68
(dp1602
sg77
g1587
sg70
(lp1603
g63
(g64
g65
NtRp1604
(dp1605
g68
(dp1606
g76
I4
ssg77
g1600
sg70
(lp1607
g106
asbasbasbag63
(g79
g65
NtRp1608
(dp1609
g68
(dp1610
sg77
g1251
sg70
(lp1611
g63
(g84
g65
NtRp1612
(dp1613
g68
(dp1614
g88
g89
ssg77
g1608
sg70
(lp1615
S'is_pypy'
p1616
asbag63
(g84
g65
NtRp1617
(dp1618
g68
(dp1619
g95
g96
ssg77
g1608
sg70
(lp1620
S':'
asbag63
(g84
g65
NtRp1621
(dp1622
g68
(dp1623
sg77
g1608
sg70
(lp1624
g63
(g64
g65
NtRp1625
(dp1626
g68
(dp1627
g76
I4
ssg77
g1621
sg70
(lp1628
g106
asbasbasbag63
(g79
g65
NtRp1629
(dp1630
g68
(dp1631
sg77
g1251
sg70
(lp1632
g63
(g84
g65
NtRp1633
(dp1634
g68
(dp1635
g88
g89
ssg77
g1629
sg70
(lp1636
S'local_hosts'
p1637
asbag63
(g84
g65
NtRp1638
(dp1639
g68
(dp1640
g95
g96
ssg77
g1629
sg70
(lp1641
S':'
asbag63
(g84
g65
NtRp1642
(dp1643
g68
(dp1644
sg77
g1629
sg70
(lp1645
g63
(g64
g65
NtRp1646
(dp1647
g68
(dp1648
g76
I4
ssg77
g1642
sg70
(lp1649
g63
(g72
g65
NtRp1650
(dp1651
g68
(dp1652
g76
I3
ssg77
Nsg70
(lp1653
g63
(g79
g65
NtRp1654
(dp1655
g68
(dp1656
sg77
g1650
sg70
(lp1657
g63
(g84
g65
NtRp1658
(dp1659
g68
(dp1660
sg77
g1654
sg70
(lp1661
g63
(g64
g65
NtRp1662
(dp1663
g68
(dp1664
g76
I3
ssg77
g1658
sg70
(lp1665
S'127.0.0.1'
p1666
asbasbasbag63
(g79
g65
NtRp1667
(dp1668
g68
(dp1669
sg77
g1650
sg70
(lp1670
g63
(g84
g65
NtRp1671
(dp1672
g68
(dp1673
sg77
g1667
sg70
(lp1674
g63
(g64
g65
NtRp1675
(dp1676
g68
(dp1677
g76
I3
ssg77
g1671
sg70
(lp1678
S'::ffff:127.0.0.1'
p1679
asbasbasbag63
(g79
g65
NtRp1680
(dp1681
g68
(dp1682
sg77
g1650
sg70
(lp1683
g63
(g84
g65
NtRp1684
(dp1685
g68
(dp1686
sg77
g1680
sg70
(lp1687
g63
(g64
g65
NtRp1688
(dp1689
g68
(dp1690
g76
I3
ssg77
g1684
sg70
(lp1691
S'unicron.shis.uth.tmc.edu'
p1692
asbasbasbag63
(g79
g65
NtRp1693
(dp1694
g68
(dp1695
sg77
g1650
sg70
(lp1696
g63
(g84
g65
NtRp1697
(dp1698
g68
(dp1699
sg77
g1693
sg70
(lp1700
g63
(g64
g65
NtRp1701
(dp1702
g68
(dp1703
g76
I3
ssg77
g1697
sg70
(lp1704
S'unicron.shis.uth.tmc.edu'
p1705
asbasbasbag63
(g79
g65
NtRp1706
(dp1707
g68
(dp1708
sg77
g1650
sg70
(lp1709
g63
(g84
g65
NtRp1710
(dp1711
g68
(dp1712
sg77
g1706
sg70
(lp1713
g63
(g64
g65
NtRp1714
(dp1715
g68
(dp1716
g76
I3
ssg77
g1710
sg70
(lp1717
S'127.0.0.1'
p1718
asbasbasbasbasbasbasbag63
(g79
g65
NtRp1719
(dp1720
g68
(dp1721
sg77
g1251
sg70
(lp1722
g63
(g84
g65
NtRp1723
(dp1724
g68
(dp1725
g88
g89
ssg77
g1719
sg70
(lp1726
S'path_info'
p1727
asbag63
(g84
g65
NtRp1728
(dp1729
g68
(dp1730
g95
g96
ssg77
g1719
sg70
(lp1731
S':'
asbag63
(g84
g65
NtRp1732
(dp1733
g68
(dp1734
sg77
g1719
sg70
(lp1735
g63
(g64
g65
NtRp1736
(dp1737
g68
(dp1738
g76
I4
ssg77
g1732
sg70
(lp1739
S'/Betsy/default/result_folder/annotate_probes_BETSYHASH1_b1f614a2950cb2af2d6bd155a72232b7/signal_file_annot_table.myfile1.a9f0589e6b566198.4368616e675f415230303431302e70636c.txt'
p1740
asbasbasbag63
(g79
g65
NtRp1741
(dp1742
g68
(dp1743
sg77
g1251
sg70
(lp1744
g63
(g84
g65
NtRp1745
(dp1746
g68
(dp1747
g88
g89
ssg77
g1741
sg70
(lp1748
S'query_string'
p1749
asbag63
(g84
g65
NtRp1750
(dp1751
g68
(dp1752
g95
g96
ssg77
g1741
sg70
(lp1753
S':'
asbag63
(g84
g65
NtRp1754
(dp1755
g68
(dp1756
sg77
g1741
sg70
(lp1757
g63
(g64
g65
NtRp1758
(dp1759
g68
(dp1760
g76
I4
ssg77
g1754
sg70
(lp1761
S''
asbasbasbag63
(g79
g65
NtRp1762
(dp1763
g68
(dp1764
sg77
g1251
sg70
(lp1765
g63
(g84
g65
NtRp1766
(dp1767
g68
(dp1768
g88
g89
ssg77
g1762
sg70
(lp1769
S'remote_addr'
p1770
asbag63
(g84
g65
NtRp1771
(dp1772
g68
(dp1773
g95
g96
ssg77
g1762
sg70
(lp1774
S':'
asbag63
(g84
g65
NtRp1775
(dp1776
g68
(dp1777
sg77
g1762
sg70
(lp1778
g63
(g64
g65
NtRp1779
(dp1780
g68
(dp1781
g76
I4
ssg77
g1775
sg70
(lp1782
g244
asbasbasbag63
(g79
g65
NtRp1783
(dp1784
g68
(dp1785
sg77
g1251
sg70
(lp1786
g63
(g84
g65
NtRp1787
(dp1788
g68
(dp1789
g88
g89
ssg77
g1783
sg70
(lp1790
S'remote_port'
p1791
asbag63
(g84
g65
NtRp1792
(dp1793
g68
(dp1794
g95
g96
ssg77
g1783
sg70
(lp1795
S':'
asbag63
(g84
g65
NtRp1796
(dp1797
g68
(dp1798
sg77
g1783
sg70
(lp1799
g63
(g64
g65
NtRp1800
(dp1801
g68
(dp1802
g76
I4
ssg77
g1796
sg70
(lp1803
S'59642'
p1804
asbasbasbag63
(g79
g65
NtRp1805
(dp1806
g68
(dp1807
sg77
g1251
sg70
(lp1808
g63
(g84
g65
NtRp1809
(dp1810
g68
(dp1811
g88
g89
ssg77
g1805
sg70
(lp1812
S'request_method'
p1813
asbag63
(g84
g65
NtRp1814
(dp1815
g68
(dp1816
g95
g96
ssg77
g1805
sg70
(lp1817
S':'
asbag63
(g84
g65
NtRp1818
(dp1819
g68
(dp1820
sg77
g1805
sg70
(lp1821
g63
(g64
g65
NtRp1822
(dp1823
g68
(dp1824
g76
I4
ssg77
g1818
sg70
(lp1825
S'GET'
p1826
asbasbasbag63
(g79
g65
NtRp1827
(dp1828
g68
(dp1829
sg77
g1251
sg70
(lp1830
g63
(g84
g65
NtRp1831
(dp1832
g68
(dp1833
g88
g89
ssg77
g1827
sg70
(lp1834
S'request_uri'
p1835
asbag63
(g84
g65
NtRp1836
(dp1837
g68
(dp1838
g95
g96
ssg77
g1827
sg70
(lp1839
S':'
asbag63
(g84
g65
NtRp1840
(dp1841
g68
(dp1842
sg77
g1827
sg70
(lp1843
g63
(g64
g65
NtRp1844
(dp1845
g68
(dp1846
g76
I4
ssg77
g1840
sg70
(lp1847
g1740
asbasbasbag63
(g79
g65
NtRp1848
(dp1849
g68
(dp1850
sg77
g1251
sg70
(lp1851
g63
(g84
g65
NtRp1852
(dp1853
g68
(dp1854
g88
g89
ssg77
g1848
sg70
(lp1855
S'script_name'
p1856
asbag63
(g84
g65
NtRp1857
(dp1858
g68
(dp1859
g95
g96
ssg77
g1848
sg70
(lp1860
S':'
asbag63
(g84
g65
NtRp1861
(dp1862
g68
(dp1863
sg77
g1848
sg70
(lp1864
g63
(g64
g65
NtRp1865
(dp1866
g68
(dp1867
g76
I4
ssg77
g1861
sg70
(lp1868
S''
asbasbasbag63
(g79
g65
NtRp1869
(dp1870
g68
(dp1871
sg77
g1251
sg70
(lp1872
g63
(g84
g65
NtRp1873
(dp1874
g68
(dp1875
g88
g89
ssg77
g1869
sg70
(lp1876
S'server_name'
p1877
asbag63
(g84
g65
NtRp1878
(dp1879
g68
(dp1880
g95
g96
ssg77
g1869
sg70
(lp1881
S':'
asbag63
(g84
g65
NtRp1882
(dp1883
g68
(dp1884
sg77
g1869
sg70
(lp1885
g63
(g64
g65
NtRp1886
(dp1887
g68
(dp1888
g76
I4
ssg77
g1882
sg70
(lp1889
g1705
asbasbasbag63
(g79
g65
NtRp1890
(dp1891
g68
(dp1892
sg77
g1251
sg70
(lp1893
g63
(g84
g65
NtRp1894
(dp1895
g68
(dp1896
g88
g89
ssg77
g1890
sg70
(lp1897
S'server_port'
p1898
asbag63
(g84
g65
NtRp1899
(dp1900
g68
(dp1901
g95
g96
ssg77
g1890
sg70
(lp1902
S':'
asbag63
(g84
g65
NtRp1903
(dp1904
g68
(dp1905
sg77
g1890
sg70
(lp1906
g63
(g64
g65
NtRp1907
(dp1908
g68
(dp1909
g76
I4
ssg77
g1903
sg70
(lp1910
S'8080'
p1911
asbasbasbag63
(g79
g65
NtRp1912
(dp1913
g68
(dp1914
sg77
g1251
sg70
(lp1915
g63
(g84
g65
NtRp1916
(dp1917
g68
(dp1918
g88
g89
ssg77
g1912
sg70
(lp1919
S'server_protocol'
p1920
asbag63
(g84
g65
NtRp1921
(dp1922
g68
(dp1923
g95
g96
ssg77
g1912
sg70
(lp1924
S':'
asbag63
(g84
g65
NtRp1925
(dp1926
g68
(dp1927
sg77
g1912
sg70
(lp1928
g63
(g64
g65
NtRp1929
(dp1930
g68
(dp1931
g76
I4
ssg77
g1925
sg70
(lp1932
S'HTTP/1.1'
p1933
asbasbasbag63
(g79
g65
NtRp1934
(dp1935
g68
(dp1936
sg77
g1251
sg70
(lp1937
g63
(g84
g65
NtRp1938
(dp1939
g68
(dp1940
g88
g89
ssg77
g1934
sg70
(lp1941
S'server_software'
p1942
asbag63
(g84
g65
NtRp1943
(dp1944
g68
(dp1945
g95
g96
ssg77
g1934
sg70
(lp1946
S':'
asbag63
(g84
g65
NtRp1947
(dp1948
g68
(dp1949
sg77
g1934
sg70
(lp1950
g63
(g64
g65
NtRp1951
(dp1952
g68
(dp1953
g76
I4
ssg77
g1947
sg70
(lp1954
S'Rocket 1.2.5'
p1955
asbasbasbag63
(g79
g65
NtRp1956
(dp1957
g68
(dp1958
sg77
g1251
sg70
(lp1959
g63
(g84
g65
NtRp1960
(dp1961
g68
(dp1962
g88
g89
ssg77
g1956
sg70
(lp1963
S'web2py_path'
p1964
asbag63
(g84
g65
NtRp1965
(dp1966
g68
(dp1967
g95
g96
ssg77
g1956
sg70
(lp1968
S':'
asbag63
(g84
g65
NtRp1969
(dp1970
g68
(dp1971
sg77
g1956
sg70
(lp1972
g63
(g64
g65
NtRp1973
(dp1974
g68
(dp1975
g76
I4
ssg77
g1969
sg70
(lp1976
g1298
asbasbasbag63
(g79
g65
NtRp1977
(dp1978
g68
(dp1979
sg77
g1251
sg70
(lp1980
g63
(g84
g65
NtRp1981
(dp1982
g68
(dp1983
g88
g89
ssg77
g1977
sg70
(lp1984
S'web2py_version'
p1985
asbag63
(g84
g65
NtRp1986
(dp1987
g68
(dp1988
g95
g96
ssg77
g1977
sg70
(lp1989
S':'
asbag63
(g84
g65
NtRp1990
(dp1991
g68
(dp1992
sg77
g1977
sg70
(lp1993
g63
(g64
g65
NtRp1994
(dp1995
g68
(dp1996
g76
I4
ssg77
g1990
sg70
(lp1997
g63
(g72
g65
NtRp1998
(dp1999
g68
(dp2000
g76
I3
ssg77
Nsg70
(lp2001
g63
(g79
g65
NtRp2002
(dp2003
g68
(dp2004
sg77
g1998
sg70
(lp2005
g63
(g84
g65
NtRp2006
(dp2007
g68
(dp2008
sg77
g2002
sg70
(lp2009
g63
(g64
g65
NtRp2010
(dp2011
g68
(dp2012
g76
I3
ssg77
g2006
sg70
(lp2013
S'2'
asbasbasbag63
(g79
g65
NtRp2014
(dp2015
g68
(dp2016
sg77
g1998
sg70
(lp2017
g63
(g84
g65
NtRp2018
(dp2019
g68
(dp2020
sg77
g2014
sg70
(lp2021
g63
(g64
g65
NtRp2022
(dp2023
g68
(dp2024
g76
I3
ssg77
g2018
sg70
(lp2025
S'2'
asbasbasbag63
(g79
g65
NtRp2026
(dp2027
g68
(dp2028
sg77
g1998
sg70
(lp2029
g63
(g84
g65
NtRp2030
(dp2031
g68
(dp2032
sg77
g2026
sg70
(lp2033
g63
(g64
g65
NtRp2034
(dp2035
g68
(dp2036
g76
I3
ssg77
g2030
sg70
(lp2037
S'1'
asbasbasbag63
(g79
g65
NtRp2038
(dp2039
g68
(dp2040
sg77
g1998
sg70
(lp2041
g63
(g84
g65
NtRp2042
(dp2043
g68
(dp2044
sg77
g2038
sg70
(lp2045
g63
(g64
g65
NtRp2046
(dp2047
g68
(dp2048
g76
I3
ssg77
g2042
sg70
(lp2049
S'datetime.datetime(2012, 10, 21, 16, 57, 4)'
p2050
asbasbasbag63
(g79
g65
NtRp2051
(dp2052
g68
(dp2053
sg77
g1998
sg70
(lp2054
g63
(g84
g65
NtRp2055
(dp2056
g68
(dp2057
sg77
g2051
sg70
(lp2058
g63
(g64
g65
NtRp2059
(dp2060
g68
(dp2061
g76
I3
ssg77
g2055
sg70
(lp2062
S'stable'
p2063
asbasbasbasbasbasbasbag63
(g79
g65
NtRp2064
(dp2065
g68
(dp2066
sg77
g1251
sg70
(lp2067
g63
(g84
g65
NtRp2068
(dp2069
g68
(dp2070
g88
g89
ssg77
g2064
sg70
(lp2071
S'wsgi_errors'
p2072
asbag63
(g84
g65
NtRp2073
(dp2074
g68
(dp2075
g95
g96
ssg77
g2064
sg70
(lp2076
S':'
asbag63
(g84
g65
NtRp2077
(dp2078
g68
(dp2079
sg77
g2064
sg70
(lp2080
g63
(g64
g65
NtRp2081
(dp2082
g68
(dp2083
g76
I4
ssg77
g2077
sg70
(lp2084
S"<open file '<stderr>', mode 'w' at 0x2af8e24c6270>"
p2085
asbasbasbag63
(g79
g65
NtRp2086
(dp2087
g68
(dp2088
sg77
g1251
sg70
(lp2089
g63
(g84
g65
NtRp2090
(dp2091
g68
(dp2092
g88
g89
ssg77
g2086
sg70
(lp2093
S'wsgi_file_wrapper'
p2094
asbag63
(g84
g65
NtRp2095
(dp2096
g68
(dp2097
g95
g96
ssg77
g2086
sg70
(lp2098
S':'
asbag63
(g84
g65
NtRp2099
(dp2100
g68
(dp2101
sg77
g2086
sg70
(lp2102
g63
(g64
g65
NtRp2103
(dp2104
g68
(dp2105
g76
I4
ssg77
g2099
sg70
(lp2106
S'<class wsgiref.util.FileWrapper at 0x1ee84a78>'
p2107
asbasbasbag63
(g79
g65
NtRp2108
(dp2109
g68
(dp2110
sg77
g1251
sg70
(lp2111
g63
(g84
g65
NtRp2112
(dp2113
g68
(dp2114
g88
g89
ssg77
g2108
sg70
(lp2115
S'wsgi_input'
p2116
asbag63
(g84
g65
NtRp2117
(dp2118
g68
(dp2119
g95
g96
ssg77
g2108
sg70
(lp2120
S':'
asbag63
(g84
g65
NtRp2121
(dp2122
g68
(dp2123
sg77
g2108
sg70
(lp2124
g63
(g64
g65
NtRp2125
(dp2126
g68
(dp2127
g76
I4
ssg77
g2121
sg70
(lp2128
S'<socket._fileobject object at 0x1f4645d0>'
p2129
asbasbasbag63
(g79
g65
NtRp2130
(dp2131
g68
(dp2132
sg77
g1251
sg70
(lp2133
g63
(g84
g65
NtRp2134
(dp2135
g68
(dp2136
g88
g89
ssg77
g2130
sg70
(lp2137
S'wsgi_multiprocess'
p2138
asbag63
(g84
g65
NtRp2139
(dp2140
g68
(dp2141
g95
g96
ssg77
g2130
sg70
(lp2142
S':'
asbag63
(g84
g65
NtRp2143
(dp2144
g68
(dp2145
sg77
g2130
sg70
(lp2146
g63
(g64
g65
NtRp2147
(dp2148
g68
(dp2149
g76
I4
ssg77
g2143
sg70
(lp2150
g106
asbasbasbag63
(g79
g65
NtRp2151
(dp2152
g68
(dp2153
sg77
g1251
sg70
(lp2154
g63
(g84
g65
NtRp2155
(dp2156
g68
(dp2157
g88
g89
ssg77
g2151
sg70
(lp2158
S'wsgi_multithread'
p2159
asbag63
(g84
g65
NtRp2160
(dp2161
g68
(dp2162
g95
g96
ssg77
g2151
sg70
(lp2163
S':'
asbag63
(g84
g65
NtRp2164
(dp2165
g68
(dp2166
sg77
g2151
sg70
(lp2167
g63
(g64
g65
NtRp2168
(dp2169
g68
(dp2170
g76
I4
ssg77
g2164
sg70
(lp2171
S'True'
p2172
asbasbasbag63
(g79
g65
NtRp2173
(dp2174
g68
(dp2175
sg77
g1251
sg70
(lp2176
g63
(g84
g65
NtRp2177
(dp2178
g68
(dp2179
g88
g89
ssg77
g2173
sg70
(lp2180
S'wsgi_run_once'
p2181
asbag63
(g84
g65
NtRp2182
(dp2183
g68
(dp2184
g95
g96
ssg77
g2173
sg70
(lp2185
S':'
asbag63
(g84
g65
NtRp2186
(dp2187
g68
(dp2188
sg77
g2173
sg70
(lp2189
g63
(g64
g65
NtRp2190
(dp2191
g68
(dp2192
g76
I4
ssg77
g2186
sg70
(lp2193
g106
asbasbasbag63
(g79
g65
NtRp2194
(dp2195
g68
(dp2196
sg77
g1251
sg70
(lp2197
g63
(g84
g65
NtRp2198
(dp2199
g68
(dp2200
g88
g89
ssg77
g2194
sg70
(lp2201
S'wsgi_url_scheme'
p2202
asbag63
(g84
g65
NtRp2203
(dp2204
g68
(dp2205
g95
g96
ssg77
g2194
sg70
(lp2206
S':'
asbag63
(g84
g65
NtRp2207
(dp2208
g68
(dp2209
sg77
g2194
sg70
(lp2210
g63
(g64
g65
NtRp2211
(dp2212
g68
(dp2213
g76
I4
ssg77
g2207
sg70
(lp2214
S'http'
p2215
asbasbasbag63
(g79
g65
NtRp2216
(dp2217
g68
(dp2218
sg77
g1251
sg70
(lp2219
g63
(g84
g65
NtRp2220
(dp2221
g68
(dp2222
g88
g89
ssg77
g2216
sg70
(lp2223
S'wsgi_version'
p2224
asbag63
(g84
g65
NtRp2225
(dp2226
g68
(dp2227
g95
g96
ssg77
g2216
sg70
(lp2228
S':'
asbag63
(g84
g65
NtRp2229
(dp2230
g68
(dp2231
sg77
g2216
sg70
(lp2232
g63
(g64
g65
NtRp2233
(dp2234
g68
(dp2235
g76
I4
ssg77
g2229
sg70
(lp2236
g63
(g72
g65
NtRp2237
(dp2238
g68
(dp2239
g76
I3
ssg77
Nsg70
(lp2240
g63
(g79
g65
NtRp2241
(dp2242
g68
(dp2243
sg77
g2237
sg70
(lp2244
g63
(g84
g65
NtRp2245
(dp2246
g68
(dp2247
sg77
g2241
sg70
(lp2248
g63
(g64
g65
NtRp2249
(dp2250
g68
(dp2251
g76
I3
ssg77
g2245
sg70
(lp2252
S'1'
asbasbasbag63
(g79
g65
NtRp2253
(dp2254
g68
(dp2255
sg77
g2237
sg70
(lp2256
g63
(g84
g65
NtRp2257
(dp2258
g68
(dp2259
sg77
g2253
sg70
(lp2260
g63
(g64
g65
NtRp2261
(dp2262
g68
(dp2263
g76
I3
ssg77
g2257
sg70
(lp2264
S'0'
asbasbasbasbasbasbasbasbasbasbasbag63
(g79
g65
NtRp2265
(dp2266
g68
(dp2267
sg77
g73
sg70
(lp2268
g63
(g84
g65
NtRp2269
(dp2270
g68
(dp2271
g88
g89
ssg77
g2265
sg70
(lp2272
S'extension'
p2273
asbag63
(g84
g65
NtRp2274
(dp2275
g68
(dp2276
g95
g96
ssg77
g2265
sg70
(lp2277
S':'
asbag63
(g84
g65
NtRp2278
(dp2279
g68
(dp2280
sg77
g2265
sg70
(lp2281
g63
(g64
g65
NtRp2282
(dp2283
g68
(dp2284
g76
I5
ssg77
g2278
sg70
(lp2285
S'html'
p2286
asbasbasbag63
(g79
g65
NtRp2287
(dp2288
g68
(dp2289
sg77
g73
sg70
(lp2290
g63
(g84
g65
NtRp2291
(dp2292
g68
(dp2293
g88
g89
ssg77
g2287
sg70
(lp2294
S'folder'
p2295
asbag63
(g84
g65
NtRp2296
(dp2297
g68
(dp2298
g95
g96
ssg77
g2287
sg70
(lp2299
S':'
asbag63
(g84
g65
NtRp2300
(dp2301
g68
(dp2302
sg77
g2287
sg70
(lp2303
g63
(g64
g65
NtRp2304
(dp2305
g68
(dp2306
g76
I5
ssg77
g2300
sg70
(lp2307
S'/home/xchen/web2py/applications/Betsy/'
p2308
asbasbasbag63
(g79
g65
NtRp2309
(dp2310
g68
(dp2311
sg77
g73
sg70
(lp2312
g63
(g84
g65
NtRp2313
(dp2314
g68
(dp2315
g88
g89
ssg77
g2309
sg70
(lp2316
S'function'
p2317
asbag63
(g84
g65
NtRp2318
(dp2319
g68
(dp2320
g95
g96
ssg77
g2309
sg70
(lp2321
S':'
asbag63
(g84
g65
NtRp2322
(dp2323
g68
(dp2324
sg77
g2309
sg70
(lp2325
g63
(g64
g65
NtRp2326
(dp2327
g68
(dp2328
g76
I5
ssg77
g2322
sg70
(lp2329
S'result_folder'
p2330
asbasbasbag63
(g79
g65
NtRp2331
(dp2332
g68
(dp2333
sg77
g73
sg70
(lp2334
g63
(g84
g65
NtRp2335
(dp2336
g68
(dp2337
g88
g89
ssg77
g2331
sg70
(lp2338
S'get_vars'
p2339
asbag63
(g84
g65
NtRp2340
(dp2341
g68
(dp2342
g95
g96
ssg77
g2331
sg70
(lp2343
S':'
asbag63
(g84
g65
NtRp2344
(dp2345
g68
(dp2346
sg77
g2331
sg70
(lp2347
g63
(g64
g65
NtRp2348
(dp2349
g68
(dp2350
g76
I5
ssg77
g2344
sg70
(lp2351
g63
(g72
g65
NtRp2352
(dp2353
g68
(dp2354
g76
I4
ssg77
Nsg70
(lp2355
sbasbasbasbag63
(g79
g65
NtRp2356
(dp2357
g68
(dp2358
sg77
g73
sg70
(lp2359
g63
(g84
g65
NtRp2360
(dp2361
g68
(dp2362
g88
g89
ssg77
g2356
sg70
(lp2363
S'global_settings'
p2364
asbag63
(g84
g65
NtRp2365
(dp2366
g68
(dp2367
g95
g96
ssg77
g2356
sg70
(lp2368
S':'
asbag63
(g84
g65
NtRp2369
(dp2370
g68
(dp2371
sg77
g2356
sg70
(lp2372
g63
(g64
g65
NtRp2373
(dp2374
g68
(dp2375
g76
I5
ssg77
g2369
sg70
(lp2376
g63
(g72
g65
NtRp2377
(dp2378
g68
(dp2379
g76
I4
ssg77
Nsg70
(lp2380
g63
(g79
g65
NtRp2381
(dp2382
g68
(dp2383
sg77
g2377
sg70
(lp2384
g63
(g84
g65
NtRp2385
(dp2386
g68
(dp2387
g88
g89
ssg77
g2381
sg70
(lp2388
g1263
asbag63
(g84
g65
NtRp2389
(dp2390
g68
(dp2391
g95
g96
ssg77
g2381
sg70
(lp2392
S':'
asbag63
(g84
g65
NtRp2393
(dp2394
g68
(dp2395
sg77
g2381
sg70
(lp2396
g63
(g64
g65
NtRp2397
(dp2398
g68
(dp2399
g76
I4
ssg77
g2393
sg70
(lp2400
S"set(['/home/xchen/web2py/applications/Betsy/', '/home/xchen/web2py/applications/cookbook/', '/home/xchen/web2py/applications/admin/', '/home/xchen/web2py/applications/welcome/', '/home/xchen/web2py/applications/imageGallery/'])"
p2401
asbasbasbag63
(g79
g65
NtRp2402
(dp2403
g68
(dp2404
sg77
g2377
sg70
(lp2405
g63
(g84
g65
NtRp2406
(dp2407
g68
(dp2408
g88
g89
ssg77
g2402
sg70
(lp2409
g1285
asbag63
(g84
g65
NtRp2410
(dp2411
g68
(dp2412
g95
g96
ssg77
g2402
sg70
(lp2413
S':'
asbag63
(g84
g65
NtRp2414
(dp2415
g68
(dp2416
sg77
g2402
sg70
(lp2417
g63
(g64
g65
NtRp2418
(dp2419
g68
(dp2420
g76
I4
ssg77
g2414
sg70
(lp2421
g1298
asbasbasbag63
(g79
g65
NtRp2422
(dp2423
g68
(dp2424
sg77
g2377
sg70
(lp2425
g63
(g84
g65
NtRp2426
(dp2427
g68
(dp2428
g88
g89
ssg77
g2422
sg70
(lp2429
g1307
asbag63
(g84
g65
NtRp2430
(dp2431
g68
(dp2432
g95
g96
ssg77
g2422
sg70
(lp2433
S':'
asbag63
(g84
g65
NtRp2434
(dp2435
g68
(dp2436
sg77
g2422
sg70
(lp2437
g63
(g64
g65
NtRp2438
(dp2439
g68
(dp2440
g76
I4
ssg77
g2434
sg70
(lp2441
g63
(g72
g65
NtRp2442
(dp2443
g68
(dp2444
g76
I3
ssg77
Nsg70
(lp2445
sbasbasbasbag63
(g79
g65
NtRp2446
(dp2447
g68
(dp2448
sg77
g2377
sg70
(lp2449
g63
(g84
g65
NtRp2450
(dp2451
g68
(dp2452
g88
g89
ssg77
g2446
sg70
(lp2453
g1332
asbag63
(g84
g65
NtRp2454
(dp2455
g68
(dp2456
g95
g96
ssg77
g2446
sg70
(lp2457
S':'
asbag63
(g84
g65
NtRp2458
(dp2459
g68
(dp2460
sg77
g2446
sg70
(lp2461
g63
(g64
g65
NtRp2462
(dp2463
g68
(dp2464
g76
I4
ssg77
g2458
sg70
(lp2465
S"<Values at 0x1ef26e18: {'verbose': False, 'ip': '127.0.0.1', 'with_scheduler': False, 'ips': [], 'shutdown_timeout': 5, 'taskbar': False, 'port': 8080, 'maxthreads': None, 'softcron': False, 'server_name': 'unicron.shis.uth.tmc.edu', 'bpython': False, 'nogui': False, 'pid_filename': 'httpserver.pid', 'extcron': False, 'runcron': False, 'run_system_tests': False, 'test': None, 'folder': '/home/xchen/web2py', 'config': '', 'minthreads': None, 'winservice': '', 'shell': None, 'run': '', 'log_filename': 'httpserver.log', 'debuglevel': 30, 'args': [''], 'socket_timeout': 5, 'ssl_ca_certificate': None, 'scheduler': None, 'profiler_filename': None, 'ssl_private_key': '', 'scheduler_groups': None, 'password': 'baby2008', 'request_queue_size': 5, 'ssl_certificate': '', 'cronjob': False, 'numthreads': None, 'quiet': False, 'interfaces': None, 'import_models': False, 'timeout': 10, 'plain': False, 'nobanner': False}>"
p2466
asbasbasbag63
(g79
g65
NtRp2467
(dp2468
g68
(dp2469
sg77
g2377
sg70
(lp2470
g63
(g84
g65
NtRp2471
(dp2472
g68
(dp2473
g88
g89
ssg77
g2467
sg70
(lp2474
g1354
asbag63
(g84
g65
NtRp2475
(dp2476
g68
(dp2477
g95
g96
ssg77
g2467
sg70
(lp2478
S':'
asbag63
(g84
g65
NtRp2479
(dp2480
g68
(dp2481
sg77
g2467
sg70
(lp2482
g63
(g64
g65
NtRp2483
(dp2484
g68
(dp2485
g76
I4
ssg77
g2479
sg70
(lp2486
S'set([])'
p2487
asbasbasbag63
(g79
g65
NtRp2488
(dp2489
g68
(dp2490
sg77
g2377
sg70
(lp2491
g63
(g84
g65
NtRp2492
(dp2493
g68
(dp2494
g88
g89
ssg77
g2488
sg70
(lp2495
g1376
asbag63
(g84
g65
NtRp2496
(dp2497
g68
(dp2498
g95
g96
ssg77
g2488
sg70
(lp2499
S':'
asbag63
(g84
g65
NtRp2500
(dp2501
g68
(dp2502
sg77
g2488
sg70
(lp2503
g63
(g64
g65
NtRp2504
(dp2505
g68
(dp2506
g76
I4
ssg77
g2500
sg70
(lp2507
g106
asbasbasbag63
(g79
g65
NtRp2508
(dp2509
g68
(dp2510
sg77
g2377
sg70
(lp2511
g63
(g84
g65
NtRp2512
(dp2513
g68
(dp2514
g88
g89
ssg77
g2508
sg70
(lp2515
g1397
asbag63
(g84
g65
NtRp2516
(dp2517
g68
(dp2518
g95
g96
ssg77
g2508
sg70
(lp2519
S':'
asbag63
(g84
g65
NtRp2520
(dp2521
g68
(dp2522
sg77
g2508
sg70
(lp2523
g63
(g64
g65
NtRp2524
(dp2525
g68
(dp2526
g76
I4
ssg77
g2520
sg70
(lp2527
g1410
asbasbasbag63
(g79
g65
NtRp2528
(dp2529
g68
(dp2530
sg77
g2377
sg70
(lp2531
g63
(g84
g65
NtRp2532
(dp2533
g68
(dp2534
g88
g89
ssg77
g2528
sg70
(lp2535
g1595
asbag63
(g84
g65
NtRp2536
(dp2537
g68
(dp2538
g95
g96
ssg77
g2528
sg70
(lp2539
S':'
asbag63
(g84
g65
NtRp2540
(dp2541
g68
(dp2542
sg77
g2528
sg70
(lp2543
g63
(g64
g65
NtRp2544
(dp2545
g68
(dp2546
g76
I4
ssg77
g2540
sg70
(lp2547
g106
asbasbasbag63
(g79
g65
NtRp2548
(dp2549
g68
(dp2550
sg77
g2377
sg70
(lp2551
g63
(g84
g65
NtRp2552
(dp2553
g68
(dp2554
g88
g89
ssg77
g2548
sg70
(lp2555
g1616
asbag63
(g84
g65
NtRp2556
(dp2557
g68
(dp2558
g95
g96
ssg77
g2548
sg70
(lp2559
S':'
asbag63
(g84
g65
NtRp2560
(dp2561
g68
(dp2562
sg77
g2548
sg70
(lp2563
g63
(g64
g65
NtRp2564
(dp2565
g68
(dp2566
g76
I4
ssg77
g2560
sg70
(lp2567
g106
asbasbasbag63
(g79
g65
NtRp2568
(dp2569
g68
(dp2570
sg77
g2377
sg70
(lp2571
g63
(g84
g65
NtRp2572
(dp2573
g68
(dp2574
g88
g89
ssg77
g2568
sg70
(lp2575
g1637
asbag63
(g84
g65
NtRp2576
(dp2577
g68
(dp2578
g95
g96
ssg77
g2568
sg70
(lp2579
S':'
asbag63
(g84
g65
NtRp2580
(dp2581
g68
(dp2582
sg77
g2568
sg70
(lp2583
g63
(g64
g65
NtRp2584
(dp2585
g68
(dp2586
g76
I4
ssg77
g2580
sg70
(lp2587
g63
(g72
g65
NtRp2588
(dp2589
g68
(dp2590
g76
I3
ssg77
Nsg70
(lp2591
g63
(g79
g65
NtRp2592
(dp2593
g68
(dp2594
sg77
g2588
sg70
(lp2595
g63
(g84
g65
NtRp2596
(dp2597
g68
(dp2598
sg77
g2592
sg70
(lp2599
g63
(g64
g65
NtRp2600
(dp2601
g68
(dp2602
g76
I3
ssg77
g2596
sg70
(lp2603
g1666
asbasbasbag63
(g79
g65
NtRp2604
(dp2605
g68
(dp2606
sg77
g2588
sg70
(lp2607
g63
(g84
g65
NtRp2608
(dp2609
g68
(dp2610
sg77
g2604
sg70
(lp2611
g63
(g64
g65
NtRp2612
(dp2613
g68
(dp2614
g76
I3
ssg77
g2608
sg70
(lp2615
g1679
asbasbasbag63
(g79
g65
NtRp2616
(dp2617
g68
(dp2618
sg77
g2588
sg70
(lp2619
g63
(g84
g65
NtRp2620
(dp2621
g68
(dp2622
sg77
g2616
sg70
(lp2623
g63
(g64
g65
NtRp2624
(dp2625
g68
(dp2626
g76
I3
ssg77
g2620
sg70
(lp2627
g1692
asbasbasbag63
(g79
g65
NtRp2628
(dp2629
g68
(dp2630
sg77
g2588
sg70
(lp2631
g63
(g84
g65
NtRp2632
(dp2633
g68
(dp2634
sg77
g2628
sg70
(lp2635
g63
(g64
g65
NtRp2636
(dp2637
g68
(dp2638
g76
I3
ssg77
g2632
sg70
(lp2639
g1705
asbasbasbag63
(g79
g65
NtRp2640
(dp2641
g68
(dp2642
sg77
g2588
sg70
(lp2643
g63
(g84
g65
NtRp2644
(dp2645
g68
(dp2646
sg77
g2640
sg70
(lp2647
g63
(g64
g65
NtRp2648
(dp2649
g68
(dp2650
g76
I3
ssg77
g2644
sg70
(lp2651
g1718
asbasbasbasbasbasbasbag63
(g79
g65
NtRp2652
(dp2653
g68
(dp2654
sg77
g2377
sg70
(lp2655
g63
(g84
g65
NtRp2656
(dp2657
g68
(dp2658
g88
g89
ssg77
g2652
sg70
(lp2659
g1985
asbag63
(g84
g65
NtRp2660
(dp2661
g68
(dp2662
g95
g96
ssg77
g2652
sg70
(lp2663
S':'
asbag63
(g84
g65
NtRp2664
(dp2665
g68
(dp2666
sg77
g2652
sg70
(lp2667
g63
(g64
g65
NtRp2668
(dp2669
g68
(dp2670
g76
I4
ssg77
g2664
sg70
(lp2671
g63
(g72
g65
NtRp2672
(dp2673
g68
(dp2674
g76
I3
ssg77
Nsg70
(lp2675
g63
(g79
g65
NtRp2676
(dp2677
g68
(dp2678
sg77
g2672
sg70
(lp2679
g63
(g84
g65
NtRp2680
(dp2681
g68
(dp2682
sg77
g2676
sg70
(lp2683
g63
(g64
g65
NtRp2684
(dp2685
g68
(dp2686
g76
I3
ssg77
g2680
sg70
(lp2687
S'2'
asbasbasbag63
(g79
g65
NtRp2688
(dp2689
g68
(dp2690
sg77
g2672
sg70
(lp2691
g63
(g84
g65
NtRp2692
(dp2693
g68
(dp2694
sg77
g2688
sg70
(lp2695
g63
(g64
g65
NtRp2696
(dp2697
g68
(dp2698
g76
I3
ssg77
g2692
sg70
(lp2699
S'2'
asbasbasbag63
(g79
g65
NtRp2700
(dp2701
g68
(dp2702
sg77
g2672
sg70
(lp2703
g63
(g84
g65
NtRp2704
(dp2705
g68
(dp2706
sg77
g2700
sg70
(lp2707
g63
(g64
g65
NtRp2708
(dp2709
g68
(dp2710
g76
I3
ssg77
g2704
sg70
(lp2711
S'1'
asbasbasbag63
(g79
g65
NtRp2712
(dp2713
g68
(dp2714
sg77
g2672
sg70
(lp2715
g63
(g84
g65
NtRp2716
(dp2717
g68
(dp2718
sg77
g2712
sg70
(lp2719
g63
(g64
g65
NtRp2720
(dp2721
g68
(dp2722
g76
I3
ssg77
g2716
sg70
(lp2723
S'datetime.datetime(2012, 10, 21, 16, 57, 4)'
p2724
asbasbasbag63
(g79
g65
NtRp2725
(dp2726
g68
(dp2727
sg77
g2672
sg70
(lp2728
g63
(g84
g65
NtRp2729
(dp2730
g68
(dp2731
sg77
g2725
sg70
(lp2732
g63
(g64
g65
NtRp2733
(dp2734
g68
(dp2735
g76
I3
ssg77
g2729
sg70
(lp2736
g2063
asbasbasbasbasbasbasbasbasbasbasbag63
(g79
g65
NtRp2737
(dp2738
g68
(dp2739
sg77
g73
sg70
(lp2740
g63
(g84
g65
NtRp2741
(dp2742
g68
(dp2743
g88
g89
ssg77
g2737
sg70
(lp2744
S'is_https'
p2745
asbag63
(g84
g65
NtRp2746
(dp2747
g68
(dp2748
g95
g96
ssg77
g2737
sg70
(lp2749
S':'
asbag63
(g84
g65
NtRp2750
(dp2751
g68
(dp2752
sg77
g2737
sg70
(lp2753
g63
(g64
g65
NtRp2754
(dp2755
g68
(dp2756
g76
I5
ssg77
g2750
sg70
(lp2757
g106
asbasbasbag63
(g79
g65
NtRp2758
(dp2759
g68
(dp2760
sg77
g73
sg70
(lp2761
g63
(g84
g65
NtRp2762
(dp2763
g68
(dp2764
g88
g89
ssg77
g2758
sg70
(lp2765
S'is_local'
p2766
asbag63
(g84
g65
NtRp2767
(dp2768
g68
(dp2769
g95
g96
ssg77
g2758
sg70
(lp2770
S':'
asbag63
(g84
g65
NtRp2771
(dp2772
g68
(dp2773
sg77
g2758
sg70
(lp2774
g63
(g64
g65
NtRp2775
(dp2776
g68
(dp2777
g76
I5
ssg77
g2771
sg70
(lp2778
g2172
asbasbasbag63
(g79
g65
NtRp2779
(dp2780
g68
(dp2781
sg77
g73
sg70
(lp2782
g63
(g84
g65
NtRp2783
(dp2784
g68
(dp2785
g88
g89
ssg77
g2779
sg70
(lp2786
S'is_restful'
p2787
asbag63
(g84
g65
NtRp2788
(dp2789
g68
(dp2790
g95
g96
ssg77
g2779
sg70
(lp2791
S':'
asbag63
(g84
g65
NtRp2792
(dp2793
g68
(dp2794
sg77
g2779
sg70
(lp2795
g63
(g64
g65
NtRp2796
(dp2797
g68
(dp2798
g76
I5
ssg77
g2792
sg70
(lp2799
g106
asbasbasbag63
(g79
g65
NtRp2800
(dp2801
g68
(dp2802
sg77
g73
sg70
(lp2803
g63
(g84
g65
NtRp2804
(dp2805
g68
(dp2806
g88
g89
ssg77
g2800
sg70
(lp2807
S'now'
p2808
asbag63
(g84
g65
NtRp2809
(dp2810
g68
(dp2811
g95
g96
ssg77
g2800
sg70
(lp2812
S':'
asbag63
(g84
g65
NtRp2813
(dp2814
g68
(dp2815
sg77
g2800
sg70
(lp2816
g63
(g64
g65
NtRp2817
(dp2818
g68
(dp2819
g76
I5
ssg77
g2813
sg70
(lp2820
S'datetime.datetime(2013, 2, 11, 10, 52, 7, 141644)'
p2821
asbasbasbag63
(g79
g65
NtRp2822
(dp2823
g68
(dp2824
sg77
g73
sg70
(lp2825
g63
(g84
g65
NtRp2826
(dp2827
g68
(dp2828
g88
g89
ssg77
g2822
sg70
(lp2829
S'post_vars'
p2830
asbag63
(g84
g65
NtRp2831
(dp2832
g68
(dp2833
g95
g96
ssg77
g2822
sg70
(lp2834
S':'
asbag63
(g84
g65
NtRp2835
(dp2836
g68
(dp2837
sg77
g2822
sg70
(lp2838
g63
(g64
g65
NtRp2839
(dp2840
g68
(dp2841
g76
I5
ssg77
g2835
sg70
(lp2842
g63
(g72
g65
NtRp2843
(dp2844
g68
(dp2845
g76
I4
ssg77
Nsg70
(lp2846
sbasbasbasbag63
(g79
g65
NtRp2847
(dp2848
g68
(dp2849
sg77
g73
sg70
(lp2850
g63
(g84
g65
NtRp2851
(dp2852
g68
(dp2853
g88
g89
ssg77
g2847
sg70
(lp2854
S'raw_args'
p2855
asbag63
(g84
g65
NtRp2856
(dp2857
g68
(dp2858
g95
g96
ssg77
g2847
sg70
(lp2859
S':'
asbag63
(g84
g65
NtRp2860
(dp2861
g68
(dp2862
sg77
g2847
sg70
(lp2863
g63
(g64
g65
NtRp2864
(dp2865
g68
(dp2866
g76
I5
ssg77
g2860
sg70
(lp2867
S'/annotate_probes_BETSYHASH1_b1f614a2950cb2af2d6bd155a72232b7/signal_file_annot_table.myfile1.a9f0589e6b566198.4368616e675f415230303431302e70636c.txt'
p2868
asbasbasbag63
(g79
g65
NtRp2869
(dp2870
g68
(dp2871
sg77
g73
sg70
(lp2872
g63
(g84
g65
NtRp2873
(dp2874
g68
(dp2875
g88
g89
ssg77
g2869
sg70
(lp2876
S'raw_extension'
p2877
asbag63
(g84
g65
NtRp2878
(dp2879
g68
(dp2880
g95
g96
ssg77
g2869
sg70
(lp2881
S':'
asbag63
(g84
g65
NtRp2882
(dp2883
g68
(dp2884
sg77
g2869
sg70
(lp2885
g63
(g64
g65
NtRp2886
(dp2887
g68
(dp2888
g76
I5
ssg77
g2882
sg70
(lp2889
S'None'
p2890
asbasbasbag63
(g79
g65
NtRp2891
(dp2892
g68
(dp2893
sg77
g73
sg70
(lp2894
g63
(g84
g65
NtRp2895
(dp2896
g68
(dp2897
g88
g89
ssg77
g2891
sg70
(lp2898
S'url'
p2899
asbag63
(g84
g65
NtRp2900
(dp2901
g68
(dp2902
g95
g96
ssg77
g2891
sg70
(lp2903
S':'
asbag63
(g84
g65
NtRp2904
(dp2905
g68
(dp2906
sg77
g2891
sg70
(lp2907
g63
(g64
g65
NtRp2908
(dp2909
g68
(dp2910
g76
I5
ssg77
g2904
sg70
(lp2911
g1740
asbasbasbag63
(g79
g65
NtRp2912
(dp2913
g68
(dp2914
sg77
g73
sg70
(lp2915
g63
(g84
g65
NtRp2916
(dp2917
g68
(dp2918
g88
g89
ssg77
g2912
sg70
(lp2919
S'utcnow'
p2920
asbag63
(g84
g65
NtRp2921
(dp2922
g68
(dp2923
g95
g96
ssg77
g2912
sg70
(lp2924
S':'
asbag63
(g84
g65
NtRp2925
(dp2926
g68
(dp2927
sg77
g2912
sg70
(lp2928
g63
(g64
g65
NtRp2929
(dp2930
g68
(dp2931
g76
I5
ssg77
g2925
sg70
(lp2932
S'datetime.datetime(2013, 2, 11, 16, 52, 7, 141650)'
p2933
asbasbasbag63
(g79
g65
NtRp2934
(dp2935
g68
(dp2936
sg77
g73
sg70
(lp2937
g63
(g84
g65
NtRp2938
(dp2939
g68
(dp2940
g88
g89
ssg77
g2934
sg70
(lp2941
S'uuid'
p2942
asbag63
(g84
g65
NtRp2943
(dp2944
g68
(dp2945
g95
g96
ssg77
g2934
sg70
(lp2946
S':'
asbag63
(g84
g65
NtRp2947
(dp2948
g68
(dp2949
sg77
g2934
sg70
(lp2950
g63
(g64
g65
NtRp2951
(dp2952
g68
(dp2953
g76
I5
ssg77
g2947
sg70
(lp2954
S'Betsy/127.0.0.1.2013-02-11.10-52-07.96c52cb6-54fa-45a0-afe1-b58f751df8af'
p2955
asbasbasbag63
(g79
g65
NtRp2956
(dp2957
g68
(dp2958
sg77
g73
sg70
(lp2959
g63
(g84
g65
NtRp2960
(dp2961
g68
(dp2962
g88
g89
ssg77
g2956
sg70
(lp2963
S'vars'
p2964
asbag63
(g84
g65
NtRp2965
(dp2966
g68
(dp2967
g95
g96
ssg77
g2956
sg70
(lp2968
S':'
asbag63
(g84
g65
NtRp2969
(dp2970
g68
(dp2971
sg77
g2956
sg70
(lp2972
g63
(g64
g65
NtRp2973
(dp2974
g68
(dp2975
g76
I5
ssg77
g2969
sg70
(lp2976
g63
(g72
g65
NtRp2977
(dp2978
g68
(dp2979
g76
I4
ssg77
Nsg70
(lp2980
sbasbasbasbag63
(g79
g65
NtRp2981
(dp2982
g68
(dp2983
sg77
g73
sg70
(lp2984
g63
(g84
g65
NtRp2985
(dp2986
g68
(dp2987
g88
g89
ssg77
g2981
sg70
(lp2988
S'wsgi'
p2989
asbag63
(g84
g65
NtRp2990
(dp2991
g68
(dp2992
g95
g96
ssg77
g2981
sg70
(lp2993
S':'
asbag63
(g84
g65
NtRp2994
(dp2995
g68
(dp2996
sg77
g2981
sg70
(lp2997
g63
(g64
g65
NtRp2998
(dp2999
g68
(dp3000
g76
I5
ssg77
g2994
sg70
(lp3001
g63
(g72
g65
NtRp3002
(dp3003
g68
(dp3004
g76
I4
ssg77
Nsg70
(lp3005
g63
(g79
g65
NtRp3006
(dp3007
g68
(dp3008
sg77
g3002
sg70
(lp3009
g63
(g84
g65
NtRp3010
(dp3011
g68
(dp3012
g88
g89
ssg77
g3006
sg70
(lp3013
S'environ'
p3014
asbag63
(g84
g65
NtRp3015
(dp3016
g68
(dp3017
g95
g96
ssg77
g3006
sg70
(lp3018
S':'
asbag63
(g84
g65
NtRp3019
(dp3020
g68
(dp3021
sg77
g3006
sg70
(lp3022
g63
(g64
g65
NtRp3023
(dp3024
g68
(dp3025
g76
I4
ssg77
g3019
sg70
(lp3026
g63
(g72
g65
NtRp3027
(dp3028
g68
(dp3029
g76
I3
ssg77
Nsg70
(lp3030
g63
(g79
g65
NtRp3031
(dp3032
g68
(dp3033
sg77
g3027
sg70
(lp3034
g63
(g84
g65
NtRp3035
(dp3036
g68
(dp3037
g88
g89
ssg77
g3031
sg70
(lp3038
S'HTTP_ACCEPT'
p3039
asbag63
(g84
g65
NtRp3040
(dp3041
g68
(dp3042
g95
g96
ssg77
g3031
sg70
(lp3043
S':'
asbag63
(g84
g65
NtRp3044
(dp3045
g68
(dp3046
sg77
g3031
sg70
(lp3047
g63
(g64
g65
NtRp3048
(dp3049
g68
(dp3050
g76
I3
ssg77
g3044
sg70
(lp3051
g1432
asbasbasbag63
(g79
g65
NtRp3052
(dp3053
g68
(dp3054
sg77
g3027
sg70
(lp3055
g63
(g84
g65
NtRp3056
(dp3057
g68
(dp3058
g88
g89
ssg77
g3052
sg70
(lp3059
S'HTTP_ACCEPT_ENCODING'
p3060
asbag63
(g84
g65
NtRp3061
(dp3062
g68
(dp3063
g95
g96
ssg77
g3052
sg70
(lp3064
S':'
asbag63
(g84
g65
NtRp3065
(dp3066
g68
(dp3067
sg77
g3052
sg70
(lp3068
g63
(g64
g65
NtRp3069
(dp3070
g68
(dp3071
g76
I3
ssg77
g3065
sg70
(lp3072
g1454
asbasbasbag63
(g79
g65
NtRp3073
(dp3074
g68
(dp3075
sg77
g3027
sg70
(lp3076
g63
(g84
g65
NtRp3077
(dp3078
g68
(dp3079
g88
g89
ssg77
g3073
sg70
(lp3080
S'HTTP_ACCEPT_LANGUAGE'
p3081
asbag63
(g84
g65
NtRp3082
(dp3083
g68
(dp3084
g95
g96
ssg77
g3073
sg70
(lp3085
S':'
asbag63
(g84
g65
NtRp3086
(dp3087
g68
(dp3088
sg77
g3073
sg70
(lp3089
g63
(g64
g65
NtRp3090
(dp3091
g68
(dp3092
g76
I3
ssg77
g3086
sg70
(lp3093
g1476
asbasbasbag63
(g79
g65
NtRp3094
(dp3095
g68
(dp3096
sg77
g3027
sg70
(lp3097
g63
(g84
g65
NtRp3098
(dp3099
g68
(dp3100
g88
g89
ssg77
g3094
sg70
(lp3101
S'HTTP_CONNECTION'
p3102
asbag63
(g84
g65
NtRp3103
(dp3104
g68
(dp3105
g95
g96
ssg77
g3094
sg70
(lp3106
S':'
asbag63
(g84
g65
NtRp3107
(dp3108
g68
(dp3109
sg77
g3094
sg70
(lp3110
g63
(g64
g65
NtRp3111
(dp3112
g68
(dp3113
g76
I3
ssg77
g3107
sg70
(lp3114
g1498
asbasbasbag63
(g79
g65
NtRp3115
(dp3116
g68
(dp3117
sg77
g3027
sg70
(lp3118
g63
(g84
g65
NtRp3119
(dp3120
g68
(dp3121
g88
g89
ssg77
g3115
sg70
(lp3122
S'HTTP_COOKIE'
p3123
asbag63
(g84
g65
NtRp3124
(dp3125
g68
(dp3126
g95
g96
ssg77
g3115
sg70
(lp3127
S':'
asbag63
(g84
g65
NtRp3128
(dp3129
g68
(dp3130
sg77
g3115
sg70
(lp3131
g63
(g64
g65
NtRp3132
(dp3133
g68
(dp3134
g76
I3
ssg77
g3128
sg70
(lp3135
g1520
asbasbasbag63
(g79
g65
NtRp3136
(dp3137
g68
(dp3138
sg77
g3027
sg70
(lp3139
g63
(g84
g65
NtRp3140
(dp3141
g68
(dp3142
g88
g89
ssg77
g3136
sg70
(lp3143
S'HTTP_HOST'
p3144
asbag63
(g84
g65
NtRp3145
(dp3146
g68
(dp3147
g95
g96
ssg77
g3136
sg70
(lp3148
S':'
asbag63
(g84
g65
NtRp3149
(dp3150
g68
(dp3151
sg77
g3136
sg70
(lp3152
g63
(g64
g65
NtRp3153
(dp3154
g68
(dp3155
g76
I3
ssg77
g3149
sg70
(lp3156
g1542
asbasbasbag63
(g79
g65
NtRp3157
(dp3158
g68
(dp3159
sg77
g3027
sg70
(lp3160
g63
(g84
g65
NtRp3161
(dp3162
g68
(dp3163
g88
g89
ssg77
g3157
sg70
(lp3164
S'HTTP_REFERER'
p3165
asbag63
(g84
g65
NtRp3166
(dp3167
g68
(dp3168
g95
g96
ssg77
g3157
sg70
(lp3169
S':'
asbag63
(g84
g65
NtRp3170
(dp3171
g68
(dp3172
sg77
g3157
sg70
(lp3173
g63
(g64
g65
NtRp3174
(dp3175
g68
(dp3176
g76
I3
ssg77
g3170
sg70
(lp3177
g1564
asbasbasbag63
(g79
g65
NtRp3178
(dp3179
g68
(dp3180
sg77
g3027
sg70
(lp3181
g63
(g84
g65
NtRp3182
(dp3183
g68
(dp3184
g88
g89
ssg77
g3178
sg70
(lp3185
S'HTTP_USER_AGENT'
p3186
asbag63
(g84
g65
NtRp3187
(dp3188
g68
(dp3189
g95
g96
ssg77
g3178
sg70
(lp3190
S':'
asbag63
(g84
g65
NtRp3191
(dp3192
g68
(dp3193
sg77
g3178
sg70
(lp3194
g63
(g64
g65
NtRp3195
(dp3196
g68
(dp3197
g76
I3
ssg77
g3191
sg70
(lp3198
g1586
asbasbasbag63
(g79
g65
NtRp3199
(dp3200
g68
(dp3201
sg77
g3027
sg70
(lp3202
g63
(g84
g65
NtRp3203
(dp3204
g68
(dp3205
g88
g89
ssg77
g3199
sg70
(lp3206
S'PATH_INFO'
p3207
asbag63
(g84
g65
NtRp3208
(dp3209
g68
(dp3210
g95
g96
ssg77
g3199
sg70
(lp3211
S':'
asbag63
(g84
g65
NtRp3212
(dp3213
g68
(dp3214
sg77
g3199
sg70
(lp3215
g63
(g64
g65
NtRp3216
(dp3217
g68
(dp3218
g76
I3
ssg77
g3212
sg70
(lp3219
g1740
asbasbasbag63
(g79
g65
NtRp3220
(dp3221
g68
(dp3222
sg77
g3027
sg70
(lp3223
g63
(g84
g65
NtRp3224
(dp3225
g68
(dp3226
g88
g89
ssg77
g3220
sg70
(lp3227
S'QUERY_STRING'
p3228
asbag63
(g84
g65
NtRp3229
(dp3230
g68
(dp3231
g95
g96
ssg77
g3220
sg70
(lp3232
S':'
asbag63
(g84
g65
NtRp3233
(dp3234
g68
(dp3235
sg77
g3220
sg70
(lp3236
g63
(g64
g65
NtRp3237
(dp3238
g68
(dp3239
g76
I3
ssg77
g3233
sg70
(lp3240
S''
asbasbasbag63
(g79
g65
NtRp3241
(dp3242
g68
(dp3243
sg77
g3027
sg70
(lp3244
g63
(g84
g65
NtRp3245
(dp3246
g68
(dp3247
g88
g89
ssg77
g3241
sg70
(lp3248
S'REMOTE_ADDR'
p3249
asbag63
(g84
g65
NtRp3250
(dp3251
g68
(dp3252
g95
g96
ssg77
g3241
sg70
(lp3253
S':'
asbag63
(g84
g65
NtRp3254
(dp3255
g68
(dp3256
sg77
g3241
sg70
(lp3257
g63
(g64
g65
NtRp3258
(dp3259
g68
(dp3260
g76
I3
ssg77
g3254
sg70
(lp3261
g244
asbasbasbag63
(g79
g65
NtRp3262
(dp3263
g68
(dp3264
sg77
g3027
sg70
(lp3265
g63
(g84
g65
NtRp3266
(dp3267
g68
(dp3268
g88
g89
ssg77
g3262
sg70
(lp3269
S'REMOTE_PORT'
p3270
asbag63
(g84
g65
NtRp3271
(dp3272
g68
(dp3273
g95
g96
ssg77
g3262
sg70
(lp3274
S':'
asbag63
(g84
g65
NtRp3275
(dp3276
g68
(dp3277
sg77
g3262
sg70
(lp3278
g63
(g64
g65
NtRp3279
(dp3280
g68
(dp3281
g76
I3
ssg77
g3275
sg70
(lp3282
g1804
asbasbasbag63
(g79
g65
NtRp3283
(dp3284
g68
(dp3285
sg77
g3027
sg70
(lp3286
g63
(g84
g65
NtRp3287
(dp3288
g68
(dp3289
g88
g89
ssg77
g3283
sg70
(lp3290
S'REQUEST_METHOD'
p3291
asbag63
(g84
g65
NtRp3292
(dp3293
g68
(dp3294
g95
g96
ssg77
g3283
sg70
(lp3295
S':'
asbag63
(g84
g65
NtRp3296
(dp3297
g68
(dp3298
sg77
g3283
sg70
(lp3299
g63
(g64
g65
NtRp3300
(dp3301
g68
(dp3302
g76
I3
ssg77
g3296
sg70
(lp3303
g1826
asbasbasbag63
(g79
g65
NtRp3304
(dp3305
g68
(dp3306
sg77
g3027
sg70
(lp3307
g63
(g84
g65
NtRp3308
(dp3309
g68
(dp3310
g88
g89
ssg77
g3304
sg70
(lp3311
S'REQUEST_URI'
p3312
asbag63
(g84
g65
NtRp3313
(dp3314
g68
(dp3315
g95
g96
ssg77
g3304
sg70
(lp3316
S':'
asbag63
(g84
g65
NtRp3317
(dp3318
g68
(dp3319
sg77
g3304
sg70
(lp3320
g63
(g64
g65
NtRp3321
(dp3322
g68
(dp3323
g76
I3
ssg77
g3317
sg70
(lp3324
g1740
asbasbasbag63
(g79
g65
NtRp3325
(dp3326
g68
(dp3327
sg77
g3027
sg70
(lp3328
g63
(g84
g65
NtRp3329
(dp3330
g68
(dp3331
g88
g89
ssg77
g3325
sg70
(lp3332
S'SCRIPT_NAME'
p3333
asbag63
(g84
g65
NtRp3334
(dp3335
g68
(dp3336
g95
g96
ssg77
g3325
sg70
(lp3337
S':'
asbag63
(g84
g65
NtRp3338
(dp3339
g68
(dp3340
sg77
g3325
sg70
(lp3341
g63
(g64
g65
NtRp3342
(dp3343
g68
(dp3344
g76
I3
ssg77
g3338
sg70
(lp3345
S''
asbasbasbag63
(g79
g65
NtRp3346
(dp3347
g68
(dp3348
sg77
g3027
sg70
(lp3349
g63
(g84
g65
NtRp3350
(dp3351
g68
(dp3352
g88
g89
ssg77
g3346
sg70
(lp3353
S'SERVER_NAME'
p3354
asbag63
(g84
g65
NtRp3355
(dp3356
g68
(dp3357
g95
g96
ssg77
g3346
sg70
(lp3358
S':'
asbag63
(g84
g65
NtRp3359
(dp3360
g68
(dp3361
sg77
g3346
sg70
(lp3362
g63
(g64
g65
NtRp3363
(dp3364
g68
(dp3365
g76
I3
ssg77
g3359
sg70
(lp3366
g1705
asbasbasbag63
(g79
g65
NtRp3367
(dp3368
g68
(dp3369
sg77
g3027
sg70
(lp3370
g63
(g84
g65
NtRp3371
(dp3372
g68
(dp3373
g88
g89
ssg77
g3367
sg70
(lp3374
S'SERVER_PORT'
p3375
asbag63
(g84
g65
NtRp3376
(dp3377
g68
(dp3378
g95
g96
ssg77
g3367
sg70
(lp3379
S':'
asbag63
(g84
g65
NtRp3380
(dp3381
g68
(dp3382
sg77
g3367
sg70
(lp3383
g63
(g64
g65
NtRp3384
(dp3385
g68
(dp3386
g76
I3
ssg77
g3380
sg70
(lp3387
g1911
asbasbasbag63
(g79
g65
NtRp3388
(dp3389
g68
(dp3390
sg77
g3027
sg70
(lp3391
g63
(g84
g65
NtRp3392
(dp3393
g68
(dp3394
g88
g89
ssg77
g3388
sg70
(lp3395
S'SERVER_PROTOCOL'
p3396
asbag63
(g84
g65
NtRp3397
(dp3398
g68
(dp3399
g95
g96
ssg77
g3388
sg70
(lp3400
S':'
asbag63
(g84
g65
NtRp3401
(dp3402
g68
(dp3403
sg77
g3388
sg70
(lp3404
g63
(g64
g65
NtRp3405
(dp3406
g68
(dp3407
g76
I3
ssg77
g3401
sg70
(lp3408
g1933
asbasbasbag63
(g79
g65
NtRp3409
(dp3410
g68
(dp3411
sg77
g3027
sg70
(lp3412
g63
(g84
g65
NtRp3413
(dp3414
g68
(dp3415
g88
g89
ssg77
g3409
sg70
(lp3416
S'SERVER_SOFTWARE'
p3417
asbag63
(g84
g65
NtRp3418
(dp3419
g68
(dp3420
g95
g96
ssg77
g3409
sg70
(lp3421
S':'
asbag63
(g84
g65
NtRp3422
(dp3423
g68
(dp3424
sg77
g3409
sg70
(lp3425
g63
(g64
g65
NtRp3426
(dp3427
g68
(dp3428
g76
I3
ssg77
g3422
sg70
(lp3429
g1955
asbasbasbag63
(g79
g65
NtRp3430
(dp3431
g68
(dp3432
sg77
g3027
sg70
(lp3433
g63
(g84
g65
NtRp3434
(dp3435
g68
(dp3436
g88
g89
ssg77
g3430
sg70
(lp3437
S'wsgi.errors'
p3438
asbag63
(g84
g65
NtRp3439
(dp3440
g68
(dp3441
g95
g96
ssg77
g3430
sg70
(lp3442
S':'
asbag63
(g84
g65
NtRp3443
(dp3444
g68
(dp3445
sg77
g3430
sg70
(lp3446
g63
(g64
g65
NtRp3447
(dp3448
g68
(dp3449
g76
I3
ssg77
g3443
sg70
(lp3450
S"<open file '<stderr>', mode 'w' at 0x2af8e24c6270>"
p3451
asbasbasbag63
(g79
g65
NtRp3452
(dp3453
g68
(dp3454
sg77
g3027
sg70
(lp3455
g63
(g84
g65
NtRp3456
(dp3457
g68
(dp3458
g88
g89
ssg77
g3452
sg70
(lp3459
S'wsgi.file_wrapper'
p3460
asbag63
(g84
g65
NtRp3461
(dp3462
g68
(dp3463
g95
g96
ssg77
g3452
sg70
(lp3464
S':'
asbag63
(g84
g65
NtRp3465
(dp3466
g68
(dp3467
sg77
g3452
sg70
(lp3468
g63
(g64
g65
NtRp3469
(dp3470
g68
(dp3471
g76
I3
ssg77
g3465
sg70
(lp3472
S'<class wsgiref.util.FileWrapper at 0x1ee84a78>'
p3473
asbasbasbag63
(g79
g65
NtRp3474
(dp3475
g68
(dp3476
sg77
g3027
sg70
(lp3477
g63
(g84
g65
NtRp3478
(dp3479
g68
(dp3480
g88
g89
ssg77
g3474
sg70
(lp3481
S'wsgi.input'
p3482
asbag63
(g84
g65
NtRp3483
(dp3484
g68
(dp3485
g95
g96
ssg77
g3474
sg70
(lp3486
S':'
asbag63
(g84
g65
NtRp3487
(dp3488
g68
(dp3489
sg77
g3474
sg70
(lp3490
g63
(g64
g65
NtRp3491
(dp3492
g68
(dp3493
g76
I3
ssg77
g3487
sg70
(lp3494
S'<cStringIO.StringO object at 0x1f7f43b0>'
p3495
asbasbasbag63
(g79
g65
NtRp3496
(dp3497
g68
(dp3498
sg77
g3027
sg70
(lp3499
g63
(g84
g65
NtRp3500
(dp3501
g68
(dp3502
g88
g89
ssg77
g3496
sg70
(lp3503
S'wsgi.multiprocess'
p3504
asbag63
(g84
g65
NtRp3505
(dp3506
g68
(dp3507
g95
g96
ssg77
g3496
sg70
(lp3508
S':'
asbag63
(g84
g65
NtRp3509
(dp3510
g68
(dp3511
sg77
g3496
sg70
(lp3512
g63
(g64
g65
NtRp3513
(dp3514
g68
(dp3515
g76
I3
ssg77
g3509
sg70
(lp3516
g106
asbasbasbag63
(g79
g65
NtRp3517
(dp3518
g68
(dp3519
sg77
g3027
sg70
(lp3520
g63
(g84
g65
NtRp3521
(dp3522
g68
(dp3523
g88
g89
ssg77
g3517
sg70
(lp3524
S'wsgi.multithread'
p3525
asbag63
(g84
g65
NtRp3526
(dp3527
g68
(dp3528
g95
g96
ssg77
g3517
sg70
(lp3529
S':'
asbag63
(g84
g65
NtRp3530
(dp3531
g68
(dp3532
sg77
g3517
sg70
(lp3533
g63
(g64
g65
NtRp3534
(dp3535
g68
(dp3536
g76
I3
ssg77
g3530
sg70
(lp3537
g2172
asbasbasbag63
(g79
g65
NtRp3538
(dp3539
g68
(dp3540
sg77
g3027
sg70
(lp3541
g63
(g84
g65
NtRp3542
(dp3543
g68
(dp3544
g88
g89
ssg77
g3538
sg70
(lp3545
S'wsgi.run_once'
p3546
asbag63
(g84
g65
NtRp3547
(dp3548
g68
(dp3549
g95
g96
ssg77
g3538
sg70
(lp3550
S':'
asbag63
(g84
g65
NtRp3551
(dp3552
g68
(dp3553
sg77
g3538
sg70
(lp3554
g63
(g64
g65
NtRp3555
(dp3556
g68
(dp3557
g76
I3
ssg77
g3551
sg70
(lp3558
g106
asbasbasbag63
(g79
g65
NtRp3559
(dp3560
g68
(dp3561
sg77
g3027
sg70
(lp3562
g63
(g84
g65
NtRp3563
(dp3564
g68
(dp3565
g88
g89
ssg77
g3559
sg70
(lp3566
S'wsgi.url_scheme'
p3567
asbag63
(g84
g65
NtRp3568
(dp3569
g68
(dp3570
g95
g96
ssg77
g3559
sg70
(lp3571
S':'
asbag63
(g84
g65
NtRp3572
(dp3573
g68
(dp3574
sg77
g3559
sg70
(lp3575
g63
(g64
g65
NtRp3576
(dp3577
g68
(dp3578
g76
I3
ssg77
g3572
sg70
(lp3579
g2215
asbasbasbag63
(g79
g65
NtRp3580
(dp3581
g68
(dp3582
sg77
g3027
sg70
(lp3583
g63
(g84
g65
NtRp3584
(dp3585
g68
(dp3586
g88
g89
ssg77
g3580
sg70
(lp3587
S'wsgi.version'
p3588
asbag63
(g84
g65
NtRp3589
(dp3590
g68
(dp3591
g95
g96
ssg77
g3580
sg70
(lp3592
S':'
asbag63
(g84
g65
NtRp3593
(dp3594
g68
(dp3595
sg77
g3580
sg70
(lp3596
g63
(g64
g65
NtRp3597
(dp3598
g68
(dp3599
g76
I3
ssg77
g3593
sg70
(lp3600
S'1'
asbasbasbasbasbasbasbasbasbasbasbasbasbsS'frames'
p3601
(lp3602
(dp3603
S'file'
p3604
S'/home/xchen/web2py/gluon/restricted.py'
p3605
sS'dump'
p3606
(dp3607
S'environment'
p3608
S"{'A': <class 'gluon.html.A'>, 'Auth': <class 'gluon.tools.Auth'>, 'B': <class 'gluon.html.B'>, 'BEAUTIFY': <class 'gluon.html.BEAUTIFY'>, 'BODY': <class 'gluon.html.BODY'>, 'BR': <class 'gluon.html.BR'>, 'BUTTON': <class 'gluon.html.BUTTON'>, 'CAT': <class 'gluon.html.CAT'>, 'CENTER': <class 'gluon.html.CENTER'>, 'CLEANUP': <class 'gluon.validators.CLEANUP'>, ...}"
p3609
sS'ccode'
p3610
S'<code object <module> at 0x1f8066b0, file "/home...lications/Betsy/controllers/default.py", line 11>'
p3611
ssS'lnum'
p3612
I212
sS'lines'
p3613
(dp3614
I207
S'    try:'
p3615
sI208
S'        if isinstance(code, types.CodeType):'
p3616
sI209
S'            ccode = code'
p3617
sI210
S'        else:'
p3618
sI211
S'            ccode = compile2(code, layer)'
p3619
sI212
S'        exec ccode in environment'
p3620
sI213
S'    except HTTP:'
p3621
sI214
S'        raise'
p3622
sI215
S'    except RestrictedError:'
p3623
sI216
S'        # do not encapsulate (obfuscate) the original RestrictedError'
p3624
ssS'call'
p3625
S"(code='# -*- coding: utf-8 -*-\\n# this file is released ...\\n\\nresponse._vars=response._caller(result_folder)\\n', environment={'A': <class 'gluon.html.A'>, 'Auth': <class 'gluon.tools.Auth'>, 'B': <class 'gluon.html.B'>, 'BEAUTIFY': <class 'gluon.html.BEAUTIFY'>, 'BODY': <class 'gluon.html.BODY'>, 'BR': <class 'gluon.html.BR'>, 'BUTTON': <class 'gluon.html.BUTTON'>, 'CAT': <class 'gluon.html.CAT'>, 'CENTER': <class 'gluon.html.CENTER'>, 'CLEANUP': <class 'gluon.validators.CLEANUP'>, ...}, layer='/home/xchen/web2py/applications/Betsy/controllers/default.py')"
p3626
sS'func'
p3627
S'restricted'
p3628
sa(dp3629
g3604
S'/home/xchen/web2py/applications/Betsy/controllers/default.py'
p3630
sg3606
(dp3631
sg3612
I390
sg3613
(dp3632
I384
S"      A('table',_href=URL('data/tables',user_signature=True))"
p3633
sI385
S'    or with the signed load operator'
p3634
sI386
S"      LOAD('default','data.load',args='tables',ajax=True,user_signature=True)"
p3635
sI387
S'    """'
p3636
sI388
S'    return dict(form=crud())'
p3637
sI379
S'    http://..../[app]/default/data/update/[table]/[id]'
p3638
sI380
S'    http://..../[app]/default/data/delete/[table]/[id]'
p3639
sI381
S'    http://..../[app]/default/data/select/[table]'
p3640
sI382
S'    http://..../[app]/default/data/search/[table]'
p3641
sI383
S'    but URLs must be signed, i.e. linked with'
p3642
ssg3625
S'()'
p3643
sg3627
S'<module>'
p3644
sa(dp3645
g3604
S'/home/xchen/web2py/gluon/globals.py'
p3646
sg3606
(dp3647
S'self'
p3648
S'undefined'
p3649
sS'f'
S'<function result_folder>'
p3650
ssg3612
I188
sg3613
(dp3651
I192
S''
sI183
S'        self.menu = []             # used by the default view layout'
p3652
sI184
S'        self.files = []            # used by web2py_ajax.html'
p3653
sI185
S'        self.generic_patterns = []  # patterns to allow generic views'
p3654
sI186
S"        self.delimiters = ('{{', '}}')"
p3655
sI187
S'        self._vars = None'
p3656
sI188
S'        self._caller = lambda f: f()'
p3657
sI189
S'        self._view_environment = None'
p3658
sI190
S'        self._custom_commit = None'
p3659
sI191
S'        self._custom_rollback = None'
p3660
ssg3625
S'(f=<function result_folder>)'
p3661
sg3627
S'<lambda>'
p3662
sa(dp3663
g3604
S'/home/xchen/web2py/applications/Betsy/controllers/default.py'
p3664
sg3606
(dp3665
S'path'
p3666
S"'/home/xchen/web2py/applications/Betsy/result_fil...robes_BETSYHASH1_b1f614a2950cb2af2d6bd155a72232b7'"
p3667
sS'builtinopen'
p3668
S'<built-in function open>'
p3669
sS').read'
p3670
g3649
ssg3612
I334
sg3613
(dp3671
I329
S'    filename=request.args[0]'
p3672
sI330
S"    #response.headers['Content-Type']=contenttype(filename)"
p3673
sI331
S'    folder,name = os.path.split(filename)'
p3674
sI332
S"    path = os.path.join(request.folder,'result_files/',filename)"
p3675
sI333
S'    print path'
p3676
sI334
S"    return open(path,'rb').read()"
p3677
sI335
S"    #return open(os.path.join(request.folder,'result_files/',folder,'%s' % filename),'rb').read()"
p3678
sI336
S''
sI337
S''
sI338
S'def user():'
p3679
ssg3625
S'()'
p3680
sg3627
S'result_folder'
p3681
sasS'pyver'
p3682
S'Python 2.7.3: /usr/local/bin/python'
p3683
sS'session'
p3684
g63
(g64
g65
NtRp3685
(dp3686
g68
(dp3687
sg70
(lp3688
g63
(g72
g65
NtRp3689
(dp3690
g68
(dp3691
g76
I5
ssg77
Nsg70
(lp3692
g63
(g79
g65
NtRp3693
(dp3694
g68
(dp3695
sg77
g3689
sg70
(lp3696
g63
(g84
g65
NtRp3697
(dp3698
g68
(dp3699
g88
g89
ssg77
g3693
sg70
(lp3700
S'auth'
p3701
asbag63
(g84
g65
NtRp3702
(dp3703
g68
(dp3704
g95
g96
ssg77
g3693
sg70
(lp3705
S':'
asbag63
(g84
g65
NtRp3706
(dp3707
g68
(dp3708
sg77
g3693
sg70
(lp3709
g63
(g64
g65
NtRp3710
(dp3711
g68
(dp3712
g76
I5
ssg77
g3706
sg70
(lp3713
g63
(g72
g65
NtRp3714
(dp3715
g68
(dp3716
g76
I4
ssg77
Nsg70
(lp3717
g63
(g79
g65
NtRp3718
(dp3719
g68
(dp3720
sg77
g3714
sg70
(lp3721
g63
(g84
g65
NtRp3722
(dp3723
g68
(dp3724
g88
g89
ssg77
g3718
sg70
(lp3725
S'expiration'
p3726
asbag63
(g84
g65
NtRp3727
(dp3728
g68
(dp3729
g95
g96
ssg77
g3718
sg70
(lp3730
S':'
asbag63
(g84
g65
NtRp3731
(dp3732
g68
(dp3733
sg77
g3718
sg70
(lp3734
g63
(g64
g65
NtRp3735
(dp3736
g68
(dp3737
g76
I4
ssg77
g3731
sg70
(lp3738
S'2592000'
p3739
asbasbasbag63
(g79
g65
NtRp3740
(dp3741
g68
(dp3742
sg77
g3714
sg70
(lp3743
g63
(g84
g65
NtRp3744
(dp3745
g68
(dp3746
g88
g89
ssg77
g3740
sg70
(lp3747
S'hmac_key'
p3748
asbag63
(g84
g65
NtRp3749
(dp3750
g68
(dp3751
g95
g96
ssg77
g3740
sg70
(lp3752
S':'
asbag63
(g84
g65
NtRp3753
(dp3754
g68
(dp3755
sg77
g3740
sg70
(lp3756
g63
(g64
g65
NtRp3757
(dp3758
g68
(dp3759
g76
I4
ssg77
g3753
sg70
(lp3760
S'739afc94-a36b-429c-8715-edcd03ea4351'
p3761
asbasbasbag63
(g79
g65
NtRp3762
(dp3763
g68
(dp3764
sg77
g3714
sg70
(lp3765
g63
(g84
g65
NtRp3766
(dp3767
g68
(dp3768
g88
g89
ssg77
g3762
sg70
(lp3769
S'last_visit'
p3770
asbag63
(g84
g65
NtRp3771
(dp3772
g68
(dp3773
g95
g96
ssg77
g3762
sg70
(lp3774
S':'
asbag63
(g84
g65
NtRp3775
(dp3776
g68
(dp3777
sg77
g3762
sg70
(lp3778
g63
(g64
g65
NtRp3779
(dp3780
g68
(dp3781
g76
I4
ssg77
g3775
sg70
(lp3782
S'datetime.datetime(2013, 2, 4, 10, 24, 37, 237452)'
p3783
asbasbasbag63
(g79
g65
NtRp3784
(dp3785
g68
(dp3786
sg77
g3714
sg70
(lp3787
g63
(g84
g65
NtRp3788
(dp3789
g68
(dp3790
g88
g89
ssg77
g3784
sg70
(lp3791
S'remember'
p3792
asbag63
(g84
g65
NtRp3793
(dp3794
g68
(dp3795
g95
g96
ssg77
g3784
sg70
(lp3796
S':'
asbag63
(g84
g65
NtRp3797
(dp3798
g68
(dp3799
sg77
g3784
sg70
(lp3800
g63
(g64
g65
NtRp3801
(dp3802
g68
(dp3803
g76
I4
ssg77
g3797
sg70
(lp3804
g2172
asbasbasbag63
(g79
g65
NtRp3805
(dp3806
g68
(dp3807
sg77
g3714
sg70
(lp3808
g63
(g84
g65
NtRp3809
(dp3810
g68
(dp3811
g88
g89
ssg77
g3805
sg70
(lp3812
S'user'
p3813
asbag63
(g84
g65
NtRp3814
(dp3815
g68
(dp3816
g95
g96
ssg77
g3805
sg70
(lp3817
S':'
asbag63
(g84
g65
NtRp3818
(dp3819
g68
(dp3820
sg77
g3805
sg70
(lp3821
g63
(g64
g65
NtRp3822
(dp3823
g68
(dp3824
g76
I4
ssg77
g3818
sg70
(lp3825
g63
(g72
g65
NtRp3826
(dp3827
g68
(dp3828
g76
I3
ssg77
Nsg70
(lp3829
g63
(g79
g65
NtRp3830
(dp3831
g68
(dp3832
sg77
g3826
sg70
(lp3833
g63
(g84
g65
NtRp3834
(dp3835
g68
(dp3836
g88
g89
ssg77
g3830
sg70
(lp3837
S'email'
p3838
asbag63
(g84
g65
NtRp3839
(dp3840
g68
(dp3841
g95
g96
ssg77
g3830
sg70
(lp3842
S':'
asbag63
(g84
g65
NtRp3843
(dp3844
g68
(dp3845
sg77
g3830
sg70
(lp3846
g63
(g64
g65
NtRp3847
(dp3848
g68
(dp3849
g76
I3
ssg77
g3843
sg70
(lp3850
S'xiaoling.chen@uth.tmc.edu'
p3851
asbasbasbag63
(g79
g65
NtRp3852
(dp3853
g68
(dp3854
sg77
g3826
sg70
(lp3855
g63
(g84
g65
NtRp3856
(dp3857
g68
(dp3858
g88
g89
ssg77
g3852
sg70
(lp3859
S'first_name'
p3860
asbag63
(g84
g65
NtRp3861
(dp3862
g68
(dp3863
g95
g96
ssg77
g3852
sg70
(lp3864
S':'
asbag63
(g84
g65
NtRp3865
(dp3866
g68
(dp3867
sg77
g3852
sg70
(lp3868
g63
(g64
g65
NtRp3869
(dp3870
g68
(dp3871
g76
I3
ssg77
g3865
sg70
(lp3872
S'Xiaoling'
p3873
asbasbasbag63
(g79
g65
NtRp3874
(dp3875
g68
(dp3876
sg77
g3826
sg70
(lp3877
g63
(g84
g65
NtRp3878
(dp3879
g68
(dp3880
g88
g89
ssg77
g3874
sg70
(lp3881
S'id'
p3882
asbag63
(g84
g65
NtRp3883
(dp3884
g68
(dp3885
g95
g96
ssg77
g3874
sg70
(lp3886
S':'
asbag63
(g84
g65
NtRp3887
(dp3888
g68
(dp3889
sg77
g3874
sg70
(lp3890
g63
(g64
g65
NtRp3891
(dp3892
g68
(dp3893
g76
I3
ssg77
g3887
sg70
(lp3894
S'1'
asbasbasbag63
(g79
g65
NtRp3895
(dp3896
g68
(dp3897
sg77
g3826
sg70
(lp3898
g63
(g84
g65
NtRp3899
(dp3900
g68
(dp3901
g88
g89
ssg77
g3895
sg70
(lp3902
S'last_name'
p3903
asbag63
(g84
g65
NtRp3904
(dp3905
g68
(dp3906
g95
g96
ssg77
g3895
sg70
(lp3907
S':'
asbag63
(g84
g65
NtRp3908
(dp3909
g68
(dp3910
sg77
g3895
sg70
(lp3911
g63
(g64
g65
NtRp3912
(dp3913
g68
(dp3914
g76
I3
ssg77
g3908
sg70
(lp3915
S'Chen'
p3916
asbasbasbag63
(g79
g65
NtRp3917
(dp3918
g68
(dp3919
sg77
g3826
sg70
(lp3920
g63
(g84
g65
NtRp3921
(dp3922
g68
(dp3923
g88
g89
ssg77
g3917
sg70
(lp3924
S'registration_id'
p3925
asbag63
(g84
g65
NtRp3926
(dp3927
g68
(dp3928
g95
g96
ssg77
g3917
sg70
(lp3929
S':'
asbag63
(g84
g65
NtRp3930
(dp3931
g68
(dp3932
sg77
g3917
sg70
(lp3933
g63
(g64
g65
NtRp3934
(dp3935
g68
(dp3936
g76
I3
ssg77
g3930
sg70
(lp3937
S''
asbasbasbag63
(g79
g65
NtRp3938
(dp3939
g68
(dp3940
sg77
g3826
sg70
(lp3941
g63
(g84
g65
NtRp3942
(dp3943
g68
(dp3944
g88
g89
ssg77
g3938
sg70
(lp3945
S'registration_key'
p3946
asbag63
(g84
g65
NtRp3947
(dp3948
g68
(dp3949
g95
g96
ssg77
g3938
sg70
(lp3950
S':'
asbag63
(g84
g65
NtRp3951
(dp3952
g68
(dp3953
sg77
g3938
sg70
(lp3954
g63
(g64
g65
NtRp3955
(dp3956
g68
(dp3957
g76
I3
ssg77
g3951
sg70
(lp3958
S''
asbasbasbag63
(g79
g65
NtRp3959
(dp3960
g68
(dp3961
sg77
g3826
sg70
(lp3962
g63
(g84
g65
NtRp3963
(dp3964
g68
(dp3965
g88
g89
ssg77
g3959
sg70
(lp3966
S'reset_password_key'
p3967
asbag63
(g84
g65
NtRp3968
(dp3969
g68
(dp3970
g95
g96
ssg77
g3959
sg70
(lp3971
S':'
asbag63
(g84
g65
NtRp3972
(dp3973
g68
(dp3974
sg77
g3959
sg70
(lp3975
g63
(g64
g65
NtRp3976
(dp3977
g68
(dp3978
g76
I3
ssg77
g3972
sg70
(lp3979
S''
asbasbasbasbasbasbasbag63
(g79
g65
NtRp3980
(dp3981
g68
(dp3982
sg77
g3714
sg70
(lp3983
g63
(g84
g65
NtRp3984
(dp3985
g68
(dp3986
g88
g89
ssg77
g3980
sg70
(lp3987
S'user_groups'
p3988
asbag63
(g84
g65
NtRp3989
(dp3990
g68
(dp3991
g95
g96
ssg77
g3980
sg70
(lp3992
S':'
asbag63
(g84
g65
NtRp3993
(dp3994
g68
(dp3995
sg77
g3980
sg70
(lp3996
g63
(g64
g65
NtRp3997
(dp3998
g68
(dp3999
g76
I4
ssg77
g3993
sg70
(lp4000
g63
(g72
g65
NtRp4001
(dp4002
g68
(dp4003
g76
I3
ssg77
Nsg70
(lp4004
g63
(g79
g65
NtRp4005
(dp4006
g68
(dp4007
sg77
g4001
sg70
(lp4008
g63
(g84
g65
NtRp4009
(dp4010
g68
(dp4011
g88
g89
ssg77
g4005
sg70
(lp4012
S'1'
asbag63
(g84
g65
NtRp4013
(dp4014
g68
(dp4015
g95
g96
ssg77
g4005
sg70
(lp4016
S':'
asbag63
(g84
g65
NtRp4017
(dp4018
g68
(dp4019
sg77
g4005
sg70
(lp4020
g63
(g64
g65
NtRp4021
(dp4022
g68
(dp4023
g76
I3
ssg77
g4017
sg70
(lp4024
S'user_1'
p4025
asbasbasbasbasbasbasbasbasbasbasbag63
(g79
g65
NtRp4026
(dp4027
g68
(dp4028
sg77
g3689
sg70
(lp4029
g63
(g84
g65
NtRp4030
(dp4031
g68
(dp4032
g88
g89
ssg77
g4026
sg70
(lp4033
S'cmd'
p4034
asbag63
(g84
g65
NtRp4035
(dp4036
g68
(dp4037
g95
g96
ssg77
g4026
sg70
(lp4038
S':'
asbag63
(g84
g65
NtRp4039
(dp4040
g68
(dp4041
sg77
g4026
sg70
(lp4042
g63
(g64
g65
NtRp4043
(dp4044
g68
(dp4045
g76
I5
ssg77
g4039
sg70
(lp4046
g63
(g72
g65
NtRp4047
(dp4048
g68
(dp4049
g76
I4
ssg77
Nsg70
(lp4050
g63
(g79
g65
NtRp4051
(dp4052
g68
(dp4053
sg77
g4047
sg70
(lp4054
g63
(g84
g65
NtRp4055
(dp4056
g68
(dp4057
sg77
g4051
sg70
(lp4058
g63
(g64
g65
NtRp4059
(dp4060
g68
(dp4061
g76
I4
ssg77
g4055
sg70
(lp4062
S'python'
p4063
asbasbasbag63
(g79
g65
NtRp4064
(dp4065
g68
(dp4066
sg77
g4047
sg70
(lp4067
g63
(g84
g65
NtRp4068
(dp4069
g68
(dp4070
sg77
g4064
sg70
(lp4071
g63
(g64
g65
NtRp4072
(dp4073
g68
(dp4074
g76
I4
ssg77
g4068
sg70
(lp4075
S'/home/xchen/chencode/tmp/try_parallel/queue.py'
p4076
asbasbasbag63
(g79
g65
NtRp4077
(dp4078
g68
(dp4079
sg77
g4047
sg70
(lp4080
g63
(g84
g65
NtRp4081
(dp4082
g68
(dp4083
sg77
g4077
sg70
(lp4084
g63
(g64
g65
NtRp4085
(dp4086
g68
(dp4087
g76
I4
ssg77
g4081
sg70
(lp4088
S'python /home/xchen/chencode/Betsy/scripts/run_protocol.py --protocol normalize_file --input input_signal_file:/home/xchen/chencode/upload/no_table.myfile1.a8dd7d225fa076b2.4368616e675f415230303431302e70636c.pcl --parameters has_missing_value:zero_fill --parameters preprocess:unknown_preprocess'
p4089
asbasbasbasbasbasbasbag63
(g79
g65
NtRp4090
(dp4091
g68
(dp4092
sg77
g3689
sg70
(lp4093
g63
(g84
g65
NtRp4094
(dp4095
g68
(dp4096
g88
g89
ssg77
g4090
sg70
(lp4097
S'command'
p4098
asbag63
(g84
g65
NtRp4099
(dp4100
g68
(dp4101
g95
g96
ssg77
g4090
sg70
(lp4102
S':'
asbag63
(g84
g65
NtRp4103
(dp4104
g68
(dp4105
sg77
g4090
sg70
(lp4106
g63
(g64
g65
NtRp4107
(dp4108
g68
(dp4109
g76
I5
ssg77
g4103
sg70
(lp4110
S'--input input_signal_file:myfile1 --parameters has_missing_value:zero_fill'
p4111
asbasbasbag63
(g79
g65
NtRp4112
(dp4113
g68
(dp4114
sg77
g3689
sg70
(lp4115
g63
(g84
g65
NtRp4116
(dp4117
g68
(dp4118
g88
g89
ssg77
g4112
sg70
(lp4119
S'flash'
p4120
asbag63
(g84
g65
NtRp4121
(dp4122
g68
(dp4123
g95
g96
ssg77
g4112
sg70
(lp4124
S':'
asbag63
(g84
g65
NtRp4125
(dp4126
g68
(dp4127
sg77
g4112
sg70
(lp4128
g63
(g64
g65
NtRp4129
(dp4130
g68
(dp4131
g76
I5
ssg77
g4125
sg70
(lp4132
S'None'
p4133
asbasbasbag63
(g79
g65
NtRp4134
(dp4135
g68
(dp4136
sg77
g3689
sg70
(lp4137
g63
(g84
g65
NtRp4138
(dp4139
g68
(dp4140
g88
g89
ssg77
g4134
sg70
(lp4141
S'last_orderby'
p4142
asbag63
(g84
g65
NtRp4143
(dp4144
g68
(dp4145
g95
g96
ssg77
g4134
sg70
(lp4146
S':'
asbag63
(g84
g65
NtRp4147
(dp4148
g68
(dp4149
sg77
g4134
sg70
(lp4150
g63
(g64
g65
NtRp4151
(dp4152
g68
(dp4153
g76
I5
ssg77
g4147
sg70
(lp4154
S'None'
p4155
asbasbasbag63
(g79
g65
NtRp4156
(dp4157
g68
(dp4158
sg77
g3689
sg70
(lp4159
g63
(g84
g65
NtRp4160
(dp4161
g68
(dp4162
g88
g89
ssg77
g4156
sg70
(lp4163
S'last_query'
p4164
asbag63
(g84
g65
NtRp4165
(dp4166
g68
(dp4167
g95
g96
ssg77
g4156
sg70
(lp4168
S':'
asbag63
(g84
g65
NtRp4169
(dp4170
g68
(dp4171
sg77
g4156
sg70
(lp4172
g63
(g64
g65
NtRp4173
(dp4174
g68
(dp4175
g76
I5
ssg77
g4169
sg70
(lp4176
S'db.status.id>0'
p4177
asbasbasbag63
(g79
g65
NtRp4178
(dp4179
g68
(dp4180
sg77
g3689
sg70
(lp4181
g63
(g84
g65
NtRp4182
(dp4183
g68
(dp4184
g88
g89
ssg77
g4178
sg70
(lp4185
S'myfile1'
p4186
asbag63
(g84
g65
NtRp4187
(dp4188
g68
(dp4189
g95
g96
ssg77
g4178
sg70
(lp4190
S':'
asbag63
(g84
g65
NtRp4191
(dp4192
g68
(dp4193
sg77
g4178
sg70
(lp4194
g63
(g64
g65
NtRp4195
(dp4196
g68
(dp4197
g76
I5
ssg77
g4191
sg70
(lp4198
S'no_table.myfile1.b7774bd7ac89fca6.4368616e675f415230303431302e70636c.pcl'
p4199
asbasbasbag63
(g79
g65
NtRp4200
(dp4201
g68
(dp4202
sg77
g3689
sg70
(lp4203
g63
(g84
g65
NtRp4204
(dp4205
g68
(dp4206
g88
g89
ssg77
g4200
sg70
(lp4207
S'myfile2'
p4208
asbag63
(g84
g65
NtRp4209
(dp4210
g68
(dp4211
g95
g96
ssg77
g4200
sg70
(lp4212
S':'
asbag63
(g84
g65
NtRp4213
(dp4214
g68
(dp4215
sg77
g4200
sg70
(lp4216
g63
(g64
g65
NtRp4217
(dp4218
g68
(dp4219
g76
I5
ssg77
g4213
sg70
(lp4220
S''
asbasbasbag63
(g79
g65
NtRp4221
(dp4222
g68
(dp4223
sg77
g3689
sg70
(lp4224
g63
(g84
g65
NtRp4225
(dp4226
g68
(dp4227
g88
g89
ssg77
g4221
sg70
(lp4228
S'myfile3'
p4229
asbag63
(g84
g65
NtRp4230
(dp4231
g68
(dp4232
g95
g96
ssg77
g4221
sg70
(lp4233
S':'
asbag63
(g84
g65
NtRp4234
(dp4235
g68
(dp4236
sg77
g4221
sg70
(lp4237
g63
(g64
g65
NtRp4238
(dp4239
g68
(dp4240
g76
I5
ssg77
g4234
sg70
(lp4241
S''
asbasbasbag63
(g79
g65
NtRp4242
(dp4243
g68
(dp4244
sg77
g3689
sg70
(lp4245
g63
(g84
g65
NtRp4246
(dp4247
g68
(dp4248
g88
g89
ssg77
g4242
sg70
(lp4249
S'myfile4'
p4250
asbag63
(g84
g65
NtRp4251
(dp4252
g68
(dp4253
g95
g96
ssg77
g4242
sg70
(lp4254
S':'
asbag63
(g84
g65
NtRp4255
(dp4256
g68
(dp4257
sg77
g4242
sg70
(lp4258
g63
(g64
g65
NtRp4259
(dp4260
g68
(dp4261
g76
I5
ssg77
g4255
sg70
(lp4262
S''
asbasbasbag63
(g79
g65
NtRp4263
(dp4264
g68
(dp4265
sg77
g3689
sg70
(lp4266
g63
(g84
g65
NtRp4267
(dp4268
g68
(dp4269
g88
g89
ssg77
g4263
sg70
(lp4270
S'myfile5'
p4271
asbag63
(g84
g65
NtRp4272
(dp4273
g68
(dp4274
g95
g96
ssg77
g4263
sg70
(lp4275
S':'
asbag63
(g84
g65
NtRp4276
(dp4277
g68
(dp4278
sg77
g4263
sg70
(lp4279
g63
(g64
g65
NtRp4280
(dp4281
g68
(dp4282
g76
I5
ssg77
g4276
sg70
(lp4283
S''
asbasbasbag63
(g79
g65
NtRp4284
(dp4285
g68
(dp4286
sg77
g3689
sg70
(lp4287
g63
(g84
g65
NtRp4288
(dp4289
g68
(dp4290
g88
g89
ssg77
g4284
sg70
(lp4291
S'myfile6'
p4292
asbag63
(g84
g65
NtRp4293
(dp4294
g68
(dp4295
g95
g96
ssg77
g4284
sg70
(lp4296
S':'
asbag63
(g84
g65
NtRp4297
(dp4298
g68
(dp4299
sg77
g4284
sg70
(lp4300
g63
(g64
g65
NtRp4301
(dp4302
g68
(dp4303
g76
I5
ssg77
g4297
sg70
(lp4304
S''
asbasbasbag63
(g79
g65
NtRp4305
(dp4306
g68
(dp4307
sg77
g3689
sg70
(lp4308
g63
(g84
g65
NtRp4309
(dp4310
g68
(dp4311
g88
g89
ssg77
g4305
sg70
(lp4312
S'output'
p4313
asbag63
(g84
g65
NtRp4314
(dp4315
g68
(dp4316
g95
g96
ssg77
g4305
sg70
(lp4317
S':'
asbag63
(g84
g65
NtRp4318
(dp4319
g68
(dp4320
sg77
g4305
sg70
(lp4321
g63
(g64
g65
NtRp4322
(dp4323
g68
(dp4324
g76
I5
ssg77
g4318
sg70
(lp4325
g63
(g72
g65
NtRp4326
(dp4327
g68
(dp4328
g76
I4
ssg77
Nsg70
(lp4329
sbasbasbasbag63
(g79
g65
NtRp4330
(dp4331
g68
(dp4332
sg77
g3689
sg70
(lp4333
g63
(g84
g65
NtRp4334
(dp4335
g68
(dp4336
g88
g89
ssg77
g4330
sg70
(lp4337
S'protocol'
p4338
asbag63
(g84
g65
NtRp4339
(dp4340
g68
(dp4341
g95
g96
ssg77
g4330
sg70
(lp4342
S':'
asbag63
(g84
g65
NtRp4343
(dp4344
g68
(dp4345
sg77
g4330
sg70
(lp4346
g63
(g64
g65
NtRp4347
(dp4348
g68
(dp4349
g76
I5
ssg77
g4343
sg70
(lp4350
S'normalize_file'
p4351
asbasbasbasbasbsS'etype'
p4352
S"<type 'exceptions.IOError'>"
p4353
sS'date'
p4354
S'Mon Feb 11 10:52:07 2013'
p4355
sS'response'
p4356
g63
(g64
g65
NtRp4357
(dp4358
g68
(dp4359
sg70
(lp4360
g63
(g72
g65
NtRp4361
(dp4362
g68
(dp4363
g76
I5
ssg77
Nsg70
(lp4364
g63
(g79
g65
NtRp4365
(dp4366
g68
(dp4367
sg77
g4361
sg70
(lp4368
g63
(g84
g65
NtRp4369
(dp4370
g68
(dp4371
g88
g89
ssg77
g4365
sg70
(lp4372
g187
asbag63
(g84
g65
NtRp4373
(dp4374
g68
(dp4375
g95
g96
ssg77
g4365
sg70
(lp4376
S':'
asbag63
(g84
g65
NtRp4377
(dp4378
g68
(dp4379
sg77
g4365
sg70
(lp4380
g63
(g64
g65
NtRp4381
(dp4382
g68
(dp4383
g76
I5
ssg77
g4377
sg70
(lp4384
S'<cStringIO.StringO object at 0x1f40ae30>'
p4385
asbasbasbag63
(g79
g65
NtRp4386
(dp4387
g68
(dp4388
sg77
g4361
sg70
(lp4389
g63
(g84
g65
NtRp4390
(dp4391
g68
(dp4392
g88
g89
ssg77
g4386
sg70
(lp4393
g275
asbag63
(g84
g65
NtRp4394
(dp4395
g68
(dp4396
g95
g96
ssg77
g4386
sg70
(lp4397
S':'
asbag63
(g84
g65
NtRp4398
(dp4399
g68
(dp4400
sg77
g4386
sg70
(lp4401
g63
(g64
g65
NtRp4402
(dp4403
g68
(dp4404
g76
I5
ssg77
g4398
sg70
(lp4405
g63
(g72
g65
NtRp4406
(dp4407
g68
(dp4408
g76
I4
ssg77
Nsg70
(lp4409
g63
(g79
g65
NtRp4410
(dp4411
g68
(dp4412
sg77
g4406
sg70
(lp4413
g63
(g84
g65
NtRp4414
(dp4415
g68
(dp4416
g88
g89
ssg77
g4410
sg70
(lp4417
S'session_id_betsy'
p4418
asbag63
(g84
g65
NtRp4419
(dp4420
g68
(dp4421
g95
g96
ssg77
g4410
sg70
(lp4422
S':'
asbag63
(g84
g65
NtRp4423
(dp4424
g68
(dp4425
sg77
g4410
sg70
(lp4426
g63
(g64
g65
NtRp4427
(dp4428
g68
(dp4429
g76
I4
ssg77
g4423
sg70
(lp4430
g507
ag63
(g72
g65
NtRp4431
(dp4432
g68
(dp4433
g76
I3
ssg77
Nsg70
(lp4434
g63
(g79
g65
NtRp4435
(dp4436
g68
(dp4437
sg77
g4431
sg70
(lp4438
g63
(g84
g65
NtRp4439
(dp4440
g68
(dp4441
g88
g89
ssg77
g4435
sg70
(lp4442
g326
asbag63
(g84
g65
NtRp4443
(dp4444
g68
(dp4445
g95
g96
ssg77
g4435
sg70
(lp4446
S':'
asbag63
(g84
g65
NtRp4447
(dp4448
g68
(dp4449
sg77
g4435
sg70
(lp4450
g63
(g64
g65
NtRp4451
(dp4452
g68
(dp4453
g76
I3
ssg77
g4447
sg70
(lp4454
S''
asbasbasbag63
(g79
g65
NtRp4455
(dp4456
g68
(dp4457
sg77
g4431
sg70
(lp4458
g63
(g84
g65
NtRp4459
(dp4460
g68
(dp4461
g88
g89
ssg77
g4455
sg70
(lp4462
g347
asbag63
(g84
g65
NtRp4463
(dp4464
g68
(dp4465
g95
g96
ssg77
g4455
sg70
(lp4466
S':'
asbag63
(g84
g65
NtRp4467
(dp4468
g68
(dp4469
sg77
g4455
sg70
(lp4470
g63
(g64
g65
NtRp4471
(dp4472
g68
(dp4473
g76
I3
ssg77
g4467
sg70
(lp4474
S''
asbasbasbag63
(g79
g65
NtRp4475
(dp4476
g68
(dp4477
sg77
g4431
sg70
(lp4478
g63
(g84
g65
NtRp4479
(dp4480
g68
(dp4481
g88
g89
ssg77
g4475
sg70
(lp4482
g368
asbag63
(g84
g65
NtRp4483
(dp4484
g68
(dp4485
g95
g96
ssg77
g4475
sg70
(lp4486
S':'
asbag63
(g84
g65
NtRp4487
(dp4488
g68
(dp4489
sg77
g4475
sg70
(lp4490
g63
(g64
g65
NtRp4491
(dp4492
g68
(dp4493
g76
I3
ssg77
g4487
sg70
(lp4494
S'2592000'
p4495
asbasbasbag63
(g79
g65
NtRp4496
(dp4497
g68
(dp4498
sg77
g4431
sg70
(lp4499
g63
(g84
g65
NtRp4500
(dp4501
g68
(dp4502
g88
g89
ssg77
g4496
sg70
(lp4503
g389
asbag63
(g84
g65
NtRp4504
(dp4505
g68
(dp4506
g95
g96
ssg77
g4496
sg70
(lp4507
S':'
asbag63
(g84
g65
NtRp4508
(dp4509
g68
(dp4510
sg77
g4496
sg70
(lp4511
g63
(g64
g65
NtRp4512
(dp4513
g68
(dp4514
g76
I3
ssg77
g4508
sg70
(lp4515
S''
asbasbasbag63
(g79
g65
NtRp4516
(dp4517
g68
(dp4518
sg77
g4431
sg70
(lp4519
g63
(g84
g65
NtRp4520
(dp4521
g68
(dp4522
g88
g89
ssg77
g4516
sg70
(lp4523
g410
asbag63
(g84
g65
NtRp4524
(dp4525
g68
(dp4526
g95
g96
ssg77
g4516
sg70
(lp4527
S':'
asbag63
(g84
g65
NtRp4528
(dp4529
g68
(dp4530
sg77
g4516
sg70
(lp4531
g63
(g64
g65
NtRp4532
(dp4533
g68
(dp4534
g76
I3
ssg77
g4528
sg70
(lp4535
S''
asbasbasbag63
(g79
g65
NtRp4536
(dp4537
g68
(dp4538
sg77
g4431
sg70
(lp4539
g63
(g84
g65
NtRp4540
(dp4541
g68
(dp4542
g88
g89
ssg77
g4536
sg70
(lp4543
g431
asbag63
(g84
g65
NtRp4544
(dp4545
g68
(dp4546
g95
g96
ssg77
g4536
sg70
(lp4547
S':'
asbag63
(g84
g65
NtRp4548
(dp4549
g68
(dp4550
sg77
g4536
sg70
(lp4551
g63
(g64
g65
NtRp4552
(dp4553
g68
(dp4554
g76
I3
ssg77
g4548
sg70
(lp4555
S'/'
asbasbasbag63
(g79
g65
NtRp4556
(dp4557
g68
(dp4558
sg77
g4431
sg70
(lp4559
g63
(g84
g65
NtRp4560
(dp4561
g68
(dp4562
g88
g89
ssg77
g4556
sg70
(lp4563
g452
asbag63
(g84
g65
NtRp4564
(dp4565
g68
(dp4566
g95
g96
ssg77
g4556
sg70
(lp4567
S':'
asbag63
(g84
g65
NtRp4568
(dp4569
g68
(dp4570
sg77
g4556
sg70
(lp4571
g63
(g64
g65
NtRp4572
(dp4573
g68
(dp4574
g76
I3
ssg77
g4568
sg70
(lp4575
S''
asbasbasbag63
(g79
g65
NtRp4576
(dp4577
g68
(dp4578
sg77
g4431
sg70
(lp4579
g63
(g84
g65
NtRp4580
(dp4581
g68
(dp4582
g88
g89
ssg77
g4576
sg70
(lp4583
g473
asbag63
(g84
g65
NtRp4584
(dp4585
g68
(dp4586
g95
g96
ssg77
g4576
sg70
(lp4587
S':'
asbag63
(g84
g65
NtRp4588
(dp4589
g68
(dp4590
sg77
g4576
sg70
(lp4591
g63
(g64
g65
NtRp4592
(dp4593
g68
(dp4594
g76
I3
ssg77
g4588
sg70
(lp4595
S''
asbasbasbasbasbasbasbasbasbasbasbag63
(g79
g65
NtRp4596
(dp4597
g68
(dp4598
sg77
g4361
sg70
(lp4599
g63
(g84
g65
NtRp4600
(dp4601
g68
(dp4602
g88
g89
ssg77
g4596
sg70
(lp4603
S'delimiters'
p4604
asbag63
(g84
g65
NtRp4605
(dp4606
g68
(dp4607
g95
g96
ssg77
g4596
sg70
(lp4608
S':'
asbag63
(g84
g65
NtRp4609
(dp4610
g68
(dp4611
sg77
g4596
sg70
(lp4612
g63
(g64
g65
NtRp4613
(dp4614
g68
(dp4615
g76
I5
ssg77
g4609
sg70
(lp4616
g63
(g72
g65
NtRp4617
(dp4618
g68
(dp4619
g76
I4
ssg77
Nsg70
(lp4620
g63
(g79
g65
NtRp4621
(dp4622
g68
(dp4623
sg77
g4617
sg70
(lp4624
g63
(g84
g65
NtRp4625
(dp4626
g68
(dp4627
sg77
g4621
sg70
(lp4628
g63
(g64
g65
NtRp4629
(dp4630
g68
(dp4631
g76
I4
ssg77
g4625
sg70
(lp4632
S'{{'
p4633
asbasbasbag63
(g79
g65
NtRp4634
(dp4635
g68
(dp4636
sg77
g4617
sg70
(lp4637
g63
(g84
g65
NtRp4638
(dp4639
g68
(dp4640
sg77
g4634
sg70
(lp4641
g63
(g64
g65
NtRp4642
(dp4643
g68
(dp4644
g76
I4
ssg77
g4638
sg70
(lp4645
S'}}'
p4646
asbasbasbasbasbasbasbag63
(g79
g65
NtRp4647
(dp4648
g68
(dp4649
sg77
g4361
sg70
(lp4650
g63
(g84
g65
NtRp4651
(dp4652
g68
(dp4653
g88
g89
ssg77
g4647
sg70
(lp4654
S'files'
p4655
asbag63
(g84
g65
NtRp4656
(dp4657
g68
(dp4658
g95
g96
ssg77
g4647
sg70
(lp4659
S':'
asbag63
(g84
g65
NtRp4660
(dp4661
g68
(dp4662
sg77
g4647
sg70
(lp4663
g63
(g64
g65
NtRp4664
(dp4665
g68
(dp4666
g76
I5
ssg77
g4660
sg70
(lp4667
g63
(g72
g65
NtRp4668
(dp4669
g68
(dp4670
g76
I4
ssg77
Nsg70
(lp4671
sbasbasbasbag63
(g79
g65
NtRp4672
(dp4673
g68
(dp4674
sg77
g4361
sg70
(lp4675
g63
(g84
g65
NtRp4676
(dp4677
g68
(dp4678
g88
g89
ssg77
g4672
sg70
(lp4679
S'flash'
p4680
asbag63
(g84
g65
NtRp4681
(dp4682
g68
(dp4683
g95
g96
ssg77
g4672
sg70
(lp4684
S':'
asbag63
(g84
g65
NtRp4685
(dp4686
g68
(dp4687
sg77
g4672
sg70
(lp4688
g63
(g64
g65
NtRp4689
(dp4690
g68
(dp4691
g76
I5
ssg77
g4685
sg70
(lp4692
S''
asbasbasbag63
(g79
g65
NtRp4693
(dp4694
g68
(dp4695
sg77
g4361
sg70
(lp4696
g63
(g84
g65
NtRp4697
(dp4698
g68
(dp4699
g88
g89
ssg77
g4693
sg70
(lp4700
S'generic_patterns'
p4701
asbag63
(g84
g65
NtRp4702
(dp4703
g68
(dp4704
g95
g96
ssg77
g4693
sg70
(lp4705
S':'
asbag63
(g84
g65
NtRp4706
(dp4707
g68
(dp4708
sg77
g4693
sg70
(lp4709
g63
(g64
g65
NtRp4710
(dp4711
g68
(dp4712
g76
I5
ssg77
g4706
sg70
(lp4713
g63
(g72
g65
NtRp4714
(dp4715
g68
(dp4716
g76
I4
ssg77
Nsg70
(lp4717
g63
(g79
g65
NtRp4718
(dp4719
g68
(dp4720
sg77
g4714
sg70
(lp4721
g63
(g84
g65
NtRp4722
(dp4723
g68
(dp4724
sg77
g4718
sg70
(lp4725
g63
(g64
g65
NtRp4726
(dp4727
g68
(dp4728
g76
I4
ssg77
g4722
sg70
(lp4729
S'*'
asbasbasbasbasbasbasbag63
(g79
g65
NtRp4730
(dp4731
g68
(dp4732
sg77
g4361
sg70
(lp4733
g63
(g84
g65
NtRp4734
(dp4735
g68
(dp4736
g88
g89
ssg77
g4730
sg70
(lp4737
S'google_analytics_id'
p4738
asbag63
(g84
g65
NtRp4739
(dp4740
g68
(dp4741
g95
g96
ssg77
g4730
sg70
(lp4742
S':'
asbag63
(g84
g65
NtRp4743
(dp4744
g68
(dp4745
sg77
g4730
sg70
(lp4746
g63
(g64
g65
NtRp4747
(dp4748
g68
(dp4749
g76
I5
ssg77
g4743
sg70
(lp4750
S'None'
p4751
asbasbasbag63
(g79
g65
NtRp4752
(dp4753
g68
(dp4754
sg77
g4361
sg70
(lp4755
g63
(g84
g65
NtRp4756
(dp4757
g68
(dp4758
g88
g89
ssg77
g4752
sg70
(lp4759
S'headers'
p4760
asbag63
(g84
g65
NtRp4761
(dp4762
g68
(dp4763
g95
g96
ssg77
g4752
sg70
(lp4764
S':'
asbag63
(g84
g65
NtRp4765
(dp4766
g68
(dp4767
sg77
g4752
sg70
(lp4768
g63
(g64
g65
NtRp4769
(dp4770
g68
(dp4771
g76
I5
ssg77
g4765
sg70
(lp4772
g63
(g72
g65
NtRp4773
(dp4774
g68
(dp4775
g76
I4
ssg77
Nsg70
(lp4776
g63
(g79
g65
NtRp4777
(dp4778
g68
(dp4779
sg77
g4773
sg70
(lp4780
g63
(g84
g65
NtRp4781
(dp4782
g68
(dp4783
g88
g89
ssg77
g4777
sg70
(lp4784
S'X-Powered-By'
p4785
asbag63
(g84
g65
NtRp4786
(dp4787
g68
(dp4788
g95
g96
ssg77
g4777
sg70
(lp4789
S':'
asbag63
(g84
g65
NtRp4790
(dp4791
g68
(dp4792
sg77
g4777
sg70
(lp4793
g63
(g64
g65
NtRp4794
(dp4795
g68
(dp4796
g76
I4
ssg77
g4790
sg70
(lp4797
S'web2py'
p4798
asbasbasbasbasbasbasbag63
(g79
g65
NtRp4799
(dp4800
g68
(dp4801
sg77
g4361
sg70
(lp4802
g63
(g84
g65
NtRp4803
(dp4804
g68
(dp4805
g88
g89
ssg77
g4799
sg70
(lp4806
S'menu'
p4807
asbag63
(g84
g65
NtRp4808
(dp4809
g68
(dp4810
g95
g96
ssg77
g4799
sg70
(lp4811
S':'
asbag63
(g84
g65
NtRp4812
(dp4813
g68
(dp4814
sg77
g4799
sg70
(lp4815
g63
(g64
g65
NtRp4816
(dp4817
g68
(dp4818
g76
I5
ssg77
g4812
sg70
(lp4819
g63
(g72
g65
NtRp4820
(dp4821
g68
(dp4822
g76
I4
ssg77
Nsg70
(lp4823
g63
(g79
g65
NtRp4824
(dp4825
g68
(dp4826
sg77
g4820
sg70
(lp4827
g63
(g84
g65
NtRp4828
(dp4829
g68
(dp4830
sg77
g4824
sg70
(lp4831
g63
(g64
g65
NtRp4832
(dp4833
g68
(dp4834
g76
I4
ssg77
g4828
sg70
(lp4835
g63
(g72
g65
NtRp4836
(dp4837
g68
(dp4838
g76
I3
ssg77
Nsg70
(lp4839
g63
(g79
g65
NtRp4840
(dp4841
g68
(dp4842
sg77
g4836
sg70
(lp4843
g63
(g84
g65
NtRp4844
(dp4845
g68
(dp4846
sg77
g4840
sg70
(lp4847
g63
(g64
g65
NtRp4848
(dp4849
g68
(dp4850
g76
I3
ssg77
g4844
sg70
(lp4851
cgluon.languages
lazyT_unpickle
p4852
(S's\x04\x00\x00\x00Home'
tRp4853
asbasbasbag63
(g79
g65
NtRp4854
(dp4855
g68
(dp4856
sg77
g4836
sg70
(lp4857
g63
(g84
g65
NtRp4858
(dp4859
g68
(dp4860
sg77
g4854
sg70
(lp4861
g63
(g64
g65
NtRp4862
(dp4863
g68
(dp4864
g76
I3
ssg77
g4858
sg70
(lp4865
g106
asbasbasbag63
(g79
g65
NtRp4866
(dp4867
g68
(dp4868
sg77
g4836
sg70
(lp4869
g63
(g84
g65
NtRp4870
(dp4871
g68
(dp4872
sg77
g4866
sg70
(lp4873
g63
(g64
g65
NtRp4874
(dp4875
g68
(dp4876
g76
I3
ssg77
g4870
sg70
(lp4877
S'/Betsy/default/index'
p4878
asbasbasbag63
(g79
g65
NtRp4879
(dp4880
g68
(dp4881
sg77
g4836
sg70
(lp4882
g63
(g84
g65
NtRp4883
(dp4884
g68
(dp4885
sg77
g4879
sg70
(lp4886
g63
(g64
g65
NtRp4887
(dp4888
g68
(dp4889
g76
I3
ssg77
g4883
sg70
(lp4890
g63
(g72
g65
NtRp4891
(dp4892
g68
(dp4893
g76
I2
ssg77
Nsg70
(lp4894
sbasbasbasbasbasbasbasbag63
(g79
g65
NtRp4895
(dp4896
g68
(dp4897
sg77
g4820
sg70
(lp4898
g63
(g84
g65
NtRp4899
(dp4900
g68
(dp4901
sg77
g4895
sg70
(lp4902
g63
(g64
g65
NtRp4903
(dp4904
g68
(dp4905
g76
I4
ssg77
g4899
sg70
(lp4906
g63
(g72
g65
NtRp4907
(dp4908
g68
(dp4909
g76
I3
ssg77
Nsg70
(lp4910
g63
(g79
g65
NtRp4911
(dp4912
g68
(dp4913
sg77
g4907
sg70
(lp4914
g63
(g84
g65
NtRp4915
(dp4916
g68
(dp4917
sg77
g4911
sg70
(lp4918
g63
(g64
g65
NtRp4919
(dp4920
g68
(dp4921
g76
I3
ssg77
g4915
sg70
(lp4922
g63
(cgluon.html
SPAN
p4923
g65
NtRp4924
(dp4925
g68
(dp4926
S'_class'
p4927
S'highlighted'
p4928
ssg77
Nsg70
(lp4929
g4798
asbasbasbasbag63
(g79
g65
NtRp4930
(dp4931
g68
(dp4932
sg77
g4907
sg70
(lp4933
g63
(g84
g65
NtRp4934
(dp4935
g68
(dp4936
sg77
g4930
sg70
(lp4937
g63
(g64
g65
NtRp4938
(dp4939
g68
(dp4940
g76
I3
ssg77
g4934
sg70
(lp4941
g106
asbasbasbag63
(g79
g65
NtRp4942
(dp4943
g68
(dp4944
sg77
g4907
sg70
(lp4945
g63
(g84
g65
NtRp4946
(dp4947
g68
(dp4948
sg77
g4942
sg70
(lp4949
g63
(g64
g65
NtRp4950
(dp4951
g68
(dp4952
g76
I3
ssg77
g4946
sg70
(lp4953
S'http://web2py.com'
p4954
asbasbasbag63
(g79
g65
NtRp4955
(dp4956
g68
(dp4957
sg77
g4907
sg70
(lp4958
g63
(g84
g65
NtRp4959
(dp4960
g68
(dp4961
sg77
g4955
sg70
(lp4962
g63
(g64
g65
NtRp4963
(dp4964
g68
(dp4965
g76
I3
ssg77
g4959
sg70
(lp4966
g63
(g72
g65
NtRp4967
(dp4968
g68
(dp4969
g76
I2
ssg77
Nsg70
(lp4970
g63
(g79
g65
NtRp4971
(dp4972
g68
(dp4973
sg77
g4967
sg70
(lp4974
g63
(g84
g65
NtRp4975
(dp4976
g68
(dp4977
sg77
g4971
sg70
(lp4978
g63
(g64
g65
NtRp4979
(dp4980
g68
(dp4981
g76
I2
ssg77
g4975
sg70
(lp4982
g63
(g72
g65
NtRp4983
(dp4984
g68
(dp4985
g76
I1
ssg77
Nsg70
(lp4986
g63
(g79
g65
NtRp4987
(dp4988
g68
(dp4989
sg77
g4983
sg70
(lp4990
g63
(g84
g65
NtRp4991
(dp4992
g68
(dp4993
sg77
g4987
sg70
(lp4994
g63
(g64
g65
NtRp4995
(dp4996
g68
(dp4997
g76
I1
ssg77
g4991
sg70
(lp4998
g4852
(S's\x08\x00\x00\x00My Sites'
tRp4999
asbasbasbag63
(g79
g65
NtRp5000
(dp5001
g68
(dp5002
sg77
g4983
sg70
(lp5003
g63
(g84
g65
NtRp5004
(dp5005
g68
(dp5006
sg77
g5000
sg70
(lp5007
g63
(g64
g65
NtRp5008
(dp5009
g68
(dp5010
g76
I1
ssg77
g5004
sg70
(lp5011
I00
asbasbasbag63
(g79
g65
NtRp5012
(dp5013
g68
(dp5014
sg77
g4983
sg70
(lp5015
g63
(g84
g65
NtRp5016
(dp5017
g68
(dp5018
sg77
g5012
sg70
(lp5019
g63
(g64
g65
NtRp5020
(dp5021
g68
(dp5022
g76
I1
ssg77
g5016
sg70
(lp5023
S'/admin/default/site'
p5024
asbasbasbasbasbasbasbag63
(g79
g65
NtRp5025
(dp5026
g68
(dp5027
sg77
g4967
sg70
(lp5028
g63
(g84
g65
NtRp5029
(dp5030
g68
(dp5031
sg77
g5025
sg70
(lp5032
g63
(g64
g65
NtRp5033
(dp5034
g68
(dp5035
g76
I2
ssg77
g5029
sg70
(lp5036
g63
(g72
g65
NtRp5037
(dp5038
g68
(dp5039
g76
I1
ssg77
Nsg70
(lp5040
g63
(g79
g65
NtRp5041
(dp5042
g68
(dp5043
sg77
g5037
sg70
(lp5044
g63
(g84
g65
NtRp5045
(dp5046
g68
(dp5047
sg77
g5041
sg70
(lp5048
g63
(g64
g65
NtRp5049
(dp5050
g68
(dp5051
g76
I1
ssg77
g5045
sg70
(lp5052
g4852
(S's\x08\x00\x00\x00This App'
tRp5053
asbasbasbag63
(g79
g65
NtRp5054
(dp5055
g68
(dp5056
sg77
g5037
sg70
(lp5057
g63
(g84
g65
NtRp5058
(dp5059
g68
(dp5060
sg77
g5054
sg70
(lp5061
g63
(g64
g65
NtRp5062
(dp5063
g68
(dp5064
g76
I1
ssg77
g5058
sg70
(lp5065
I00
asbasbasbag63
(g79
g65
NtRp5066
(dp5067
g68
(dp5068
sg77
g5037
sg70
(lp5069
g63
(g84
g65
NtRp5070
(dp5071
g68
(dp5072
sg77
g5066
sg70
(lp5073
g63
(g64
g65
NtRp5074
(dp5075
g68
(dp5076
g76
I1
ssg77
g5070
sg70
(lp5077
S'/admin/default/design/Betsy'
p5078
asbasbasbag63
(g79
g65
NtRp5079
(dp5080
g68
(dp5081
sg77
g5037
sg70
(lp5082
g63
(g84
g65
NtRp5083
(dp5084
g68
(dp5085
sg77
g5079
sg70
(lp5086
g63
(g64
g65
NtRp5087
(dp5088
g68
(dp5089
g76
I1
ssg77
g5083
sg70
(lp5090
(lp5091
(g4852
(S's\n\x00\x00\x00Controller'
tRp5092
I00
S'/admin/default/edit/Betsy/controllers/default.py'
tp5093
a(g4852
(S's\x04\x00\x00\x00View'
tRp5094
I00
S'/admin/default/edit/Betsy/views/default/result_folder.html'
tp5095
a(g4852
(S's\x06\x00\x00\x00Layout'
tRp5096
I00
S'/admin/default/edit/Betsy/views/layout.html'
tp5097
a(g4852
(S's\n\x00\x00\x00Stylesheet'
tRp5098
I00
S'/admin/default/edit/Betsy/static/css/web2py.css'
tp5099
a(g4852
(S's\x08\x00\x00\x00DB Model'
tRp5100
I00
S'/admin/default/edit/Betsy/models/db.py'
tp5101
a(g4852
(S's\n\x00\x00\x00Menu Model'
tRp5102
I00
S'/admin/default/edit/Betsy/models/menu.py'
tp5103
a(g4852
(S's\x08\x00\x00\x00Database'
tRp5104
I00
S'/Betsy/appadmin/index'
tp5105
a(g4852
(S's\x06\x00\x00\x00Errors'
tRp5106
I00
S'/admin/default/errors/Betsy'
tp5107
a(g4852
(S's\x05\x00\x00\x00About'
tRp5108
I00
S'/admin/default/about/Betsy'
tp5109
aasbasbasbasbasbasbasbag63
(g79
g65
NtRp5110
(dp5111
g68
(dp5112
sg77
g4967
sg70
(lp5113
g63
(g84
g65
NtRp5114
(dp5115
g68
(dp5116
sg77
g5110
sg70
(lp5117
g63
(g64
g65
NtRp5118
(dp5119
g68
(dp5120
g76
I2
ssg77
g5114
sg70
(lp5121
g63
(g72
g65
NtRp5122
(dp5123
g68
(dp5124
g76
I1
ssg77
Nsg70
(lp5125
g63
(g79
g65
NtRp5126
(dp5127
g68
(dp5128
sg77
g5122
sg70
(lp5129
g63
(g84
g65
NtRp5130
(dp5131
g68
(dp5132
sg77
g5126
sg70
(lp5133
g63
(g64
g65
NtRp5134
(dp5135
g68
(dp5136
g76
I1
ssg77
g5130
sg70
(lp5137
S'web2py.com'
p5138
asbasbasbag63
(g79
g65
NtRp5139
(dp5140
g68
(dp5141
sg77
g5122
sg70
(lp5142
g63
(g84
g65
NtRp5143
(dp5144
g68
(dp5145
sg77
g5139
sg70
(lp5146
g63
(g64
g65
NtRp5147
(dp5148
g68
(dp5149
g76
I1
ssg77
g5143
sg70
(lp5150
I00
asbasbasbag63
(g79
g65
NtRp5151
(dp5152
g68
(dp5153
sg77
g5122
sg70
(lp5154
g63
(g84
g65
NtRp5155
(dp5156
g68
(dp5157
sg77
g5151
sg70
(lp5158
g63
(g64
g65
NtRp5159
(dp5160
g68
(dp5161
g76
I1
ssg77
g5155
sg70
(lp5162
S'http://www.web2py.com'
p5163
asbasbasbag63
(g79
g65
NtRp5164
(dp5165
g68
(dp5166
sg77
g5122
sg70
(lp5167
g63
(g84
g65
NtRp5168
(dp5169
g68
(dp5170
sg77
g5164
sg70
(lp5171
g63
(g64
g65
NtRp5172
(dp5173
g68
(dp5174
g76
I1
ssg77
g5168
sg70
(lp5175
(lp5176
(g4852
(S's\x08\x00\x00\x00Download'
tRp5177
I00
S'http://www.web2py.com/examples/default/download'
p5178
tp5179
a(g4852
(S's\x07\x00\x00\x00Support'
tRp5180
I00
S'http://www.web2py.com/examples/default/support'
p5181
tp5182
a(g4852
(S's\x04\x00\x00\x00Demo'
tRp5183
I00
S'http://web2py.com/demo_admin'
p5184
tp5185
a(g4852
(S's\x0e\x00\x00\x00Quick Examples'
tRp5186
I00
S'http://web2py.com/examples/default/examples'
p5187
tp5188
a(g4852
(S's\x03\x00\x00\x00FAQ'
tRp5189
I00
S'http://web2py.com/AlterEgo'
p5190
tp5191
a(g4852
(S's\x06\x00\x00\x00Videos'
tRp5192
I00
S'http://www.web2py.com/examples/default/videos/'
p5193
tp5194
a(g4852
(S's\x11\x00\x00\x00Free Applications'
tRp5195
I00
S'http://web2py.com/appliances'
p5196
tp5197
a(g4852
(S's\x07\x00\x00\x00Plugins'
tRp5198
I00
S'http://web2py.com/plugins'
p5199
tp5200
a(g4852
(S's\x07\x00\x00\x00Layouts'
tRp5201
I00
S'http://web2py.com/layouts'
p5202
tp5203
a(g4852
(S's\x07\x00\x00\x00Recipes'
tRp5204
I00
S'http://web2pyslices.com/'
p5205
tp5206
a(g4852
(S's\x08\x00\x00\x00Semantic'
tRp5207
I00
S'http://web2py.com/semantic'
p5208
tp5209
aasbasbasbasbasbasbasbag63
(g79
g65
NtRp5210
(dp5211
g68
(dp5212
sg77
g4967
sg70
(lp5213
g63
(g84
g65
NtRp5214
(dp5215
g68
(dp5216
sg77
g5210
sg70
(lp5217
g63
(g64
g65
NtRp5218
(dp5219
g68
(dp5220
g76
I2
ssg77
g5214
sg70
(lp5221
g63
(g72
g65
NtRp5222
(dp5223
g68
(dp5224
g76
I1
ssg77
Nsg70
(lp5225
g63
(g79
g65
NtRp5226
(dp5227
g68
(dp5228
sg77
g5222
sg70
(lp5229
g63
(g84
g65
NtRp5230
(dp5231
g68
(dp5232
sg77
g5226
sg70
(lp5233
g63
(g64
g65
NtRp5234
(dp5235
g68
(dp5236
g76
I1
ssg77
g5230
sg70
(lp5237
g4852
(S's\r\x00\x00\x00Documentation'
tRp5238
asbasbasbag63
(g79
g65
NtRp5239
(dp5240
g68
(dp5241
sg77
g5222
sg70
(lp5242
g63
(g84
g65
NtRp5243
(dp5244
g68
(dp5245
sg77
g5239
sg70
(lp5246
g63
(g64
g65
NtRp5247
(dp5248
g68
(dp5249
g76
I1
ssg77
g5243
sg70
(lp5250
I00
asbasbasbag63
(g79
g65
NtRp5251
(dp5252
g68
(dp5253
sg77
g5222
sg70
(lp5254
g63
(g84
g65
NtRp5255
(dp5256
g68
(dp5257
sg77
g5251
sg70
(lp5258
g63
(g64
g65
NtRp5259
(dp5260
g68
(dp5261
g76
I1
ssg77
g5255
sg70
(lp5262
S'http://www.web2py.com/book'
p5263
asbasbasbag63
(g79
g65
NtRp5264
(dp5265
g68
(dp5266
sg77
g5222
sg70
(lp5267
g63
(g84
g65
NtRp5268
(dp5269
g68
(dp5270
sg77
g5264
sg70
(lp5271
g63
(g64
g65
NtRp5272
(dp5273
g68
(dp5274
g76
I1
ssg77
g5268
sg70
(lp5275
(lp5276
(g4852
(S's\x07\x00\x00\x00Preface'
tRp5277
I00
S'http://www.web2py.com/book/default/chapter/00'
p5278
tp5279
a(g4852
(S's\x0c\x00\x00\x00Introduction'
tRp5280
I00
S'http://www.web2py.com/book/default/chapter/01'
p5281
tp5282
a(g4852
(S's\x06\x00\x00\x00Python'
tRp5283
I00
S'http://www.web2py.com/book/default/chapter/02'
p5284
tp5285
a(g4852
(S's\x08\x00\x00\x00Overview'
tRp5286
I00
S'http://www.web2py.com/book/default/chapter/03'
p5287
tp5288
a(g4852
(S's\x08\x00\x00\x00The Core'
tRp5289
I00
S'http://www.web2py.com/book/default/chapter/04'
p5290
tp5291
a(g4852
(S's\t\x00\x00\x00The Views'
tRp5292
I00
S'http://www.web2py.com/book/default/chapter/05'
p5293
tp5294
a(g4852
(S's\x08\x00\x00\x00Database'
tRp5295
I00
S'http://www.web2py.com/book/default/chapter/06'
p5296
tp5297
a(g4852
(S's\x14\x00\x00\x00Forms and Validators'
tRp5298
I00
S'http://www.web2py.com/book/default/chapter/07'
p5299
tp5300
a(g4852
(S's\r\x00\x00\x00Email and SMS'
tRp5301
I00
S'http://www.web2py.com/book/default/chapter/08'
p5302
tp5303
a(g4852
(S's\x0e\x00\x00\x00Access Control'
tRp5304
I00
S'http://www.web2py.com/book/default/chapter/09'
p5305
tp5306
a(g4852
(S's\x08\x00\x00\x00Services'
tRp5307
I00
S'http://www.web2py.com/book/default/chapter/10'
p5308
tp5309
a(g4852
(S's\x0c\x00\x00\x00Ajax Recipes'
tRp5310
I00
S'http://www.web2py.com/book/default/chapter/11'
p5311
tp5312
a(g4852
(S's\x16\x00\x00\x00Components and Plugins'
tRp5313
I00
S'http://www.web2py.com/book/default/chapter/12'
p5314
tp5315
a(g4852
(S's\x12\x00\x00\x00Deployment Recipes'
tRp5316
I00
S'http://www.web2py.com/book/default/chapter/13'
p5317
tp5318
a(g4852
(S's\r\x00\x00\x00Other Recipes'
tRp5319
I00
S'http://www.web2py.com/book/default/chapter/14'
p5320
tp5321
a(g4852
(S's\r\x00\x00\x00Buy this book'
tRp5322
I00
S'http://stores.lulu.com/web2py'
p5323
tp5324
aasbasbasbasbasbasbasbag63
(g79
g65
NtRp5325
(dp5326
g68
(dp5327
sg77
g4967
sg70
(lp5328
g63
(g84
g65
NtRp5329
(dp5330
g68
(dp5331
sg77
g5325
sg70
(lp5332
g63
(g64
g65
NtRp5333
(dp5334
g68
(dp5335
g76
I2
ssg77
g5329
sg70
(lp5336
g63
(g72
g65
NtRp5337
(dp5338
g68
(dp5339
g76
I1
ssg77
Nsg70
(lp5340
g63
(g79
g65
NtRp5341
(dp5342
g68
(dp5343
sg77
g5337
sg70
(lp5344
g63
(g84
g65
NtRp5345
(dp5346
g68
(dp5347
sg77
g5341
sg70
(lp5348
g63
(g64
g65
NtRp5349
(dp5350
g68
(dp5351
g76
I1
ssg77
g5345
sg70
(lp5352
g4852
(S's\t\x00\x00\x00Community'
tRp5353
asbasbasbag63
(g79
g65
NtRp5354
(dp5355
g68
(dp5356
sg77
g5337
sg70
(lp5357
g63
(g84
g65
NtRp5358
(dp5359
g68
(dp5360
sg77
g5354
sg70
(lp5361
g63
(g64
g65
NtRp5362
(dp5363
g68
(dp5364
g76
I1
ssg77
g5358
sg70
(lp5365
I00
asbasbasbag63
(g79
g65
NtRp5366
(dp5367
g68
(dp5368
sg77
g5337
sg70
(lp5369
g63
(g84
g65
NtRp5370
(dp5371
g68
(dp5372
sg77
g5366
sg70
(lp5373
g63
(g64
g65
NtRp5374
(dp5375
g68
(dp5376
g76
I1
ssg77
g5370
sg70
(lp5377
Nasbasbasbag63
(g79
g65
NtRp5378
(dp5379
g68
(dp5380
sg77
g5337
sg70
(lp5381
g63
(g84
g65
NtRp5382
(dp5383
g68
(dp5384
sg77
g5378
sg70
(lp5385
g63
(g64
g65
NtRp5386
(dp5387
g68
(dp5388
g76
I1
ssg77
g5382
sg70
(lp5389
(lp5390
(g4852
(S's\x06\x00\x00\x00Groups'
tRp5391
I00
S'http://www.web2py.com/examples/default/usergroups'
p5392
tp5393
a(g4852
(S's\x07\x00\x00\x00Twitter'
tRp5394
I00
S'http://twitter.com/web2py'
p5395
tp5396
a(g4852
(S's\t\x00\x00\x00Live Chat'
tRp5397
I00
S'http://webchat.freenode.net/?channels=web2py'
p5398
tp5399
aasbasbasbasbasbasbasbag63
(g79
g65
NtRp5400
(dp5401
g68
(dp5402
sg77
g4967
sg70
(lp5403
g63
(g84
g65
NtRp5404
(dp5405
g68
(dp5406
sg77
g5400
sg70
(lp5407
g63
(g64
g65
NtRp5408
(dp5409
g68
(dp5410
g76
I2
ssg77
g5404
sg70
(lp5411
g63
(g72
g65
NtRp5412
(dp5413
g68
(dp5414
g76
I1
ssg77
Nsg70
(lp5415
g63
(g79
g65
NtRp5416
(dp5417
g68
(dp5418
sg77
g5412
sg70
(lp5419
g63
(g84
g65
NtRp5420
(dp5421
g68
(dp5422
sg77
g5416
sg70
(lp5423
g63
(g64
g65
NtRp5424
(dp5425
g68
(dp5426
g76
I1
ssg77
g5420
sg70
(lp5427
g4852
(S's\x07\x00\x00\x00Plugins'
tRp5428
asbasbasbag63
(g79
g65
NtRp5429
(dp5430
g68
(dp5431
sg77
g5412
sg70
(lp5432
g63
(g84
g65
NtRp5433
(dp5434
g68
(dp5435
sg77
g5429
sg70
(lp5436
g63
(g64
g65
NtRp5437
(dp5438
g68
(dp5439
g76
I1
ssg77
g5433
sg70
(lp5440
I00
asbasbasbag63
(g79
g65
NtRp5441
(dp5442
g68
(dp5443
sg77
g5412
sg70
(lp5444
g63
(g84
g65
NtRp5445
(dp5446
g68
(dp5447
sg77
g5441
sg70
(lp5448
g63
(g64
g65
NtRp5449
(dp5450
g68
(dp5451
g76
I1
ssg77
g5445
sg70
(lp5452
Nasbasbasbag63
(g79
g65
NtRp5453
(dp5454
g68
(dp5455
sg77
g5412
sg70
(lp5456
g63
(g84
g65
NtRp5457
(dp5458
g68
(dp5459
sg77
g5453
sg70
(lp5460
g63
(g64
g65
NtRp5461
(dp5462
g68
(dp5463
g76
I1
ssg77
g5457
sg70
(lp5464
(lp5465
(S'plugin_wiki'
p5466
I00
S'http://web2py.com/examples/default/download'
p5467
tp5468
a(g4852
(S's\r\x00\x00\x00Other Plugins'
tRp5469
I00
g5199
tp5470
a(g4852
(S's\x0e\x00\x00\x00Layout Plugins'
tRp5471
I00
g5202
tp5472
aasbasbasbasbasbasbasbasbasbasbasbasbasbasbasbasbasbasbasbag63
(g79
g65
NtRp5473
(dp5474
g68
(dp5475
sg77
g4361
sg70
(lp5476
g63
(g84
g65
NtRp5477
(dp5478
g68
(dp5479
g88
g89
ssg77
g5473
sg70
(lp5480
S'meta'
p5481
asbag63
(g84
g65
NtRp5482
(dp5483
g68
(dp5484
g95
g96
ssg77
g5473
sg70
(lp5485
S':'
asbag63
(g84
g65
NtRp5486
(dp5487
g68
(dp5488
sg77
g5473
sg70
(lp5489
g63
(g64
g65
NtRp5490
(dp5491
g68
(dp5492
g76
I5
ssg77
g5486
sg70
(lp5493
g63
(g72
g65
NtRp5494
(dp5495
g68
(dp5496
g76
I4
ssg77
Nsg70
(lp5497
g63
(g79
g65
NtRp5498
(dp5499
g68
(dp5500
sg77
g5494
sg70
(lp5501
g63
(g84
g65
NtRp5502
(dp5503
g68
(dp5504
g88
g89
ssg77
g5498
sg70
(lp5505
S'author'
p5506
asbag63
(g84
g65
NtRp5507
(dp5508
g68
(dp5509
g95
g96
ssg77
g5498
sg70
(lp5510
S':'
asbag63
(g84
g65
NtRp5511
(dp5512
g68
(dp5513
sg77
g5498
sg70
(lp5514
g63
(g64
g65
NtRp5515
(dp5516
g68
(dp5517
g76
I4
ssg77
g5511
sg70
(lp5518
S'Your Name <you@example.com>'
p5519
asbasbasbag63
(g79
g65
NtRp5520
(dp5521
g68
(dp5522
sg77
g5494
sg70
(lp5523
g63
(g84
g65
NtRp5524
(dp5525
g68
(dp5526
g88
g89
ssg77
g5520
sg70
(lp5527
S'description'
p5528
asbag63
(g84
g65
NtRp5529
(dp5530
g68
(dp5531
g95
g96
ssg77
g5520
sg70
(lp5532
S':'
asbag63
(g84
g65
NtRp5533
(dp5534
g68
(dp5535
sg77
g5520
sg70
(lp5536
g63
(g64
g65
NtRp5537
(dp5538
g68
(dp5539
g76
I4
ssg77
g5533
sg70
(lp5540
S'a cool new app'
p5541
asbasbasbag63
(g79
g65
NtRp5542
(dp5543
g68
(dp5544
sg77
g5494
sg70
(lp5545
g63
(g84
g65
NtRp5546
(dp5547
g68
(dp5548
g88
g89
ssg77
g5542
sg70
(lp5549
S'generator'
p5550
asbag63
(g84
g65
NtRp5551
(dp5552
g68
(dp5553
g95
g96
ssg77
g5542
sg70
(lp5554
S':'
asbag63
(g84
g65
NtRp5555
(dp5556
g68
(dp5557
sg77
g5542
sg70
(lp5558
g63
(g64
g65
NtRp5559
(dp5560
g68
(dp5561
g76
I4
ssg77
g5555
sg70
(lp5562
S'Web2py Web Framework'
p5563
asbasbasbag63
(g79
g65
NtRp5564
(dp5565
g68
(dp5566
sg77
g5494
sg70
(lp5567
g63
(g84
g65
NtRp5568
(dp5569
g68
(dp5570
g88
g89
ssg77
g5564
sg70
(lp5571
S'keywords'
p5572
asbag63
(g84
g65
NtRp5573
(dp5574
g68
(dp5575
g95
g96
ssg77
g5564
sg70
(lp5576
S':'
asbag63
(g84
g65
NtRp5577
(dp5578
g68
(dp5579
sg77
g5564
sg70
(lp5580
g63
(g64
g65
NtRp5581
(dp5582
g68
(dp5583
g76
I4
ssg77
g5577
sg70
(lp5584
S'web2py, python, framework'
p5585
asbasbasbasbasbasbasbag63
(g79
g65
NtRp5586
(dp5587
g68
(dp5588
sg77
g4361
sg70
(lp5589
g63
(g84
g65
NtRp5590
(dp5591
g68
(dp5592
g88
g89
ssg77
g5586
sg70
(lp5593
S'models_to_run'
p5594
asbag63
(g84
g65
NtRp5595
(dp5596
g68
(dp5597
g95
g96
ssg77
g5586
sg70
(lp5598
S':'
asbag63
(g84
g65
NtRp5599
(dp5600
g68
(dp5601
sg77
g5586
sg70
(lp5602
g63
(g64
g65
NtRp5603
(dp5604
g68
(dp5605
g76
I5
ssg77
g5599
sg70
(lp5606
g63
(g72
g65
NtRp5607
(dp5608
g68
(dp5609
g76
I4
ssg77
Nsg70
(lp5610
g63
(g79
g65
NtRp5611
(dp5612
g68
(dp5613
sg77
g5607
sg70
(lp5614
g63
(g84
g65
NtRp5615
(dp5616
g68
(dp5617
sg77
g5611
sg70
(lp5618
g63
(g64
g65
NtRp5619
(dp5620
g68
(dp5621
g76
I4
ssg77
g5615
sg70
(lp5622
S'^\\w+\\.py$'
p5623
asbasbasbag63
(g79
g65
NtRp5624
(dp5625
g68
(dp5626
sg77
g5607
sg70
(lp5627
g63
(g84
g65
NtRp5628
(dp5629
g68
(dp5630
sg77
g5624
sg70
(lp5631
g63
(g64
g65
NtRp5632
(dp5633
g68
(dp5634
g76
I4
ssg77
g5628
sg70
(lp5635
S'^default/\\w+\\.py$'
p5636
asbasbasbag63
(g79
g65
NtRp5637
(dp5638
g68
(dp5639
sg77
g5607
sg70
(lp5640
g63
(g84
g65
NtRp5641
(dp5642
g68
(dp5643
sg77
g5637
sg70
(lp5644
g63
(g64
g65
NtRp5645
(dp5646
g68
(dp5647
g76
I4
ssg77
g5641
sg70
(lp5648
S'^default/result_folder/\\w+\\.py$'
p5649
asbasbasbasbasbasbasbag63
(g79
g65
NtRp5650
(dp5651
g68
(dp5652
sg77
g4361
sg70
(lp5653
g63
(g84
g65
NtRp5654
(dp5655
g68
(dp5656
g88
g89
ssg77
g5650
sg70
(lp5657
S'postprocessing'
p5658
asbag63
(g84
g65
NtRp5659
(dp5660
g68
(dp5661
g95
g96
ssg77
g5650
sg70
(lp5662
S':'
asbag63
(g84
g65
NtRp5663
(dp5664
g68
(dp5665
sg77
g5650
sg70
(lp5666
g63
(g64
g65
NtRp5667
(dp5668
g68
(dp5669
g76
I5
ssg77
g5663
sg70
(lp5670
g63
(g72
g65
NtRp5671
(dp5672
g68
(dp5673
g76
I4
ssg77
Nsg70
(lp5674
sbasbasbasbag63
(g79
g65
NtRp5675
(dp5676
g68
(dp5677
sg77
g4361
sg70
(lp5678
g63
(g84
g65
NtRp5679
(dp5680
g68
(dp5681
g88
g89
ssg77
g5675
sg70
(lp5682
S'session_cookie_expires'
p5683
asbag63
(g84
g65
NtRp5684
(dp5685
g68
(dp5686
g95
g96
ssg77
g5675
sg70
(lp5687
S':'
asbag63
(g84
g65
NtRp5688
(dp5689
g68
(dp5690
sg77
g5675
sg70
(lp5691
g63
(g64
g65
NtRp5692
(dp5693
g68
(dp5694
g76
I5
ssg77
g5688
sg70
(lp5695
S'None'
p5696
asbasbasbag63
(g79
g65
NtRp5697
(dp5698
g68
(dp5699
sg77
g4361
sg70
(lp5700
g63
(g84
g65
NtRp5701
(dp5702
g68
(dp5703
g88
g89
ssg77
g5697
sg70
(lp5704
S'session_data_name'
p5705
asbag63
(g84
g65
NtRp5706
(dp5707
g68
(dp5708
g95
g96
ssg77
g5697
sg70
(lp5709
S':'
asbag63
(g84
g65
NtRp5710
(dp5711
g68
(dp5712
sg77
g5697
sg70
(lp5713
g63
(g64
g65
NtRp5714
(dp5715
g68
(dp5716
g76
I5
ssg77
g5710
sg70
(lp5717
S'session_data_betsy'
p5718
asbasbasbag63
(g79
g65
NtRp5719
(dp5720
g68
(dp5721
sg77
g4361
sg70
(lp5722
g63
(g84
g65
NtRp5723
(dp5724
g68
(dp5725
g88
g89
ssg77
g5719
sg70
(lp5726
S'session_file'
p5727
asbag63
(g84
g65
NtRp5728
(dp5729
g68
(dp5730
g95
g96
ssg77
g5719
sg70
(lp5731
S':'
asbag63
(g84
g65
NtRp5732
(dp5733
g68
(dp5734
sg77
g5719
sg70
(lp5735
g63
(g64
g65
NtRp5736
(dp5737
g68
(dp5738
g76
I5
ssg77
g5732
sg70
(lp5739
S"<open file '/home/xchen/web2py/applications/Betsy/sessions/127.0.0.1-70d52105-0f5d-4884-a4e3-dce6830f30e0', mode 'rb+' at 0x1f477d20>"
p5740
asbasbasbag63
(g79
g65
NtRp5741
(dp5742
g68
(dp5743
sg77
g4361
sg70
(lp5744
g63
(g84
g65
NtRp5745
(dp5746
g68
(dp5747
g88
g89
ssg77
g5741
sg70
(lp5748
S'session_filename'
p5749
asbag63
(g84
g65
NtRp5750
(dp5751
g68
(dp5752
g95
g96
ssg77
g5741
sg70
(lp5753
S':'
asbag63
(g84
g65
NtRp5754
(dp5755
g68
(dp5756
sg77
g5741
sg70
(lp5757
g63
(g64
g65
NtRp5758
(dp5759
g68
(dp5760
g76
I5
ssg77
g5754
sg70
(lp5761
S'/home/xchen/web2py/applications/Betsy/sessions/127.0.0.1-70d52105-0f5d-4884-a4e3-dce6830f30e0'
p5762
asbasbasbag63
(g79
g65
NtRp5763
(dp5764
g68
(dp5765
sg77
g4361
sg70
(lp5766
g63
(g84
g65
NtRp5767
(dp5768
g68
(dp5769
g88
g89
ssg77
g5763
sg70
(lp5770
S'session_id'
p5771
asbag63
(g84
g65
NtRp5772
(dp5773
g68
(dp5774
g95
g96
ssg77
g5763
sg70
(lp5775
S':'
asbag63
(g84
g65
NtRp5776
(dp5777
g68
(dp5778
sg77
g5763
sg70
(lp5779
g63
(g64
g65
NtRp5780
(dp5781
g68
(dp5782
g76
I5
ssg77
g5776
sg70
(lp5783
g507
asbasbasbag63
(g79
g65
NtRp5784
(dp5785
g68
(dp5786
sg77
g4361
sg70
(lp5787
g63
(g84
g65
NtRp5788
(dp5789
g68
(dp5790
g88
g89
ssg77
g5784
sg70
(lp5791
S'session_id_name'
p5792
asbag63
(g84
g65
NtRp5793
(dp5794
g68
(dp5795
g95
g96
ssg77
g5784
sg70
(lp5796
S':'
asbag63
(g84
g65
NtRp5797
(dp5798
g68
(dp5799
sg77
g5784
sg70
(lp5800
g63
(g64
g65
NtRp5801
(dp5802
g68
(dp5803
g76
I5
ssg77
g5797
sg70
(lp5804
g4418
asbasbasbag63
(g79
g65
NtRp5805
(dp5806
g68
(dp5807
sg77
g4361
sg70
(lp5808
g63
(g84
g65
NtRp5809
(dp5810
g68
(dp5811
g88
g89
ssg77
g5805
sg70
(lp5812
S'session_locked'
p5813
asbag63
(g84
g65
NtRp5814
(dp5815
g68
(dp5816
g95
g96
ssg77
g5805
sg70
(lp5817
S':'
asbag63
(g84
g65
NtRp5818
(dp5819
g68
(dp5820
sg77
g5805
sg70
(lp5821
g63
(g64
g65
NtRp5822
(dp5823
g68
(dp5824
g76
I5
ssg77
g5818
sg70
(lp5825
g2172
asbasbasbag63
(g79
g65
NtRp5826
(dp5827
g68
(dp5828
sg77
g4361
sg70
(lp5829
g63
(g84
g65
NtRp5830
(dp5831
g68
(dp5832
g88
g89
ssg77
g5826
sg70
(lp5833
S'session_new'
p5834
asbag63
(g84
g65
NtRp5835
(dp5836
g68
(dp5837
g95
g96
ssg77
g5826
sg70
(lp5838
S':'
asbag63
(g84
g65
NtRp5839
(dp5840
g68
(dp5841
sg77
g5826
sg70
(lp5842
g63
(g64
g65
NtRp5843
(dp5844
g68
(dp5845
g76
I5
ssg77
g5839
sg70
(lp5846
g106
asbasbasbag63
(g79
g65
NtRp5847
(dp5848
g68
(dp5849
sg77
g4361
sg70
(lp5850
g63
(g84
g65
NtRp5851
(dp5852
g68
(dp5853
g88
g89
ssg77
g5847
sg70
(lp5854
S'session_storage_type'
p5855
asbag63
(g84
g65
NtRp5856
(dp5857
g68
(dp5858
g95
g96
ssg77
g5847
sg70
(lp5859
S':'
asbag63
(g84
g65
NtRp5860
(dp5861
g68
(dp5862
sg77
g5847
sg70
(lp5863
g63
(g64
g65
NtRp5864
(dp5865
g68
(dp5866
g76
I5
ssg77
g5860
sg70
(lp5867
g3604
asbasbasbag63
(g79
g65
NtRp5868
(dp5869
g68
(dp5870
sg77
g4361
sg70
(lp5871
g63
(g84
g65
NtRp5872
(dp5873
g68
(dp5874
g88
g89
ssg77
g5868
sg70
(lp5875
S'status'
p5876
asbag63
(g84
g65
NtRp5877
(dp5878
g68
(dp5879
g95
g96
ssg77
g5868
sg70
(lp5880
S':'
asbag63
(g84
g65
NtRp5881
(dp5882
g68
(dp5883
sg77
g5868
sg70
(lp5884
g63
(g64
g65
NtRp5885
(dp5886
g68
(dp5887
g76
I5
ssg77
g5881
sg70
(lp5888
S'200'
p5889
asbasbasbag63
(g79
g65
NtRp5890
(dp5891
g68
(dp5892
sg77
g4361
sg70
(lp5893
g63
(g84
g65
NtRp5894
(dp5895
g68
(dp5896
g88
g89
ssg77
g5890
sg70
(lp5897
S'subtitle'
p5898
asbag63
(g84
g65
NtRp5899
(dp5900
g68
(dp5901
g95
g96
ssg77
g5890
sg70
(lp5902
S':'
asbag63
(g84
g65
NtRp5903
(dp5904
g68
(dp5905
sg77
g5890
sg70
(lp5906
g63
(g64
g65
NtRp5907
(dp5908
g68
(dp5909
g76
I5
ssg77
g5903
sg70
(lp5910
g4852
(S's\r\x00\x00\x00customize me!'
tRp5911
asbasbasbag63
(g79
g65
NtRp5912
(dp5913
g68
(dp5914
sg77
g4361
sg70
(lp5915
g63
(g84
g65
NtRp5916
(dp5917
g68
(dp5918
g88
g89
ssg77
g5912
sg70
(lp5919
S'title'
p5920
asbag63
(g84
g65
NtRp5921
(dp5922
g68
(dp5923
g95
g96
ssg77
g5912
sg70
(lp5924
S':'
asbag63
(g84
g65
NtRp5925
(dp5926
g68
(dp5927
sg77
g5912
sg70
(lp5928
g63
(g64
g65
NtRp5929
(dp5930
g68
(dp5931
g76
I5
ssg77
g5925
sg70
(lp5932
S'Betsy'
p5933
asbasbasbag63
(g79
g65
NtRp5934
(dp5935
g68
(dp5936
sg77
g4361
sg70
(lp5937
g63
(g84
g65
NtRp5938
(dp5939
g68
(dp5940
g88
g89
ssg77
g5934
sg70
(lp5941
S'view'
p5942
asbag63
(g84
g65
NtRp5943
(dp5944
g68
(dp5945
g95
g96
ssg77
g5934
sg70
(lp5946
S':'
asbag63
(g84
g65
NtRp5947
(dp5948
g68
(dp5949
sg77
g5934
sg70
(lp5950
g63
(g64
g65
NtRp5951
(dp5952
g68
(dp5953
g76
I5
ssg77
g5947
sg70
(lp5954
S'default/result_folder.html'
p5955
asbasbasbasbasbsS'locals'
p5956
(dp5957
g431
S"'/home/xchen/web2py/applications/Betsy/result_fil...robes_BETSYHASH1_b1f614a2950cb2af2d6bd155a72232b7'"
p5958
sg2295
S"''"
p5959
sS'name'
p5960
S"'annotate_probes_BETSYHASH1_b1f614a2950cb2af2d6bd155a72232b7'"
p5961
sg36
S"'annotate_probes_BETSYHASH1_b1f614a2950cb2af2d6bd155a72232b7'"
p5962
sssS'traceback'
p5963
S'Traceback (most recent call last):\n  File "/home/xchen/web2py/gluon/restricted.py", line 212, in restricted\n    exec ccode in environment\n  File "/home/xchen/web2py/applications/Betsy/controllers/default.py", line 390, in <module>\n  File "/home/xchen/web2py/gluon/globals.py", line 188, in <lambda>\n    self._caller = lambda f: f()\n  File "/home/xchen/web2py/applications/Betsy/controllers/default.py", line 334, in result_folder\n    return open(path,\'rb\').read()\nIOError: [Errno 21] Is a directory: \'/home/xchen/web2py/applications/Betsy/result_files/annotate_probes_BETSYHASH1_b1f614a2950cb2af2d6bd155a72232b7\'\n'
p5964
s.