(dp1
S'output'
p2
S"<type 'exceptions.IOError'> [Errno 21] Is a directory: '/home/xchen/chencode/examples/sample_analysis/plot_geneset_score_bar_BETSYHASH1_457d4227d5519d3cca8b7ab6e9e9fa34/geneset_plot_path.9313471497d9b3e3.73653266706c617465365f34382e696c6c752e677a'"
p3
sS'layer'
p4
S'/home/xchen/web2py/applications/Betsy/controllers/default.py'
p5
sS'code'
p6
S'# -*- coding: utf-8 -*-\n\nupload_path = \'/home/xchen/chencode/upload/\'\n\ndef status():\n    return dict(request=request,session=session,response=response)\n\n@auth.requires_login()\ndef index():\n    import os\n    form_queue = FORM(INPUT(_type=\'submit\',_value=\'show jobs status\',_name=\'status\'))\n    result=dict(form_queue=form_queue)\n    for label in labels:\n        vars()[\'form_\'+ label]=FORM(INPUT(_type=\'submit\',_value=label,_name=label))\n        result[\'form_\'+ label]=vars()[\'form_\'+ label]\n    if form_queue.process(formname=\'status\').accepted:\n        redirect(URL(\'show_status\'))\n    for label in labels:\n         if vars()[\'form_\'+ label].process(formname=label).accepted:\n             session.label = label\n             request.args = [label]\n             redirect(URL(\'protocol\',args=request.args))\n    return result\n    \n\ndef protocol():\n    x = get_protocol_info(session.label)\n    protocol_parameters,protocol_inputs,protocol_default,protocol_common, protocol_normalize,protocol_option = x\n    fields = create_form(protocol_inputs,protocol_parameters,protocol_default)\n    form=SQLFORM.factory(*fields)\n    form_queue = FORM(INPUT(_type=\'submit\',_value=\'show jobs status\'))\n    if form.process().accepted:\n        form_value = form.vars\n        input_file,command_parameters = create_command(form_value)\n        session.parameters = command_parameters\n        session.input_file = input_file\n        session.protocol = session.label\n        redirect(URL(\'submit_job\'))\n    if form_queue.process().accepted:\n        redirect(URL(\'show_status\'))\n    return dict(form=form,form_queue=form_queue,protocol_label=session.label,\n                protocol_inputs=protocol_inputs,protocol_common=protocol_common,\n                protocol_normalize=protocol_normalize,protocol_option=protocol_option)\n    \n\ndef show_status():\n    import subprocess\n    all_cmd = [\'python\',\'/home/xchen/queue/queue.py\',\'--list\']    \n    process = subprocess.Popen(all_cmd, shell=False,\n                               stdout=subprocess.PIPE,\n                               stderr=subprocess.STDOUT)\n    process.wait()\n    log_information = process.stdout.read().split(\'\\n\')[1:]\n    log_information = [i for i in log_information if i]\n    for log_line in log_information:\n        lines = log_line.split(\'\\t\')\n        db.status.update_or_insert(db.status.Jobnumber==lines[0],Jobnumber=lines[0],\n                Jobname=lines[1], Status=lines[2], Started=lines[3],\n                Ended=lines[4],Submitted=lines[5],Command=lines[6])\n    form=db().select(db.status.ALL)\n    return dict(form=form)\n\n    \n\ndef show_job():\n    "show a job page"\n    session.output=[]\n    show_status()\n    this_job = db.status(request.args(0)) or redirect(URL(\'index\'))\n    db.status.id.default=this_job.id\n    text = \'\'\n    newtext=\'\'\n    if  this_job.Status in [\'running\',\'completed\']:\n        hash_string = hash_command(this_job.Submitted,this_job.Command)\n        pro_file = os.path.join(\'/home/xchen/queue/processing_info/\', hash_string+\'.txt\')\n        f=file(pro_file,\'r\')\n        text = f.read().split(\'\\n\')\n        f.close()\n        newtext=text[:]\n        for i in range(len(text)):\n            if text[i].startswith(\'Report:\'):\n                text[i]=text[i][7:]\n            if os.path.exists(text[i].strip()):\n                newtext[i]=os.path.join(text[i].strip().split(\'/\')[-2:])\n            else:\n                newtext[i]=text[i]\n    info = \'Job is \' + this_job.Status\n    return dict(job=this_job,info=info,text=text,newtext=newtext,session=session)\n\n    \n\ndef submit_job():\n    import subprocess\n    cmd = [\'python\', \'/home/xchen/chencode/Betsy/scripts/run_protocol.py\', \n           \'--protocol\', session.protocol] + session.input_file  + session.parameters\n    all_cmd = [\'python\',\'/home/xchen/queue/queue.py\' ,\' \' .join(cmd)]\n    process = subprocess.Popen(all_cmd, shell=False,\n                               stdout=subprocess.PIPE,\n                               stderr=subprocess.STDOUT)    \n    process.wait()                      \n    redirect(URL(\'show_status\'))\n    return dict()\n\n    \ndef result_folder():\n    path = os.path.join(\'/home/xchen/chencode/examples/sample_analysis\',request.args[0]+\'/\'+request.args[1])\n    return open(path,\'rb\').read()\n\n    \ndef user():\n    """\n    exposes:\n    http://..../[app]/default/user/login\n    http://..../[app]/default/user/logout\n    http://..../[app]/default/user/register\n    http://..../[app]/default/user/profile\n    http://..../[app]/default/user/retrieve_password\n    http://..../[app]/default/user/change_password\n    use @auth.requires_login()\n        @auth.requires_membership(\'group name\')\n        @auth.requires_permission(\'read\',\'table name\',record_id)\n    to decorate functions that need access control\n    """\n    return dict(form=auth())\n\ndef download():\n    """\n    allows downloading of uploaded file\n    http://..../[app]/default/download/[filename]\n    """\n    return response.download(request, db)\n\n   \ndef call():\n    """\n    exposes services. for example:\n    http://..../[app]/default/call/jsonrpc\n    decorate with @services.jsonrpc the functions to expose\n    supports xml, json, xmlrpc, jsonrpc, amfrpc, rss, csv\n    """\n    return service()\n\n\n@auth.requires_signature()\ndef data():\n    """\n    http://..../[app]/default/data/tables\n    http://..../[app]/default/data/create/[table]\n    http://..../[app]/default/data/read/[table]/[id]\n    http://..../[app]/default/data/update/[table]/[id]\n    http://..../[app]/default/data/delete/[table]/[id]\n    http://..../[app]/default/data/select/[table]\n    http://..../[app]/default/data/search/[table]\n    but URLs must be signed, i.e. linked with\n      A(\'table\',_href=URL(\'data/tables\',user_signature=True))\n    or with the signed load operator\n      LOAD(\'default\',\'data.load\',args=\'tables\',ajax=True,user_signature=True)\n    """\n    return dict(form=crud())\n\n \n\n#currently saved or to previous version.\n#Key bindings\n\n#    Ctrl+S Save via Ajax\n#    Ctrl+F11 Toggle Fullscreen\n#    Ctrl-F / Cmd-F Start searching\n#    Ctrl-G / Cmd-G Find Next\n#    Shift-Ctrl-G / Shift-Cmd-G Find Previous\n#    Shift-Ctrl-F / Cmd-Option-F Replace\n#    Shift-Ctrl-R / Shift-Cmd-Option-F Replace All\n\n#Powered by web2py\xe2\x84\xa2 created by Massimo Di Pierro \xc2\xa92007-2013 - Admin language\n\nresponse._vars=response._caller(result_folder)\n'
p7
sS'snapshot'
p8
(dp9
S'exception'
p10
(dp11
S'__getslice__'
p12
S"<method-wrapper '__getslice__' of exceptions.IOError object>"
p13
sS'__str__'
p14
S"<method-wrapper '__str__' of exceptions.IOError object>"
p15
sS'__reduce__'
p16
S'<built-in method __reduce__ of exceptions.IOError object>'
p17
sS'__dict__'
p18
S'{}'
p19
sS'__sizeof__'
p20
S'<built-in method __sizeof__ of exceptions.IOError object>'
p21
sS'__init__'
p22
S"<method-wrapper '__init__' of exceptions.IOError object>"
p23
sS'__setattr__'
p24
S"<method-wrapper '__setattr__' of exceptions.IOError object>"
p25
sS'__reduce_ex__'
p26
S'<built-in method __reduce_ex__ of exceptions.IOError object>'
p27
sS'__new__'
p28
S'<built-in method __new__ of type object>'
p29
sS'errno'
p30
S'21'
p31
sS'__format__'
p32
S'<built-in method __format__ of exceptions.IOError object>'
p33
sS'__class__'
p34
S"<type 'exceptions.IOError'>"
p35
sS'filename'
p36
S"'/home/xchen/chencode/examples/sample_analysis/pl...d9b3e3.73653266706c617465365f34382e696c6c752e677a'"
p37
sS'__doc__'
p38
S"'I/O operation failed.'"
p39
sS'__getitem__'
p40
S"<method-wrapper '__getitem__' of exceptions.IOError object>"
p41
sS'__setstate__'
p42
S'<built-in method __setstate__ of exceptions.IOError object>'
p43
sS'__getattribute__'
p44
S"<method-wrapper '__getattribute__' of exceptions.IOError object>"
p45
sS'args'
p46
S"(21, 'Is a directory')"
p47
sS'__subclasshook__'
p48
S'<built-in method __subclasshook__ of type object>'
p49
sS'__unicode__'
p50
S'<built-in method __unicode__ of exceptions.IOError object>'
p51
sS'strerror'
p52
S"'Is a directory'"
p53
sS'__delattr__'
p54
S"<method-wrapper '__delattr__' of exceptions.IOError object>"
p55
sS'__repr__'
p56
S"<method-wrapper '__repr__' of exceptions.IOError object>"
p57
sS'__hash__'
p58
S"<method-wrapper '__hash__' of exceptions.IOError object>"
p59
ssS'evalue'
p60
S"[Errno 21] Is a directory: '/home/xchen/chencode/examples/sample_analysis/plot_geneset_score_bar_BETSYHASH1_457d4227d5519d3cca8b7ab6e9e9fa34/geneset_plot_path.9313471497d9b3e3.73653266706c617465365f34382e696c6c752e677a'"
p61
sS'request'
p62
ccopy_reg
_reconstructor
p63
(cgluon.html
BEAUTIFY
p64
c__builtin__
object
p65
NtRp66
(dp67
S'attributes'
p68
(dp69
sS'components'
p70
(lp71
g63
(cgluon.html
TABLE
p72
g65
NtRp73
(dp74
g68
(dp75
S'level'
p76
I5
ssS'parent'
p77
Nsg70
(lp78
g63
(cgluon.html
TR
p79
g65
NtRp80
(dp81
g68
(dp82
sg77
g73
sg70
(lp83
g63
(cgluon.html
TD
p84
g65
NtRp85
(dp86
g68
(dp87
S'_style'
p88
S'font-weight:bold;vertical-align:top'
p89
ssg77
g80
sg70
(lp90
S'ajax'
p91
asbag63
(g84
g65
NtRp92
(dp93
g68
(dp94
S'_valign'
p95
S'top'
p96
ssg77
g80
sg70
(lp97
S':'
asbag63
(g84
g65
NtRp98
(dp99
g68
(dp100
sg77
g80
sg70
(lp101
g63
(g64
g65
NtRp102
(dp103
g68
(dp104
g76
I5
ssg77
g98
sg70
(lp105
S'False'
p106
asbasbasbag63
(g79
g65
NtRp107
(dp108
g68
(dp109
sg77
g73
sg70
(lp110
g63
(g84
g65
NtRp111
(dp112
g68
(dp113
g88
g89
ssg77
g107
sg70
(lp114
S'application'
p115
asbag63
(g84
g65
NtRp116
(dp117
g68
(dp118
g95
g96
ssg77
g107
sg70
(lp119
S':'
asbag63
(g84
g65
NtRp120
(dp121
g68
(dp122
sg77
g107
sg70
(lp123
g63
(g64
g65
NtRp124
(dp125
g68
(dp126
g76
I5
ssg77
g120
sg70
(lp127
S'Betsy'
p128
asbasbasbag63
(g79
g65
NtRp129
(dp130
g68
(dp131
sg77
g73
sg70
(lp132
g63
(g84
g65
NtRp133
(dp134
g68
(dp135
g88
g89
ssg77
g129
sg70
(lp136
g46
asbag63
(g84
g65
NtRp137
(dp138
g68
(dp139
g95
g96
ssg77
g129
sg70
(lp140
S':'
asbag63
(g84
g65
NtRp141
(dp142
g68
(dp143
sg77
g129
sg70
(lp144
g63
(g64
g65
NtRp145
(dp146
g68
(dp147
g76
I5
ssg77
g141
sg70
(lp148
g63
(g72
g65
NtRp149
(dp150
g68
(dp151
g76
I4
ssg77
Nsg70
(lp152
g63
(g79
g65
NtRp153
(dp154
g68
(dp155
sg77
g149
sg70
(lp156
g63
(g84
g65
NtRp157
(dp158
g68
(dp159
sg77
g153
sg70
(lp160
g63
(g64
g65
NtRp161
(dp162
g68
(dp163
g76
I4
ssg77
g157
sg70
(lp164
S'plot_geneset_score_bar_BETSYHASH1_457d4227d5519d3cca8b7ab6e9e9fa34'
p165
asbasbasbag63
(g79
g65
NtRp166
(dp167
g68
(dp168
sg77
g149
sg70
(lp169
g63
(g84
g65
NtRp170
(dp171
g68
(dp172
sg77
g166
sg70
(lp173
g63
(g64
g65
NtRp174
(dp175
g68
(dp176
g76
I4
ssg77
g170
sg70
(lp177
S'geneset_plot_path.9313471497d9b3e3.73653266706c617465365f34382e696c6c752e677a'
p178
asbasbasbasbasbasbasbag63
(g79
g65
NtRp179
(dp180
g68
(dp181
sg77
g73
sg70
(lp182
g63
(g84
g65
NtRp183
(dp184
g68
(dp185
g88
g89
ssg77
g179
sg70
(lp186
S'body'
p187
asbag63
(g84
g65
NtRp188
(dp189
g68
(dp190
g95
g96
ssg77
g179
sg70
(lp191
S':'
asbag63
(g84
g65
NtRp192
(dp193
g68
(dp194
sg77
g179
sg70
(lp195
g63
(g64
g65
NtRp196
(dp197
g68
(dp198
g76
I5
ssg77
g192
sg70
(lp199
S'<cStringIO.StringO object at 0x200af880>'
p200
asbasbasbag63
(g79
g65
NtRp201
(dp202
g68
(dp203
sg77
g73
sg70
(lp204
g63
(g84
g65
NtRp205
(dp206
g68
(dp207
g88
g89
ssg77
g201
sg70
(lp208
S'cid'
p209
asbag63
(g84
g65
NtRp210
(dp211
g68
(dp212
g95
g96
ssg77
g201
sg70
(lp213
S':'
asbag63
(g84
g65
NtRp214
(dp215
g68
(dp216
sg77
g201
sg70
(lp217
g63
(g64
g65
NtRp218
(dp219
g68
(dp220
g76
I5
ssg77
g214
sg70
(lp221
S'None'
p222
asbasbasbag63
(g79
g65
NtRp223
(dp224
g68
(dp225
sg77
g73
sg70
(lp226
g63
(g84
g65
NtRp227
(dp228
g68
(dp229
g88
g89
ssg77
g223
sg70
(lp230
S'client'
p231
asbag63
(g84
g65
NtRp232
(dp233
g68
(dp234
g95
g96
ssg77
g223
sg70
(lp235
S':'
asbag63
(g84
g65
NtRp236
(dp237
g68
(dp238
sg77
g223
sg70
(lp239
g63
(g64
g65
NtRp240
(dp241
g68
(dp242
g76
I5
ssg77
g236
sg70
(lp243
S'127.0.0.1'
p244
asbasbasbag63
(g79
g65
NtRp245
(dp246
g68
(dp247
sg77
g73
sg70
(lp248
g63
(g84
g65
NtRp249
(dp250
g68
(dp251
g88
g89
ssg77
g245
sg70
(lp252
S'controller'
p253
asbag63
(g84
g65
NtRp254
(dp255
g68
(dp256
g95
g96
ssg77
g245
sg70
(lp257
S':'
asbag63
(g84
g65
NtRp258
(dp259
g68
(dp260
sg77
g245
sg70
(lp261
g63
(g64
g65
NtRp262
(dp263
g68
(dp264
g76
I5
ssg77
g258
sg70
(lp265
S'default'
p266
asbasbasbag63
(g79
g65
NtRp267
(dp268
g68
(dp269
sg77
g73
sg70
(lp270
g63
(g84
g65
NtRp271
(dp272
g68
(dp273
g88
g89
ssg77
g267
sg70
(lp274
S'cookies'
p275
asbag63
(g84
g65
NtRp276
(dp277
g68
(dp278
g95
g96
ssg77
g267
sg70
(lp279
S':'
asbag63
(g84
g65
NtRp280
(dp281
g68
(dp282
sg77
g267
sg70
(lp283
g63
(g64
g65
NtRp284
(dp285
g68
(dp286
g76
I5
ssg77
g280
sg70
(lp287
g63
(g72
g65
NtRp288
(dp289
g68
(dp290
g76
I4
ssg77
Nsg70
(lp291
g63
(g79
g65
NtRp292
(dp293
g68
(dp294
sg77
g288
sg70
(lp295
g63
(g84
g65
NtRp296
(dp297
g68
(dp298
g88
g89
ssg77
g292
sg70
(lp299
S'session_id_admin'
p300
asbag63
(g84
g65
NtRp301
(dp302
g68
(dp303
g95
g96
ssg77
g292
sg70
(lp304
S':'
asbag63
(g84
g65
NtRp305
(dp306
g68
(dp307
sg77
g292
sg70
(lp308
g63
(g64
g65
NtRp309
(dp310
g68
(dp311
g76
I4
ssg77
g305
sg70
(lp312
S'127.0.0.1-00a2e4e4-37d0-4b67-91b1-491e79690c25'
p313
ag63
(g72
g65
NtRp314
(dp315
g68
(dp316
g76
I3
ssg77
Nsg70
(lp317
g63
(g79
g65
NtRp318
(dp319
g68
(dp320
sg77
g314
sg70
(lp321
g63
(g84
g65
NtRp322
(dp323
g68
(dp324
g88
g89
ssg77
g318
sg70
(lp325
S'comment'
p326
asbag63
(g84
g65
NtRp327
(dp328
g68
(dp329
g95
g96
ssg77
g318
sg70
(lp330
S':'
asbag63
(g84
g65
NtRp331
(dp332
g68
(dp333
sg77
g318
sg70
(lp334
g63
(g64
g65
NtRp335
(dp336
g68
(dp337
g76
I3
ssg77
g331
sg70
(lp338
S''
asbasbasbag63
(g79
g65
NtRp339
(dp340
g68
(dp341
sg77
g314
sg70
(lp342
g63
(g84
g65
NtRp343
(dp344
g68
(dp345
g88
g89
ssg77
g339
sg70
(lp346
S'domain'
p347
asbag63
(g84
g65
NtRp348
(dp349
g68
(dp350
g95
g96
ssg77
g339
sg70
(lp351
S':'
asbag63
(g84
g65
NtRp352
(dp353
g68
(dp354
sg77
g339
sg70
(lp355
g63
(g64
g65
NtRp356
(dp357
g68
(dp358
g76
I3
ssg77
g352
sg70
(lp359
S''
asbasbasbag63
(g79
g65
NtRp360
(dp361
g68
(dp362
sg77
g314
sg70
(lp363
g63
(g84
g65
NtRp364
(dp365
g68
(dp366
g88
g89
ssg77
g360
sg70
(lp367
S'expires'
p368
asbag63
(g84
g65
NtRp369
(dp370
g68
(dp371
g95
g96
ssg77
g360
sg70
(lp372
S':'
asbag63
(g84
g65
NtRp373
(dp374
g68
(dp375
sg77
g360
sg70
(lp376
g63
(g64
g65
NtRp377
(dp378
g68
(dp379
g76
I3
ssg77
g373
sg70
(lp380
S''
asbasbasbag63
(g79
g65
NtRp381
(dp382
g68
(dp383
sg77
g314
sg70
(lp384
g63
(g84
g65
NtRp385
(dp386
g68
(dp387
g88
g89
ssg77
g381
sg70
(lp388
S'httponly'
p389
asbag63
(g84
g65
NtRp390
(dp391
g68
(dp392
g95
g96
ssg77
g381
sg70
(lp393
S':'
asbag63
(g84
g65
NtRp394
(dp395
g68
(dp396
sg77
g381
sg70
(lp397
g63
(g64
g65
NtRp398
(dp399
g68
(dp400
g76
I3
ssg77
g394
sg70
(lp401
S''
asbasbasbag63
(g79
g65
NtRp402
(dp403
g68
(dp404
sg77
g314
sg70
(lp405
g63
(g84
g65
NtRp406
(dp407
g68
(dp408
g88
g89
ssg77
g402
sg70
(lp409
S'max-age'
p410
asbag63
(g84
g65
NtRp411
(dp412
g68
(dp413
g95
g96
ssg77
g402
sg70
(lp414
S':'
asbag63
(g84
g65
NtRp415
(dp416
g68
(dp417
sg77
g402
sg70
(lp418
g63
(g64
g65
NtRp419
(dp420
g68
(dp421
g76
I3
ssg77
g415
sg70
(lp422
S''
asbasbasbag63
(g79
g65
NtRp423
(dp424
g68
(dp425
sg77
g314
sg70
(lp426
g63
(g84
g65
NtRp427
(dp428
g68
(dp429
g88
g89
ssg77
g423
sg70
(lp430
S'path'
p431
asbag63
(g84
g65
NtRp432
(dp433
g68
(dp434
g95
g96
ssg77
g423
sg70
(lp435
S':'
asbag63
(g84
g65
NtRp436
(dp437
g68
(dp438
sg77
g423
sg70
(lp439
g63
(g64
g65
NtRp440
(dp441
g68
(dp442
g76
I3
ssg77
g436
sg70
(lp443
S''
asbasbasbag63
(g79
g65
NtRp444
(dp445
g68
(dp446
sg77
g314
sg70
(lp447
g63
(g84
g65
NtRp448
(dp449
g68
(dp450
g88
g89
ssg77
g444
sg70
(lp451
S'secure'
p452
asbag63
(g84
g65
NtRp453
(dp454
g68
(dp455
g95
g96
ssg77
g444
sg70
(lp456
S':'
asbag63
(g84
g65
NtRp457
(dp458
g68
(dp459
sg77
g444
sg70
(lp460
g63
(g64
g65
NtRp461
(dp462
g68
(dp463
g76
I3
ssg77
g457
sg70
(lp464
S''
asbasbasbag63
(g79
g65
NtRp465
(dp466
g68
(dp467
sg77
g314
sg70
(lp468
g63
(g84
g65
NtRp469
(dp470
g68
(dp471
g88
g89
ssg77
g465
sg70
(lp472
S'version'
p473
asbag63
(g84
g65
NtRp474
(dp475
g68
(dp476
g95
g96
ssg77
g465
sg70
(lp477
S':'
asbag63
(g84
g65
NtRp478
(dp479
g68
(dp480
sg77
g465
sg70
(lp481
g63
(g64
g65
NtRp482
(dp483
g68
(dp484
g76
I3
ssg77
g478
sg70
(lp485
S''
asbasbasbasbasbasbasbag63
(g79
g65
NtRp486
(dp487
g68
(dp488
sg77
g288
sg70
(lp489
g63
(g84
g65
NtRp490
(dp491
g68
(dp492
g88
g89
ssg77
g486
sg70
(lp493
S'session_id_betsy'
p494
asbag63
(g84
g65
NtRp495
(dp496
g68
(dp497
g95
g96
ssg77
g486
sg70
(lp498
S':'
asbag63
(g84
g65
NtRp499
(dp500
g68
(dp501
sg77
g486
sg70
(lp502
g63
(g64
g65
NtRp503
(dp504
g68
(dp505
g76
I4
ssg77
g499
sg70
(lp506
S'127.0.0.1-70d52105-0f5d-4884-a4e3-dce6830f30e0'
p507
ag63
(g72
g65
NtRp508
(dp509
g68
(dp510
g76
I3
ssg77
Nsg70
(lp511
g63
(g79
g65
NtRp512
(dp513
g68
(dp514
sg77
g508
sg70
(lp515
g63
(g84
g65
NtRp516
(dp517
g68
(dp518
g88
g89
ssg77
g512
sg70
(lp519
g326
asbag63
(g84
g65
NtRp520
(dp521
g68
(dp522
g95
g96
ssg77
g512
sg70
(lp523
S':'
asbag63
(g84
g65
NtRp524
(dp525
g68
(dp526
sg77
g512
sg70
(lp527
g63
(g64
g65
NtRp528
(dp529
g68
(dp530
g76
I3
ssg77
g524
sg70
(lp531
S''
asbasbasbag63
(g79
g65
NtRp532
(dp533
g68
(dp534
sg77
g508
sg70
(lp535
g63
(g84
g65
NtRp536
(dp537
g68
(dp538
g88
g89
ssg77
g532
sg70
(lp539
g347
asbag63
(g84
g65
NtRp540
(dp541
g68
(dp542
g95
g96
ssg77
g532
sg70
(lp543
S':'
asbag63
(g84
g65
NtRp544
(dp545
g68
(dp546
sg77
g532
sg70
(lp547
g63
(g64
g65
NtRp548
(dp549
g68
(dp550
g76
I3
ssg77
g544
sg70
(lp551
S''
asbasbasbag63
(g79
g65
NtRp552
(dp553
g68
(dp554
sg77
g508
sg70
(lp555
g63
(g84
g65
NtRp556
(dp557
g68
(dp558
g88
g89
ssg77
g552
sg70
(lp559
g368
asbag63
(g84
g65
NtRp560
(dp561
g68
(dp562
g95
g96
ssg77
g552
sg70
(lp563
S':'
asbag63
(g84
g65
NtRp564
(dp565
g68
(dp566
sg77
g552
sg70
(lp567
g63
(g64
g65
NtRp568
(dp569
g68
(dp570
g76
I3
ssg77
g564
sg70
(lp571
S''
asbasbasbag63
(g79
g65
NtRp572
(dp573
g68
(dp574
sg77
g508
sg70
(lp575
g63
(g84
g65
NtRp576
(dp577
g68
(dp578
g88
g89
ssg77
g572
sg70
(lp579
g389
asbag63
(g84
g65
NtRp580
(dp581
g68
(dp582
g95
g96
ssg77
g572
sg70
(lp583
S':'
asbag63
(g84
g65
NtRp584
(dp585
g68
(dp586
sg77
g572
sg70
(lp587
g63
(g64
g65
NtRp588
(dp589
g68
(dp590
g76
I3
ssg77
g584
sg70
(lp591
S''
asbasbasbag63
(g79
g65
NtRp592
(dp593
g68
(dp594
sg77
g508
sg70
(lp595
g63
(g84
g65
NtRp596
(dp597
g68
(dp598
g88
g89
ssg77
g592
sg70
(lp599
g410
asbag63
(g84
g65
NtRp600
(dp601
g68
(dp602
g95
g96
ssg77
g592
sg70
(lp603
S':'
asbag63
(g84
g65
NtRp604
(dp605
g68
(dp606
sg77
g592
sg70
(lp607
g63
(g64
g65
NtRp608
(dp609
g68
(dp610
g76
I3
ssg77
g604
sg70
(lp611
S''
asbasbasbag63
(g79
g65
NtRp612
(dp613
g68
(dp614
sg77
g508
sg70
(lp615
g63
(g84
g65
NtRp616
(dp617
g68
(dp618
g88
g89
ssg77
g612
sg70
(lp619
g431
asbag63
(g84
g65
NtRp620
(dp621
g68
(dp622
g95
g96
ssg77
g612
sg70
(lp623
S':'
asbag63
(g84
g65
NtRp624
(dp625
g68
(dp626
sg77
g612
sg70
(lp627
g63
(g64
g65
NtRp628
(dp629
g68
(dp630
g76
I3
ssg77
g624
sg70
(lp631
S''
asbasbasbag63
(g79
g65
NtRp632
(dp633
g68
(dp634
sg77
g508
sg70
(lp635
g63
(g84
g65
NtRp636
(dp637
g68
(dp638
g88
g89
ssg77
g632
sg70
(lp639
g452
asbag63
(g84
g65
NtRp640
(dp641
g68
(dp642
g95
g96
ssg77
g632
sg70
(lp643
S':'
asbag63
(g84
g65
NtRp644
(dp645
g68
(dp646
sg77
g632
sg70
(lp647
g63
(g64
g65
NtRp648
(dp649
g68
(dp650
g76
I3
ssg77
g644
sg70
(lp651
S''
asbasbasbag63
(g79
g65
NtRp652
(dp653
g68
(dp654
sg77
g508
sg70
(lp655
g63
(g84
g65
NtRp656
(dp657
g68
(dp658
g88
g89
ssg77
g652
sg70
(lp659
g473
asbag63
(g84
g65
NtRp660
(dp661
g68
(dp662
g95
g96
ssg77
g652
sg70
(lp663
S':'
asbag63
(g84
g65
NtRp664
(dp665
g68
(dp666
sg77
g652
sg70
(lp667
g63
(g64
g65
NtRp668
(dp669
g68
(dp670
g76
I3
ssg77
g664
sg70
(lp671
S''
asbasbasbasbasbasbasbasbasbasbasbag63
(g79
g65
NtRp672
(dp673
g68
(dp674
sg77
g73
sg70
(lp675
g63
(g84
g65
NtRp676
(dp677
g68
(dp678
g88
g89
ssg77
g672
sg70
(lp679
S'env'
p680
asbag63
(g84
g65
NtRp681
(dp682
g68
(dp683
g95
g96
ssg77
g672
sg70
(lp684
S':'
asbag63
(g84
g65
NtRp685
(dp686
g68
(dp687
sg77
g672
sg70
(lp688
g63
(g64
g65
NtRp689
(dp690
g68
(dp691
g76
I5
ssg77
g685
sg70
(lp692
g63
(g72
g65
NtRp693
(dp694
g68
(dp695
g76
I4
ssg77
Nsg70
(lp696
g63
(g79
g65
NtRp697
(dp698
g68
(dp699
sg77
g693
sg70
(lp700
g63
(g84
g65
NtRp701
(dp702
g68
(dp703
g88
g89
ssg77
g697
sg70
(lp704
S'app_folders'
p705
asbag63
(g84
g65
NtRp706
(dp707
g68
(dp708
g95
g96
ssg77
g697
sg70
(lp709
S':'
asbag63
(g84
g65
NtRp710
(dp711
g68
(dp712
sg77
g697
sg70
(lp713
g63
(g64
g65
NtRp714
(dp715
g68
(dp716
g76
I4
ssg77
g710
sg70
(lp717
S"set(['/home/xchen/web2py/applications/Betsy/'])"
p718
asbasbasbag63
(g79
g65
NtRp719
(dp720
g68
(dp721
sg77
g693
sg70
(lp722
g63
(g84
g65
NtRp723
(dp724
g68
(dp725
g88
g89
ssg77
g719
sg70
(lp726
S'applications_parent'
p727
asbag63
(g84
g65
NtRp728
(dp729
g68
(dp730
g95
g96
ssg77
g719
sg70
(lp731
S':'
asbag63
(g84
g65
NtRp732
(dp733
g68
(dp734
sg77
g719
sg70
(lp735
g63
(g64
g65
NtRp736
(dp737
g68
(dp738
g76
I4
ssg77
g732
sg70
(lp739
S'/home/xchen/web2py'
p740
asbasbasbag63
(g79
g65
NtRp741
(dp742
g68
(dp743
sg77
g693
sg70
(lp744
g63
(g84
g65
NtRp745
(dp746
g68
(dp747
g88
g89
ssg77
g741
sg70
(lp748
S'cmd_args'
p749
asbag63
(g84
g65
NtRp750
(dp751
g68
(dp752
g95
g96
ssg77
g741
sg70
(lp753
S':'
asbag63
(g84
g65
NtRp754
(dp755
g68
(dp756
sg77
g741
sg70
(lp757
g63
(g64
g65
NtRp758
(dp759
g68
(dp760
g76
I4
ssg77
g754
sg70
(lp761
g63
(g72
g65
NtRp762
(dp763
g68
(dp764
g76
I3
ssg77
Nsg70
(lp765
sbasbasbasbag63
(g79
g65
NtRp766
(dp767
g68
(dp768
sg77
g693
sg70
(lp769
g63
(g84
g65
NtRp770
(dp771
g68
(dp772
g88
g89
ssg77
g766
sg70
(lp773
S'cmd_options'
p774
asbag63
(g84
g65
NtRp775
(dp776
g68
(dp777
g95
g96
ssg77
g766
sg70
(lp778
S':'
asbag63
(g84
g65
NtRp779
(dp780
g68
(dp781
sg77
g766
sg70
(lp782
g63
(g64
g65
NtRp783
(dp784
g68
(dp785
g76
I4
ssg77
g779
sg70
(lp786
S"<Values at 0x1fd33e18: {'verbose': False, 'ip': '127.0.0.1', 'with_scheduler': False, 'ips': [], 'shutdown_timeout': 5, 'taskbar': False, 'port': 8080, 'maxthreads': None, 'softcron': False, 'server_name': 'unicron.shis.uth.tmc.edu', 'bpython': False, 'nogui': False, 'pid_filename': 'httpserver.pid', 'extcron': False, 'runcron': False, 'run_system_tests': False, 'test': None, 'folder': '/home/xchen/web2py', 'config': '', 'minthreads': None, 'winservice': '', 'shell': None, 'run': '', 'log_filename': 'httpserver.log', 'debuglevel': 30, 'args': [''], 'socket_timeout': 5, 'ssl_ca_certificate': None, 'scheduler': None, 'profiler_filename': None, 'ssl_private_key': '', 'scheduler_groups': None, 'password': 'baby2008', 'request_queue_size': 5, 'ssl_certificate': '', 'cronjob': False, 'numthreads': None, 'quiet': False, 'interfaces': None, 'import_models': False, 'timeout': 10, 'plain': False, 'nobanner': False}>"
p787
asbasbasbag63
(g79
g65
NtRp788
(dp789
g68
(dp790
sg77
g693
sg70
(lp791
g63
(g84
g65
NtRp792
(dp793
g68
(dp794
g88
g89
ssg77
g788
sg70
(lp795
S'db_sessions'
p796
asbag63
(g84
g65
NtRp797
(dp798
g68
(dp799
g95
g96
ssg77
g788
sg70
(lp800
S':'
asbag63
(g84
g65
NtRp801
(dp802
g68
(dp803
sg77
g788
sg70
(lp804
g63
(g64
g65
NtRp805
(dp806
g68
(dp807
g76
I4
ssg77
g801
sg70
(lp808
S'set([])'
p809
asbasbasbag63
(g79
g65
NtRp810
(dp811
g68
(dp812
sg77
g693
sg70
(lp813
g63
(g84
g65
NtRp814
(dp815
g68
(dp816
g88
g89
ssg77
g810
sg70
(lp817
S'debugging'
p818
asbag63
(g84
g65
NtRp819
(dp820
g68
(dp821
g95
g96
ssg77
g810
sg70
(lp822
S':'
asbag63
(g84
g65
NtRp823
(dp824
g68
(dp825
sg77
g810
sg70
(lp826
g63
(g64
g65
NtRp827
(dp828
g68
(dp829
g76
I4
ssg77
g823
sg70
(lp830
g106
asbasbasbag63
(g79
g65
NtRp831
(dp832
g68
(dp833
sg77
g693
sg70
(lp834
g63
(g84
g65
NtRp835
(dp836
g68
(dp837
g88
g89
ssg77
g831
sg70
(lp838
S'gluon_parent'
p839
asbag63
(g84
g65
NtRp840
(dp841
g68
(dp842
g95
g96
ssg77
g831
sg70
(lp843
S':'
asbag63
(g84
g65
NtRp844
(dp845
g68
(dp846
sg77
g831
sg70
(lp847
g63
(g64
g65
NtRp848
(dp849
g68
(dp850
g76
I4
ssg77
g844
sg70
(lp851
S'/home/xchen/web2py'
p852
asbasbasbag63
(g79
g65
NtRp853
(dp854
g68
(dp855
sg77
g693
sg70
(lp856
g63
(g84
g65
NtRp857
(dp858
g68
(dp859
g88
g89
ssg77
g853
sg70
(lp860
S'http_accept'
p861
asbag63
(g84
g65
NtRp862
(dp863
g68
(dp864
g95
g96
ssg77
g853
sg70
(lp865
S':'
asbag63
(g84
g65
NtRp866
(dp867
g68
(dp868
sg77
g853
sg70
(lp869
g63
(g64
g65
NtRp870
(dp871
g68
(dp872
g76
I4
ssg77
g866
sg70
(lp873
S'text/html,application/xhtml+xml,application/xml;q=0.9,*/*;q=0.8'
p874
asbasbasbag63
(g79
g65
NtRp875
(dp876
g68
(dp877
sg77
g693
sg70
(lp878
g63
(g84
g65
NtRp879
(dp880
g68
(dp881
g88
g89
ssg77
g875
sg70
(lp882
S'http_accept_encoding'
p883
asbag63
(g84
g65
NtRp884
(dp885
g68
(dp886
g95
g96
ssg77
g875
sg70
(lp887
S':'
asbag63
(g84
g65
NtRp888
(dp889
g68
(dp890
sg77
g875
sg70
(lp891
g63
(g64
g65
NtRp892
(dp893
g68
(dp894
g76
I4
ssg77
g888
sg70
(lp895
S'gzip, deflate'
p896
asbasbasbag63
(g79
g65
NtRp897
(dp898
g68
(dp899
sg77
g693
sg70
(lp900
g63
(g84
g65
NtRp901
(dp902
g68
(dp903
g88
g89
ssg77
g897
sg70
(lp904
S'http_accept_language'
p905
asbag63
(g84
g65
NtRp906
(dp907
g68
(dp908
g95
g96
ssg77
g897
sg70
(lp909
S':'
asbag63
(g84
g65
NtRp910
(dp911
g68
(dp912
sg77
g897
sg70
(lp913
g63
(g64
g65
NtRp914
(dp915
g68
(dp916
g76
I4
ssg77
g910
sg70
(lp917
S'en-US,en;q=0.5'
p918
asbasbasbag63
(g79
g65
NtRp919
(dp920
g68
(dp921
sg77
g693
sg70
(lp922
g63
(g84
g65
NtRp923
(dp924
g68
(dp925
g88
g89
ssg77
g919
sg70
(lp926
S'http_connection'
p927
asbag63
(g84
g65
NtRp928
(dp929
g68
(dp930
g95
g96
ssg77
g919
sg70
(lp931
S':'
asbag63
(g84
g65
NtRp932
(dp933
g68
(dp934
sg77
g919
sg70
(lp935
g63
(g64
g65
NtRp936
(dp937
g68
(dp938
g76
I4
ssg77
g932
sg70
(lp939
S'keep-alive'
p940
asbasbasbag63
(g79
g65
NtRp941
(dp942
g68
(dp943
sg77
g693
sg70
(lp944
g63
(g84
g65
NtRp945
(dp946
g68
(dp947
g88
g89
ssg77
g941
sg70
(lp948
S'http_cookie'
p949
asbag63
(g84
g65
NtRp950
(dp951
g68
(dp952
g95
g96
ssg77
g941
sg70
(lp953
S':'
asbag63
(g84
g65
NtRp954
(dp955
g68
(dp956
sg77
g941
sg70
(lp957
g63
(g64
g65
NtRp958
(dp959
g68
(dp960
g76
I4
ssg77
g954
sg70
(lp961
S'session_id_betsy=127.0.0.1-70d52105-0f5d-4884-a4e3-dce6830f30e0; session_id_admin=127.0.0.1-00a2e4e4-37d0-4b67-91b1-491e79690c25'
p962
asbasbasbag63
(g79
g65
NtRp963
(dp964
g68
(dp965
sg77
g693
sg70
(lp966
g63
(g84
g65
NtRp967
(dp968
g68
(dp969
g88
g89
ssg77
g963
sg70
(lp970
S'http_host'
p971
asbag63
(g84
g65
NtRp972
(dp973
g68
(dp974
g95
g96
ssg77
g963
sg70
(lp975
S':'
asbag63
(g84
g65
NtRp976
(dp977
g68
(dp978
sg77
g963
sg70
(lp979
g63
(g64
g65
NtRp980
(dp981
g68
(dp982
g76
I4
ssg77
g976
sg70
(lp983
S'localhost:8080'
p984
asbasbasbag63
(g79
g65
NtRp985
(dp986
g68
(dp987
sg77
g693
sg70
(lp988
g63
(g84
g65
NtRp989
(dp990
g68
(dp991
g88
g89
ssg77
g985
sg70
(lp992
S'http_referer'
p993
asbag63
(g84
g65
NtRp994
(dp995
g68
(dp996
g95
g96
ssg77
g985
sg70
(lp997
S':'
asbag63
(g84
g65
NtRp998
(dp999
g68
(dp1000
sg77
g985
sg70
(lp1001
g63
(g64
g65
NtRp1002
(dp1003
g68
(dp1004
g76
I4
ssg77
g998
sg70
(lp1005
S'http://localhost:8080/Betsy/default/show_job/181'
p1006
asbasbasbag63
(g79
g65
NtRp1007
(dp1008
g68
(dp1009
sg77
g693
sg70
(lp1010
g63
(g84
g65
NtRp1011
(dp1012
g68
(dp1013
g88
g89
ssg77
g1007
sg70
(lp1014
S'http_user_agent'
p1015
asbag63
(g84
g65
NtRp1016
(dp1017
g68
(dp1018
g95
g96
ssg77
g1007
sg70
(lp1019
S':'
asbag63
(g84
g65
NtRp1020
(dp1021
g68
(dp1022
sg77
g1007
sg70
(lp1023
g63
(g64
g65
NtRp1024
(dp1025
g68
(dp1026
g76
I4
ssg77
g1020
sg70
(lp1027
S'Mozilla/5.0 (Macintosh; Intel Mac OS X 10.6; rv:19.0) Gecko/20100101 Firefox/19.0'
p1028
asbasbasbag63
(g79
g65
NtRp1029
(dp1030
g68
(dp1031
sg77
g693
sg70
(lp1032
g63
(g84
g65
NtRp1033
(dp1034
g68
(dp1035
g88
g89
ssg77
g1029
sg70
(lp1036
S'is_jython'
p1037
asbag63
(g84
g65
NtRp1038
(dp1039
g68
(dp1040
g95
g96
ssg77
g1029
sg70
(lp1041
S':'
asbag63
(g84
g65
NtRp1042
(dp1043
g68
(dp1044
sg77
g1029
sg70
(lp1045
g63
(g64
g65
NtRp1046
(dp1047
g68
(dp1048
g76
I4
ssg77
g1042
sg70
(lp1049
g106
asbasbasbag63
(g79
g65
NtRp1050
(dp1051
g68
(dp1052
sg77
g693
sg70
(lp1053
g63
(g84
g65
NtRp1054
(dp1055
g68
(dp1056
g88
g89
ssg77
g1050
sg70
(lp1057
S'is_pypy'
p1058
asbag63
(g84
g65
NtRp1059
(dp1060
g68
(dp1061
g95
g96
ssg77
g1050
sg70
(lp1062
S':'
asbag63
(g84
g65
NtRp1063
(dp1064
g68
(dp1065
sg77
g1050
sg70
(lp1066
g63
(g64
g65
NtRp1067
(dp1068
g68
(dp1069
g76
I4
ssg77
g1063
sg70
(lp1070
g106
asbasbasbag63
(g79
g65
NtRp1071
(dp1072
g68
(dp1073
sg77
g693
sg70
(lp1074
g63
(g84
g65
NtRp1075
(dp1076
g68
(dp1077
g88
g89
ssg77
g1071
sg70
(lp1078
S'local_hosts'
p1079
asbag63
(g84
g65
NtRp1080
(dp1081
g68
(dp1082
g95
g96
ssg77
g1071
sg70
(lp1083
S':'
asbag63
(g84
g65
NtRp1084
(dp1085
g68
(dp1086
sg77
g1071
sg70
(lp1087
g63
(g64
g65
NtRp1088
(dp1089
g68
(dp1090
g76
I4
ssg77
g1084
sg70
(lp1091
g63
(g72
g65
NtRp1092
(dp1093
g68
(dp1094
g76
I3
ssg77
Nsg70
(lp1095
g63
(g79
g65
NtRp1096
(dp1097
g68
(dp1098
sg77
g1092
sg70
(lp1099
g63
(g84
g65
NtRp1100
(dp1101
g68
(dp1102
sg77
g1096
sg70
(lp1103
g63
(g64
g65
NtRp1104
(dp1105
g68
(dp1106
g76
I3
ssg77
g1100
sg70
(lp1107
S'127.0.0.1'
p1108
asbasbasbag63
(g79
g65
NtRp1109
(dp1110
g68
(dp1111
sg77
g1092
sg70
(lp1112
g63
(g84
g65
NtRp1113
(dp1114
g68
(dp1115
sg77
g1109
sg70
(lp1116
g63
(g64
g65
NtRp1117
(dp1118
g68
(dp1119
g76
I3
ssg77
g1113
sg70
(lp1120
S'::ffff:127.0.0.1'
p1121
asbasbasbag63
(g79
g65
NtRp1122
(dp1123
g68
(dp1124
sg77
g1092
sg70
(lp1125
g63
(g84
g65
NtRp1126
(dp1127
g68
(dp1128
sg77
g1122
sg70
(lp1129
g63
(g64
g65
NtRp1130
(dp1131
g68
(dp1132
g76
I3
ssg77
g1126
sg70
(lp1133
S'unicron.shis.uth.tmc.edu'
p1134
asbasbasbag63
(g79
g65
NtRp1135
(dp1136
g68
(dp1137
sg77
g1092
sg70
(lp1138
g63
(g84
g65
NtRp1139
(dp1140
g68
(dp1141
sg77
g1135
sg70
(lp1142
g63
(g64
g65
NtRp1143
(dp1144
g68
(dp1145
g76
I3
ssg77
g1139
sg70
(lp1146
S'unicron.shis.uth.tmc.edu'
p1147
asbasbasbag63
(g79
g65
NtRp1148
(dp1149
g68
(dp1150
sg77
g1092
sg70
(lp1151
g63
(g84
g65
NtRp1152
(dp1153
g68
(dp1154
sg77
g1148
sg70
(lp1155
g63
(g64
g65
NtRp1156
(dp1157
g68
(dp1158
g76
I3
ssg77
g1152
sg70
(lp1159
S'127.0.0.1'
p1160
asbasbasbasbasbasbasbag63
(g79
g65
NtRp1161
(dp1162
g68
(dp1163
sg77
g693
sg70
(lp1164
g63
(g84
g65
NtRp1165
(dp1166
g68
(dp1167
g88
g89
ssg77
g1161
sg70
(lp1168
S'path_info'
p1169
asbag63
(g84
g65
NtRp1170
(dp1171
g68
(dp1172
g95
g96
ssg77
g1161
sg70
(lp1173
S':'
asbag63
(g84
g65
NtRp1174
(dp1175
g68
(dp1176
sg77
g1161
sg70
(lp1177
g63
(g64
g65
NtRp1178
(dp1179
g68
(dp1180
g76
I4
ssg77
g1174
sg70
(lp1181
S'/Betsy/default/result_folder/plot_geneset_score_bar_BETSYHASH1_457d4227d5519d3cca8b7ab6e9e9fa34/geneset_plot_path.9313471497d9b3e3.73653266706c617465365f34382e696c6c752e677a'
p1182
asbasbasbag63
(g79
g65
NtRp1183
(dp1184
g68
(dp1185
sg77
g693
sg70
(lp1186
g63
(g84
g65
NtRp1187
(dp1188
g68
(dp1189
g88
g89
ssg77
g1183
sg70
(lp1190
S'query_string'
p1191
asbag63
(g84
g65
NtRp1192
(dp1193
g68
(dp1194
g95
g96
ssg77
g1183
sg70
(lp1195
S':'
asbag63
(g84
g65
NtRp1196
(dp1197
g68
(dp1198
sg77
g1183
sg70
(lp1199
g63
(g64
g65
NtRp1200
(dp1201
g68
(dp1202
g76
I4
ssg77
g1196
sg70
(lp1203
S''
asbasbasbag63
(g79
g65
NtRp1204
(dp1205
g68
(dp1206
sg77
g693
sg70
(lp1207
g63
(g84
g65
NtRp1208
(dp1209
g68
(dp1210
g88
g89
ssg77
g1204
sg70
(lp1211
S'remote_addr'
p1212
asbag63
(g84
g65
NtRp1213
(dp1214
g68
(dp1215
g95
g96
ssg77
g1204
sg70
(lp1216
S':'
asbag63
(g84
g65
NtRp1217
(dp1218
g68
(dp1219
sg77
g1204
sg70
(lp1220
g63
(g64
g65
NtRp1221
(dp1222
g68
(dp1223
g76
I4
ssg77
g1217
sg70
(lp1224
g244
asbasbasbag63
(g79
g65
NtRp1225
(dp1226
g68
(dp1227
sg77
g693
sg70
(lp1228
g63
(g84
g65
NtRp1229
(dp1230
g68
(dp1231
g88
g89
ssg77
g1225
sg70
(lp1232
S'remote_port'
p1233
asbag63
(g84
g65
NtRp1234
(dp1235
g68
(dp1236
g95
g96
ssg77
g1225
sg70
(lp1237
S':'
asbag63
(g84
g65
NtRp1238
(dp1239
g68
(dp1240
sg77
g1225
sg70
(lp1241
g63
(g64
g65
NtRp1242
(dp1243
g68
(dp1244
g76
I4
ssg77
g1238
sg70
(lp1245
S'46810'
p1246
asbasbasbag63
(g79
g65
NtRp1247
(dp1248
g68
(dp1249
sg77
g693
sg70
(lp1250
g63
(g84
g65
NtRp1251
(dp1252
g68
(dp1253
g88
g89
ssg77
g1247
sg70
(lp1254
S'request_method'
p1255
asbag63
(g84
g65
NtRp1256
(dp1257
g68
(dp1258
g95
g96
ssg77
g1247
sg70
(lp1259
S':'
asbag63
(g84
g65
NtRp1260
(dp1261
g68
(dp1262
sg77
g1247
sg70
(lp1263
g63
(g64
g65
NtRp1264
(dp1265
g68
(dp1266
g76
I4
ssg77
g1260
sg70
(lp1267
S'GET'
p1268
asbasbasbag63
(g79
g65
NtRp1269
(dp1270
g68
(dp1271
sg77
g693
sg70
(lp1272
g63
(g84
g65
NtRp1273
(dp1274
g68
(dp1275
g88
g89
ssg77
g1269
sg70
(lp1276
S'request_uri'
p1277
asbag63
(g84
g65
NtRp1278
(dp1279
g68
(dp1280
g95
g96
ssg77
g1269
sg70
(lp1281
S':'
asbag63
(g84
g65
NtRp1282
(dp1283
g68
(dp1284
sg77
g1269
sg70
(lp1285
g63
(g64
g65
NtRp1286
(dp1287
g68
(dp1288
g76
I4
ssg77
g1282
sg70
(lp1289
g1182
asbasbasbag63
(g79
g65
NtRp1290
(dp1291
g68
(dp1292
sg77
g693
sg70
(lp1293
g63
(g84
g65
NtRp1294
(dp1295
g68
(dp1296
g88
g89
ssg77
g1290
sg70
(lp1297
S'script_name'
p1298
asbag63
(g84
g65
NtRp1299
(dp1300
g68
(dp1301
g95
g96
ssg77
g1290
sg70
(lp1302
S':'
asbag63
(g84
g65
NtRp1303
(dp1304
g68
(dp1305
sg77
g1290
sg70
(lp1306
g63
(g64
g65
NtRp1307
(dp1308
g68
(dp1309
g76
I4
ssg77
g1303
sg70
(lp1310
S''
asbasbasbag63
(g79
g65
NtRp1311
(dp1312
g68
(dp1313
sg77
g693
sg70
(lp1314
g63
(g84
g65
NtRp1315
(dp1316
g68
(dp1317
g88
g89
ssg77
g1311
sg70
(lp1318
S'server_name'
p1319
asbag63
(g84
g65
NtRp1320
(dp1321
g68
(dp1322
g95
g96
ssg77
g1311
sg70
(lp1323
S':'
asbag63
(g84
g65
NtRp1324
(dp1325
g68
(dp1326
sg77
g1311
sg70
(lp1327
g63
(g64
g65
NtRp1328
(dp1329
g68
(dp1330
g76
I4
ssg77
g1324
sg70
(lp1331
g1147
asbasbasbag63
(g79
g65
NtRp1332
(dp1333
g68
(dp1334
sg77
g693
sg70
(lp1335
g63
(g84
g65
NtRp1336
(dp1337
g68
(dp1338
g88
g89
ssg77
g1332
sg70
(lp1339
S'server_port'
p1340
asbag63
(g84
g65
NtRp1341
(dp1342
g68
(dp1343
g95
g96
ssg77
g1332
sg70
(lp1344
S':'
asbag63
(g84
g65
NtRp1345
(dp1346
g68
(dp1347
sg77
g1332
sg70
(lp1348
g63
(g64
g65
NtRp1349
(dp1350
g68
(dp1351
g76
I4
ssg77
g1345
sg70
(lp1352
S'8080'
p1353
asbasbasbag63
(g79
g65
NtRp1354
(dp1355
g68
(dp1356
sg77
g693
sg70
(lp1357
g63
(g84
g65
NtRp1358
(dp1359
g68
(dp1360
g88
g89
ssg77
g1354
sg70
(lp1361
S'server_protocol'
p1362
asbag63
(g84
g65
NtRp1363
(dp1364
g68
(dp1365
g95
g96
ssg77
g1354
sg70
(lp1366
S':'
asbag63
(g84
g65
NtRp1367
(dp1368
g68
(dp1369
sg77
g1354
sg70
(lp1370
g63
(g64
g65
NtRp1371
(dp1372
g68
(dp1373
g76
I4
ssg77
g1367
sg70
(lp1374
S'HTTP/1.1'
p1375
asbasbasbag63
(g79
g65
NtRp1376
(dp1377
g68
(dp1378
sg77
g693
sg70
(lp1379
g63
(g84
g65
NtRp1380
(dp1381
g68
(dp1382
g88
g89
ssg77
g1376
sg70
(lp1383
S'server_software'
p1384
asbag63
(g84
g65
NtRp1385
(dp1386
g68
(dp1387
g95
g96
ssg77
g1376
sg70
(lp1388
S':'
asbag63
(g84
g65
NtRp1389
(dp1390
g68
(dp1391
sg77
g1376
sg70
(lp1392
g63
(g64
g65
NtRp1393
(dp1394
g68
(dp1395
g76
I4
ssg77
g1389
sg70
(lp1396
S'Rocket 1.2.5'
p1397
asbasbasbag63
(g79
g65
NtRp1398
(dp1399
g68
(dp1400
sg77
g693
sg70
(lp1401
g63
(g84
g65
NtRp1402
(dp1403
g68
(dp1404
g88
g89
ssg77
g1398
sg70
(lp1405
S'web2py_path'
p1406
asbag63
(g84
g65
NtRp1407
(dp1408
g68
(dp1409
g95
g96
ssg77
g1398
sg70
(lp1410
S':'
asbag63
(g84
g65
NtRp1411
(dp1412
g68
(dp1413
sg77
g1398
sg70
(lp1414
g63
(g64
g65
NtRp1415
(dp1416
g68
(dp1417
g76
I4
ssg77
g1411
sg70
(lp1418
g740
asbasbasbag63
(g79
g65
NtRp1419
(dp1420
g68
(dp1421
sg77
g693
sg70
(lp1422
g63
(g84
g65
NtRp1423
(dp1424
g68
(dp1425
g88
g89
ssg77
g1419
sg70
(lp1426
S'web2py_version'
p1427
asbag63
(g84
g65
NtRp1428
(dp1429
g68
(dp1430
g95
g96
ssg77
g1419
sg70
(lp1431
S':'
asbag63
(g84
g65
NtRp1432
(dp1433
g68
(dp1434
sg77
g1419
sg70
(lp1435
g63
(g64
g65
NtRp1436
(dp1437
g68
(dp1438
g76
I4
ssg77
g1432
sg70
(lp1439
g63
(g72
g65
NtRp1440
(dp1441
g68
(dp1442
g76
I3
ssg77
Nsg70
(lp1443
g63
(g79
g65
NtRp1444
(dp1445
g68
(dp1446
sg77
g1440
sg70
(lp1447
g63
(g84
g65
NtRp1448
(dp1449
g68
(dp1450
sg77
g1444
sg70
(lp1451
g63
(g64
g65
NtRp1452
(dp1453
g68
(dp1454
g76
I3
ssg77
g1448
sg70
(lp1455
S'2'
asbasbasbag63
(g79
g65
NtRp1456
(dp1457
g68
(dp1458
sg77
g1440
sg70
(lp1459
g63
(g84
g65
NtRp1460
(dp1461
g68
(dp1462
sg77
g1456
sg70
(lp1463
g63
(g64
g65
NtRp1464
(dp1465
g68
(dp1466
g76
I3
ssg77
g1460
sg70
(lp1467
S'2'
asbasbasbag63
(g79
g65
NtRp1468
(dp1469
g68
(dp1470
sg77
g1440
sg70
(lp1471
g63
(g84
g65
NtRp1472
(dp1473
g68
(dp1474
sg77
g1468
sg70
(lp1475
g63
(g64
g65
NtRp1476
(dp1477
g68
(dp1478
g76
I3
ssg77
g1472
sg70
(lp1479
S'1'
asbasbasbag63
(g79
g65
NtRp1480
(dp1481
g68
(dp1482
sg77
g1440
sg70
(lp1483
g63
(g84
g65
NtRp1484
(dp1485
g68
(dp1486
sg77
g1480
sg70
(lp1487
g63
(g64
g65
NtRp1488
(dp1489
g68
(dp1490
g76
I3
ssg77
g1484
sg70
(lp1491
S'datetime.datetime(2012, 10, 21, 16, 57, 4)'
p1492
asbasbasbag63
(g79
g65
NtRp1493
(dp1494
g68
(dp1495
sg77
g1440
sg70
(lp1496
g63
(g84
g65
NtRp1497
(dp1498
g68
(dp1499
sg77
g1493
sg70
(lp1500
g63
(g64
g65
NtRp1501
(dp1502
g68
(dp1503
g76
I3
ssg77
g1497
sg70
(lp1504
S'stable'
p1505
asbasbasbasbasbasbasbag63
(g79
g65
NtRp1506
(dp1507
g68
(dp1508
sg77
g693
sg70
(lp1509
g63
(g84
g65
NtRp1510
(dp1511
g68
(dp1512
g88
g89
ssg77
g1506
sg70
(lp1513
S'wsgi_errors'
p1514
asbag63
(g84
g65
NtRp1515
(dp1516
g68
(dp1517
g95
g96
ssg77
g1506
sg70
(lp1518
S':'
asbag63
(g84
g65
NtRp1519
(dp1520
g68
(dp1521
sg77
g1506
sg70
(lp1522
g63
(g64
g65
NtRp1523
(dp1524
g68
(dp1525
g76
I4
ssg77
g1519
sg70
(lp1526
S"<open file '<stderr>', mode 'w' at 0x2b2089f44270>"
p1527
asbasbasbag63
(g79
g65
NtRp1528
(dp1529
g68
(dp1530
sg77
g693
sg70
(lp1531
g63
(g84
g65
NtRp1532
(dp1533
g68
(dp1534
g88
g89
ssg77
g1528
sg70
(lp1535
S'wsgi_file_wrapper'
p1536
asbag63
(g84
g65
NtRp1537
(dp1538
g68
(dp1539
g95
g96
ssg77
g1528
sg70
(lp1540
S':'
asbag63
(g84
g65
NtRp1541
(dp1542
g68
(dp1543
sg77
g1528
sg70
(lp1544
g63
(g64
g65
NtRp1545
(dp1546
g68
(dp1547
g76
I4
ssg77
g1541
sg70
(lp1548
S'<class wsgiref.util.FileWrapper at 0x1fc92a78>'
p1549
asbasbasbag63
(g79
g65
NtRp1550
(dp1551
g68
(dp1552
sg77
g693
sg70
(lp1553
g63
(g84
g65
NtRp1554
(dp1555
g68
(dp1556
g88
g89
ssg77
g1550
sg70
(lp1557
S'wsgi_input'
p1558
asbag63
(g84
g65
NtRp1559
(dp1560
g68
(dp1561
g95
g96
ssg77
g1550
sg70
(lp1562
S':'
asbag63
(g84
g65
NtRp1563
(dp1564
g68
(dp1565
sg77
g1550
sg70
(lp1566
g63
(g64
g65
NtRp1567
(dp1568
g68
(dp1569
g76
I4
ssg77
g1563
sg70
(lp1570
S'<socket._fileobject object at 0x20024ed0>'
p1571
asbasbasbag63
(g79
g65
NtRp1572
(dp1573
g68
(dp1574
sg77
g693
sg70
(lp1575
g63
(g84
g65
NtRp1576
(dp1577
g68
(dp1578
g88
g89
ssg77
g1572
sg70
(lp1579
S'wsgi_multiprocess'
p1580
asbag63
(g84
g65
NtRp1581
(dp1582
g68
(dp1583
g95
g96
ssg77
g1572
sg70
(lp1584
S':'
asbag63
(g84
g65
NtRp1585
(dp1586
g68
(dp1587
sg77
g1572
sg70
(lp1588
g63
(g64
g65
NtRp1589
(dp1590
g68
(dp1591
g76
I4
ssg77
g1585
sg70
(lp1592
g106
asbasbasbag63
(g79
g65
NtRp1593
(dp1594
g68
(dp1595
sg77
g693
sg70
(lp1596
g63
(g84
g65
NtRp1597
(dp1598
g68
(dp1599
g88
g89
ssg77
g1593
sg70
(lp1600
S'wsgi_multithread'
p1601
asbag63
(g84
g65
NtRp1602
(dp1603
g68
(dp1604
g95
g96
ssg77
g1593
sg70
(lp1605
S':'
asbag63
(g84
g65
NtRp1606
(dp1607
g68
(dp1608
sg77
g1593
sg70
(lp1609
g63
(g64
g65
NtRp1610
(dp1611
g68
(dp1612
g76
I4
ssg77
g1606
sg70
(lp1613
S'True'
p1614
asbasbasbag63
(g79
g65
NtRp1615
(dp1616
g68
(dp1617
sg77
g693
sg70
(lp1618
g63
(g84
g65
NtRp1619
(dp1620
g68
(dp1621
g88
g89
ssg77
g1615
sg70
(lp1622
S'wsgi_run_once'
p1623
asbag63
(g84
g65
NtRp1624
(dp1625
g68
(dp1626
g95
g96
ssg77
g1615
sg70
(lp1627
S':'
asbag63
(g84
g65
NtRp1628
(dp1629
g68
(dp1630
sg77
g1615
sg70
(lp1631
g63
(g64
g65
NtRp1632
(dp1633
g68
(dp1634
g76
I4
ssg77
g1628
sg70
(lp1635
g106
asbasbasbag63
(g79
g65
NtRp1636
(dp1637
g68
(dp1638
sg77
g693
sg70
(lp1639
g63
(g84
g65
NtRp1640
(dp1641
g68
(dp1642
g88
g89
ssg77
g1636
sg70
(lp1643
S'wsgi_url_scheme'
p1644
asbag63
(g84
g65
NtRp1645
(dp1646
g68
(dp1647
g95
g96
ssg77
g1636
sg70
(lp1648
S':'
asbag63
(g84
g65
NtRp1649
(dp1650
g68
(dp1651
sg77
g1636
sg70
(lp1652
g63
(g64
g65
NtRp1653
(dp1654
g68
(dp1655
g76
I4
ssg77
g1649
sg70
(lp1656
S'http'
p1657
asbasbasbag63
(g79
g65
NtRp1658
(dp1659
g68
(dp1660
sg77
g693
sg70
(lp1661
g63
(g84
g65
NtRp1662
(dp1663
g68
(dp1664
g88
g89
ssg77
g1658
sg70
(lp1665
S'wsgi_version'
p1666
asbag63
(g84
g65
NtRp1667
(dp1668
g68
(dp1669
g95
g96
ssg77
g1658
sg70
(lp1670
S':'
asbag63
(g84
g65
NtRp1671
(dp1672
g68
(dp1673
sg77
g1658
sg70
(lp1674
g63
(g64
g65
NtRp1675
(dp1676
g68
(dp1677
g76
I4
ssg77
g1671
sg70
(lp1678
g63
(g72
g65
NtRp1679
(dp1680
g68
(dp1681
g76
I3
ssg77
Nsg70
(lp1682
g63
(g79
g65
NtRp1683
(dp1684
g68
(dp1685
sg77
g1679
sg70
(lp1686
g63
(g84
g65
NtRp1687
(dp1688
g68
(dp1689
sg77
g1683
sg70
(lp1690
g63
(g64
g65
NtRp1691
(dp1692
g68
(dp1693
g76
I3
ssg77
g1687
sg70
(lp1694
S'1'
asbasbasbag63
(g79
g65
NtRp1695
(dp1696
g68
(dp1697
sg77
g1679
sg70
(lp1698
g63
(g84
g65
NtRp1699
(dp1700
g68
(dp1701
sg77
g1695
sg70
(lp1702
g63
(g64
g65
NtRp1703
(dp1704
g68
(dp1705
g76
I3
ssg77
g1699
sg70
(lp1706
S'0'
asbasbasbasbasbasbasbasbasbasbasbag63
(g79
g65
NtRp1707
(dp1708
g68
(dp1709
sg77
g73
sg70
(lp1710
g63
(g84
g65
NtRp1711
(dp1712
g68
(dp1713
g88
g89
ssg77
g1707
sg70
(lp1714
S'extension'
p1715
asbag63
(g84
g65
NtRp1716
(dp1717
g68
(dp1718
g95
g96
ssg77
g1707
sg70
(lp1719
S':'
asbag63
(g84
g65
NtRp1720
(dp1721
g68
(dp1722
sg77
g1707
sg70
(lp1723
g63
(g64
g65
NtRp1724
(dp1725
g68
(dp1726
g76
I5
ssg77
g1720
sg70
(lp1727
S'html'
p1728
asbasbasbag63
(g79
g65
NtRp1729
(dp1730
g68
(dp1731
sg77
g73
sg70
(lp1732
g63
(g84
g65
NtRp1733
(dp1734
g68
(dp1735
g88
g89
ssg77
g1729
sg70
(lp1736
S'folder'
p1737
asbag63
(g84
g65
NtRp1738
(dp1739
g68
(dp1740
g95
g96
ssg77
g1729
sg70
(lp1741
S':'
asbag63
(g84
g65
NtRp1742
(dp1743
g68
(dp1744
sg77
g1729
sg70
(lp1745
g63
(g64
g65
NtRp1746
(dp1747
g68
(dp1748
g76
I5
ssg77
g1742
sg70
(lp1749
S'/home/xchen/web2py/applications/Betsy/'
p1750
asbasbasbag63
(g79
g65
NtRp1751
(dp1752
g68
(dp1753
sg77
g73
sg70
(lp1754
g63
(g84
g65
NtRp1755
(dp1756
g68
(dp1757
g88
g89
ssg77
g1751
sg70
(lp1758
S'function'
p1759
asbag63
(g84
g65
NtRp1760
(dp1761
g68
(dp1762
g95
g96
ssg77
g1751
sg70
(lp1763
S':'
asbag63
(g84
g65
NtRp1764
(dp1765
g68
(dp1766
sg77
g1751
sg70
(lp1767
g63
(g64
g65
NtRp1768
(dp1769
g68
(dp1770
g76
I5
ssg77
g1764
sg70
(lp1771
S'result_folder'
p1772
asbasbasbag63
(g79
g65
NtRp1773
(dp1774
g68
(dp1775
sg77
g73
sg70
(lp1776
g63
(g84
g65
NtRp1777
(dp1778
g68
(dp1779
g88
g89
ssg77
g1773
sg70
(lp1780
S'get_vars'
p1781
asbag63
(g84
g65
NtRp1782
(dp1783
g68
(dp1784
g95
g96
ssg77
g1773
sg70
(lp1785
S':'
asbag63
(g84
g65
NtRp1786
(dp1787
g68
(dp1788
sg77
g1773
sg70
(lp1789
g63
(g64
g65
NtRp1790
(dp1791
g68
(dp1792
g76
I5
ssg77
g1786
sg70
(lp1793
g63
(g72
g65
NtRp1794
(dp1795
g68
(dp1796
g76
I4
ssg77
Nsg70
(lp1797
sbasbasbasbag63
(g79
g65
NtRp1798
(dp1799
g68
(dp1800
sg77
g73
sg70
(lp1801
g63
(g84
g65
NtRp1802
(dp1803
g68
(dp1804
g88
g89
ssg77
g1798
sg70
(lp1805
S'global_settings'
p1806
asbag63
(g84
g65
NtRp1807
(dp1808
g68
(dp1809
g95
g96
ssg77
g1798
sg70
(lp1810
S':'
asbag63
(g84
g65
NtRp1811
(dp1812
g68
(dp1813
sg77
g1798
sg70
(lp1814
g63
(g64
g65
NtRp1815
(dp1816
g68
(dp1817
g76
I5
ssg77
g1811
sg70
(lp1818
g63
(g72
g65
NtRp1819
(dp1820
g68
(dp1821
g76
I4
ssg77
Nsg70
(lp1822
g63
(g79
g65
NtRp1823
(dp1824
g68
(dp1825
sg77
g1819
sg70
(lp1826
g63
(g84
g65
NtRp1827
(dp1828
g68
(dp1829
g88
g89
ssg77
g1823
sg70
(lp1830
g705
asbag63
(g84
g65
NtRp1831
(dp1832
g68
(dp1833
g95
g96
ssg77
g1823
sg70
(lp1834
S':'
asbag63
(g84
g65
NtRp1835
(dp1836
g68
(dp1837
sg77
g1823
sg70
(lp1838
g63
(g64
g65
NtRp1839
(dp1840
g68
(dp1841
g76
I4
ssg77
g1835
sg70
(lp1842
S"set(['/home/xchen/web2py/applications/Betsy/'])"
p1843
asbasbasbag63
(g79
g65
NtRp1844
(dp1845
g68
(dp1846
sg77
g1819
sg70
(lp1847
g63
(g84
g65
NtRp1848
(dp1849
g68
(dp1850
g88
g89
ssg77
g1844
sg70
(lp1851
g727
asbag63
(g84
g65
NtRp1852
(dp1853
g68
(dp1854
g95
g96
ssg77
g1844
sg70
(lp1855
S':'
asbag63
(g84
g65
NtRp1856
(dp1857
g68
(dp1858
sg77
g1844
sg70
(lp1859
g63
(g64
g65
NtRp1860
(dp1861
g68
(dp1862
g76
I4
ssg77
g1856
sg70
(lp1863
g740
asbasbasbag63
(g79
g65
NtRp1864
(dp1865
g68
(dp1866
sg77
g1819
sg70
(lp1867
g63
(g84
g65
NtRp1868
(dp1869
g68
(dp1870
g88
g89
ssg77
g1864
sg70
(lp1871
g749
asbag63
(g84
g65
NtRp1872
(dp1873
g68
(dp1874
g95
g96
ssg77
g1864
sg70
(lp1875
S':'
asbag63
(g84
g65
NtRp1876
(dp1877
g68
(dp1878
sg77
g1864
sg70
(lp1879
g63
(g64
g65
NtRp1880
(dp1881
g68
(dp1882
g76
I4
ssg77
g1876
sg70
(lp1883
g63
(g72
g65
NtRp1884
(dp1885
g68
(dp1886
g76
I3
ssg77
Nsg70
(lp1887
sbasbasbasbag63
(g79
g65
NtRp1888
(dp1889
g68
(dp1890
sg77
g1819
sg70
(lp1891
g63
(g84
g65
NtRp1892
(dp1893
g68
(dp1894
g88
g89
ssg77
g1888
sg70
(lp1895
g774
asbag63
(g84
g65
NtRp1896
(dp1897
g68
(dp1898
g95
g96
ssg77
g1888
sg70
(lp1899
S':'
asbag63
(g84
g65
NtRp1900
(dp1901
g68
(dp1902
sg77
g1888
sg70
(lp1903
g63
(g64
g65
NtRp1904
(dp1905
g68
(dp1906
g76
I4
ssg77
g1900
sg70
(lp1907
S"<Values at 0x1fd33e18: {'verbose': False, 'ip': '127.0.0.1', 'with_scheduler': False, 'ips': [], 'shutdown_timeout': 5, 'taskbar': False, 'port': 8080, 'maxthreads': None, 'softcron': False, 'server_name': 'unicron.shis.uth.tmc.edu', 'bpython': False, 'nogui': False, 'pid_filename': 'httpserver.pid', 'extcron': False, 'runcron': False, 'run_system_tests': False, 'test': None, 'folder': '/home/xchen/web2py', 'config': '', 'minthreads': None, 'winservice': '', 'shell': None, 'run': '', 'log_filename': 'httpserver.log', 'debuglevel': 30, 'args': [''], 'socket_timeout': 5, 'ssl_ca_certificate': None, 'scheduler': None, 'profiler_filename': None, 'ssl_private_key': '', 'scheduler_groups': None, 'password': 'baby2008', 'request_queue_size': 5, 'ssl_certificate': '', 'cronjob': False, 'numthreads': None, 'quiet': False, 'interfaces': None, 'import_models': False, 'timeout': 10, 'plain': False, 'nobanner': False}>"
p1908
asbasbasbag63
(g79
g65
NtRp1909
(dp1910
g68
(dp1911
sg77
g1819
sg70
(lp1912
g63
(g84
g65
NtRp1913
(dp1914
g68
(dp1915
g88
g89
ssg77
g1909
sg70
(lp1916
g796
asbag63
(g84
g65
NtRp1917
(dp1918
g68
(dp1919
g95
g96
ssg77
g1909
sg70
(lp1920
S':'
asbag63
(g84
g65
NtRp1921
(dp1922
g68
(dp1923
sg77
g1909
sg70
(lp1924
g63
(g64
g65
NtRp1925
(dp1926
g68
(dp1927
g76
I4
ssg77
g1921
sg70
(lp1928
S'set([])'
p1929
asbasbasbag63
(g79
g65
NtRp1930
(dp1931
g68
(dp1932
sg77
g1819
sg70
(lp1933
g63
(g84
g65
NtRp1934
(dp1935
g68
(dp1936
g88
g89
ssg77
g1930
sg70
(lp1937
g818
asbag63
(g84
g65
NtRp1938
(dp1939
g68
(dp1940
g95
g96
ssg77
g1930
sg70
(lp1941
S':'
asbag63
(g84
g65
NtRp1942
(dp1943
g68
(dp1944
sg77
g1930
sg70
(lp1945
g63
(g64
g65
NtRp1946
(dp1947
g68
(dp1948
g76
I4
ssg77
g1942
sg70
(lp1949
g106
asbasbasbag63
(g79
g65
NtRp1950
(dp1951
g68
(dp1952
sg77
g1819
sg70
(lp1953
g63
(g84
g65
NtRp1954
(dp1955
g68
(dp1956
g88
g89
ssg77
g1950
sg70
(lp1957
g839
asbag63
(g84
g65
NtRp1958
(dp1959
g68
(dp1960
g95
g96
ssg77
g1950
sg70
(lp1961
S':'
asbag63
(g84
g65
NtRp1962
(dp1963
g68
(dp1964
sg77
g1950
sg70
(lp1965
g63
(g64
g65
NtRp1966
(dp1967
g68
(dp1968
g76
I4
ssg77
g1962
sg70
(lp1969
g852
asbasbasbag63
(g79
g65
NtRp1970
(dp1971
g68
(dp1972
sg77
g1819
sg70
(lp1973
g63
(g84
g65
NtRp1974
(dp1975
g68
(dp1976
g88
g89
ssg77
g1970
sg70
(lp1977
g1037
asbag63
(g84
g65
NtRp1978
(dp1979
g68
(dp1980
g95
g96
ssg77
g1970
sg70
(lp1981
S':'
asbag63
(g84
g65
NtRp1982
(dp1983
g68
(dp1984
sg77
g1970
sg70
(lp1985
g63
(g64
g65
NtRp1986
(dp1987
g68
(dp1988
g76
I4
ssg77
g1982
sg70
(lp1989
g106
asbasbasbag63
(g79
g65
NtRp1990
(dp1991
g68
(dp1992
sg77
g1819
sg70
(lp1993
g63
(g84
g65
NtRp1994
(dp1995
g68
(dp1996
g88
g89
ssg77
g1990
sg70
(lp1997
g1058
asbag63
(g84
g65
NtRp1998
(dp1999
g68
(dp2000
g95
g96
ssg77
g1990
sg70
(lp2001
S':'
asbag63
(g84
g65
NtRp2002
(dp2003
g68
(dp2004
sg77
g1990
sg70
(lp2005
g63
(g64
g65
NtRp2006
(dp2007
g68
(dp2008
g76
I4
ssg77
g2002
sg70
(lp2009
g106
asbasbasbag63
(g79
g65
NtRp2010
(dp2011
g68
(dp2012
sg77
g1819
sg70
(lp2013
g63
(g84
g65
NtRp2014
(dp2015
g68
(dp2016
g88
g89
ssg77
g2010
sg70
(lp2017
g1079
asbag63
(g84
g65
NtRp2018
(dp2019
g68
(dp2020
g95
g96
ssg77
g2010
sg70
(lp2021
S':'
asbag63
(g84
g65
NtRp2022
(dp2023
g68
(dp2024
sg77
g2010
sg70
(lp2025
g63
(g64
g65
NtRp2026
(dp2027
g68
(dp2028
g76
I4
ssg77
g2022
sg70
(lp2029
g63
(g72
g65
NtRp2030
(dp2031
g68
(dp2032
g76
I3
ssg77
Nsg70
(lp2033
g63
(g79
g65
NtRp2034
(dp2035
g68
(dp2036
sg77
g2030
sg70
(lp2037
g63
(g84
g65
NtRp2038
(dp2039
g68
(dp2040
sg77
g2034
sg70
(lp2041
g63
(g64
g65
NtRp2042
(dp2043
g68
(dp2044
g76
I3
ssg77
g2038
sg70
(lp2045
g1108
asbasbasbag63
(g79
g65
NtRp2046
(dp2047
g68
(dp2048
sg77
g2030
sg70
(lp2049
g63
(g84
g65
NtRp2050
(dp2051
g68
(dp2052
sg77
g2046
sg70
(lp2053
g63
(g64
g65
NtRp2054
(dp2055
g68
(dp2056
g76
I3
ssg77
g2050
sg70
(lp2057
g1121
asbasbasbag63
(g79
g65
NtRp2058
(dp2059
g68
(dp2060
sg77
g2030
sg70
(lp2061
g63
(g84
g65
NtRp2062
(dp2063
g68
(dp2064
sg77
g2058
sg70
(lp2065
g63
(g64
g65
NtRp2066
(dp2067
g68
(dp2068
g76
I3
ssg77
g2062
sg70
(lp2069
g1134
asbasbasbag63
(g79
g65
NtRp2070
(dp2071
g68
(dp2072
sg77
g2030
sg70
(lp2073
g63
(g84
g65
NtRp2074
(dp2075
g68
(dp2076
sg77
g2070
sg70
(lp2077
g63
(g64
g65
NtRp2078
(dp2079
g68
(dp2080
g76
I3
ssg77
g2074
sg70
(lp2081
g1147
asbasbasbag63
(g79
g65
NtRp2082
(dp2083
g68
(dp2084
sg77
g2030
sg70
(lp2085
g63
(g84
g65
NtRp2086
(dp2087
g68
(dp2088
sg77
g2082
sg70
(lp2089
g63
(g64
g65
NtRp2090
(dp2091
g68
(dp2092
g76
I3
ssg77
g2086
sg70
(lp2093
g1160
asbasbasbasbasbasbasbag63
(g79
g65
NtRp2094
(dp2095
g68
(dp2096
sg77
g1819
sg70
(lp2097
g63
(g84
g65
NtRp2098
(dp2099
g68
(dp2100
g88
g89
ssg77
g2094
sg70
(lp2101
g1427
asbag63
(g84
g65
NtRp2102
(dp2103
g68
(dp2104
g95
g96
ssg77
g2094
sg70
(lp2105
S':'
asbag63
(g84
g65
NtRp2106
(dp2107
g68
(dp2108
sg77
g2094
sg70
(lp2109
g63
(g64
g65
NtRp2110
(dp2111
g68
(dp2112
g76
I4
ssg77
g2106
sg70
(lp2113
g63
(g72
g65
NtRp2114
(dp2115
g68
(dp2116
g76
I3
ssg77
Nsg70
(lp2117
g63
(g79
g65
NtRp2118
(dp2119
g68
(dp2120
sg77
g2114
sg70
(lp2121
g63
(g84
g65
NtRp2122
(dp2123
g68
(dp2124
sg77
g2118
sg70
(lp2125
g63
(g64
g65
NtRp2126
(dp2127
g68
(dp2128
g76
I3
ssg77
g2122
sg70
(lp2129
S'2'
asbasbasbag63
(g79
g65
NtRp2130
(dp2131
g68
(dp2132
sg77
g2114
sg70
(lp2133
g63
(g84
g65
NtRp2134
(dp2135
g68
(dp2136
sg77
g2130
sg70
(lp2137
g63
(g64
g65
NtRp2138
(dp2139
g68
(dp2140
g76
I3
ssg77
g2134
sg70
(lp2141
S'2'
asbasbasbag63
(g79
g65
NtRp2142
(dp2143
g68
(dp2144
sg77
g2114
sg70
(lp2145
g63
(g84
g65
NtRp2146
(dp2147
g68
(dp2148
sg77
g2142
sg70
(lp2149
g63
(g64
g65
NtRp2150
(dp2151
g68
(dp2152
g76
I3
ssg77
g2146
sg70
(lp2153
S'1'
asbasbasbag63
(g79
g65
NtRp2154
(dp2155
g68
(dp2156
sg77
g2114
sg70
(lp2157
g63
(g84
g65
NtRp2158
(dp2159
g68
(dp2160
sg77
g2154
sg70
(lp2161
g63
(g64
g65
NtRp2162
(dp2163
g68
(dp2164
g76
I3
ssg77
g2158
sg70
(lp2165
S'datetime.datetime(2012, 10, 21, 16, 57, 4)'
p2166
asbasbasbag63
(g79
g65
NtRp2167
(dp2168
g68
(dp2169
sg77
g2114
sg70
(lp2170
g63
(g84
g65
NtRp2171
(dp2172
g68
(dp2173
sg77
g2167
sg70
(lp2174
g63
(g64
g65
NtRp2175
(dp2176
g68
(dp2177
g76
I3
ssg77
g2171
sg70
(lp2178
g1505
asbasbasbasbasbasbasbasbasbasbasbag63
(g79
g65
NtRp2179
(dp2180
g68
(dp2181
sg77
g73
sg70
(lp2182
g63
(g84
g65
NtRp2183
(dp2184
g68
(dp2185
g88
g89
ssg77
g2179
sg70
(lp2186
S'is_https'
p2187
asbag63
(g84
g65
NtRp2188
(dp2189
g68
(dp2190
g95
g96
ssg77
g2179
sg70
(lp2191
S':'
asbag63
(g84
g65
NtRp2192
(dp2193
g68
(dp2194
sg77
g2179
sg70
(lp2195
g63
(g64
g65
NtRp2196
(dp2197
g68
(dp2198
g76
I5
ssg77
g2192
sg70
(lp2199
g106
asbasbasbag63
(g79
g65
NtRp2200
(dp2201
g68
(dp2202
sg77
g73
sg70
(lp2203
g63
(g84
g65
NtRp2204
(dp2205
g68
(dp2206
g88
g89
ssg77
g2200
sg70
(lp2207
S'is_local'
p2208
asbag63
(g84
g65
NtRp2209
(dp2210
g68
(dp2211
g95
g96
ssg77
g2200
sg70
(lp2212
S':'
asbag63
(g84
g65
NtRp2213
(dp2214
g68
(dp2215
sg77
g2200
sg70
(lp2216
g63
(g64
g65
NtRp2217
(dp2218
g68
(dp2219
g76
I5
ssg77
g2213
sg70
(lp2220
g1614
asbasbasbag63
(g79
g65
NtRp2221
(dp2222
g68
(dp2223
sg77
g73
sg70
(lp2224
g63
(g84
g65
NtRp2225
(dp2226
g68
(dp2227
g88
g89
ssg77
g2221
sg70
(lp2228
S'is_restful'
p2229
asbag63
(g84
g65
NtRp2230
(dp2231
g68
(dp2232
g95
g96
ssg77
g2221
sg70
(lp2233
S':'
asbag63
(g84
g65
NtRp2234
(dp2235
g68
(dp2236
sg77
g2221
sg70
(lp2237
g63
(g64
g65
NtRp2238
(dp2239
g68
(dp2240
g76
I5
ssg77
g2234
sg70
(lp2241
g106
asbasbasbag63
(g79
g65
NtRp2242
(dp2243
g68
(dp2244
sg77
g73
sg70
(lp2245
g63
(g84
g65
NtRp2246
(dp2247
g68
(dp2248
g88
g89
ssg77
g2242
sg70
(lp2249
S'now'
p2250
asbag63
(g84
g65
NtRp2251
(dp2252
g68
(dp2253
g95
g96
ssg77
g2242
sg70
(lp2254
S':'
asbag63
(g84
g65
NtRp2255
(dp2256
g68
(dp2257
sg77
g2242
sg70
(lp2258
g63
(g64
g65
NtRp2259
(dp2260
g68
(dp2261
g76
I5
ssg77
g2255
sg70
(lp2262
S'datetime.datetime(2013, 2, 27, 16, 3, 38, 524425)'
p2263
asbasbasbag63
(g79
g65
NtRp2264
(dp2265
g68
(dp2266
sg77
g73
sg70
(lp2267
g63
(g84
g65
NtRp2268
(dp2269
g68
(dp2270
g88
g89
ssg77
g2264
sg70
(lp2271
S'post_vars'
p2272
asbag63
(g84
g65
NtRp2273
(dp2274
g68
(dp2275
g95
g96
ssg77
g2264
sg70
(lp2276
S':'
asbag63
(g84
g65
NtRp2277
(dp2278
g68
(dp2279
sg77
g2264
sg70
(lp2280
g63
(g64
g65
NtRp2281
(dp2282
g68
(dp2283
g76
I5
ssg77
g2277
sg70
(lp2284
g63
(g72
g65
NtRp2285
(dp2286
g68
(dp2287
g76
I4
ssg77
Nsg70
(lp2288
sbasbasbasbag63
(g79
g65
NtRp2289
(dp2290
g68
(dp2291
sg77
g73
sg70
(lp2292
g63
(g84
g65
NtRp2293
(dp2294
g68
(dp2295
g88
g89
ssg77
g2289
sg70
(lp2296
S'raw_args'
p2297
asbag63
(g84
g65
NtRp2298
(dp2299
g68
(dp2300
g95
g96
ssg77
g2289
sg70
(lp2301
S':'
asbag63
(g84
g65
NtRp2302
(dp2303
g68
(dp2304
sg77
g2289
sg70
(lp2305
g63
(g64
g65
NtRp2306
(dp2307
g68
(dp2308
g76
I5
ssg77
g2302
sg70
(lp2309
S'/plot_geneset_score_bar_BETSYHASH1_457d4227d5519d3cca8b7ab6e9e9fa34/geneset_plot_path.9313471497d9b3e3.73653266706c617465365f34382e696c6c752e677a'
p2310
asbasbasbag63
(g79
g65
NtRp2311
(dp2312
g68
(dp2313
sg77
g73
sg70
(lp2314
g63
(g84
g65
NtRp2315
(dp2316
g68
(dp2317
g88
g89
ssg77
g2311
sg70
(lp2318
S'raw_extension'
p2319
asbag63
(g84
g65
NtRp2320
(dp2321
g68
(dp2322
g95
g96
ssg77
g2311
sg70
(lp2323
S':'
asbag63
(g84
g65
NtRp2324
(dp2325
g68
(dp2326
sg77
g2311
sg70
(lp2327
g63
(g64
g65
NtRp2328
(dp2329
g68
(dp2330
g76
I5
ssg77
g2324
sg70
(lp2331
S'None'
p2332
asbasbasbag63
(g79
g65
NtRp2333
(dp2334
g68
(dp2335
sg77
g73
sg70
(lp2336
g63
(g84
g65
NtRp2337
(dp2338
g68
(dp2339
g88
g89
ssg77
g2333
sg70
(lp2340
S'url'
p2341
asbag63
(g84
g65
NtRp2342
(dp2343
g68
(dp2344
g95
g96
ssg77
g2333
sg70
(lp2345
S':'
asbag63
(g84
g65
NtRp2346
(dp2347
g68
(dp2348
sg77
g2333
sg70
(lp2349
g63
(g64
g65
NtRp2350
(dp2351
g68
(dp2352
g76
I5
ssg77
g2346
sg70
(lp2353
g1182
asbasbasbag63
(g79
g65
NtRp2354
(dp2355
g68
(dp2356
sg77
g73
sg70
(lp2357
g63
(g84
g65
NtRp2358
(dp2359
g68
(dp2360
g88
g89
ssg77
g2354
sg70
(lp2361
S'utcnow'
p2362
asbag63
(g84
g65
NtRp2363
(dp2364
g68
(dp2365
g95
g96
ssg77
g2354
sg70
(lp2366
S':'
asbag63
(g84
g65
NtRp2367
(dp2368
g68
(dp2369
sg77
g2354
sg70
(lp2370
g63
(g64
g65
NtRp2371
(dp2372
g68
(dp2373
g76
I5
ssg77
g2367
sg70
(lp2374
S'datetime.datetime(2013, 2, 27, 22, 3, 38, 524436)'
p2375
asbasbasbag63
(g79
g65
NtRp2376
(dp2377
g68
(dp2378
sg77
g73
sg70
(lp2379
g63
(g84
g65
NtRp2380
(dp2381
g68
(dp2382
g88
g89
ssg77
g2376
sg70
(lp2383
S'uuid'
p2384
asbag63
(g84
g65
NtRp2385
(dp2386
g68
(dp2387
g95
g96
ssg77
g2376
sg70
(lp2388
S':'
asbag63
(g84
g65
NtRp2389
(dp2390
g68
(dp2391
sg77
g2376
sg70
(lp2392
g63
(g64
g65
NtRp2393
(dp2394
g68
(dp2395
g76
I5
ssg77
g2389
sg70
(lp2396
S'Betsy/127.0.0.1.2013-02-27.16-03-38.5567f6cd-8bdc-4b64-9709-25a650662d4c'
p2397
asbasbasbag63
(g79
g65
NtRp2398
(dp2399
g68
(dp2400
sg77
g73
sg70
(lp2401
g63
(g84
g65
NtRp2402
(dp2403
g68
(dp2404
g88
g89
ssg77
g2398
sg70
(lp2405
S'vars'
p2406
asbag63
(g84
g65
NtRp2407
(dp2408
g68
(dp2409
g95
g96
ssg77
g2398
sg70
(lp2410
S':'
asbag63
(g84
g65
NtRp2411
(dp2412
g68
(dp2413
sg77
g2398
sg70
(lp2414
g63
(g64
g65
NtRp2415
(dp2416
g68
(dp2417
g76
I5
ssg77
g2411
sg70
(lp2418
g63
(g72
g65
NtRp2419
(dp2420
g68
(dp2421
g76
I4
ssg77
Nsg70
(lp2422
sbasbasbasbag63
(g79
g65
NtRp2423
(dp2424
g68
(dp2425
sg77
g73
sg70
(lp2426
g63
(g84
g65
NtRp2427
(dp2428
g68
(dp2429
g88
g89
ssg77
g2423
sg70
(lp2430
S'wsgi'
p2431
asbag63
(g84
g65
NtRp2432
(dp2433
g68
(dp2434
g95
g96
ssg77
g2423
sg70
(lp2435
S':'
asbag63
(g84
g65
NtRp2436
(dp2437
g68
(dp2438
sg77
g2423
sg70
(lp2439
g63
(g64
g65
NtRp2440
(dp2441
g68
(dp2442
g76
I5
ssg77
g2436
sg70
(lp2443
g63
(g72
g65
NtRp2444
(dp2445
g68
(dp2446
g76
I4
ssg77
Nsg70
(lp2447
g63
(g79
g65
NtRp2448
(dp2449
g68
(dp2450
sg77
g2444
sg70
(lp2451
g63
(g84
g65
NtRp2452
(dp2453
g68
(dp2454
g88
g89
ssg77
g2448
sg70
(lp2455
S'environ'
p2456
asbag63
(g84
g65
NtRp2457
(dp2458
g68
(dp2459
g95
g96
ssg77
g2448
sg70
(lp2460
S':'
asbag63
(g84
g65
NtRp2461
(dp2462
g68
(dp2463
sg77
g2448
sg70
(lp2464
g63
(g64
g65
NtRp2465
(dp2466
g68
(dp2467
g76
I4
ssg77
g2461
sg70
(lp2468
g63
(g72
g65
NtRp2469
(dp2470
g68
(dp2471
g76
I3
ssg77
Nsg70
(lp2472
g63
(g79
g65
NtRp2473
(dp2474
g68
(dp2475
sg77
g2469
sg70
(lp2476
g63
(g84
g65
NtRp2477
(dp2478
g68
(dp2479
g88
g89
ssg77
g2473
sg70
(lp2480
S'HTTP_ACCEPT'
p2481
asbag63
(g84
g65
NtRp2482
(dp2483
g68
(dp2484
g95
g96
ssg77
g2473
sg70
(lp2485
S':'
asbag63
(g84
g65
NtRp2486
(dp2487
g68
(dp2488
sg77
g2473
sg70
(lp2489
g63
(g64
g65
NtRp2490
(dp2491
g68
(dp2492
g76
I3
ssg77
g2486
sg70
(lp2493
g874
asbasbasbag63
(g79
g65
NtRp2494
(dp2495
g68
(dp2496
sg77
g2469
sg70
(lp2497
g63
(g84
g65
NtRp2498
(dp2499
g68
(dp2500
g88
g89
ssg77
g2494
sg70
(lp2501
S'HTTP_ACCEPT_ENCODING'
p2502
asbag63
(g84
g65
NtRp2503
(dp2504
g68
(dp2505
g95
g96
ssg77
g2494
sg70
(lp2506
S':'
asbag63
(g84
g65
NtRp2507
(dp2508
g68
(dp2509
sg77
g2494
sg70
(lp2510
g63
(g64
g65
NtRp2511
(dp2512
g68
(dp2513
g76
I3
ssg77
g2507
sg70
(lp2514
g896
asbasbasbag63
(g79
g65
NtRp2515
(dp2516
g68
(dp2517
sg77
g2469
sg70
(lp2518
g63
(g84
g65
NtRp2519
(dp2520
g68
(dp2521
g88
g89
ssg77
g2515
sg70
(lp2522
S'HTTP_ACCEPT_LANGUAGE'
p2523
asbag63
(g84
g65
NtRp2524
(dp2525
g68
(dp2526
g95
g96
ssg77
g2515
sg70
(lp2527
S':'
asbag63
(g84
g65
NtRp2528
(dp2529
g68
(dp2530
sg77
g2515
sg70
(lp2531
g63
(g64
g65
NtRp2532
(dp2533
g68
(dp2534
g76
I3
ssg77
g2528
sg70
(lp2535
g918
asbasbasbag63
(g79
g65
NtRp2536
(dp2537
g68
(dp2538
sg77
g2469
sg70
(lp2539
g63
(g84
g65
NtRp2540
(dp2541
g68
(dp2542
g88
g89
ssg77
g2536
sg70
(lp2543
S'HTTP_CONNECTION'
p2544
asbag63
(g84
g65
NtRp2545
(dp2546
g68
(dp2547
g95
g96
ssg77
g2536
sg70
(lp2548
S':'
asbag63
(g84
g65
NtRp2549
(dp2550
g68
(dp2551
sg77
g2536
sg70
(lp2552
g63
(g64
g65
NtRp2553
(dp2554
g68
(dp2555
g76
I3
ssg77
g2549
sg70
(lp2556
g940
asbasbasbag63
(g79
g65
NtRp2557
(dp2558
g68
(dp2559
sg77
g2469
sg70
(lp2560
g63
(g84
g65
NtRp2561
(dp2562
g68
(dp2563
g88
g89
ssg77
g2557
sg70
(lp2564
S'HTTP_COOKIE'
p2565
asbag63
(g84
g65
NtRp2566
(dp2567
g68
(dp2568
g95
g96
ssg77
g2557
sg70
(lp2569
S':'
asbag63
(g84
g65
NtRp2570
(dp2571
g68
(dp2572
sg77
g2557
sg70
(lp2573
g63
(g64
g65
NtRp2574
(dp2575
g68
(dp2576
g76
I3
ssg77
g2570
sg70
(lp2577
g962
asbasbasbag63
(g79
g65
NtRp2578
(dp2579
g68
(dp2580
sg77
g2469
sg70
(lp2581
g63
(g84
g65
NtRp2582
(dp2583
g68
(dp2584
g88
g89
ssg77
g2578
sg70
(lp2585
S'HTTP_HOST'
p2586
asbag63
(g84
g65
NtRp2587
(dp2588
g68
(dp2589
g95
g96
ssg77
g2578
sg70
(lp2590
S':'
asbag63
(g84
g65
NtRp2591
(dp2592
g68
(dp2593
sg77
g2578
sg70
(lp2594
g63
(g64
g65
NtRp2595
(dp2596
g68
(dp2597
g76
I3
ssg77
g2591
sg70
(lp2598
g984
asbasbasbag63
(g79
g65
NtRp2599
(dp2600
g68
(dp2601
sg77
g2469
sg70
(lp2602
g63
(g84
g65
NtRp2603
(dp2604
g68
(dp2605
g88
g89
ssg77
g2599
sg70
(lp2606
S'HTTP_REFERER'
p2607
asbag63
(g84
g65
NtRp2608
(dp2609
g68
(dp2610
g95
g96
ssg77
g2599
sg70
(lp2611
S':'
asbag63
(g84
g65
NtRp2612
(dp2613
g68
(dp2614
sg77
g2599
sg70
(lp2615
g63
(g64
g65
NtRp2616
(dp2617
g68
(dp2618
g76
I3
ssg77
g2612
sg70
(lp2619
g1006
asbasbasbag63
(g79
g65
NtRp2620
(dp2621
g68
(dp2622
sg77
g2469
sg70
(lp2623
g63
(g84
g65
NtRp2624
(dp2625
g68
(dp2626
g88
g89
ssg77
g2620
sg70
(lp2627
S'HTTP_USER_AGENT'
p2628
asbag63
(g84
g65
NtRp2629
(dp2630
g68
(dp2631
g95
g96
ssg77
g2620
sg70
(lp2632
S':'
asbag63
(g84
g65
NtRp2633
(dp2634
g68
(dp2635
sg77
g2620
sg70
(lp2636
g63
(g64
g65
NtRp2637
(dp2638
g68
(dp2639
g76
I3
ssg77
g2633
sg70
(lp2640
g1028
asbasbasbag63
(g79
g65
NtRp2641
(dp2642
g68
(dp2643
sg77
g2469
sg70
(lp2644
g63
(g84
g65
NtRp2645
(dp2646
g68
(dp2647
g88
g89
ssg77
g2641
sg70
(lp2648
S'PATH_INFO'
p2649
asbag63
(g84
g65
NtRp2650
(dp2651
g68
(dp2652
g95
g96
ssg77
g2641
sg70
(lp2653
S':'
asbag63
(g84
g65
NtRp2654
(dp2655
g68
(dp2656
sg77
g2641
sg70
(lp2657
g63
(g64
g65
NtRp2658
(dp2659
g68
(dp2660
g76
I3
ssg77
g2654
sg70
(lp2661
g1182
asbasbasbag63
(g79
g65
NtRp2662
(dp2663
g68
(dp2664
sg77
g2469
sg70
(lp2665
g63
(g84
g65
NtRp2666
(dp2667
g68
(dp2668
g88
g89
ssg77
g2662
sg70
(lp2669
S'QUERY_STRING'
p2670
asbag63
(g84
g65
NtRp2671
(dp2672
g68
(dp2673
g95
g96
ssg77
g2662
sg70
(lp2674
S':'
asbag63
(g84
g65
NtRp2675
(dp2676
g68
(dp2677
sg77
g2662
sg70
(lp2678
g63
(g64
g65
NtRp2679
(dp2680
g68
(dp2681
g76
I3
ssg77
g2675
sg70
(lp2682
S''
asbasbasbag63
(g79
g65
NtRp2683
(dp2684
g68
(dp2685
sg77
g2469
sg70
(lp2686
g63
(g84
g65
NtRp2687
(dp2688
g68
(dp2689
g88
g89
ssg77
g2683
sg70
(lp2690
S'REMOTE_ADDR'
p2691
asbag63
(g84
g65
NtRp2692
(dp2693
g68
(dp2694
g95
g96
ssg77
g2683
sg70
(lp2695
S':'
asbag63
(g84
g65
NtRp2696
(dp2697
g68
(dp2698
sg77
g2683
sg70
(lp2699
g63
(g64
g65
NtRp2700
(dp2701
g68
(dp2702
g76
I3
ssg77
g2696
sg70
(lp2703
g244
asbasbasbag63
(g79
g65
NtRp2704
(dp2705
g68
(dp2706
sg77
g2469
sg70
(lp2707
g63
(g84
g65
NtRp2708
(dp2709
g68
(dp2710
g88
g89
ssg77
g2704
sg70
(lp2711
S'REMOTE_PORT'
p2712
asbag63
(g84
g65
NtRp2713
(dp2714
g68
(dp2715
g95
g96
ssg77
g2704
sg70
(lp2716
S':'
asbag63
(g84
g65
NtRp2717
(dp2718
g68
(dp2719
sg77
g2704
sg70
(lp2720
g63
(g64
g65
NtRp2721
(dp2722
g68
(dp2723
g76
I3
ssg77
g2717
sg70
(lp2724
g1246
asbasbasbag63
(g79
g65
NtRp2725
(dp2726
g68
(dp2727
sg77
g2469
sg70
(lp2728
g63
(g84
g65
NtRp2729
(dp2730
g68
(dp2731
g88
g89
ssg77
g2725
sg70
(lp2732
S'REQUEST_METHOD'
p2733
asbag63
(g84
g65
NtRp2734
(dp2735
g68
(dp2736
g95
g96
ssg77
g2725
sg70
(lp2737
S':'
asbag63
(g84
g65
NtRp2738
(dp2739
g68
(dp2740
sg77
g2725
sg70
(lp2741
g63
(g64
g65
NtRp2742
(dp2743
g68
(dp2744
g76
I3
ssg77
g2738
sg70
(lp2745
g1268
asbasbasbag63
(g79
g65
NtRp2746
(dp2747
g68
(dp2748
sg77
g2469
sg70
(lp2749
g63
(g84
g65
NtRp2750
(dp2751
g68
(dp2752
g88
g89
ssg77
g2746
sg70
(lp2753
S'REQUEST_URI'
p2754
asbag63
(g84
g65
NtRp2755
(dp2756
g68
(dp2757
g95
g96
ssg77
g2746
sg70
(lp2758
S':'
asbag63
(g84
g65
NtRp2759
(dp2760
g68
(dp2761
sg77
g2746
sg70
(lp2762
g63
(g64
g65
NtRp2763
(dp2764
g68
(dp2765
g76
I3
ssg77
g2759
sg70
(lp2766
g1182
asbasbasbag63
(g79
g65
NtRp2767
(dp2768
g68
(dp2769
sg77
g2469
sg70
(lp2770
g63
(g84
g65
NtRp2771
(dp2772
g68
(dp2773
g88
g89
ssg77
g2767
sg70
(lp2774
S'SCRIPT_NAME'
p2775
asbag63
(g84
g65
NtRp2776
(dp2777
g68
(dp2778
g95
g96
ssg77
g2767
sg70
(lp2779
S':'
asbag63
(g84
g65
NtRp2780
(dp2781
g68
(dp2782
sg77
g2767
sg70
(lp2783
g63
(g64
g65
NtRp2784
(dp2785
g68
(dp2786
g76
I3
ssg77
g2780
sg70
(lp2787
S''
asbasbasbag63
(g79
g65
NtRp2788
(dp2789
g68
(dp2790
sg77
g2469
sg70
(lp2791
g63
(g84
g65
NtRp2792
(dp2793
g68
(dp2794
g88
g89
ssg77
g2788
sg70
(lp2795
S'SERVER_NAME'
p2796
asbag63
(g84
g65
NtRp2797
(dp2798
g68
(dp2799
g95
g96
ssg77
g2788
sg70
(lp2800
S':'
asbag63
(g84
g65
NtRp2801
(dp2802
g68
(dp2803
sg77
g2788
sg70
(lp2804
g63
(g64
g65
NtRp2805
(dp2806
g68
(dp2807
g76
I3
ssg77
g2801
sg70
(lp2808
g1147
asbasbasbag63
(g79
g65
NtRp2809
(dp2810
g68
(dp2811
sg77
g2469
sg70
(lp2812
g63
(g84
g65
NtRp2813
(dp2814
g68
(dp2815
g88
g89
ssg77
g2809
sg70
(lp2816
S'SERVER_PORT'
p2817
asbag63
(g84
g65
NtRp2818
(dp2819
g68
(dp2820
g95
g96
ssg77
g2809
sg70
(lp2821
S':'
asbag63
(g84
g65
NtRp2822
(dp2823
g68
(dp2824
sg77
g2809
sg70
(lp2825
g63
(g64
g65
NtRp2826
(dp2827
g68
(dp2828
g76
I3
ssg77
g2822
sg70
(lp2829
g1353
asbasbasbag63
(g79
g65
NtRp2830
(dp2831
g68
(dp2832
sg77
g2469
sg70
(lp2833
g63
(g84
g65
NtRp2834
(dp2835
g68
(dp2836
g88
g89
ssg77
g2830
sg70
(lp2837
S'SERVER_PROTOCOL'
p2838
asbag63
(g84
g65
NtRp2839
(dp2840
g68
(dp2841
g95
g96
ssg77
g2830
sg70
(lp2842
S':'
asbag63
(g84
g65
NtRp2843
(dp2844
g68
(dp2845
sg77
g2830
sg70
(lp2846
g63
(g64
g65
NtRp2847
(dp2848
g68
(dp2849
g76
I3
ssg77
g2843
sg70
(lp2850
g1375
asbasbasbag63
(g79
g65
NtRp2851
(dp2852
g68
(dp2853
sg77
g2469
sg70
(lp2854
g63
(g84
g65
NtRp2855
(dp2856
g68
(dp2857
g88
g89
ssg77
g2851
sg70
(lp2858
S'SERVER_SOFTWARE'
p2859
asbag63
(g84
g65
NtRp2860
(dp2861
g68
(dp2862
g95
g96
ssg77
g2851
sg70
(lp2863
S':'
asbag63
(g84
g65
NtRp2864
(dp2865
g68
(dp2866
sg77
g2851
sg70
(lp2867
g63
(g64
g65
NtRp2868
(dp2869
g68
(dp2870
g76
I3
ssg77
g2864
sg70
(lp2871
g1397
asbasbasbag63
(g79
g65
NtRp2872
(dp2873
g68
(dp2874
sg77
g2469
sg70
(lp2875
g63
(g84
g65
NtRp2876
(dp2877
g68
(dp2878
g88
g89
ssg77
g2872
sg70
(lp2879
S'wsgi.errors'
p2880
asbag63
(g84
g65
NtRp2881
(dp2882
g68
(dp2883
g95
g96
ssg77
g2872
sg70
(lp2884
S':'
asbag63
(g84
g65
NtRp2885
(dp2886
g68
(dp2887
sg77
g2872
sg70
(lp2888
g63
(g64
g65
NtRp2889
(dp2890
g68
(dp2891
g76
I3
ssg77
g2885
sg70
(lp2892
S"<open file '<stderr>', mode 'w' at 0x2b2089f44270>"
p2893
asbasbasbag63
(g79
g65
NtRp2894
(dp2895
g68
(dp2896
sg77
g2469
sg70
(lp2897
g63
(g84
g65
NtRp2898
(dp2899
g68
(dp2900
g88
g89
ssg77
g2894
sg70
(lp2901
S'wsgi.file_wrapper'
p2902
asbag63
(g84
g65
NtRp2903
(dp2904
g68
(dp2905
g95
g96
ssg77
g2894
sg70
(lp2906
S':'
asbag63
(g84
g65
NtRp2907
(dp2908
g68
(dp2909
sg77
g2894
sg70
(lp2910
g63
(g64
g65
NtRp2911
(dp2912
g68
(dp2913
g76
I3
ssg77
g2907
sg70
(lp2914
S'<class wsgiref.util.FileWrapper at 0x1fc92a78>'
p2915
asbasbasbag63
(g79
g65
NtRp2916
(dp2917
g68
(dp2918
sg77
g2469
sg70
(lp2919
g63
(g84
g65
NtRp2920
(dp2921
g68
(dp2922
g88
g89
ssg77
g2916
sg70
(lp2923
S'wsgi.input'
p2924
asbag63
(g84
g65
NtRp2925
(dp2926
g68
(dp2927
g95
g96
ssg77
g2916
sg70
(lp2928
S':'
asbag63
(g84
g65
NtRp2929
(dp2930
g68
(dp2931
sg77
g2916
sg70
(lp2932
g63
(g64
g65
NtRp2933
(dp2934
g68
(dp2935
g76
I3
ssg77
g2929
sg70
(lp2936
S'<cStringIO.StringO object at 0x200af880>'
p2937
asbasbasbag63
(g79
g65
NtRp2938
(dp2939
g68
(dp2940
sg77
g2469
sg70
(lp2941
g63
(g84
g65
NtRp2942
(dp2943
g68
(dp2944
g88
g89
ssg77
g2938
sg70
(lp2945
S'wsgi.multiprocess'
p2946
asbag63
(g84
g65
NtRp2947
(dp2948
g68
(dp2949
g95
g96
ssg77
g2938
sg70
(lp2950
S':'
asbag63
(g84
g65
NtRp2951
(dp2952
g68
(dp2953
sg77
g2938
sg70
(lp2954
g63
(g64
g65
NtRp2955
(dp2956
g68
(dp2957
g76
I3
ssg77
g2951
sg70
(lp2958
g106
asbasbasbag63
(g79
g65
NtRp2959
(dp2960
g68
(dp2961
sg77
g2469
sg70
(lp2962
g63
(g84
g65
NtRp2963
(dp2964
g68
(dp2965
g88
g89
ssg77
g2959
sg70
(lp2966
S'wsgi.multithread'
p2967
asbag63
(g84
g65
NtRp2968
(dp2969
g68
(dp2970
g95
g96
ssg77
g2959
sg70
(lp2971
S':'
asbag63
(g84
g65
NtRp2972
(dp2973
g68
(dp2974
sg77
g2959
sg70
(lp2975
g63
(g64
g65
NtRp2976
(dp2977
g68
(dp2978
g76
I3
ssg77
g2972
sg70
(lp2979
g1614
asbasbasbag63
(g79
g65
NtRp2980
(dp2981
g68
(dp2982
sg77
g2469
sg70
(lp2983
g63
(g84
g65
NtRp2984
(dp2985
g68
(dp2986
g88
g89
ssg77
g2980
sg70
(lp2987
S'wsgi.run_once'
p2988
asbag63
(g84
g65
NtRp2989
(dp2990
g68
(dp2991
g95
g96
ssg77
g2980
sg70
(lp2992
S':'
asbag63
(g84
g65
NtRp2993
(dp2994
g68
(dp2995
sg77
g2980
sg70
(lp2996
g63
(g64
g65
NtRp2997
(dp2998
g68
(dp2999
g76
I3
ssg77
g2993
sg70
(lp3000
g106
asbasbasbag63
(g79
g65
NtRp3001
(dp3002
g68
(dp3003
sg77
g2469
sg70
(lp3004
g63
(g84
g65
NtRp3005
(dp3006
g68
(dp3007
g88
g89
ssg77
g3001
sg70
(lp3008
S'wsgi.url_scheme'
p3009
asbag63
(g84
g65
NtRp3010
(dp3011
g68
(dp3012
g95
g96
ssg77
g3001
sg70
(lp3013
S':'
asbag63
(g84
g65
NtRp3014
(dp3015
g68
(dp3016
sg77
g3001
sg70
(lp3017
g63
(g64
g65
NtRp3018
(dp3019
g68
(dp3020
g76
I3
ssg77
g3014
sg70
(lp3021
g1657
asbasbasbag63
(g79
g65
NtRp3022
(dp3023
g68
(dp3024
sg77
g2469
sg70
(lp3025
g63
(g84
g65
NtRp3026
(dp3027
g68
(dp3028
g88
g89
ssg77
g3022
sg70
(lp3029
S'wsgi.version'
p3030
asbag63
(g84
g65
NtRp3031
(dp3032
g68
(dp3033
g95
g96
ssg77
g3022
sg70
(lp3034
S':'
asbag63
(g84
g65
NtRp3035
(dp3036
g68
(dp3037
sg77
g3022
sg70
(lp3038
g63
(g64
g65
NtRp3039
(dp3040
g68
(dp3041
g76
I3
ssg77
g3035
sg70
(lp3042
S'1'
asbasbasbasbasbasbasbasbasbasbasbasbasbsS'frames'
p3043
(lp3044
(dp3045
S'file'
p3046
S'/home/xchen/web2py/gluon/restricted.py'
p3047
sS'dump'
p3048
(dp3049
S'environment'
p3050
S"{'A': <class 'gluon.html.A'>, 'Auth': <class 'gluon.tools.Auth'>, 'B': <class 'gluon.html.B'>, 'BEAUTIFY': <class 'gluon.html.BEAUTIFY'>, 'BODY': <class 'gluon.html.BODY'>, 'BR': <class 'gluon.html.BR'>, 'BUTTON': <class 'gluon.html.BUTTON'>, 'CAT': <class 'gluon.html.CAT'>, 'CENTER': <class 'gluon.html.CENTER'>, 'CLEANUP': <class 'gluon.validators.CLEANUP'>, ...}"
p3051
sS'ccode'
p3052
S'<code object <module> at 0x200297b0, file "/home...plications/Betsy/controllers/default.py", line 3>'
p3053
ssS'lnum'
p3054
I212
sS'lines'
p3055
(dp3056
I207
S'    try:'
p3057
sI208
S'        if isinstance(code, types.CodeType):'
p3058
sI209
S'            ccode = code'
p3059
sI210
S'        else:'
p3060
sI211
S'            ccode = compile2(code, layer)'
p3061
sI212
S'        exec ccode in environment'
p3062
sI213
S'    except HTTP:'
p3063
sI214
S'        raise'
p3064
sI215
S'    except RestrictedError:'
p3065
sI216
S'        # do not encapsulate (obfuscate) the original RestrictedError'
p3066
ssS'call'
p3067
S'(code="# -*- coding: utf-8 -*-\\n\\nupload_path = \'/home/xc...\\n\\nresponse._vars=response._caller(result_folder)\\n", environment={\'A\': <class \'gluon.html.A\'>, \'Auth\': <class \'gluon.tools.Auth\'>, \'B\': <class \'gluon.html.B\'>, \'BEAUTIFY\': <class \'gluon.html.BEAUTIFY\'>, \'BODY\': <class \'gluon.html.BODY\'>, \'BR\': <class \'gluon.html.BR\'>, \'BUTTON\': <class \'gluon.html.BUTTON\'>, \'CAT\': <class \'gluon.html.CAT\'>, \'CENTER\': <class \'gluon.html.CENTER\'>, \'CLEANUP\': <class \'gluon.validators.CLEANUP\'>, ...}, layer=\'/home/xchen/web2py/applications/Betsy/controllers/default.py\')'
p3068
sS'func'
p3069
S'restricted'
p3070
sa(dp3071
g3046
S'/home/xchen/web2py/applications/Betsy/controllers/default.py'
p3072
sg3048
(dp3073
sg3054
I176
sg3055
(dp3074
I165
S''
sI166
S'#    Ctrl+S Save via Ajax'
p3075
sI167
S'#    Ctrl+F11 Toggle Fullscreen'
p3076
sI168
S'#    Ctrl-F / Cmd-F Start searching'
p3077
sI169
S'#    Ctrl-G / Cmd-G Find Next'
p3078
sI170
S'#    Shift-Ctrl-G / Shift-Cmd-G Find Previous'
p3079
sI171
S'#    Shift-Ctrl-F / Cmd-Option-F Replace'
p3080
sI172
S'#    Shift-Ctrl-R / Shift-Cmd-Option-F Replace All'
p3081
sI173
S''
sI174
S'#Powered by web2py\xe2\x84\xa2 created by Massimo Di Pierro \xc2\xa92007-2013 - Admin language'
p3082
ssg3067
S'()'
p3083
sg3069
S'<module>'
p3084
sa(dp3085
g3046
S'/home/xchen/web2py/gluon/globals.py'
p3086
sg3048
(dp3087
S'self'
p3088
S'undefined'
p3089
sS'f'
S'<function result_folder>'
p3090
ssg3054
I188
sg3055
(dp3091
I192
S''
sI183
S'        self.menu = []             # used by the default view layout'
p3092
sI184
S'        self.files = []            # used by web2py_ajax.html'
p3093
sI185
S'        self.generic_patterns = []  # patterns to allow generic views'
p3094
sI186
S"        self.delimiters = ('{{', '}}')"
p3095
sI187
S'        self._vars = None'
p3096
sI188
S'        self._caller = lambda f: f()'
p3097
sI189
S'        self._view_environment = None'
p3098
sI190
S'        self._custom_commit = None'
p3099
sI191
S'        self._custom_rollback = None'
p3100
ssg3067
S'(f=<function result_folder>)'
p3101
sg3069
S'<lambda>'
p3102
sa(dp3103
g3046
S'/home/xchen/web2py/applications/Betsy/controllers/default.py'
p3104
sg3048
(dp3105
S'path'
p3106
S"'/home/xchen/chencode/examples/sample_analysis/pl...d9b3e3.73653266706c617465365f34382e696c6c752e677a'"
p3107
sS'builtinopen'
p3108
S'<built-in function open>'
p3109
sS').read'
p3110
g3089
ssg3054
I107
sg3055
(dp3111
I102
S'    return dict()'
p3112
sI103
S''
sI104
S''
sI105
S'def result_folder():'
p3113
sI106
S"    path = os.path.join('/home/xchen/chencode/examples/sample_analysis',request.args[0]+'/'+request.args[1])"
p3114
sI107
S"    return open(path,'rb').read()"
p3115
sI108
S''
sI109
S''
sI110
S'def user():'
p3116
sI111
S'    """'
p3117
ssg3067
S'()'
p3118
sg3069
S'result_folder'
p3119
sasS'pyver'
p3120
S'Python 2.7.3: /usr/local/bin/python'
p3121
sS'session'
p3122
g63
(g64
g65
NtRp3123
(dp3124
g68
(dp3125
sg70
(lp3126
g63
(g72
g65
NtRp3127
(dp3128
g68
(dp3129
g76
I5
ssg77
Nsg70
(lp3130
g63
(g79
g65
NtRp3131
(dp3132
g68
(dp3133
sg77
g3127
sg70
(lp3134
g63
(g84
g65
NtRp3135
(dp3136
g68
(dp3137
g88
g89
ssg77
g3131
sg70
(lp3138
S'auth'
p3139
asbag63
(g84
g65
NtRp3140
(dp3141
g68
(dp3142
g95
g96
ssg77
g3131
sg70
(lp3143
S':'
asbag63
(g84
g65
NtRp3144
(dp3145
g68
(dp3146
sg77
g3131
sg70
(lp3147
g63
(g64
g65
NtRp3148
(dp3149
g68
(dp3150
g76
I5
ssg77
g3144
sg70
(lp3151
g63
(g72
g65
NtRp3152
(dp3153
g68
(dp3154
g76
I4
ssg77
Nsg70
(lp3155
g63
(g79
g65
NtRp3156
(dp3157
g68
(dp3158
sg77
g3152
sg70
(lp3159
g63
(g84
g65
NtRp3160
(dp3161
g68
(dp3162
g88
g89
ssg77
g3156
sg70
(lp3163
S'expiration'
p3164
asbag63
(g84
g65
NtRp3165
(dp3166
g68
(dp3167
g95
g96
ssg77
g3156
sg70
(lp3168
S':'
asbag63
(g84
g65
NtRp3169
(dp3170
g68
(dp3171
sg77
g3156
sg70
(lp3172
g63
(g64
g65
NtRp3173
(dp3174
g68
(dp3175
g76
I4
ssg77
g3169
sg70
(lp3176
S'2592000'
p3177
asbasbasbag63
(g79
g65
NtRp3178
(dp3179
g68
(dp3180
sg77
g3152
sg70
(lp3181
g63
(g84
g65
NtRp3182
(dp3183
g68
(dp3184
g88
g89
ssg77
g3178
sg70
(lp3185
S'hmac_key'
p3186
asbag63
(g84
g65
NtRp3187
(dp3188
g68
(dp3189
g95
g96
ssg77
g3178
sg70
(lp3190
S':'
asbag63
(g84
g65
NtRp3191
(dp3192
g68
(dp3193
sg77
g3178
sg70
(lp3194
g63
(g64
g65
NtRp3195
(dp3196
g68
(dp3197
g76
I4
ssg77
g3191
sg70
(lp3198
S'739afc94-a36b-429c-8715-edcd03ea4351'
p3199
asbasbasbag63
(g79
g65
NtRp3200
(dp3201
g68
(dp3202
sg77
g3152
sg70
(lp3203
g63
(g84
g65
NtRp3204
(dp3205
g68
(dp3206
g88
g89
ssg77
g3200
sg70
(lp3207
S'last_visit'
p3208
asbag63
(g84
g65
NtRp3209
(dp3210
g68
(dp3211
g95
g96
ssg77
g3200
sg70
(lp3212
S':'
asbag63
(g84
g65
NtRp3213
(dp3214
g68
(dp3215
sg77
g3200
sg70
(lp3216
g63
(g64
g65
NtRp3217
(dp3218
g68
(dp3219
g76
I4
ssg77
g3213
sg70
(lp3220
S'datetime.datetime(2013, 2, 4, 10, 24, 37, 237452)'
p3221
asbasbasbag63
(g79
g65
NtRp3222
(dp3223
g68
(dp3224
sg77
g3152
sg70
(lp3225
g63
(g84
g65
NtRp3226
(dp3227
g68
(dp3228
g88
g89
ssg77
g3222
sg70
(lp3229
S'remember'
p3230
asbag63
(g84
g65
NtRp3231
(dp3232
g68
(dp3233
g95
g96
ssg77
g3222
sg70
(lp3234
S':'
asbag63
(g84
g65
NtRp3235
(dp3236
g68
(dp3237
sg77
g3222
sg70
(lp3238
g63
(g64
g65
NtRp3239
(dp3240
g68
(dp3241
g76
I4
ssg77
g3235
sg70
(lp3242
g1614
asbasbasbag63
(g79
g65
NtRp3243
(dp3244
g68
(dp3245
sg77
g3152
sg70
(lp3246
g63
(g84
g65
NtRp3247
(dp3248
g68
(dp3249
g88
g89
ssg77
g3243
sg70
(lp3250
S'user'
p3251
asbag63
(g84
g65
NtRp3252
(dp3253
g68
(dp3254
g95
g96
ssg77
g3243
sg70
(lp3255
S':'
asbag63
(g84
g65
NtRp3256
(dp3257
g68
(dp3258
sg77
g3243
sg70
(lp3259
g63
(g64
g65
NtRp3260
(dp3261
g68
(dp3262
g76
I4
ssg77
g3256
sg70
(lp3263
g63
(g72
g65
NtRp3264
(dp3265
g68
(dp3266
g76
I3
ssg77
Nsg70
(lp3267
g63
(g79
g65
NtRp3268
(dp3269
g68
(dp3270
sg77
g3264
sg70
(lp3271
g63
(g84
g65
NtRp3272
(dp3273
g68
(dp3274
g88
g89
ssg77
g3268
sg70
(lp3275
S'email'
p3276
asbag63
(g84
g65
NtRp3277
(dp3278
g68
(dp3279
g95
g96
ssg77
g3268
sg70
(lp3280
S':'
asbag63
(g84
g65
NtRp3281
(dp3282
g68
(dp3283
sg77
g3268
sg70
(lp3284
g63
(g64
g65
NtRp3285
(dp3286
g68
(dp3287
g76
I3
ssg77
g3281
sg70
(lp3288
S'xiaoling.chen@uth.tmc.edu'
p3289
asbasbasbag63
(g79
g65
NtRp3290
(dp3291
g68
(dp3292
sg77
g3264
sg70
(lp3293
g63
(g84
g65
NtRp3294
(dp3295
g68
(dp3296
g88
g89
ssg77
g3290
sg70
(lp3297
S'first_name'
p3298
asbag63
(g84
g65
NtRp3299
(dp3300
g68
(dp3301
g95
g96
ssg77
g3290
sg70
(lp3302
S':'
asbag63
(g84
g65
NtRp3303
(dp3304
g68
(dp3305
sg77
g3290
sg70
(lp3306
g63
(g64
g65
NtRp3307
(dp3308
g68
(dp3309
g76
I3
ssg77
g3303
sg70
(lp3310
S'Xiaoling'
p3311
asbasbasbag63
(g79
g65
NtRp3312
(dp3313
g68
(dp3314
sg77
g3264
sg70
(lp3315
g63
(g84
g65
NtRp3316
(dp3317
g68
(dp3318
g88
g89
ssg77
g3312
sg70
(lp3319
S'id'
p3320
asbag63
(g84
g65
NtRp3321
(dp3322
g68
(dp3323
g95
g96
ssg77
g3312
sg70
(lp3324
S':'
asbag63
(g84
g65
NtRp3325
(dp3326
g68
(dp3327
sg77
g3312
sg70
(lp3328
g63
(g64
g65
NtRp3329
(dp3330
g68
(dp3331
g76
I3
ssg77
g3325
sg70
(lp3332
S'1'
asbasbasbag63
(g79
g65
NtRp3333
(dp3334
g68
(dp3335
sg77
g3264
sg70
(lp3336
g63
(g84
g65
NtRp3337
(dp3338
g68
(dp3339
g88
g89
ssg77
g3333
sg70
(lp3340
S'last_name'
p3341
asbag63
(g84
g65
NtRp3342
(dp3343
g68
(dp3344
g95
g96
ssg77
g3333
sg70
(lp3345
S':'
asbag63
(g84
g65
NtRp3346
(dp3347
g68
(dp3348
sg77
g3333
sg70
(lp3349
g63
(g64
g65
NtRp3350
(dp3351
g68
(dp3352
g76
I3
ssg77
g3346
sg70
(lp3353
S'Chen'
p3354
asbasbasbag63
(g79
g65
NtRp3355
(dp3356
g68
(dp3357
sg77
g3264
sg70
(lp3358
g63
(g84
g65
NtRp3359
(dp3360
g68
(dp3361
g88
g89
ssg77
g3355
sg70
(lp3362
S'registration_id'
p3363
asbag63
(g84
g65
NtRp3364
(dp3365
g68
(dp3366
g95
g96
ssg77
g3355
sg70
(lp3367
S':'
asbag63
(g84
g65
NtRp3368
(dp3369
g68
(dp3370
sg77
g3355
sg70
(lp3371
g63
(g64
g65
NtRp3372
(dp3373
g68
(dp3374
g76
I3
ssg77
g3368
sg70
(lp3375
S''
asbasbasbag63
(g79
g65
NtRp3376
(dp3377
g68
(dp3378
sg77
g3264
sg70
(lp3379
g63
(g84
g65
NtRp3380
(dp3381
g68
(dp3382
g88
g89
ssg77
g3376
sg70
(lp3383
S'registration_key'
p3384
asbag63
(g84
g65
NtRp3385
(dp3386
g68
(dp3387
g95
g96
ssg77
g3376
sg70
(lp3388
S':'
asbag63
(g84
g65
NtRp3389
(dp3390
g68
(dp3391
sg77
g3376
sg70
(lp3392
g63
(g64
g65
NtRp3393
(dp3394
g68
(dp3395
g76
I3
ssg77
g3389
sg70
(lp3396
S''
asbasbasbag63
(g79
g65
NtRp3397
(dp3398
g68
(dp3399
sg77
g3264
sg70
(lp3400
g63
(g84
g65
NtRp3401
(dp3402
g68
(dp3403
g88
g89
ssg77
g3397
sg70
(lp3404
S'reset_password_key'
p3405
asbag63
(g84
g65
NtRp3406
(dp3407
g68
(dp3408
g95
g96
ssg77
g3397
sg70
(lp3409
S':'
asbag63
(g84
g65
NtRp3410
(dp3411
g68
(dp3412
sg77
g3397
sg70
(lp3413
g63
(g64
g65
NtRp3414
(dp3415
g68
(dp3416
g76
I3
ssg77
g3410
sg70
(lp3417
S''
asbasbasbasbasbasbasbag63
(g79
g65
NtRp3418
(dp3419
g68
(dp3420
sg77
g3152
sg70
(lp3421
g63
(g84
g65
NtRp3422
(dp3423
g68
(dp3424
g88
g89
ssg77
g3418
sg70
(lp3425
S'user_groups'
p3426
asbag63
(g84
g65
NtRp3427
(dp3428
g68
(dp3429
g95
g96
ssg77
g3418
sg70
(lp3430
S':'
asbag63
(g84
g65
NtRp3431
(dp3432
g68
(dp3433
sg77
g3418
sg70
(lp3434
g63
(g64
g65
NtRp3435
(dp3436
g68
(dp3437
g76
I4
ssg77
g3431
sg70
(lp3438
g63
(g72
g65
NtRp3439
(dp3440
g68
(dp3441
g76
I3
ssg77
Nsg70
(lp3442
g63
(g79
g65
NtRp3443
(dp3444
g68
(dp3445
sg77
g3439
sg70
(lp3446
g63
(g84
g65
NtRp3447
(dp3448
g68
(dp3449
g88
g89
ssg77
g3443
sg70
(lp3450
S'1'
asbag63
(g84
g65
NtRp3451
(dp3452
g68
(dp3453
g95
g96
ssg77
g3443
sg70
(lp3454
S':'
asbag63
(g84
g65
NtRp3455
(dp3456
g68
(dp3457
sg77
g3443
sg70
(lp3458
g63
(g64
g65
NtRp3459
(dp3460
g68
(dp3461
g76
I3
ssg77
g3455
sg70
(lp3462
S'user_1'
p3463
asbasbasbasbasbasbasbasbasbasbasbag63
(g79
g65
NtRp3464
(dp3465
g68
(dp3466
sg77
g3127
sg70
(lp3467
g63
(g84
g65
NtRp3468
(dp3469
g68
(dp3470
g88
g89
ssg77
g3464
sg70
(lp3471
S'cmd'
p3472
asbag63
(g84
g65
NtRp3473
(dp3474
g68
(dp3475
g95
g96
ssg77
g3464
sg70
(lp3476
S':'
asbag63
(g84
g65
NtRp3477
(dp3478
g68
(dp3479
sg77
g3464
sg70
(lp3480
g63
(g64
g65
NtRp3481
(dp3482
g68
(dp3483
g76
I5
ssg77
g3477
sg70
(lp3484
g63
(g72
g65
NtRp3485
(dp3486
g68
(dp3487
g76
I4
ssg77
Nsg70
(lp3488
g63
(g79
g65
NtRp3489
(dp3490
g68
(dp3491
sg77
g3485
sg70
(lp3492
g63
(g84
g65
NtRp3493
(dp3494
g68
(dp3495
sg77
g3489
sg70
(lp3496
g63
(g64
g65
NtRp3497
(dp3498
g68
(dp3499
g76
I4
ssg77
g3493
sg70
(lp3500
S'python'
p3501
asbasbasbag63
(g79
g65
NtRp3502
(dp3503
g68
(dp3504
sg77
g3485
sg70
(lp3505
g63
(g84
g65
NtRp3506
(dp3507
g68
(dp3508
sg77
g3502
sg70
(lp3509
g63
(g64
g65
NtRp3510
(dp3511
g68
(dp3512
g76
I4
ssg77
g3506
sg70
(lp3513
S'/home/xchen/chencode/tmp/try_parallel/queue.py'
p3514
asbasbasbag63
(g79
g65
NtRp3515
(dp3516
g68
(dp3517
sg77
g3485
sg70
(lp3518
g63
(g84
g65
NtRp3519
(dp3520
g68
(dp3521
sg77
g3515
sg70
(lp3522
g63
(g64
g65
NtRp3523
(dp3524
g68
(dp3525
g76
I4
ssg77
g3519
sg70
(lp3526
S'python /home/xchen/chencode/Betsy/scripts/run_protocol.py --protocol normalize_file --input input_signal_file:/home/xchen/chencode/upload/no_table.myfile1.a8dd7d225fa076b2.4368616e675f415230303431302e70636c.pcl --parameters has_missing_value:zero_fill --parameters preprocess:unknown_preprocess'
p3527
asbasbasbasbasbasbasbag63
(g79
g65
NtRp3528
(dp3529
g68
(dp3530
sg77
g3127
sg70
(lp3531
g63
(g84
g65
NtRp3532
(dp3533
g68
(dp3534
g88
g89
ssg77
g3528
sg70
(lp3535
S'command'
p3536
asbag63
(g84
g65
NtRp3537
(dp3538
g68
(dp3539
g95
g96
ssg77
g3528
sg70
(lp3540
S':'
asbag63
(g84
g65
NtRp3541
(dp3542
g68
(dp3543
sg77
g3528
sg70
(lp3544
g63
(g64
g65
NtRp3545
(dp3546
g68
(dp3547
g76
I5
ssg77
g3541
sg70
(lp3548
S'--input input_signal_file:myfile1 --parameters has_missing_value:zero_fill'
p3549
asbasbasbag63
(g79
g65
NtRp3550
(dp3551
g68
(dp3552
sg77
g3127
sg70
(lp3553
g63
(g84
g65
NtRp3554
(dp3555
g68
(dp3556
g88
g89
ssg77
g3550
sg70
(lp3557
S'flash'
p3558
asbag63
(g84
g65
NtRp3559
(dp3560
g68
(dp3561
g95
g96
ssg77
g3550
sg70
(lp3562
S':'
asbag63
(g84
g65
NtRp3563
(dp3564
g68
(dp3565
sg77
g3550
sg70
(lp3566
g63
(g64
g65
NtRp3567
(dp3568
g68
(dp3569
g76
I5
ssg77
g3563
sg70
(lp3570
S'None'
p3571
asbasbasbag63
(g79
g65
NtRp3572
(dp3573
g68
(dp3574
sg77
g3127
sg70
(lp3575
g63
(g84
g65
NtRp3576
(dp3577
g68
(dp3578
g88
g89
ssg77
g3572
sg70
(lp3579
S'input_file'
p3580
asbag63
(g84
g65
NtRp3581
(dp3582
g68
(dp3583
g95
g96
ssg77
g3572
sg70
(lp3584
S':'
asbag63
(g84
g65
NtRp3585
(dp3586
g68
(dp3587
sg77
g3572
sg70
(lp3588
g63
(g64
g65
NtRp3589
(dp3590
g68
(dp3591
g76
I5
ssg77
g3585
sg70
(lp3592
g63
(g72
g65
NtRp3593
(dp3594
g68
(dp3595
g76
I4
ssg77
Nsg70
(lp3596
g63
(g79
g65
NtRp3597
(dp3598
g68
(dp3599
sg77
g3593
sg70
(lp3600
g63
(g84
g65
NtRp3601
(dp3602
g68
(dp3603
sg77
g3597
sg70
(lp3604
g63
(g64
g65
NtRp3605
(dp3606
g68
(dp3607
g76
I4
ssg77
g3601
sg70
(lp3608
S'--input'
p3609
asbasbasbag63
(g79
g65
NtRp3610
(dp3611
g68
(dp3612
sg77
g3593
sg70
(lp3613
g63
(g84
g65
NtRp3614
(dp3615
g68
(dp3616
sg77
g3610
sg70
(lp3617
g63
(g64
g65
NtRp3618
(dp3619
g68
(dp3620
g76
I4
ssg77
g3614
sg70
(lp3621
S'class_label_file:/home/xchen/chencode/upload/no_table.myfile1_path.a6744497f3a45eda.616c6c5f616d6c5f747261696e2e636c73.cls'
p3622
asbasbasbag63
(g79
g65
NtRp3623
(dp3624
g68
(dp3625
sg77
g3593
sg70
(lp3626
g63
(g84
g65
NtRp3627
(dp3628
g68
(dp3629
sg77
g3623
sg70
(lp3630
g63
(g64
g65
NtRp3631
(dp3632
g68
(dp3633
g76
I4
ssg77
g3627
sg70
(lp3634
g3609
asbasbasbag63
(g79
g65
NtRp3635
(dp3636
g68
(dp3637
sg77
g3593
sg70
(lp3638
g63
(g84
g65
NtRp3639
(dp3640
g68
(dp3641
sg77
g3635
sg70
(lp3642
g63
(g64
g65
NtRp3643
(dp3644
g68
(dp3645
g76
I4
ssg77
g3639
sg70
(lp3646
S'input_signal_file:/home/xchen/chencode/upload/no_table.myfile0_path.a83aa64185321d8a.616c6c5f616d6c5f747261696e2e726573.res'
p3647
asbasbasbasbasbasbasbag63
(g79
g65
NtRp3648
(dp3649
g68
(dp3650
sg77
g3127
sg70
(lp3651
g63
(g84
g65
NtRp3652
(dp3653
g68
(dp3654
g88
g89
ssg77
g3648
sg70
(lp3655
S'label'
p3656
asbag63
(g84
g65
NtRp3657
(dp3658
g68
(dp3659
g95
g96
ssg77
g3648
sg70
(lp3660
S':'
asbag63
(g84
g65
NtRp3661
(dp3662
g68
(dp3663
sg77
g3648
sg70
(lp3664
g63
(g64
g65
NtRp3665
(dp3666
g68
(dp3667
g76
I5
ssg77
g3661
sg70
(lp3668
S'differential_expressed_gene_analysis'
p3669
asbasbasbag63
(g79
g65
NtRp3670
(dp3671
g68
(dp3672
sg77
g3127
sg70
(lp3673
g63
(g84
g65
NtRp3674
(dp3675
g68
(dp3676
g88
g89
ssg77
g3670
sg70
(lp3677
S'last_orderby'
p3678
asbag63
(g84
g65
NtRp3679
(dp3680
g68
(dp3681
g95
g96
ssg77
g3670
sg70
(lp3682
S':'
asbag63
(g84
g65
NtRp3683
(dp3684
g68
(dp3685
sg77
g3670
sg70
(lp3686
g63
(g64
g65
NtRp3687
(dp3688
g68
(dp3689
g76
I5
ssg77
g3683
sg70
(lp3690
S'None'
p3691
asbasbasbag63
(g79
g65
NtRp3692
(dp3693
g68
(dp3694
sg77
g3127
sg70
(lp3695
g63
(g84
g65
NtRp3696
(dp3697
g68
(dp3698
g88
g89
ssg77
g3692
sg70
(lp3699
S'last_query'
p3700
asbag63
(g84
g65
NtRp3701
(dp3702
g68
(dp3703
g95
g96
ssg77
g3692
sg70
(lp3704
S':'
asbag63
(g84
g65
NtRp3705
(dp3706
g68
(dp3707
sg77
g3692
sg70
(lp3708
g63
(g64
g65
NtRp3709
(dp3710
g68
(dp3711
g76
I5
ssg77
g3705
sg70
(lp3712
S'db.status.id>0'
p3713
asbasbasbag63
(g79
g65
NtRp3714
(dp3715
g68
(dp3716
sg77
g3127
sg70
(lp3717
g63
(g84
g65
NtRp3718
(dp3719
g68
(dp3720
g88
g89
ssg77
g3714
sg70
(lp3721
S'myfile0'
p3722
asbag63
(g84
g65
NtRp3723
(dp3724
g68
(dp3725
g95
g96
ssg77
g3714
sg70
(lp3726
S':'
asbag63
(g84
g65
NtRp3727
(dp3728
g68
(dp3729
sg77
g3714
sg70
(lp3730
g63
(g64
g65
NtRp3731
(dp3732
g68
(dp3733
g76
I5
ssg77
g3727
sg70
(lp3734
S'gse_id'
p3735
asbasbasbag63
(g79
g65
NtRp3736
(dp3737
g68
(dp3738
sg77
g3127
sg70
(lp3739
g63
(g84
g65
NtRp3740
(dp3741
g68
(dp3742
g88
g89
ssg77
g3736
sg70
(lp3743
S'myfile1'
p3744
asbag63
(g84
g65
NtRp3745
(dp3746
g68
(dp3747
g95
g96
ssg77
g3736
sg70
(lp3748
S':'
asbag63
(g84
g65
NtRp3749
(dp3750
g68
(dp3751
sg77
g3736
sg70
(lp3752
g63
(g64
g65
NtRp3753
(dp3754
g68
(dp3755
g76
I5
ssg77
g3749
sg70
(lp3756
S''
asbasbasbag63
(g79
g65
NtRp3757
(dp3758
g68
(dp3759
sg77
g3127
sg70
(lp3760
g63
(g84
g65
NtRp3761
(dp3762
g68
(dp3763
g88
g89
ssg77
g3757
sg70
(lp3764
S'myfile2'
p3765
asbag63
(g84
g65
NtRp3766
(dp3767
g68
(dp3768
g95
g96
ssg77
g3757
sg70
(lp3769
S':'
asbag63
(g84
g65
NtRp3770
(dp3771
g68
(dp3772
sg77
g3757
sg70
(lp3773
g63
(g64
g65
NtRp3774
(dp3775
g68
(dp3776
g76
I5
ssg77
g3770
sg70
(lp3777
S''
asbasbasbag63
(g79
g65
NtRp3778
(dp3779
g68
(dp3780
sg77
g3127
sg70
(lp3781
g63
(g84
g65
NtRp3782
(dp3783
g68
(dp3784
g88
g89
ssg77
g3778
sg70
(lp3785
S'myfile3'
p3786
asbag63
(g84
g65
NtRp3787
(dp3788
g68
(dp3789
g95
g96
ssg77
g3778
sg70
(lp3790
S':'
asbag63
(g84
g65
NtRp3791
(dp3792
g68
(dp3793
sg77
g3778
sg70
(lp3794
g63
(g64
g65
NtRp3795
(dp3796
g68
(dp3797
g76
I5
ssg77
g3791
sg70
(lp3798
S''
asbasbasbag63
(g79
g65
NtRp3799
(dp3800
g68
(dp3801
sg77
g3127
sg70
(lp3802
g63
(g84
g65
NtRp3803
(dp3804
g68
(dp3805
g88
g89
ssg77
g3799
sg70
(lp3806
S'myfile4'
p3807
asbag63
(g84
g65
NtRp3808
(dp3809
g68
(dp3810
g95
g96
ssg77
g3799
sg70
(lp3811
S':'
asbag63
(g84
g65
NtRp3812
(dp3813
g68
(dp3814
sg77
g3799
sg70
(lp3815
g63
(g64
g65
NtRp3816
(dp3817
g68
(dp3818
g76
I5
ssg77
g3812
sg70
(lp3819
S''
asbasbasbag63
(g79
g65
NtRp3820
(dp3821
g68
(dp3822
sg77
g3127
sg70
(lp3823
g63
(g84
g65
NtRp3824
(dp3825
g68
(dp3826
g88
g89
ssg77
g3820
sg70
(lp3827
S'myfile5'
p3828
asbag63
(g84
g65
NtRp3829
(dp3830
g68
(dp3831
g95
g96
ssg77
g3820
sg70
(lp3832
S':'
asbag63
(g84
g65
NtRp3833
(dp3834
g68
(dp3835
sg77
g3820
sg70
(lp3836
g63
(g64
g65
NtRp3837
(dp3838
g68
(dp3839
g76
I5
ssg77
g3833
sg70
(lp3840
S''
asbasbasbag63
(g79
g65
NtRp3841
(dp3842
g68
(dp3843
sg77
g3127
sg70
(lp3844
g63
(g84
g65
NtRp3845
(dp3846
g68
(dp3847
g88
g89
ssg77
g3841
sg70
(lp3848
S'myfile6'
p3849
asbag63
(g84
g65
NtRp3850
(dp3851
g68
(dp3852
g95
g96
ssg77
g3841
sg70
(lp3853
S':'
asbag63
(g84
g65
NtRp3854
(dp3855
g68
(dp3856
sg77
g3841
sg70
(lp3857
g63
(g64
g65
NtRp3858
(dp3859
g68
(dp3860
g76
I5
ssg77
g3854
sg70
(lp3861
S'None'
p3862
asbasbasbag63
(g79
g65
NtRp3863
(dp3864
g68
(dp3865
sg77
g3127
sg70
(lp3866
g63
(g84
g65
NtRp3867
(dp3868
g68
(dp3869
g88
g89
ssg77
g3863
sg70
(lp3870
S'output'
p3871
asbag63
(g84
g65
NtRp3872
(dp3873
g68
(dp3874
g95
g96
ssg77
g3863
sg70
(lp3875
S':'
asbag63
(g84
g65
NtRp3876
(dp3877
g68
(dp3878
sg77
g3863
sg70
(lp3879
g63
(g64
g65
NtRp3880
(dp3881
g68
(dp3882
g76
I5
ssg77
g3876
sg70
(lp3883
g63
(g72
g65
NtRp3884
(dp3885
g68
(dp3886
g76
I4
ssg77
Nsg70
(lp3887
sbasbasbasbag63
(g79
g65
NtRp3888
(dp3889
g68
(dp3890
sg77
g3127
sg70
(lp3891
g63
(g84
g65
NtRp3892
(dp3893
g68
(dp3894
g88
g89
ssg77
g3888
sg70
(lp3895
S'parameters'
p3896
asbag63
(g84
g65
NtRp3897
(dp3898
g68
(dp3899
g95
g96
ssg77
g3888
sg70
(lp3900
S':'
asbag63
(g84
g65
NtRp3901
(dp3902
g68
(dp3903
sg77
g3888
sg70
(lp3904
g63
(g64
g65
NtRp3905
(dp3906
g68
(dp3907
g76
I5
ssg77
g3901
sg70
(lp3908
g63
(g72
g65
NtRp3909
(dp3910
g68
(dp3911
g76
I4
ssg77
Nsg70
(lp3912
g63
(g79
g65
NtRp3913
(dp3914
g68
(dp3915
sg77
g3909
sg70
(lp3916
g63
(g84
g65
NtRp3917
(dp3918
g68
(dp3919
sg77
g3913
sg70
(lp3920
g63
(g64
g65
NtRp3921
(dp3922
g68
(dp3923
g76
I4
ssg77
g3917
sg70
(lp3924
S'--parameters'
p3925
asbasbasbag63
(g79
g65
NtRp3926
(dp3927
g68
(dp3928
sg77
g3909
sg70
(lp3929
g63
(g84
g65
NtRp3930
(dp3931
g68
(dp3932
sg77
g3926
sg70
(lp3933
g63
(g64
g65
NtRp3934
(dp3935
g68
(dp3936
g76
I4
ssg77
g3930
sg70
(lp3937
S'gene_center:no_gene_center'
p3938
asbasbasbag63
(g79
g65
NtRp3939
(dp3940
g68
(dp3941
sg77
g3909
sg70
(lp3942
g63
(g84
g65
NtRp3943
(dp3944
g68
(dp3945
sg77
g3939
sg70
(lp3946
g63
(g64
g65
NtRp3947
(dp3948
g68
(dp3949
g76
I4
ssg77
g3943
sg70
(lp3950
g3925
asbasbasbag63
(g79
g65
NtRp3951
(dp3952
g68
(dp3953
sg77
g3909
sg70
(lp3954
g63
(g84
g65
NtRp3955
(dp3956
g68
(dp3957
sg77
g3951
sg70
(lp3958
g63
(g64
g65
NtRp3959
(dp3960
g68
(dp3961
g76
I4
ssg77
g3955
sg70
(lp3962
S'sam_delta:1.0'
p3963
asbasbasbag63
(g79
g65
NtRp3964
(dp3965
g68
(dp3966
sg77
g3909
sg70
(lp3967
g63
(g84
g65
NtRp3968
(dp3969
g68
(dp3970
sg77
g3964
sg70
(lp3971
g63
(g64
g65
NtRp3972
(dp3973
g68
(dp3974
g76
I4
ssg77
g3968
sg70
(lp3975
g3925
asbasbasbag63
(g79
g65
NtRp3976
(dp3977
g68
(dp3978
sg77
g3909
sg70
(lp3979
g63
(g84
g65
NtRp3980
(dp3981
g68
(dp3982
sg77
g3976
sg70
(lp3983
g63
(g64
g65
NtRp3984
(dp3985
g68
(dp3986
g76
I4
ssg77
g3980
sg70
(lp3987
S'gene_order:no_order'
p3988
asbasbasbag63
(g79
g65
NtRp3989
(dp3990
g68
(dp3991
sg77
g3909
sg70
(lp3992
g63
(g84
g65
NtRp3993
(dp3994
g68
(dp3995
sg77
g3989
sg70
(lp3996
g63
(g64
g65
NtRp3997
(dp3998
g68
(dp3999
g76
I4
ssg77
g3993
sg70
(lp4000
g3925
asbasbasbag63
(g79
g65
NtRp4001
(dp4002
g68
(dp4003
sg77
g3909
sg70
(lp4004
g63
(g84
g65
NtRp4005
(dp4006
g68
(dp4007
sg77
g4001
sg70
(lp4008
g63
(g64
g65
NtRp4009
(dp4010
g68
(dp4011
g76
I4
ssg77
g4005
sg70
(lp4012
S'duplicate_probe:yes_duplicate_probe'
p4013
asbasbasbag63
(g79
g65
NtRp4014
(dp4015
g68
(dp4016
sg77
g3909
sg70
(lp4017
g63
(g84
g65
NtRp4018
(dp4019
g68
(dp4020
sg77
g4014
sg70
(lp4021
g63
(g64
g65
NtRp4022
(dp4023
g68
(dp4024
g76
I4
ssg77
g4018
sg70
(lp4025
g3925
asbasbasbag63
(g79
g65
NtRp4026
(dp4027
g68
(dp4028
sg77
g3909
sg70
(lp4029
g63
(g84
g65
NtRp4030
(dp4031
g68
(dp4032
sg77
g4026
sg70
(lp4033
g63
(g64
g65
NtRp4034
(dp4035
g68
(dp4036
g76
I4
ssg77
g4030
sg70
(lp4037
S'gene_normalize:no_gene_normalize'
p4038
asbasbasbag63
(g79
g65
NtRp4039
(dp4040
g68
(dp4041
sg77
g3909
sg70
(lp4042
g63
(g84
g65
NtRp4043
(dp4044
g68
(dp4045
sg77
g4039
sg70
(lp4046
g63
(g64
g65
NtRp4047
(dp4048
g68
(dp4049
g76
I4
ssg77
g4043
sg70
(lp4050
g3925
asbasbasbag63
(g79
g65
NtRp4051
(dp4052
g68
(dp4053
sg77
g3909
sg70
(lp4054
g63
(g84
g65
NtRp4055
(dp4056
g68
(dp4057
sg77
g4051
sg70
(lp4058
g63
(g64
g65
NtRp4059
(dp4060
g68
(dp4061
g76
I4
ssg77
g4055
sg70
(lp4062
S'combat:no_combat'
p4063
asbasbasbag63
(g79
g65
NtRp4064
(dp4065
g68
(dp4066
sg77
g3909
sg70
(lp4067
g63
(g84
g65
NtRp4068
(dp4069
g68
(dp4070
sg77
g4064
sg70
(lp4071
g63
(g64
g65
NtRp4072
(dp4073
g68
(dp4074
g76
I4
ssg77
g4068
sg70
(lp4075
g3925
asbasbasbag63
(g79
g65
NtRp4076
(dp4077
g68
(dp4078
sg77
g3909
sg70
(lp4079
g63
(g84
g65
NtRp4080
(dp4081
g68
(dp4082
sg77
g4076
sg70
(lp4083
g63
(g64
g65
NtRp4084
(dp4085
g68
(dp4086
g76
I4
ssg77
g4080
sg70
(lp4087
S'quantile:no_quantile'
p4088
asbasbasbag63
(g79
g65
NtRp4089
(dp4090
g68
(dp4091
sg77
g3909
sg70
(lp4092
g63
(g84
g65
NtRp4093
(dp4094
g68
(dp4095
sg77
g4089
sg70
(lp4096
g63
(g64
g65
NtRp4097
(dp4098
g68
(dp4099
g76
I4
ssg77
g4093
sg70
(lp4100
g3925
asbasbasbag63
(g79
g65
NtRp4101
(dp4102
g68
(dp4103
sg77
g3909
sg70
(lp4104
g63
(g84
g65
NtRp4105
(dp4106
g68
(dp4107
sg77
g4101
sg70
(lp4108
g63
(g64
g65
NtRp4109
(dp4110
g68
(dp4111
g76
I4
ssg77
g4105
sg70
(lp4112
S'predataset:no_predataset'
p4113
asbasbasbag63
(g79
g65
NtRp4114
(dp4115
g68
(dp4116
sg77
g3909
sg70
(lp4117
g63
(g84
g65
NtRp4118
(dp4119
g68
(dp4120
sg77
g4114
sg70
(lp4121
g63
(g64
g65
NtRp4122
(dp4123
g68
(dp4124
g76
I4
ssg77
g4118
sg70
(lp4125
g3925
asbasbasbag63
(g79
g65
NtRp4126
(dp4127
g68
(dp4128
sg77
g3909
sg70
(lp4129
g63
(g84
g65
NtRp4130
(dp4131
g68
(dp4132
sg77
g4126
sg70
(lp4133
g63
(g64
g65
NtRp4134
(dp4135
g68
(dp4136
g76
I4
ssg77
g4130
sg70
(lp4137
S'duplicate_data:yes_duplicate_data'
p4138
asbasbasbag63
(g79
g65
NtRp4139
(dp4140
g68
(dp4141
sg77
g3909
sg70
(lp4142
g63
(g84
g65
NtRp4143
(dp4144
g68
(dp4145
sg77
g4139
sg70
(lp4146
g63
(g64
g65
NtRp4147
(dp4148
g68
(dp4149
g76
I4
ssg77
g4143
sg70
(lp4150
g3925
asbasbasbag63
(g79
g65
NtRp4151
(dp4152
g68
(dp4153
sg77
g3909
sg70
(lp4154
g63
(g84
g65
NtRp4155
(dp4156
g68
(dp4157
sg77
g4151
sg70
(lp4158
g63
(g64
g65
NtRp4159
(dp4160
g68
(dp4161
g76
I4
ssg77
g4155
sg70
(lp4162
S'dwd:no_dwd'
p4163
asbasbasbag63
(g79
g65
NtRp4164
(dp4165
g68
(dp4166
sg77
g3909
sg70
(lp4167
g63
(g84
g65
NtRp4168
(dp4169
g68
(dp4170
sg77
g4164
sg70
(lp4171
g63
(g64
g65
NtRp4172
(dp4173
g68
(dp4174
g76
I4
ssg77
g4168
sg70
(lp4175
g3925
asbasbasbag63
(g79
g65
NtRp4176
(dp4177
g68
(dp4178
sg77
g3909
sg70
(lp4179
g63
(g84
g65
NtRp4180
(dp4181
g68
(dp4182
sg77
g4176
sg70
(lp4183
g63
(g64
g65
NtRp4184
(dp4185
g68
(dp4186
g76
I4
ssg77
g4180
sg70
(lp4187
S'unique_genes:no_unique_genes'
p4188
asbasbasbag63
(g79
g65
NtRp4189
(dp4190
g68
(dp4191
sg77
g3909
sg70
(lp4192
g63
(g84
g65
NtRp4193
(dp4194
g68
(dp4195
sg77
g4189
sg70
(lp4196
g63
(g64
g65
NtRp4197
(dp4198
g68
(dp4199
g76
I4
ssg77
g4193
sg70
(lp4200
g3925
asbasbasbag63
(g79
g65
NtRp4201
(dp4202
g68
(dp4203
sg77
g3909
sg70
(lp4204
g63
(g84
g65
NtRp4205
(dp4206
g68
(dp4207
sg77
g4201
sg70
(lp4208
g63
(g64
g65
NtRp4209
(dp4210
g68
(dp4211
g76
I4
ssg77
g4205
sg70
(lp4212
S'has_missing_value:zero_fill'
p4213
asbasbasbag63
(g79
g65
NtRp4214
(dp4215
g68
(dp4216
sg77
g3909
sg70
(lp4217
g63
(g84
g65
NtRp4218
(dp4219
g68
(dp4220
sg77
g4214
sg70
(lp4221
g63
(g64
g65
NtRp4222
(dp4223
g68
(dp4224
g76
I4
ssg77
g4218
sg70
(lp4225
g3925
asbasbasbag63
(g79
g65
NtRp4226
(dp4227
g68
(dp4228
sg77
g3909
sg70
(lp4229
g63
(g84
g65
NtRp4230
(dp4231
g68
(dp4232
sg77
g4226
sg70
(lp4233
g63
(g64
g65
NtRp4234
(dp4235
g68
(dp4236
g76
I4
ssg77
g4230
sg70
(lp4237
S'format:tdf'
p4238
asbasbasbag63
(g79
g65
NtRp4239
(dp4240
g68
(dp4241
sg77
g3909
sg70
(lp4242
g63
(g84
g65
NtRp4243
(dp4244
g68
(dp4245
sg77
g4239
sg70
(lp4246
g63
(g64
g65
NtRp4247
(dp4248
g68
(dp4249
g76
I4
ssg77
g4243
sg70
(lp4250
g3925
asbasbasbag63
(g79
g65
NtRp4251
(dp4252
g68
(dp4253
sg77
g3909
sg70
(lp4254
g63
(g84
g65
NtRp4255
(dp4256
g68
(dp4257
sg77
g4251
sg70
(lp4258
g63
(g64
g65
NtRp4259
(dp4260
g68
(dp4261
g76
I4
ssg77
g4255
sg70
(lp4262
S'rename_sample:no_rename'
p4263
asbasbasbag63
(g79
g65
NtRp4264
(dp4265
g68
(dp4266
sg77
g3909
sg70
(lp4267
g63
(g84
g65
NtRp4268
(dp4269
g68
(dp4270
sg77
g4264
sg70
(lp4271
g63
(g64
g65
NtRp4272
(dp4273
g68
(dp4274
g76
I4
ssg77
g4268
sg70
(lp4275
g3925
asbasbasbag63
(g79
g65
NtRp4276
(dp4277
g68
(dp4278
sg77
g3909
sg70
(lp4279
g63
(g84
g65
NtRp4280
(dp4281
g68
(dp4282
sg77
g4276
sg70
(lp4283
g63
(g64
g65
NtRp4284
(dp4285
g68
(dp4286
g76
I4
ssg77
g4280
sg70
(lp4287
S'shiftscale:no_shiftscale'
p4288
asbasbasbag63
(g79
g65
NtRp4289
(dp4290
g68
(dp4291
sg77
g3909
sg70
(lp4292
g63
(g84
g65
NtRp4293
(dp4294
g68
(dp4295
sg77
g4289
sg70
(lp4296
g63
(g64
g65
NtRp4297
(dp4298
g68
(dp4299
g76
I4
ssg77
g4293
sg70
(lp4300
g3925
asbasbasbag63
(g79
g65
NtRp4301
(dp4302
g68
(dp4303
sg77
g3909
sg70
(lp4304
g63
(g84
g65
NtRp4305
(dp4306
g68
(dp4307
sg77
g4301
sg70
(lp4308
g63
(g64
g65
NtRp4309
(dp4310
g68
(dp4311
g76
I4
ssg77
g4305
sg70
(lp4312
S'filter:0'
p4313
asbasbasbag63
(g79
g65
NtRp4314
(dp4315
g68
(dp4316
sg77
g3909
sg70
(lp4317
g63
(g84
g65
NtRp4318
(dp4319
g68
(dp4320
sg77
g4314
sg70
(lp4321
g63
(g64
g65
NtRp4322
(dp4323
g68
(dp4324
g76
I4
ssg77
g4318
sg70
(lp4325
g3925
asbasbasbag63
(g79
g65
NtRp4326
(dp4327
g68
(dp4328
sg77
g3909
sg70
(lp4329
g63
(g84
g65
NtRp4330
(dp4331
g68
(dp4332
sg77
g4326
sg70
(lp4333
g63
(g64
g65
NtRp4334
(dp4335
g68
(dp4336
g76
I4
ssg77
g4330
sg70
(lp4337
S'is_logged:logged'
p4338
asbasbasbag63
(g79
g65
NtRp4339
(dp4340
g68
(dp4341
sg77
g3909
sg70
(lp4342
g63
(g84
g65
NtRp4343
(dp4344
g68
(dp4345
sg77
g4339
sg70
(lp4346
g63
(g64
g65
NtRp4347
(dp4348
g68
(dp4349
g76
I4
ssg77
g4343
sg70
(lp4350
g3925
asbasbasbag63
(g79
g65
NtRp4351
(dp4352
g68
(dp4353
sg77
g3909
sg70
(lp4354
g63
(g84
g65
NtRp4355
(dp4356
g68
(dp4357
sg77
g4351
sg70
(lp4358
g63
(g64
g65
NtRp4359
(dp4360
g68
(dp4361
g76
I4
ssg77
g4355
sg70
(lp4362
S'bfrm:no_bfrm'
p4363
asbasbasbasbasbasbasbag63
(g79
g65
NtRp4364
(dp4365
g68
(dp4366
sg77
g3127
sg70
(lp4367
g63
(g84
g65
NtRp4368
(dp4369
g68
(dp4370
g88
g89
ssg77
g4364
sg70
(lp4371
S'protocol'
p4372
asbag63
(g84
g65
NtRp4373
(dp4374
g68
(dp4375
g95
g96
ssg77
g4364
sg70
(lp4376
S':'
asbag63
(g84
g65
NtRp4377
(dp4378
g68
(dp4379
sg77
g4364
sg70
(lp4380
g63
(g64
g65
NtRp4381
(dp4382
g68
(dp4383
g76
I5
ssg77
g4377
sg70
(lp4384
g3669
asbasbasbasbasbsS'etype'
p4385
S"<type 'exceptions.IOError'>"
p4386
sS'date'
p4387
S'Wed Feb 27 16:03:38 2013'
p4388
sS'response'
p4389
g63
(g64
g65
NtRp4390
(dp4391
g68
(dp4392
sg70
(lp4393
g63
(g72
g65
NtRp4394
(dp4395
g68
(dp4396
g76
I5
ssg77
Nsg70
(lp4397
g63
(g79
g65
NtRp4398
(dp4399
g68
(dp4400
sg77
g4394
sg70
(lp4401
g63
(g84
g65
NtRp4402
(dp4403
g68
(dp4404
g88
g89
ssg77
g4398
sg70
(lp4405
g187
asbag63
(g84
g65
NtRp4406
(dp4407
g68
(dp4408
g95
g96
ssg77
g4398
sg70
(lp4409
S':'
asbag63
(g84
g65
NtRp4410
(dp4411
g68
(dp4412
sg77
g4398
sg70
(lp4413
g63
(g64
g65
NtRp4414
(dp4415
g68
(dp4416
g76
I5
ssg77
g4410
sg70
(lp4417
S'<cStringIO.StringO object at 0x200afd50>'
p4418
asbasbasbag63
(g79
g65
NtRp4419
(dp4420
g68
(dp4421
sg77
g4394
sg70
(lp4422
g63
(g84
g65
NtRp4423
(dp4424
g68
(dp4425
g88
g89
ssg77
g4419
sg70
(lp4426
g275
asbag63
(g84
g65
NtRp4427
(dp4428
g68
(dp4429
g95
g96
ssg77
g4419
sg70
(lp4430
S':'
asbag63
(g84
g65
NtRp4431
(dp4432
g68
(dp4433
sg77
g4419
sg70
(lp4434
g63
(g64
g65
NtRp4435
(dp4436
g68
(dp4437
g76
I5
ssg77
g4431
sg70
(lp4438
g63
(g72
g65
NtRp4439
(dp4440
g68
(dp4441
g76
I4
ssg77
Nsg70
(lp4442
g63
(g79
g65
NtRp4443
(dp4444
g68
(dp4445
sg77
g4439
sg70
(lp4446
g63
(g84
g65
NtRp4447
(dp4448
g68
(dp4449
g88
g89
ssg77
g4443
sg70
(lp4450
S'session_id_betsy'
p4451
asbag63
(g84
g65
NtRp4452
(dp4453
g68
(dp4454
g95
g96
ssg77
g4443
sg70
(lp4455
S':'
asbag63
(g84
g65
NtRp4456
(dp4457
g68
(dp4458
sg77
g4443
sg70
(lp4459
g63
(g64
g65
NtRp4460
(dp4461
g68
(dp4462
g76
I4
ssg77
g4456
sg70
(lp4463
g507
ag63
(g72
g65
NtRp4464
(dp4465
g68
(dp4466
g76
I3
ssg77
Nsg70
(lp4467
g63
(g79
g65
NtRp4468
(dp4469
g68
(dp4470
sg77
g4464
sg70
(lp4471
g63
(g84
g65
NtRp4472
(dp4473
g68
(dp4474
g88
g89
ssg77
g4468
sg70
(lp4475
g326
asbag63
(g84
g65
NtRp4476
(dp4477
g68
(dp4478
g95
g96
ssg77
g4468
sg70
(lp4479
S':'
asbag63
(g84
g65
NtRp4480
(dp4481
g68
(dp4482
sg77
g4468
sg70
(lp4483
g63
(g64
g65
NtRp4484
(dp4485
g68
(dp4486
g76
I3
ssg77
g4480
sg70
(lp4487
S''
asbasbasbag63
(g79
g65
NtRp4488
(dp4489
g68
(dp4490
sg77
g4464
sg70
(lp4491
g63
(g84
g65
NtRp4492
(dp4493
g68
(dp4494
g88
g89
ssg77
g4488
sg70
(lp4495
g347
asbag63
(g84
g65
NtRp4496
(dp4497
g68
(dp4498
g95
g96
ssg77
g4488
sg70
(lp4499
S':'
asbag63
(g84
g65
NtRp4500
(dp4501
g68
(dp4502
sg77
g4488
sg70
(lp4503
g63
(g64
g65
NtRp4504
(dp4505
g68
(dp4506
g76
I3
ssg77
g4500
sg70
(lp4507
S''
asbasbasbag63
(g79
g65
NtRp4508
(dp4509
g68
(dp4510
sg77
g4464
sg70
(lp4511
g63
(g84
g65
NtRp4512
(dp4513
g68
(dp4514
g88
g89
ssg77
g4508
sg70
(lp4515
g368
asbag63
(g84
g65
NtRp4516
(dp4517
g68
(dp4518
g95
g96
ssg77
g4508
sg70
(lp4519
S':'
asbag63
(g84
g65
NtRp4520
(dp4521
g68
(dp4522
sg77
g4508
sg70
(lp4523
g63
(g64
g65
NtRp4524
(dp4525
g68
(dp4526
g76
I3
ssg77
g4520
sg70
(lp4527
S'2592000'
p4528
asbasbasbag63
(g79
g65
NtRp4529
(dp4530
g68
(dp4531
sg77
g4464
sg70
(lp4532
g63
(g84
g65
NtRp4533
(dp4534
g68
(dp4535
g88
g89
ssg77
g4529
sg70
(lp4536
g389
asbag63
(g84
g65
NtRp4537
(dp4538
g68
(dp4539
g95
g96
ssg77
g4529
sg70
(lp4540
S':'
asbag63
(g84
g65
NtRp4541
(dp4542
g68
(dp4543
sg77
g4529
sg70
(lp4544
g63
(g64
g65
NtRp4545
(dp4546
g68
(dp4547
g76
I3
ssg77
g4541
sg70
(lp4548
S''
asbasbasbag63
(g79
g65
NtRp4549
(dp4550
g68
(dp4551
sg77
g4464
sg70
(lp4552
g63
(g84
g65
NtRp4553
(dp4554
g68
(dp4555
g88
g89
ssg77
g4549
sg70
(lp4556
g410
asbag63
(g84
g65
NtRp4557
(dp4558
g68
(dp4559
g95
g96
ssg77
g4549
sg70
(lp4560
S':'
asbag63
(g84
g65
NtRp4561
(dp4562
g68
(dp4563
sg77
g4549
sg70
(lp4564
g63
(g64
g65
NtRp4565
(dp4566
g68
(dp4567
g76
I3
ssg77
g4561
sg70
(lp4568
S''
asbasbasbag63
(g79
g65
NtRp4569
(dp4570
g68
(dp4571
sg77
g4464
sg70
(lp4572
g63
(g84
g65
NtRp4573
(dp4574
g68
(dp4575
g88
g89
ssg77
g4569
sg70
(lp4576
g431
asbag63
(g84
g65
NtRp4577
(dp4578
g68
(dp4579
g95
g96
ssg77
g4569
sg70
(lp4580
S':'
asbag63
(g84
g65
NtRp4581
(dp4582
g68
(dp4583
sg77
g4569
sg70
(lp4584
g63
(g64
g65
NtRp4585
(dp4586
g68
(dp4587
g76
I3
ssg77
g4581
sg70
(lp4588
S'/'
asbasbasbag63
(g79
g65
NtRp4589
(dp4590
g68
(dp4591
sg77
g4464
sg70
(lp4592
g63
(g84
g65
NtRp4593
(dp4594
g68
(dp4595
g88
g89
ssg77
g4589
sg70
(lp4596
g452
asbag63
(g84
g65
NtRp4597
(dp4598
g68
(dp4599
g95
g96
ssg77
g4589
sg70
(lp4600
S':'
asbag63
(g84
g65
NtRp4601
(dp4602
g68
(dp4603
sg77
g4589
sg70
(lp4604
g63
(g64
g65
NtRp4605
(dp4606
g68
(dp4607
g76
I3
ssg77
g4601
sg70
(lp4608
S''
asbasbasbag63
(g79
g65
NtRp4609
(dp4610
g68
(dp4611
sg77
g4464
sg70
(lp4612
g63
(g84
g65
NtRp4613
(dp4614
g68
(dp4615
g88
g89
ssg77
g4609
sg70
(lp4616
g473
asbag63
(g84
g65
NtRp4617
(dp4618
g68
(dp4619
g95
g96
ssg77
g4609
sg70
(lp4620
S':'
asbag63
(g84
g65
NtRp4621
(dp4622
g68
(dp4623
sg77
g4609
sg70
(lp4624
g63
(g64
g65
NtRp4625
(dp4626
g68
(dp4627
g76
I3
ssg77
g4621
sg70
(lp4628
S''
asbasbasbasbasbasbasbasbasbasbasbag63
(g79
g65
NtRp4629
(dp4630
g68
(dp4631
sg77
g4394
sg70
(lp4632
g63
(g84
g65
NtRp4633
(dp4634
g68
(dp4635
g88
g89
ssg77
g4629
sg70
(lp4636
S'delimiters'
p4637
asbag63
(g84
g65
NtRp4638
(dp4639
g68
(dp4640
g95
g96
ssg77
g4629
sg70
(lp4641
S':'
asbag63
(g84
g65
NtRp4642
(dp4643
g68
(dp4644
sg77
g4629
sg70
(lp4645
g63
(g64
g65
NtRp4646
(dp4647
g68
(dp4648
g76
I5
ssg77
g4642
sg70
(lp4649
g63
(g72
g65
NtRp4650
(dp4651
g68
(dp4652
g76
I4
ssg77
Nsg70
(lp4653
g63
(g79
g65
NtRp4654
(dp4655
g68
(dp4656
sg77
g4650
sg70
(lp4657
g63
(g84
g65
NtRp4658
(dp4659
g68
(dp4660
sg77
g4654
sg70
(lp4661
g63
(g64
g65
NtRp4662
(dp4663
g68
(dp4664
g76
I4
ssg77
g4658
sg70
(lp4665
S'{{'
p4666
asbasbasbag63
(g79
g65
NtRp4667
(dp4668
g68
(dp4669
sg77
g4650
sg70
(lp4670
g63
(g84
g65
NtRp4671
(dp4672
g68
(dp4673
sg77
g4667
sg70
(lp4674
g63
(g64
g65
NtRp4675
(dp4676
g68
(dp4677
g76
I4
ssg77
g4671
sg70
(lp4678
S'}}'
p4679
asbasbasbasbasbasbasbag63
(g79
g65
NtRp4680
(dp4681
g68
(dp4682
sg77
g4394
sg70
(lp4683
g63
(g84
g65
NtRp4684
(dp4685
g68
(dp4686
g88
g89
ssg77
g4680
sg70
(lp4687
S'files'
p4688
asbag63
(g84
g65
NtRp4689
(dp4690
g68
(dp4691
g95
g96
ssg77
g4680
sg70
(lp4692
S':'
asbag63
(g84
g65
NtRp4693
(dp4694
g68
(dp4695
sg77
g4680
sg70
(lp4696
g63
(g64
g65
NtRp4697
(dp4698
g68
(dp4699
g76
I5
ssg77
g4693
sg70
(lp4700
g63
(g72
g65
NtRp4701
(dp4702
g68
(dp4703
g76
I4
ssg77
Nsg70
(lp4704
sbasbasbasbag63
(g79
g65
NtRp4705
(dp4706
g68
(dp4707
sg77
g4394
sg70
(lp4708
g63
(g84
g65
NtRp4709
(dp4710
g68
(dp4711
g88
g89
ssg77
g4705
sg70
(lp4712
S'flash'
p4713
asbag63
(g84
g65
NtRp4714
(dp4715
g68
(dp4716
g95
g96
ssg77
g4705
sg70
(lp4717
S':'
asbag63
(g84
g65
NtRp4718
(dp4719
g68
(dp4720
sg77
g4705
sg70
(lp4721
g63
(g64
g65
NtRp4722
(dp4723
g68
(dp4724
g76
I5
ssg77
g4718
sg70
(lp4725
S''
asbasbasbag63
(g79
g65
NtRp4726
(dp4727
g68
(dp4728
sg77
g4394
sg70
(lp4729
g63
(g84
g65
NtRp4730
(dp4731
g68
(dp4732
g88
g89
ssg77
g4726
sg70
(lp4733
S'generic_patterns'
p4734
asbag63
(g84
g65
NtRp4735
(dp4736
g68
(dp4737
g95
g96
ssg77
g4726
sg70
(lp4738
S':'
asbag63
(g84
g65
NtRp4739
(dp4740
g68
(dp4741
sg77
g4726
sg70
(lp4742
g63
(g64
g65
NtRp4743
(dp4744
g68
(dp4745
g76
I5
ssg77
g4739
sg70
(lp4746
g63
(g72
g65
NtRp4747
(dp4748
g68
(dp4749
g76
I4
ssg77
Nsg70
(lp4750
g63
(g79
g65
NtRp4751
(dp4752
g68
(dp4753
sg77
g4747
sg70
(lp4754
g63
(g84
g65
NtRp4755
(dp4756
g68
(dp4757
sg77
g4751
sg70
(lp4758
g63
(g64
g65
NtRp4759
(dp4760
g68
(dp4761
g76
I4
ssg77
g4755
sg70
(lp4762
S'*'
asbasbasbasbasbasbasbag63
(g79
g65
NtRp4763
(dp4764
g68
(dp4765
sg77
g4394
sg70
(lp4766
g63
(g84
g65
NtRp4767
(dp4768
g68
(dp4769
g88
g89
ssg77
g4763
sg70
(lp4770
S'google_analytics_id'
p4771
asbag63
(g84
g65
NtRp4772
(dp4773
g68
(dp4774
g95
g96
ssg77
g4763
sg70
(lp4775
S':'
asbag63
(g84
g65
NtRp4776
(dp4777
g68
(dp4778
sg77
g4763
sg70
(lp4779
g63
(g64
g65
NtRp4780
(dp4781
g68
(dp4782
g76
I5
ssg77
g4776
sg70
(lp4783
S'None'
p4784
asbasbasbag63
(g79
g65
NtRp4785
(dp4786
g68
(dp4787
sg77
g4394
sg70
(lp4788
g63
(g84
g65
NtRp4789
(dp4790
g68
(dp4791
g88
g89
ssg77
g4785
sg70
(lp4792
S'headers'
p4793
asbag63
(g84
g65
NtRp4794
(dp4795
g68
(dp4796
g95
g96
ssg77
g4785
sg70
(lp4797
S':'
asbag63
(g84
g65
NtRp4798
(dp4799
g68
(dp4800
sg77
g4785
sg70
(lp4801
g63
(g64
g65
NtRp4802
(dp4803
g68
(dp4804
g76
I5
ssg77
g4798
sg70
(lp4805
g63
(g72
g65
NtRp4806
(dp4807
g68
(dp4808
g76
I4
ssg77
Nsg70
(lp4809
g63
(g79
g65
NtRp4810
(dp4811
g68
(dp4812
sg77
g4806
sg70
(lp4813
g63
(g84
g65
NtRp4814
(dp4815
g68
(dp4816
g88
g89
ssg77
g4810
sg70
(lp4817
S'X-Powered-By'
p4818
asbag63
(g84
g65
NtRp4819
(dp4820
g68
(dp4821
g95
g96
ssg77
g4810
sg70
(lp4822
S':'
asbag63
(g84
g65
NtRp4823
(dp4824
g68
(dp4825
sg77
g4810
sg70
(lp4826
g63
(g64
g65
NtRp4827
(dp4828
g68
(dp4829
g76
I4
ssg77
g4823
sg70
(lp4830
S'web2py'
p4831
asbasbasbasbasbasbasbag63
(g79
g65
NtRp4832
(dp4833
g68
(dp4834
sg77
g4394
sg70
(lp4835
g63
(g84
g65
NtRp4836
(dp4837
g68
(dp4838
g88
g89
ssg77
g4832
sg70
(lp4839
S'menu'
p4840
asbag63
(g84
g65
NtRp4841
(dp4842
g68
(dp4843
g95
g96
ssg77
g4832
sg70
(lp4844
S':'
asbag63
(g84
g65
NtRp4845
(dp4846
g68
(dp4847
sg77
g4832
sg70
(lp4848
g63
(g64
g65
NtRp4849
(dp4850
g68
(dp4851
g76
I5
ssg77
g4845
sg70
(lp4852
g63
(g72
g65
NtRp4853
(dp4854
g68
(dp4855
g76
I4
ssg77
Nsg70
(lp4856
g63
(g79
g65
NtRp4857
(dp4858
g68
(dp4859
sg77
g4853
sg70
(lp4860
g63
(g84
g65
NtRp4861
(dp4862
g68
(dp4863
sg77
g4857
sg70
(lp4864
g63
(g64
g65
NtRp4865
(dp4866
g68
(dp4867
g76
I4
ssg77
g4861
sg70
(lp4868
g63
(g72
g65
NtRp4869
(dp4870
g68
(dp4871
g76
I3
ssg77
Nsg70
(lp4872
g63
(g79
g65
NtRp4873
(dp4874
g68
(dp4875
sg77
g4869
sg70
(lp4876
g63
(g84
g65
NtRp4877
(dp4878
g68
(dp4879
sg77
g4873
sg70
(lp4880
g63
(g64
g65
NtRp4881
(dp4882
g68
(dp4883
g76
I3
ssg77
g4877
sg70
(lp4884
cgluon.languages
lazyT_unpickle
p4885
(S's\x04\x00\x00\x00Home'
tRp4886
asbasbasbag63
(g79
g65
NtRp4887
(dp4888
g68
(dp4889
sg77
g4869
sg70
(lp4890
g63
(g84
g65
NtRp4891
(dp4892
g68
(dp4893
sg77
g4887
sg70
(lp4894
g63
(g64
g65
NtRp4895
(dp4896
g68
(dp4897
g76
I3
ssg77
g4891
sg70
(lp4898
g106
asbasbasbag63
(g79
g65
NtRp4899
(dp4900
g68
(dp4901
sg77
g4869
sg70
(lp4902
g63
(g84
g65
NtRp4903
(dp4904
g68
(dp4905
sg77
g4899
sg70
(lp4906
g63
(g64
g65
NtRp4907
(dp4908
g68
(dp4909
g76
I3
ssg77
g4903
sg70
(lp4910
S'/Betsy/default/index'
p4911
asbasbasbag63
(g79
g65
NtRp4912
(dp4913
g68
(dp4914
sg77
g4869
sg70
(lp4915
g63
(g84
g65
NtRp4916
(dp4917
g68
(dp4918
sg77
g4912
sg70
(lp4919
g63
(g64
g65
NtRp4920
(dp4921
g68
(dp4922
g76
I3
ssg77
g4916
sg70
(lp4923
g63
(g72
g65
NtRp4924
(dp4925
g68
(dp4926
g76
I2
ssg77
Nsg70
(lp4927
sbasbasbasbasbasbasbasbag63
(g79
g65
NtRp4928
(dp4929
g68
(dp4930
sg77
g4853
sg70
(lp4931
g63
(g84
g65
NtRp4932
(dp4933
g68
(dp4934
sg77
g4928
sg70
(lp4935
g63
(g64
g65
NtRp4936
(dp4937
g68
(dp4938
g76
I4
ssg77
g4932
sg70
(lp4939
g63
(g72
g65
NtRp4940
(dp4941
g68
(dp4942
g76
I3
ssg77
Nsg70
(lp4943
g63
(g79
g65
NtRp4944
(dp4945
g68
(dp4946
sg77
g4940
sg70
(lp4947
g63
(g84
g65
NtRp4948
(dp4949
g68
(dp4950
sg77
g4944
sg70
(lp4951
g63
(g64
g65
NtRp4952
(dp4953
g68
(dp4954
g76
I3
ssg77
g4948
sg70
(lp4955
g63
(cgluon.html
SPAN
p4956
g65
NtRp4957
(dp4958
g68
(dp4959
S'_class'
p4960
S'highlighted'
p4961
ssg77
Nsg70
(lp4962
g4831
asbasbasbasbag63
(g79
g65
NtRp4963
(dp4964
g68
(dp4965
sg77
g4940
sg70
(lp4966
g63
(g84
g65
NtRp4967
(dp4968
g68
(dp4969
sg77
g4963
sg70
(lp4970
g63
(g64
g65
NtRp4971
(dp4972
g68
(dp4973
g76
I3
ssg77
g4967
sg70
(lp4974
g106
asbasbasbag63
(g79
g65
NtRp4975
(dp4976
g68
(dp4977
sg77
g4940
sg70
(lp4978
g63
(g84
g65
NtRp4979
(dp4980
g68
(dp4981
sg77
g4975
sg70
(lp4982
g63
(g64
g65
NtRp4983
(dp4984
g68
(dp4985
g76
I3
ssg77
g4979
sg70
(lp4986
S'http://web2py.com'
p4987
asbasbasbag63
(g79
g65
NtRp4988
(dp4989
g68
(dp4990
sg77
g4940
sg70
(lp4991
g63
(g84
g65
NtRp4992
(dp4993
g68
(dp4994
sg77
g4988
sg70
(lp4995
g63
(g64
g65
NtRp4996
(dp4997
g68
(dp4998
g76
I3
ssg77
g4992
sg70
(lp4999
g63
(g72
g65
NtRp5000
(dp5001
g68
(dp5002
g76
I2
ssg77
Nsg70
(lp5003
g63
(g79
g65
NtRp5004
(dp5005
g68
(dp5006
sg77
g5000
sg70
(lp5007
g63
(g84
g65
NtRp5008
(dp5009
g68
(dp5010
sg77
g5004
sg70
(lp5011
g63
(g64
g65
NtRp5012
(dp5013
g68
(dp5014
g76
I2
ssg77
g5008
sg70
(lp5015
g63
(g72
g65
NtRp5016
(dp5017
g68
(dp5018
g76
I1
ssg77
Nsg70
(lp5019
g63
(g79
g65
NtRp5020
(dp5021
g68
(dp5022
sg77
g5016
sg70
(lp5023
g63
(g84
g65
NtRp5024
(dp5025
g68
(dp5026
sg77
g5020
sg70
(lp5027
g63
(g64
g65
NtRp5028
(dp5029
g68
(dp5030
g76
I1
ssg77
g5024
sg70
(lp5031
g4885
(S's\x08\x00\x00\x00My Sites'
tRp5032
asbasbasbag63
(g79
g65
NtRp5033
(dp5034
g68
(dp5035
sg77
g5016
sg70
(lp5036
g63
(g84
g65
NtRp5037
(dp5038
g68
(dp5039
sg77
g5033
sg70
(lp5040
g63
(g64
g65
NtRp5041
(dp5042
g68
(dp5043
g76
I1
ssg77
g5037
sg70
(lp5044
I00
asbasbasbag63
(g79
g65
NtRp5045
(dp5046
g68
(dp5047
sg77
g5016
sg70
(lp5048
g63
(g84
g65
NtRp5049
(dp5050
g68
(dp5051
sg77
g5045
sg70
(lp5052
g63
(g64
g65
NtRp5053
(dp5054
g68
(dp5055
g76
I1
ssg77
g5049
sg70
(lp5056
S'/admin/default/site'
p5057
asbasbasbasbasbasbasbag63
(g79
g65
NtRp5058
(dp5059
g68
(dp5060
sg77
g5000
sg70
(lp5061
g63
(g84
g65
NtRp5062
(dp5063
g68
(dp5064
sg77
g5058
sg70
(lp5065
g63
(g64
g65
NtRp5066
(dp5067
g68
(dp5068
g76
I2
ssg77
g5062
sg70
(lp5069
g63
(g72
g65
NtRp5070
(dp5071
g68
(dp5072
g76
I1
ssg77
Nsg70
(lp5073
g63
(g79
g65
NtRp5074
(dp5075
g68
(dp5076
sg77
g5070
sg70
(lp5077
g63
(g84
g65
NtRp5078
(dp5079
g68
(dp5080
sg77
g5074
sg70
(lp5081
g63
(g64
g65
NtRp5082
(dp5083
g68
(dp5084
g76
I1
ssg77
g5078
sg70
(lp5085
g4885
(S's\x08\x00\x00\x00This App'
tRp5086
asbasbasbag63
(g79
g65
NtRp5087
(dp5088
g68
(dp5089
sg77
g5070
sg70
(lp5090
g63
(g84
g65
NtRp5091
(dp5092
g68
(dp5093
sg77
g5087
sg70
(lp5094
g63
(g64
g65
NtRp5095
(dp5096
g68
(dp5097
g76
I1
ssg77
g5091
sg70
(lp5098
I00
asbasbasbag63
(g79
g65
NtRp5099
(dp5100
g68
(dp5101
sg77
g5070
sg70
(lp5102
g63
(g84
g65
NtRp5103
(dp5104
g68
(dp5105
sg77
g5099
sg70
(lp5106
g63
(g64
g65
NtRp5107
(dp5108
g68
(dp5109
g76
I1
ssg77
g5103
sg70
(lp5110
S'/admin/default/design/Betsy'
p5111
asbasbasbag63
(g79
g65
NtRp5112
(dp5113
g68
(dp5114
sg77
g5070
sg70
(lp5115
g63
(g84
g65
NtRp5116
(dp5117
g68
(dp5118
sg77
g5112
sg70
(lp5119
g63
(g64
g65
NtRp5120
(dp5121
g68
(dp5122
g76
I1
ssg77
g5116
sg70
(lp5123
(lp5124
(g4885
(S's\n\x00\x00\x00Controller'
tRp5125
I00
S'/admin/default/edit/Betsy/controllers/default.py'
tp5126
a(g4885
(S's\x04\x00\x00\x00View'
tRp5127
I00
S'/admin/default/edit/Betsy/views/default/result_folder.html'
tp5128
a(g4885
(S's\x06\x00\x00\x00Layout'
tRp5129
I00
S'/admin/default/edit/Betsy/views/layout.html'
tp5130
a(g4885
(S's\n\x00\x00\x00Stylesheet'
tRp5131
I00
S'/admin/default/edit/Betsy/static/css/web2py.css'
tp5132
a(g4885
(S's\x08\x00\x00\x00DB Model'
tRp5133
I00
S'/admin/default/edit/Betsy/models/db.py'
tp5134
a(g4885
(S's\n\x00\x00\x00Menu Model'
tRp5135
I00
S'/admin/default/edit/Betsy/models/menu.py'
tp5136
a(g4885
(S's\x08\x00\x00\x00Database'
tRp5137
I00
S'/Betsy/appadmin/index'
tp5138
a(g4885
(S's\x06\x00\x00\x00Errors'
tRp5139
I00
S'/admin/default/errors/Betsy'
tp5140
a(g4885
(S's\x05\x00\x00\x00About'
tRp5141
I00
S'/admin/default/about/Betsy'
tp5142
aasbasbasbasbasbasbasbag63
(g79
g65
NtRp5143
(dp5144
g68
(dp5145
sg77
g5000
sg70
(lp5146
g63
(g84
g65
NtRp5147
(dp5148
g68
(dp5149
sg77
g5143
sg70
(lp5150
g63
(g64
g65
NtRp5151
(dp5152
g68
(dp5153
g76
I2
ssg77
g5147
sg70
(lp5154
g63
(g72
g65
NtRp5155
(dp5156
g68
(dp5157
g76
I1
ssg77
Nsg70
(lp5158
g63
(g79
g65
NtRp5159
(dp5160
g68
(dp5161
sg77
g5155
sg70
(lp5162
g63
(g84
g65
NtRp5163
(dp5164
g68
(dp5165
sg77
g5159
sg70
(lp5166
g63
(g64
g65
NtRp5167
(dp5168
g68
(dp5169
g76
I1
ssg77
g5163
sg70
(lp5170
S'web2py.com'
p5171
asbasbasbag63
(g79
g65
NtRp5172
(dp5173
g68
(dp5174
sg77
g5155
sg70
(lp5175
g63
(g84
g65
NtRp5176
(dp5177
g68
(dp5178
sg77
g5172
sg70
(lp5179
g63
(g64
g65
NtRp5180
(dp5181
g68
(dp5182
g76
I1
ssg77
g5176
sg70
(lp5183
I00
asbasbasbag63
(g79
g65
NtRp5184
(dp5185
g68
(dp5186
sg77
g5155
sg70
(lp5187
g63
(g84
g65
NtRp5188
(dp5189
g68
(dp5190
sg77
g5184
sg70
(lp5191
g63
(g64
g65
NtRp5192
(dp5193
g68
(dp5194
g76
I1
ssg77
g5188
sg70
(lp5195
S'http://www.web2py.com'
p5196
asbasbasbag63
(g79
g65
NtRp5197
(dp5198
g68
(dp5199
sg77
g5155
sg70
(lp5200
g63
(g84
g65
NtRp5201
(dp5202
g68
(dp5203
sg77
g5197
sg70
(lp5204
g63
(g64
g65
NtRp5205
(dp5206
g68
(dp5207
g76
I1
ssg77
g5201
sg70
(lp5208
(lp5209
(g4885
(S's\x08\x00\x00\x00Download'
tRp5210
I00
S'http://www.web2py.com/examples/default/download'
p5211
tp5212
a(g4885
(S's\x07\x00\x00\x00Support'
tRp5213
I00
S'http://www.web2py.com/examples/default/support'
p5214
tp5215
a(g4885
(S's\x04\x00\x00\x00Demo'
tRp5216
I00
S'http://web2py.com/demo_admin'
p5217
tp5218
a(g4885
(S's\x0e\x00\x00\x00Quick Examples'
tRp5219
I00
S'http://web2py.com/examples/default/examples'
p5220
tp5221
a(g4885
(S's\x03\x00\x00\x00FAQ'
tRp5222
I00
S'http://web2py.com/AlterEgo'
p5223
tp5224
a(g4885
(S's\x06\x00\x00\x00Videos'
tRp5225
I00
S'http://www.web2py.com/examples/default/videos/'
p5226
tp5227
a(g4885
(S's\x11\x00\x00\x00Free Applications'
tRp5228
I00
S'http://web2py.com/appliances'
p5229
tp5230
a(g4885
(S's\x07\x00\x00\x00Plugins'
tRp5231
I00
S'http://web2py.com/plugins'
p5232
tp5233
a(g4885
(S's\x07\x00\x00\x00Layouts'
tRp5234
I00
S'http://web2py.com/layouts'
p5235
tp5236
a(g4885
(S's\x07\x00\x00\x00Recipes'
tRp5237
I00
S'http://web2pyslices.com/'
p5238
tp5239
a(g4885
(S's\x08\x00\x00\x00Semantic'
tRp5240
I00
S'http://web2py.com/semantic'
p5241
tp5242
aasbasbasbasbasbasbasbag63
(g79
g65
NtRp5243
(dp5244
g68
(dp5245
sg77
g5000
sg70
(lp5246
g63
(g84
g65
NtRp5247
(dp5248
g68
(dp5249
sg77
g5243
sg70
(lp5250
g63
(g64
g65
NtRp5251
(dp5252
g68
(dp5253
g76
I2
ssg77
g5247
sg70
(lp5254
g63
(g72
g65
NtRp5255
(dp5256
g68
(dp5257
g76
I1
ssg77
Nsg70
(lp5258
g63
(g79
g65
NtRp5259
(dp5260
g68
(dp5261
sg77
g5255
sg70
(lp5262
g63
(g84
g65
NtRp5263
(dp5264
g68
(dp5265
sg77
g5259
sg70
(lp5266
g63
(g64
g65
NtRp5267
(dp5268
g68
(dp5269
g76
I1
ssg77
g5263
sg70
(lp5270
g4885
(S's\r\x00\x00\x00Documentation'
tRp5271
asbasbasbag63
(g79
g65
NtRp5272
(dp5273
g68
(dp5274
sg77
g5255
sg70
(lp5275
g63
(g84
g65
NtRp5276
(dp5277
g68
(dp5278
sg77
g5272
sg70
(lp5279
g63
(g64
g65
NtRp5280
(dp5281
g68
(dp5282
g76
I1
ssg77
g5276
sg70
(lp5283
I00
asbasbasbag63
(g79
g65
NtRp5284
(dp5285
g68
(dp5286
sg77
g5255
sg70
(lp5287
g63
(g84
g65
NtRp5288
(dp5289
g68
(dp5290
sg77
g5284
sg70
(lp5291
g63
(g64
g65
NtRp5292
(dp5293
g68
(dp5294
g76
I1
ssg77
g5288
sg70
(lp5295
S'http://www.web2py.com/book'
p5296
asbasbasbag63
(g79
g65
NtRp5297
(dp5298
g68
(dp5299
sg77
g5255
sg70
(lp5300
g63
(g84
g65
NtRp5301
(dp5302
g68
(dp5303
sg77
g5297
sg70
(lp5304
g63
(g64
g65
NtRp5305
(dp5306
g68
(dp5307
g76
I1
ssg77
g5301
sg70
(lp5308
(lp5309
(g4885
(S's\x07\x00\x00\x00Preface'
tRp5310
I00
S'http://www.web2py.com/book/default/chapter/00'
p5311
tp5312
a(g4885
(S's\x0c\x00\x00\x00Introduction'
tRp5313
I00
S'http://www.web2py.com/book/default/chapter/01'
p5314
tp5315
a(g4885
(S's\x06\x00\x00\x00Python'
tRp5316
I00
S'http://www.web2py.com/book/default/chapter/02'
p5317
tp5318
a(g4885
(S's\x08\x00\x00\x00Overview'
tRp5319
I00
S'http://www.web2py.com/book/default/chapter/03'
p5320
tp5321
a(g4885
(S's\x08\x00\x00\x00The Core'
tRp5322
I00
S'http://www.web2py.com/book/default/chapter/04'
p5323
tp5324
a(g4885
(S's\t\x00\x00\x00The Views'
tRp5325
I00
S'http://www.web2py.com/book/default/chapter/05'
p5326
tp5327
a(g4885
(S's\x08\x00\x00\x00Database'
tRp5328
I00
S'http://www.web2py.com/book/default/chapter/06'
p5329
tp5330
a(g4885
(S's\x14\x00\x00\x00Forms and Validators'
tRp5331
I00
S'http://www.web2py.com/book/default/chapter/07'
p5332
tp5333
a(g4885
(S's\r\x00\x00\x00Email and SMS'
tRp5334
I00
S'http://www.web2py.com/book/default/chapter/08'
p5335
tp5336
a(g4885
(S's\x0e\x00\x00\x00Access Control'
tRp5337
I00
S'http://www.web2py.com/book/default/chapter/09'
p5338
tp5339
a(g4885
(S's\x08\x00\x00\x00Services'
tRp5340
I00
S'http://www.web2py.com/book/default/chapter/10'
p5341
tp5342
a(g4885
(S's\x0c\x00\x00\x00Ajax Recipes'
tRp5343
I00
S'http://www.web2py.com/book/default/chapter/11'
p5344
tp5345
a(g4885
(S's\x16\x00\x00\x00Components and Plugins'
tRp5346
I00
S'http://www.web2py.com/book/default/chapter/12'
p5347
tp5348
a(g4885
(S's\x12\x00\x00\x00Deployment Recipes'
tRp5349
I00
S'http://www.web2py.com/book/default/chapter/13'
p5350
tp5351
a(g4885
(S's\r\x00\x00\x00Other Recipes'
tRp5352
I00
S'http://www.web2py.com/book/default/chapter/14'
p5353
tp5354
a(g4885
(S's\r\x00\x00\x00Buy this book'
tRp5355
I00
S'http://stores.lulu.com/web2py'
p5356
tp5357
aasbasbasbasbasbasbasbag63
(g79
g65
NtRp5358
(dp5359
g68
(dp5360
sg77
g5000
sg70
(lp5361
g63
(g84
g65
NtRp5362
(dp5363
g68
(dp5364
sg77
g5358
sg70
(lp5365
g63
(g64
g65
NtRp5366
(dp5367
g68
(dp5368
g76
I2
ssg77
g5362
sg70
(lp5369
g63
(g72
g65
NtRp5370
(dp5371
g68
(dp5372
g76
I1
ssg77
Nsg70
(lp5373
g63
(g79
g65
NtRp5374
(dp5375
g68
(dp5376
sg77
g5370
sg70
(lp5377
g63
(g84
g65
NtRp5378
(dp5379
g68
(dp5380
sg77
g5374
sg70
(lp5381
g63
(g64
g65
NtRp5382
(dp5383
g68
(dp5384
g76
I1
ssg77
g5378
sg70
(lp5385
g4885
(S's\t\x00\x00\x00Community'
tRp5386
asbasbasbag63
(g79
g65
NtRp5387
(dp5388
g68
(dp5389
sg77
g5370
sg70
(lp5390
g63
(g84
g65
NtRp5391
(dp5392
g68
(dp5393
sg77
g5387
sg70
(lp5394
g63
(g64
g65
NtRp5395
(dp5396
g68
(dp5397
g76
I1
ssg77
g5391
sg70
(lp5398
I00
asbasbasbag63
(g79
g65
NtRp5399
(dp5400
g68
(dp5401
sg77
g5370
sg70
(lp5402
g63
(g84
g65
NtRp5403
(dp5404
g68
(dp5405
sg77
g5399
sg70
(lp5406
g63
(g64
g65
NtRp5407
(dp5408
g68
(dp5409
g76
I1
ssg77
g5403
sg70
(lp5410
Nasbasbasbag63
(g79
g65
NtRp5411
(dp5412
g68
(dp5413
sg77
g5370
sg70
(lp5414
g63
(g84
g65
NtRp5415
(dp5416
g68
(dp5417
sg77
g5411
sg70
(lp5418
g63
(g64
g65
NtRp5419
(dp5420
g68
(dp5421
g76
I1
ssg77
g5415
sg70
(lp5422
(lp5423
(g4885
(S's\x06\x00\x00\x00Groups'
tRp5424
I00
S'http://www.web2py.com/examples/default/usergroups'
p5425
tp5426
a(g4885
(S's\x07\x00\x00\x00Twitter'
tRp5427
I00
S'http://twitter.com/web2py'
p5428
tp5429
a(g4885
(S's\t\x00\x00\x00Live Chat'
tRp5430
I00
S'http://webchat.freenode.net/?channels=web2py'
p5431
tp5432
aasbasbasbasbasbasbasbag63
(g79
g65
NtRp5433
(dp5434
g68
(dp5435
sg77
g5000
sg70
(lp5436
g63
(g84
g65
NtRp5437
(dp5438
g68
(dp5439
sg77
g5433
sg70
(lp5440
g63
(g64
g65
NtRp5441
(dp5442
g68
(dp5443
g76
I2
ssg77
g5437
sg70
(lp5444
g63
(g72
g65
NtRp5445
(dp5446
g68
(dp5447
g76
I1
ssg77
Nsg70
(lp5448
g63
(g79
g65
NtRp5449
(dp5450
g68
(dp5451
sg77
g5445
sg70
(lp5452
g63
(g84
g65
NtRp5453
(dp5454
g68
(dp5455
sg77
g5449
sg70
(lp5456
g63
(g64
g65
NtRp5457
(dp5458
g68
(dp5459
g76
I1
ssg77
g5453
sg70
(lp5460
g4885
(S's\x07\x00\x00\x00Plugins'
tRp5461
asbasbasbag63
(g79
g65
NtRp5462
(dp5463
g68
(dp5464
sg77
g5445
sg70
(lp5465
g63
(g84
g65
NtRp5466
(dp5467
g68
(dp5468
sg77
g5462
sg70
(lp5469
g63
(g64
g65
NtRp5470
(dp5471
g68
(dp5472
g76
I1
ssg77
g5466
sg70
(lp5473
I00
asbasbasbag63
(g79
g65
NtRp5474
(dp5475
g68
(dp5476
sg77
g5445
sg70
(lp5477
g63
(g84
g65
NtRp5478
(dp5479
g68
(dp5480
sg77
g5474
sg70
(lp5481
g63
(g64
g65
NtRp5482
(dp5483
g68
(dp5484
g76
I1
ssg77
g5478
sg70
(lp5485
Nasbasbasbag63
(g79
g65
NtRp5486
(dp5487
g68
(dp5488
sg77
g5445
sg70
(lp5489
g63
(g84
g65
NtRp5490
(dp5491
g68
(dp5492
sg77
g5486
sg70
(lp5493
g63
(g64
g65
NtRp5494
(dp5495
g68
(dp5496
g76
I1
ssg77
g5490
sg70
(lp5497
(lp5498
(S'plugin_wiki'
p5499
I00
S'http://web2py.com/examples/default/download'
p5500
tp5501
a(g4885
(S's\r\x00\x00\x00Other Plugins'
tRp5502
I00
g5232
tp5503
a(g4885
(S's\x0e\x00\x00\x00Layout Plugins'
tRp5504
I00
g5235
tp5505
aasbasbasbasbasbasbasbasbasbasbasbasbasbasbasbasbasbasbasbag63
(g79
g65
NtRp5506
(dp5507
g68
(dp5508
sg77
g4394
sg70
(lp5509
g63
(g84
g65
NtRp5510
(dp5511
g68
(dp5512
g88
g89
ssg77
g5506
sg70
(lp5513
S'meta'
p5514
asbag63
(g84
g65
NtRp5515
(dp5516
g68
(dp5517
g95
g96
ssg77
g5506
sg70
(lp5518
S':'
asbag63
(g84
g65
NtRp5519
(dp5520
g68
(dp5521
sg77
g5506
sg70
(lp5522
g63
(g64
g65
NtRp5523
(dp5524
g68
(dp5525
g76
I5
ssg77
g5519
sg70
(lp5526
g63
(g72
g65
NtRp5527
(dp5528
g68
(dp5529
g76
I4
ssg77
Nsg70
(lp5530
g63
(g79
g65
NtRp5531
(dp5532
g68
(dp5533
sg77
g5527
sg70
(lp5534
g63
(g84
g65
NtRp5535
(dp5536
g68
(dp5537
g88
g89
ssg77
g5531
sg70
(lp5538
S'author'
p5539
asbag63
(g84
g65
NtRp5540
(dp5541
g68
(dp5542
g95
g96
ssg77
g5531
sg70
(lp5543
S':'
asbag63
(g84
g65
NtRp5544
(dp5545
g68
(dp5546
sg77
g5531
sg70
(lp5547
g63
(g64
g65
NtRp5548
(dp5549
g68
(dp5550
g76
I4
ssg77
g5544
sg70
(lp5551
S'Your Name <you@example.com>'
p5552
asbasbasbag63
(g79
g65
NtRp5553
(dp5554
g68
(dp5555
sg77
g5527
sg70
(lp5556
g63
(g84
g65
NtRp5557
(dp5558
g68
(dp5559
g88
g89
ssg77
g5553
sg70
(lp5560
S'description'
p5561
asbag63
(g84
g65
NtRp5562
(dp5563
g68
(dp5564
g95
g96
ssg77
g5553
sg70
(lp5565
S':'
asbag63
(g84
g65
NtRp5566
(dp5567
g68
(dp5568
sg77
g5553
sg70
(lp5569
g63
(g64
g65
NtRp5570
(dp5571
g68
(dp5572
g76
I4
ssg77
g5566
sg70
(lp5573
S'a cool new app'
p5574
asbasbasbag63
(g79
g65
NtRp5575
(dp5576
g68
(dp5577
sg77
g5527
sg70
(lp5578
g63
(g84
g65
NtRp5579
(dp5580
g68
(dp5581
g88
g89
ssg77
g5575
sg70
(lp5582
S'generator'
p5583
asbag63
(g84
g65
NtRp5584
(dp5585
g68
(dp5586
g95
g96
ssg77
g5575
sg70
(lp5587
S':'
asbag63
(g84
g65
NtRp5588
(dp5589
g68
(dp5590
sg77
g5575
sg70
(lp5591
g63
(g64
g65
NtRp5592
(dp5593
g68
(dp5594
g76
I4
ssg77
g5588
sg70
(lp5595
S'Web2py Web Framework'
p5596
asbasbasbag63
(g79
g65
NtRp5597
(dp5598
g68
(dp5599
sg77
g5527
sg70
(lp5600
g63
(g84
g65
NtRp5601
(dp5602
g68
(dp5603
g88
g89
ssg77
g5597
sg70
(lp5604
S'keywords'
p5605
asbag63
(g84
g65
NtRp5606
(dp5607
g68
(dp5608
g95
g96
ssg77
g5597
sg70
(lp5609
S':'
asbag63
(g84
g65
NtRp5610
(dp5611
g68
(dp5612
sg77
g5597
sg70
(lp5613
g63
(g64
g65
NtRp5614
(dp5615
g68
(dp5616
g76
I4
ssg77
g5610
sg70
(lp5617
S'web2py, python, framework'
p5618
asbasbasbasbasbasbasbag63
(g79
g65
NtRp5619
(dp5620
g68
(dp5621
sg77
g4394
sg70
(lp5622
g63
(g84
g65
NtRp5623
(dp5624
g68
(dp5625
g88
g89
ssg77
g5619
sg70
(lp5626
S'models_to_run'
p5627
asbag63
(g84
g65
NtRp5628
(dp5629
g68
(dp5630
g95
g96
ssg77
g5619
sg70
(lp5631
S':'
asbag63
(g84
g65
NtRp5632
(dp5633
g68
(dp5634
sg77
g5619
sg70
(lp5635
g63
(g64
g65
NtRp5636
(dp5637
g68
(dp5638
g76
I5
ssg77
g5632
sg70
(lp5639
g63
(g72
g65
NtRp5640
(dp5641
g68
(dp5642
g76
I4
ssg77
Nsg70
(lp5643
g63
(g79
g65
NtRp5644
(dp5645
g68
(dp5646
sg77
g5640
sg70
(lp5647
g63
(g84
g65
NtRp5648
(dp5649
g68
(dp5650
sg77
g5644
sg70
(lp5651
g63
(g64
g65
NtRp5652
(dp5653
g68
(dp5654
g76
I4
ssg77
g5648
sg70
(lp5655
S'^\\w+\\.py$'
p5656
asbasbasbag63
(g79
g65
NtRp5657
(dp5658
g68
(dp5659
sg77
g5640
sg70
(lp5660
g63
(g84
g65
NtRp5661
(dp5662
g68
(dp5663
sg77
g5657
sg70
(lp5664
g63
(g64
g65
NtRp5665
(dp5666
g68
(dp5667
g76
I4
ssg77
g5661
sg70
(lp5668
S'^default/\\w+\\.py$'
p5669
asbasbasbag63
(g79
g65
NtRp5670
(dp5671
g68
(dp5672
sg77
g5640
sg70
(lp5673
g63
(g84
g65
NtRp5674
(dp5675
g68
(dp5676
sg77
g5670
sg70
(lp5677
g63
(g64
g65
NtRp5678
(dp5679
g68
(dp5680
g76
I4
ssg77
g5674
sg70
(lp5681
S'^default/result_folder/\\w+\\.py$'
p5682
asbasbasbasbasbasbasbag63
(g79
g65
NtRp5683
(dp5684
g68
(dp5685
sg77
g4394
sg70
(lp5686
g63
(g84
g65
NtRp5687
(dp5688
g68
(dp5689
g88
g89
ssg77
g5683
sg70
(lp5690
S'postprocessing'
p5691
asbag63
(g84
g65
NtRp5692
(dp5693
g68
(dp5694
g95
g96
ssg77
g5683
sg70
(lp5695
S':'
asbag63
(g84
g65
NtRp5696
(dp5697
g68
(dp5698
sg77
g5683
sg70
(lp5699
g63
(g64
g65
NtRp5700
(dp5701
g68
(dp5702
g76
I5
ssg77
g5696
sg70
(lp5703
g63
(g72
g65
NtRp5704
(dp5705
g68
(dp5706
g76
I4
ssg77
Nsg70
(lp5707
sbasbasbasbag63
(g79
g65
NtRp5708
(dp5709
g68
(dp5710
sg77
g4394
sg70
(lp5711
g63
(g84
g65
NtRp5712
(dp5713
g68
(dp5714
g88
g89
ssg77
g5708
sg70
(lp5715
S'session_cookie_expires'
p5716
asbag63
(g84
g65
NtRp5717
(dp5718
g68
(dp5719
g95
g96
ssg77
g5708
sg70
(lp5720
S':'
asbag63
(g84
g65
NtRp5721
(dp5722
g68
(dp5723
sg77
g5708
sg70
(lp5724
g63
(g64
g65
NtRp5725
(dp5726
g68
(dp5727
g76
I5
ssg77
g5721
sg70
(lp5728
S'None'
p5729
asbasbasbag63
(g79
g65
NtRp5730
(dp5731
g68
(dp5732
sg77
g4394
sg70
(lp5733
g63
(g84
g65
NtRp5734
(dp5735
g68
(dp5736
g88
g89
ssg77
g5730
sg70
(lp5737
S'session_data_name'
p5738
asbag63
(g84
g65
NtRp5739
(dp5740
g68
(dp5741
g95
g96
ssg77
g5730
sg70
(lp5742
S':'
asbag63
(g84
g65
NtRp5743
(dp5744
g68
(dp5745
sg77
g5730
sg70
(lp5746
g63
(g64
g65
NtRp5747
(dp5748
g68
(dp5749
g76
I5
ssg77
g5743
sg70
(lp5750
S'session_data_betsy'
p5751
asbasbasbag63
(g79
g65
NtRp5752
(dp5753
g68
(dp5754
sg77
g4394
sg70
(lp5755
g63
(g84
g65
NtRp5756
(dp5757
g68
(dp5758
g88
g89
ssg77
g5752
sg70
(lp5759
S'session_file'
p5760
asbag63
(g84
g65
NtRp5761
(dp5762
g68
(dp5763
g95
g96
ssg77
g5752
sg70
(lp5764
S':'
asbag63
(g84
g65
NtRp5765
(dp5766
g68
(dp5767
sg77
g5752
sg70
(lp5768
g63
(g64
g65
NtRp5769
(dp5770
g68
(dp5771
g76
I5
ssg77
g5765
sg70
(lp5772
S"<open file '/home/xchen/web2py/applications/Betsy/sessions/127.0.0.1-70d52105-0f5d-4884-a4e3-dce6830f30e0', mode 'rb+' at 0x1fcbbe40>"
p5773
asbasbasbag63
(g79
g65
NtRp5774
(dp5775
g68
(dp5776
sg77
g4394
sg70
(lp5777
g63
(g84
g65
NtRp5778
(dp5779
g68
(dp5780
g88
g89
ssg77
g5774
sg70
(lp5781
S'session_filename'
p5782
asbag63
(g84
g65
NtRp5783
(dp5784
g68
(dp5785
g95
g96
ssg77
g5774
sg70
(lp5786
S':'
asbag63
(g84
g65
NtRp5787
(dp5788
g68
(dp5789
sg77
g5774
sg70
(lp5790
g63
(g64
g65
NtRp5791
(dp5792
g68
(dp5793
g76
I5
ssg77
g5787
sg70
(lp5794
S'/home/xchen/web2py/applications/Betsy/sessions/127.0.0.1-70d52105-0f5d-4884-a4e3-dce6830f30e0'
p5795
asbasbasbag63
(g79
g65
NtRp5796
(dp5797
g68
(dp5798
sg77
g4394
sg70
(lp5799
g63
(g84
g65
NtRp5800
(dp5801
g68
(dp5802
g88
g89
ssg77
g5796
sg70
(lp5803
S'session_id'
p5804
asbag63
(g84
g65
NtRp5805
(dp5806
g68
(dp5807
g95
g96
ssg77
g5796
sg70
(lp5808
S':'
asbag63
(g84
g65
NtRp5809
(dp5810
g68
(dp5811
sg77
g5796
sg70
(lp5812
g63
(g64
g65
NtRp5813
(dp5814
g68
(dp5815
g76
I5
ssg77
g5809
sg70
(lp5816
g507
asbasbasbag63
(g79
g65
NtRp5817
(dp5818
g68
(dp5819
sg77
g4394
sg70
(lp5820
g63
(g84
g65
NtRp5821
(dp5822
g68
(dp5823
g88
g89
ssg77
g5817
sg70
(lp5824
S'session_id_name'
p5825
asbag63
(g84
g65
NtRp5826
(dp5827
g68
(dp5828
g95
g96
ssg77
g5817
sg70
(lp5829
S':'
asbag63
(g84
g65
NtRp5830
(dp5831
g68
(dp5832
sg77
g5817
sg70
(lp5833
g63
(g64
g65
NtRp5834
(dp5835
g68
(dp5836
g76
I5
ssg77
g5830
sg70
(lp5837
g4451
asbasbasbag63
(g79
g65
NtRp5838
(dp5839
g68
(dp5840
sg77
g4394
sg70
(lp5841
g63
(g84
g65
NtRp5842
(dp5843
g68
(dp5844
g88
g89
ssg77
g5838
sg70
(lp5845
S'session_locked'
p5846
asbag63
(g84
g65
NtRp5847
(dp5848
g68
(dp5849
g95
g96
ssg77
g5838
sg70
(lp5850
S':'
asbag63
(g84
g65
NtRp5851
(dp5852
g68
(dp5853
sg77
g5838
sg70
(lp5854
g63
(g64
g65
NtRp5855
(dp5856
g68
(dp5857
g76
I5
ssg77
g5851
sg70
(lp5858
g1614
asbasbasbag63
(g79
g65
NtRp5859
(dp5860
g68
(dp5861
sg77
g4394
sg70
(lp5862
g63
(g84
g65
NtRp5863
(dp5864
g68
(dp5865
g88
g89
ssg77
g5859
sg70
(lp5866
S'session_new'
p5867
asbag63
(g84
g65
NtRp5868
(dp5869
g68
(dp5870
g95
g96
ssg77
g5859
sg70
(lp5871
S':'
asbag63
(g84
g65
NtRp5872
(dp5873
g68
(dp5874
sg77
g5859
sg70
(lp5875
g63
(g64
g65
NtRp5876
(dp5877
g68
(dp5878
g76
I5
ssg77
g5872
sg70
(lp5879
g106
asbasbasbag63
(g79
g65
NtRp5880
(dp5881
g68
(dp5882
sg77
g4394
sg70
(lp5883
g63
(g84
g65
NtRp5884
(dp5885
g68
(dp5886
g88
g89
ssg77
g5880
sg70
(lp5887
S'session_storage_type'
p5888
asbag63
(g84
g65
NtRp5889
(dp5890
g68
(dp5891
g95
g96
ssg77
g5880
sg70
(lp5892
S':'
asbag63
(g84
g65
NtRp5893
(dp5894
g68
(dp5895
sg77
g5880
sg70
(lp5896
g63
(g64
g65
NtRp5897
(dp5898
g68
(dp5899
g76
I5
ssg77
g5893
sg70
(lp5900
g3046
asbasbasbag63
(g79
g65
NtRp5901
(dp5902
g68
(dp5903
sg77
g4394
sg70
(lp5904
g63
(g84
g65
NtRp5905
(dp5906
g68
(dp5907
g88
g89
ssg77
g5901
sg70
(lp5908
S'status'
p5909
asbag63
(g84
g65
NtRp5910
(dp5911
g68
(dp5912
g95
g96
ssg77
g5901
sg70
(lp5913
S':'
asbag63
(g84
g65
NtRp5914
(dp5915
g68
(dp5916
sg77
g5901
sg70
(lp5917
g63
(g64
g65
NtRp5918
(dp5919
g68
(dp5920
g76
I5
ssg77
g5914
sg70
(lp5921
S'200'
p5922
asbasbasbag63
(g79
g65
NtRp5923
(dp5924
g68
(dp5925
sg77
g4394
sg70
(lp5926
g63
(g84
g65
NtRp5927
(dp5928
g68
(dp5929
g88
g89
ssg77
g5923
sg70
(lp5930
S'subtitle'
p5931
asbag63
(g84
g65
NtRp5932
(dp5933
g68
(dp5934
g95
g96
ssg77
g5923
sg70
(lp5935
S':'
asbag63
(g84
g65
NtRp5936
(dp5937
g68
(dp5938
sg77
g5923
sg70
(lp5939
g63
(g64
g65
NtRp5940
(dp5941
g68
(dp5942
g76
I5
ssg77
g5936
sg70
(lp5943
g4885
(S's\r\x00\x00\x00customize me!'
tRp5944
asbasbasbag63
(g79
g65
NtRp5945
(dp5946
g68
(dp5947
sg77
g4394
sg70
(lp5948
g63
(g84
g65
NtRp5949
(dp5950
g68
(dp5951
g88
g89
ssg77
g5945
sg70
(lp5952
S'title'
p5953
asbag63
(g84
g65
NtRp5954
(dp5955
g68
(dp5956
g95
g96
ssg77
g5945
sg70
(lp5957
S':'
asbag63
(g84
g65
NtRp5958
(dp5959
g68
(dp5960
sg77
g5945
sg70
(lp5961
g63
(g64
g65
NtRp5962
(dp5963
g68
(dp5964
g76
I5
ssg77
g5958
sg70
(lp5965
S'Betsy'
p5966
asbasbasbag63
(g79
g65
NtRp5967
(dp5968
g68
(dp5969
sg77
g4394
sg70
(lp5970
g63
(g84
g65
NtRp5971
(dp5972
g68
(dp5973
g88
g89
ssg77
g5967
sg70
(lp5974
S'view'
p5975
asbag63
(g84
g65
NtRp5976
(dp5977
g68
(dp5978
g95
g96
ssg77
g5967
sg70
(lp5979
S':'
asbag63
(g84
g65
NtRp5980
(dp5981
g68
(dp5982
sg77
g5967
sg70
(lp5983
g63
(g64
g65
NtRp5984
(dp5985
g68
(dp5986
g76
I5
ssg77
g5980
sg70
(lp5987
S'default/result_folder.html'
p5988
asbasbasbasbasbsS'locals'
p5989
(dp5990
g431
S"'/home/xchen/chencode/examples/sample_analysis/pl...d9b3e3.73653266706c617465365f34382e696c6c752e677a'"
p5991
sssS'traceback'
p5992
S'Traceback (most recent call last):\n  File "/home/xchen/web2py/gluon/restricted.py", line 212, in restricted\n    exec ccode in environment\n  File "/home/xchen/web2py/applications/Betsy/controllers/default.py", line 176, in <module>\n  File "/home/xchen/web2py/gluon/globals.py", line 188, in <lambda>\n    self._caller = lambda f: f()\n  File "/home/xchen/web2py/applications/Betsy/controllers/default.py", line 107, in result_folder\n    return open(path,\'rb\').read()\nIOError: [Errno 21] Is a directory: \'/home/xchen/chencode/examples/sample_analysis/plot_geneset_score_bar_BETSYHASH1_457d4227d5519d3cca8b7ab6e9e9fa34/geneset_plot_path.9313471497d9b3e3.73653266706c617465365f34382e696c6c752e677a\'\n'
p5993
s.