(dp1
S'output'
p2
S"<type 'exceptions.KeyError'> 'shiftscale'"
p3
sS'layer'
p4
S'/home/xchen/web2py/applications/Betsy/controllers/default.py'
p5
sS'code'
p6
S'# -*- coding: utf-8 -*-\n# this file is released under public domain and you can use without limitations\n\n#########################################################################\n## This is a samples controller\n## - index is the default action of any application\n## - user is required for authentication and authorization\n## - download is for downloading files uploaded in the db (does streaming)\n## - call exposes all registered services (none by default)\n#########################################################################\nupload_path = \'/home/xchen/chencode/upload/\'\ndef status():\n    return dict(request=request,session=session,response=response)\n    \n@auth.requires_login()\ndef index():\n    form1 = FORM(INPUT(_type=\'submit\',_value=\'normalize file\',_name=\'normalize\'))\n    form2 = FORM(INPUT(_type=\'submit\',_value=\'cluster genes\',_name=\'cluster\'))\n    form3 = FORM(INPUT(_type=\'submit\',_value=\'make heatmap\',_name=\'heatmap\'))\n    form4 = FORM(INPUT(_type=\'submit\',_value=\'classification\',_name=\'classification\'))\n    form5 = FORM(INPUT(_type=\'submit\',_value=\'batch_effect_remove\',_name=\'batch\'))\n    form6 = FORM(INPUT(_type=\'submit\',_value=\'differential expressed gene analysis\',_name=\'diffgene\'))\n    form7 = FORM(INPUT(_type=\'submit\',_value=\'geneset analysis\',_name=\'geneset\'))\n    form_queue = FORM(INPUT(_type=\'submit\',_value=\'show jobs status\',_name=\'status\'))\n    if form_queue.process(formname=\'status\').accepted:\n        redirect(URL(\'show_status\'))\n    if form1.process(formname=\'normalize\').accepted:\n        redirect(URL(\'normalize_file\'))\n    if form2.process(formname=\'cluster\').accepted:\n        redirect(URL(\'cluster_genes\'))\n    if form3.process(formname=\'heatmap\').accepted:\n        redirect(URL(\'heatmap\'))\n    if form4.process(formname=\'classification\').accepted:\n        redirect(URL(\'classification\'))\n    if form5.process(formname=\'batch\').accepted:\n        redirect(URL(\'batch_effect\'))\n    if form6.process(formname=\'diffgene\').accepted:\n        redirect(URL(\'diffgene\'))\n    if form7.process(formname=\'geneset\').accepted:\n        redirect(URL(\'geneset\'))\n    return dict(form1=form1,form2=form2,form3=form3,form4=form4,form5=form5,form6=form6,form7=form7,form_queue=form_queue)\n    \n\ndef normalize_file1():\n    form = SQLFORM.factory(\n        Field(\'myfile1\',requires=IS_IN_SET(INPUTS)),\n        Field(\'myfile1_path\', \'upload\',\n        uploadfolder=upload_path),\n        Field(\'myfile2\',requires=IS_IN_SET(INPUTS)),\n        Field(\'myfile2_path\', \'upload\',\n        uploadfolder=upload_path),\n        Field(\'myfile3\',requires=IS_IN_SET(INPUTS)),\n        Field(\'myfile3_path\', \'upload\',\n        uploadfolder=upload_path),\n        Field(\'myfile4\',requires=IS_IN_SET(INPUTS)),\n        Field(\'myfile4_path\', \'upload\',\n        uploadfolder=upload_path),\n        Field(\'myfile5\',requires=IS_IN_SET(INPUTS)),\n        Field(\'myfile5_path\', \'upload\',\n        uploadfolder=upload_path),\n        Field(\'myfile6\',requires=IS_IN_SET(INPUTS)),\n        Field(\'myfile6_path\', \'upload\',\n        uploadfolder=upload_path),submit_button=\'upload files\'\n        )\n    form_queue = FORM(INPUT(_type=\'submit\',_value=\'show jobs status\'))\n    if form.process().accepted:\n        session.myfile1 = form.vars.myfile1\n        session.myfile2 = form.vars.myfile2\n        session.myfile3 = form.vars.myfile3\n        session.myfile4 = form.vars.myfile4\n        session.myfile5 = form.vars.myfile5\n        session.myfile6 = form.vars.myfile6\n        session.protocol = \'normalize_file\'\n        \n        #print request.vars\n    #    redirect(URL(\'submit_job\'))\n    if form_queue.process().accepted:\n        redirect(URL(\'show_status\'))\n    return dict(form=form,form_queue=form_queue)\n    \ndef normalize_file():\n    fields=[]\n    for i in range(6):\n        fields.append(Field(\'myfile\'+str(i),requires=IS_IN_SET(INPUTS)))\n        fields.append(Field(\'myfile\'+str(i)+\'_path\',\'upload\',\n        uploadfolder=upload_path))\n    for key in common_parameters:\n        if isinstance(common_parameters[key],list):\n            fields.append(Field(key,requires=IS_IN_SET(common_parameters[key]),default=common_parameters[key][0]))\n        else:\n            fields.append(Field(key,default=common_parameters[key][1]))\n    for key in normalize_parameters:\n        if isinstance(common_parameters[key],list):\n            fields.append(Field(key,requires=IS_IN_SET(normalize_parameters[key]),default=normalize_parameters[key][0]))\n        else:\n            fields.append(Field(key,default=normalize_parameters[key][1]))\n    for key in optional_parameters:\n        if isinstance(optional_parameters[key],list):\n            fields.append(Field(key,requires=IS_IN_SET(optional_parameters[key]),default=optional_parameters[key][0]))\n        else:\n            fields.append(Field(key,default=optional_parameters[key][1]))\n        #fields.append(Field(key,requires=IS_IN_SET(optional_parameters[key]),default=optional_parameters[key][0]))\n    form=SQLFORM.factory(*fields)\n    form_queue = FORM(INPUT(_type=\'submit\',_value=\'show jobs status\'))\n    if form.process().accepted:\n        session.myfile1 = form.vars.myfile1_path\n        session.myfile2 = form.vars.myfile2\n        session.myfile3 = form.vars.myfile3\n        session.myfile4 = form.vars.myfile4\n        session.myfile5 = form.vars.myfile5\n        session.myfile0 = form.vars.myfile0\n        session.protocol = \'normalize_file\'\n        print form.vars\n    if form_queue.process().accepted:\n        redirect(URL(\'show_status\'))\n    return dict(form=form,form_queue=form_queue)\n    \n#def normalize_file():\n#    form_queue = FORM(INPUT(_type=\'submit\',_value=\'show jobs status\'))\n#    if form_queue.process().accepted:\n#        redirect(URL(\'show_status\'))\n#    print request.vars\n#    return dict(form_queue=form_queue)\n    \n    \ndef cluster_genes():\n    form = SQLFORM.factory(Field(\'command\',requires=IS_NOT_EMPTY()),\n        Field(\'myfile1\', \'upload\',\n        uploadfolder=upload_path),\n        Field(\'myfile2\', \'upload\',\n        uploadfolder=upload_path),\n        Field(\'myfile3\', \'upload\',\n        uploadfolder=upload_path),\n        Field(\'myfile4\', \'upload\',\n        uploadfolder=upload_path),\n        Field(\'myfile5\', \'upload\',\n        uploadfolder=upload_path),\n        Field(\'myfile6\', \'upload\',\n        uploadfolder=upload_path),\n        )\n    form_queue = FORM(INPUT(_type=\'submit\',_value=\'show jobs status\'))\n    if form.process().accepted:\n        session.command=form.vars.command\n        session.myfile1 = form.vars.myfile1\n        session.myfile2 = form.vars.myfile2\n        session.myfile3 = form.vars.myfile3\n        session.myfile4 = form.vars.myfile4\n        session.myfile5 = form.vars.myfile5\n        session.myfile6 = form.vars.myfile6\n        session.protocol = \'cluster_genes\'\n        redirect(URL(\'submit_job\'))\n    if form_queue.process().accepted:\n        redirect(URL(\'show_status\'))\n    return dict(form=form,form_queue=form_queue)\n\n\ndef heatmap():\n    form = SQLFORM.factory(Field(\'command\',requires=IS_NOT_EMPTY()),\n        Field(\'myfile1\', \'upload\',\n        uploadfolder=upload_path),\n        Field(\'myfile2\', \'upload\',\n        uploadfolder=upload_path),\n        Field(\'myfile3\', \'upload\',\n        uploadfolder=upload_path),\n        Field(\'myfile4\', \'upload\',\n        uploadfolder=upload_path),\n        Field(\'myfile5\', \'upload\',\n        uploadfolder=upload_path),\n        Field(\'myfile6\', \'upload\',\n        uploadfolder=upload_path),\n        )\n    form_queue = FORM(INPUT(_type=\'submit\',_value=\'show jobs status\'))\n    if form.process().accepted:\n        session.command=form.vars.command\n        session.myfile1 = form.vars.myfile1\n        session.myfile2 = form.vars.myfile2\n        session.myfile3 = form.vars.myfile3\n        session.myfile4 = form.vars.myfile4\n        session.myfile5 = form.vars.myfile5\n        session.myfile6 = form.vars.myfile6\n        session.protocol = \'make_heatmap\'\n        redirect(URL(\'submit_job\'))\n    if form_queue.process().accepted:\n        redirect(URL(\'show_status\'))\n    return dict(form=form,form_queue=form_queue)\n    \ndef classification():\n    form = SQLFORM.factory(Field(\'command\',requires=IS_NOT_EMPTY()),\n        Field(\'myfile1\', \'upload\',\n        uploadfolder=upload_path),\n        Field(\'myfile2\', \'upload\',\n        uploadfolder=upload_path),\n        Field(\'myfile3\', \'upload\',\n        uploadfolder=upload_path),\n        Field(\'myfile4\', \'upload\',\n        uploadfolder=upload_path),\n        Field(\'myfile5\', \'upload\',\n        uploadfolder=upload_path),\n        Field(\'myfile6\', \'upload\',\n        uploadfolder=upload_path),\n        )\n    form_queue = FORM(INPUT(_type=\'submit\',_value=\'show jobs status\'))\n    if form.process().accepted:\n        session.command=form.vars.command\n        session.myfile1 = form.vars.myfile1\n        session.myfile2 = form.vars.myfile2\n        session.myfile3 = form.vars.myfile3\n        session.myfile4 = form.vars.myfile4\n        session.myfile5 = form.vars.myfile5\n        session.myfile6 = form.vars.myfile6\n        session.protocol = \'classification\'\n        redirect(URL(\'submit_job\'))\n    if form_queue.process().accepted:\n        redirect(URL(\'show_status\'))\n    return dict(form=form,form_queue=form_queue)\n\n\ndef batch_effect():\n    form = SQLFORM.factory(Field(\'command\',requires=IS_NOT_EMPTY()),\n        Field(\'myfile1\', \'upload\',\n        uploadfolder=upload_path),\n        Field(\'myfile2\', \'upload\',\n        uploadfolder=upload_path),\n        Field(\'myfile3\', \'upload\',\n        uploadfolder=upload_path),\n        Field(\'myfile4\', \'upload\',\n        uploadfolder=upload_path),\n        Field(\'myfile5\', \'upload\',\n        uploadfolder=upload_path),\n        Field(\'myfile6\', \'upload\',\n        uploadfolder=upload_path),\n        )\n    form_queue = FORM(INPUT(_type=\'submit\',_value=\'show jobs status\'))\n    if form.process().accepted:\n        session.command=form.vars.command\n        session.myfile1 = form.vars.myfile1\n        session.myfile2 = form.vars.myfile2\n        session.myfile3 = form.vars.myfile3\n        session.myfile4 = form.vars.myfile4\n        session.myfile5 = form.vars.myfile5\n        session.myfile6 = form.vars.myfile6\n        session.protocol = \'batch_effect_remove\'\n        redirect(URL(\'submit_job\'))\n    if form_queue.process().accepted:\n        redirect(URL(\'show_status\'))\n    return dict(form=form,form_queue=form_queue)\n\n\ndef diffgene():\n    form = SQLFORM.factory(Field(\'command\',requires=IS_NOT_EMPTY()),\n        Field(\'myfile1\', \'upload\',\n        uploadfolder=upload_path),\n        Field(\'myfile2\', \'upload\',\n        uploadfolder=upload_path),\n        Field(\'myfile3\', \'upload\',\n        uploadfolder=upload_path),\n        Field(\'myfile4\', \'upload\',\n        uploadfolder=upload_path),\n        Field(\'myfile5\', \'upload\',\n        uploadfolder=upload_path),\n        Field(\'myfile6\', \'upload\',\n        uploadfolder=upload_path),\n        )\n    form_queue = FORM(INPUT(_type=\'submit\',_value=\'show jobs status\'))\n    if form.process().accepted:\n        session.command=form.vars.command\n        session.myfile1 = form.vars.myfile1\n        session.myfile2 = form.vars.myfile2\n        session.myfile3 = form.vars.myfile3\n        session.myfile4 = form.vars.myfile4\n        session.myfile5 = form.vars.myfile5\n        session.myfile6 = form.vars.myfile6\n        session.protocol = \'differential_expressed_gene_analysis\'\n        redirect(URL(\'submit_job\'))\n    if form_queue.process().accepted:\n        redirect(URL(\'show_status\'))\n    return dict(form=form,form_queue=form_queue)\n\n\ndef geneset():\n    form = SQLFORM.factory(Field(\'command\',requires=IS_NOT_EMPTY()),\n        Field(\'myfile1\', \'upload\',\n        uploadfolder=upload_path),\n        Field(\'myfile2\', \'upload\',\n        uploadfolder=upload_path),\n        Field(\'myfile3\', \'upload\',\n        uploadfolder=upload_path),\n        Field(\'myfile4\', \'upload\',\n        uploadfolder=upload_path),\n        Field(\'myfile5\', \'upload\',\n        uploadfolder=upload_path),\n        Field(\'myfile6\', \'upload\',\n        uploadfolder=upload_path),\n        )\n    form_queue = FORM(INPUT(_type=\'submit\',_value=\'show jobs status\'))\n    if form.process().accepted:\n        session.command=form.vars.command\n        session.myfile1 = form.vars.myfile1\n        session.myfile2 = form.vars.myfile2\n        session.myfile3 = form.vars.myfile3\n        session.myfile4 = form.vars.myfile4\n        session.myfile5 = form.vars.myfile5\n        session.myfile6 = form.vars.myfile6\n        session.protocol = \'geneset_analysis\'\n        redirect(URL(\'submit_job\'))\n    if form_queue.process().accepted:\n        redirect(URL(\'show_status\'))\n    return dict(form=form,form_queue=form_queue) \n    \n    \ndef show_status():\n    import subprocess\n    all_cmd = [\'python\',\'/home/xchen/queue/queue.py\',\'--list\']    \n    process = subprocess.Popen(all_cmd, shell=False,\n                               stdout=subprocess.PIPE,\n                               stderr=subprocess.STDOUT)\n    process.wait()\n    log_information = process.stdout.read().split(\'\\n\')[1:]\n    log_information = [i for i in log_information if i]\n    for log_line in log_information:\n        lines = log_line.split(\'\\t\')\n        db.status.update_or_insert(db.status.Jobnumber==lines[0],Jobnumber=lines[0],\n                Jobname=lines[1], Status=lines[2], Started=lines[3],\n                Ended=lines[4],Submitted=lines[5],Command=lines[6])\n    form=db().select(db.status.ALL)\n    return dict(form=form)\n    \ndef show_job():\n    "show a job page"\n    session.output=[]\n    show_status()\n    this_job = db.status(request.args(0)) or redirect(URL(\'first\'))\n    db.status.id.default=this_job.id\n    text = \'\'\n    newtext=\'\'\n    if  this_job.Status in [\'running\',\'completed\']:\n        #from Modules import common_utlis \n        hash_string = hash_command(this_job.Submitted,this_job.Command)\n        pro_file = os.path.join(\'/home/xchen/queue/processing_info/\', hash_string+\'.txt\')\n        f=file(pro_file,\'r\')\n        text = f.read().split(\'\\n\')\n        f.close()\n        newtext=text[:]\n        for i in range(len(text)):\n            if os.path.exists(text[i].strip()):\n                newtext[i]=os.path.join(text[i].strip().split(\'/\')[-2:])\n            else:\n                newtext[i]=text[i]\n    info = \'Job is \' + this_job.Status\n    return dict(job=this_job,info=info,text=text,newtext=newtext,session=session)\n    \n\ndef submit_job():\n    command_list = []\n    for key in request.vars:\n        if request.vars[key]:\n            command_list = command_list + [key,request.vars[key]]\n    print command_list\n    #if session.command:\n    #    import subprocess\n    #    import os\n    #    command = session.command.replace(\'myfile1\',os.path.join(upload_path,session.myfile1))\n    #    command = command.replace(\'myfile2\',os.path.join(upload_path,session.myfile2))\n    #    command = command.replace(\'myfile3\',os.path.join(upload_path,session.myfile3))\n    #    command = command.replace(\'myfile4\',os.path.join(upload_path,session.myfile4))\n    #    command = command.replace(\'myfile5\',os.path.join(upload_path,session.myfile5))\n    #    command = command.replace(\'myfile6\',os.path.join(upload_path,session.myfile6))\n    #    command_list=command.split()\n    #    cmd = [\'python\', \'/home/xchen/chencode/Betsy/scripts/run_protocol.py\', \'--protocol\', session.protocol] + command_list\n    #    all_cmd = [\'python\',\'/home/xchen/queue/queue.py\' ,\' \' .join(cmd)]\n    #    process = subprocess.Popen(all_cmd, shell=False,\n    #                           stdout=subprocess.PIPE,\n    #                           stderr=subprocess.STDOUT)\n    #    process.wait()                      \n    #    redirect(URL(\'show_status\'))\n    return dict()\n    \ndef result_folder():\n    path = os.path.join(\'/home/xchen/chencode/examples/sample_analysis\',request.args[0]+\'/\'+request.args[1])\n    return open(path,\'rb\').read()\n    \n\ndef user():\n    """\n    exposes:\n    http://..../[app]/default/user/login\n    http://..../[app]/default/user/logout\n    http://..../[app]/default/user/register\n    http://..../[app]/default/user/profile\n    http://..../[app]/default/user/retrieve_password\n    http://..../[app]/default/user/change_password\n    use @auth.requires_login()\n        @auth.requires_membership(\'group name\')\n        @auth.requires_permission(\'read\',\'table name\',record_id)\n    to decorate functions that need access control\n    """\n    return dict(form=auth())\n\n\ndef download():\n    """\n    allows downloading of uploaded files\n    http://..../[app]/default/download/[filename]\n    """\n    return response.download(request, db)\n\n    \ndef call():\n    """\n    exposes services. for example:\n    http://..../[app]/default/call/jsonrpc\n    decorate with @services.jsonrpc the functions to expose\n    supports xml, json, xmlrpc, jsonrpc, amfrpc, rss, csv\n    """\n    return service()\n\n\n@auth.requires_signature()\ndef data():\n    """\n    http://..../[app]/default/data/tables\n    http://..../[app]/default/data/create/[table]\n    http://..../[app]/default/data/read/[table]/[id]\n    http://..../[app]/default/data/update/[table]/[id]\n    http://..../[app]/default/data/delete/[table]/[id]\n    http://..../[app]/default/data/select/[table]\n    http://..../[app]/default/data/search/[table]\n    but URLs must be signed, i.e. linked with\n      A(\'table\',_href=URL(\'data/tables\',user_signature=True))\n    or with the signed load operator\n      LOAD(\'default\',\'data.load\',args=\'tables\',ajax=True,user_signature=True)\n    """\n    return dict(form=crud())\n\nresponse._vars=response._caller(normalize_file)\n'
p7
sS'snapshot'
p8
(dp9
S'exception'
p10
(dp11
S'__hash__'
p12
S"<method-wrapper '__hash__' of exceptions.KeyError object>"
p13
sS'__setattr__'
p14
S"<method-wrapper '__setattr__' of exceptions.KeyError object>"
p15
sS'__reduce_ex__'
p16
S'<built-in method __reduce_ex__ of exceptions.KeyError object>'
p17
sS'__getslice__'
p18
S"<method-wrapper '__getslice__' of exceptions.KeyError object>"
p19
sS'__getitem__'
p20
S"<method-wrapper '__getitem__' of exceptions.KeyError object>"
p21
sS'__setstate__'
p22
S'<built-in method __setstate__ of exceptions.KeyError object>'
p23
sS'args'
p24
S"('shiftscale',)"
p25
sS'__reduce__'
p26
S'<built-in method __reduce__ of exceptions.KeyError object>'
p27
sS'__str__'
p28
S"<method-wrapper '__str__' of exceptions.KeyError object>"
p29
sS'__format__'
p30
S'<built-in method __format__ of exceptions.KeyError object>'
p31
sS'__getattribute__'
p32
S"<method-wrapper '__getattribute__' of exceptions.KeyError object>"
p33
sS'__class__'
p34
S"<type 'exceptions.KeyError'>"
p35
sS'__unicode__'
p36
S'<built-in method __unicode__ of exceptions.KeyError object>'
p37
sS'__delattr__'
p38
S"<method-wrapper '__delattr__' of exceptions.KeyError object>"
p39
sS'__subclasshook__'
p40
S'<built-in method __subclasshook__ of type object>'
p41
sS'__repr__'
p42
S"<method-wrapper '__repr__' of exceptions.KeyError object>"
p43
sS'__dict__'
p44
S'{}'
p45
sS'__sizeof__'
p46
S'<built-in method __sizeof__ of exceptions.KeyError object>'
p47
sS'__doc__'
p48
S"'Mapping key not found.'"
p49
sS'__init__'
p50
S"<method-wrapper '__init__' of exceptions.KeyError object>"
p51
sS'__new__'
p52
S'<built-in method __new__ of type object>'
p53
ssS'evalue'
p54
S"'shiftscale'"
p55
sS'request'
p56
ccopy_reg
_reconstructor
p57
(cgluon.html
BEAUTIFY
p58
c__builtin__
object
p59
NtRp60
(dp61
S'attributes'
p62
(dp63
sS'components'
p64
(lp65
g57
(cgluon.html
TABLE
p66
g59
NtRp67
(dp68
g62
(dp69
S'level'
p70
I5
ssS'parent'
p71
Nsg64
(lp72
g57
(cgluon.html
TR
p73
g59
NtRp74
(dp75
g62
(dp76
sg71
g67
sg64
(lp77
g57
(cgluon.html
TD
p78
g59
NtRp79
(dp80
g62
(dp81
S'_style'
p82
S'font-weight:bold;vertical-align:top'
p83
ssg71
g74
sg64
(lp84
S'ajax'
p85
asbag57
(g78
g59
NtRp86
(dp87
g62
(dp88
S'_valign'
p89
S'top'
p90
ssg71
g74
sg64
(lp91
S':'
asbag57
(g78
g59
NtRp92
(dp93
g62
(dp94
sg71
g74
sg64
(lp95
g57
(g58
g59
NtRp96
(dp97
g62
(dp98
g70
I5
ssg71
g92
sg64
(lp99
S'False'
p100
asbasbasbag57
(g73
g59
NtRp101
(dp102
g62
(dp103
sg71
g67
sg64
(lp104
g57
(g78
g59
NtRp105
(dp106
g62
(dp107
g82
g83
ssg71
g101
sg64
(lp108
S'application'
p109
asbag57
(g78
g59
NtRp110
(dp111
g62
(dp112
g89
g90
ssg71
g101
sg64
(lp113
S':'
asbag57
(g78
g59
NtRp114
(dp115
g62
(dp116
sg71
g101
sg64
(lp117
g57
(g58
g59
NtRp118
(dp119
g62
(dp120
g70
I5
ssg71
g114
sg64
(lp121
S'Betsy'
p122
asbasbasbag57
(g73
g59
NtRp123
(dp124
g62
(dp125
sg71
g67
sg64
(lp126
g57
(g78
g59
NtRp127
(dp128
g62
(dp129
g82
g83
ssg71
g123
sg64
(lp130
g24
asbag57
(g78
g59
NtRp131
(dp132
g62
(dp133
g89
g90
ssg71
g123
sg64
(lp134
S':'
asbag57
(g78
g59
NtRp135
(dp136
g62
(dp137
sg71
g123
sg64
(lp138
g57
(g58
g59
NtRp139
(dp140
g62
(dp141
g70
I5
ssg71
g135
sg64
(lp142
g57
(g66
g59
NtRp143
(dp144
g62
(dp145
g70
I4
ssg71
Nsg64
(lp146
sbasbasbasbag57
(g73
g59
NtRp147
(dp148
g62
(dp149
sg71
g67
sg64
(lp150
g57
(g78
g59
NtRp151
(dp152
g62
(dp153
g82
g83
ssg71
g147
sg64
(lp154
S'body'
p155
asbag57
(g78
g59
NtRp156
(dp157
g62
(dp158
g89
g90
ssg71
g147
sg64
(lp159
S':'
asbag57
(g78
g59
NtRp160
(dp161
g62
(dp162
sg71
g147
sg64
(lp163
g57
(g58
g59
NtRp164
(dp165
g62
(dp166
g70
I5
ssg71
g160
sg64
(lp167
S"<open file '<fdopen>', mode 'w+b' at 0x72cb930>"
p168
asbasbasbag57
(g73
g59
NtRp169
(dp170
g62
(dp171
sg71
g67
sg64
(lp172
g57
(g78
g59
NtRp173
(dp174
g62
(dp175
g82
g83
ssg71
g169
sg64
(lp176
S'cid'
p177
asbag57
(g78
g59
NtRp178
(dp179
g62
(dp180
g89
g90
ssg71
g169
sg64
(lp181
S':'
asbag57
(g78
g59
NtRp182
(dp183
g62
(dp184
sg71
g169
sg64
(lp185
g57
(g58
g59
NtRp186
(dp187
g62
(dp188
g70
I5
ssg71
g182
sg64
(lp189
S'None'
p190
asbasbasbag57
(g73
g59
NtRp191
(dp192
g62
(dp193
sg71
g67
sg64
(lp194
g57
(g78
g59
NtRp195
(dp196
g62
(dp197
g82
g83
ssg71
g191
sg64
(lp198
S'client'
p199
asbag57
(g78
g59
NtRp200
(dp201
g62
(dp202
g89
g90
ssg71
g191
sg64
(lp203
S':'
asbag57
(g78
g59
NtRp204
(dp205
g62
(dp206
sg71
g191
sg64
(lp207
g57
(g58
g59
NtRp208
(dp209
g62
(dp210
g70
I5
ssg71
g204
sg64
(lp211
S'127.0.0.1'
p212
asbasbasbag57
(g73
g59
NtRp213
(dp214
g62
(dp215
sg71
g67
sg64
(lp216
g57
(g78
g59
NtRp217
(dp218
g62
(dp219
g82
g83
ssg71
g213
sg64
(lp220
S'controller'
p221
asbag57
(g78
g59
NtRp222
(dp223
g62
(dp224
g89
g90
ssg71
g213
sg64
(lp225
S':'
asbag57
(g78
g59
NtRp226
(dp227
g62
(dp228
sg71
g213
sg64
(lp229
g57
(g58
g59
NtRp230
(dp231
g62
(dp232
g70
I5
ssg71
g226
sg64
(lp233
S'default'
p234
asbasbasbag57
(g73
g59
NtRp235
(dp236
g62
(dp237
sg71
g67
sg64
(lp238
g57
(g78
g59
NtRp239
(dp240
g62
(dp241
g82
g83
ssg71
g235
sg64
(lp242
S'cookies'
p243
asbag57
(g78
g59
NtRp244
(dp245
g62
(dp246
g89
g90
ssg71
g235
sg64
(lp247
S':'
asbag57
(g78
g59
NtRp248
(dp249
g62
(dp250
sg71
g235
sg64
(lp251
g57
(g58
g59
NtRp252
(dp253
g62
(dp254
g70
I5
ssg71
g248
sg64
(lp255
g57
(g66
g59
NtRp256
(dp257
g62
(dp258
g70
I4
ssg71
Nsg64
(lp259
g57
(g73
g59
NtRp260
(dp261
g62
(dp262
sg71
g256
sg64
(lp263
g57
(g78
g59
NtRp264
(dp265
g62
(dp266
g82
g83
ssg71
g260
sg64
(lp267
S'session_id_admin'
p268
asbag57
(g78
g59
NtRp269
(dp270
g62
(dp271
g89
g90
ssg71
g260
sg64
(lp272
S':'
asbag57
(g78
g59
NtRp273
(dp274
g62
(dp275
sg71
g260
sg64
(lp276
g57
(g58
g59
NtRp277
(dp278
g62
(dp279
g70
I4
ssg71
g273
sg64
(lp280
S'127.0.0.1-3e0bb0ca-d9be-4f2b-ad88-a47cdb90cab1'
p281
ag57
(g66
g59
NtRp282
(dp283
g62
(dp284
g70
I3
ssg71
Nsg64
(lp285
g57
(g73
g59
NtRp286
(dp287
g62
(dp288
sg71
g282
sg64
(lp289
g57
(g78
g59
NtRp290
(dp291
g62
(dp292
g82
g83
ssg71
g286
sg64
(lp293
S'comment'
p294
asbag57
(g78
g59
NtRp295
(dp296
g62
(dp297
g89
g90
ssg71
g286
sg64
(lp298
S':'
asbag57
(g78
g59
NtRp299
(dp300
g62
(dp301
sg71
g286
sg64
(lp302
g57
(g58
g59
NtRp303
(dp304
g62
(dp305
g70
I3
ssg71
g299
sg64
(lp306
S''
asbasbasbag57
(g73
g59
NtRp307
(dp308
g62
(dp309
sg71
g282
sg64
(lp310
g57
(g78
g59
NtRp311
(dp312
g62
(dp313
g82
g83
ssg71
g307
sg64
(lp314
S'domain'
p315
asbag57
(g78
g59
NtRp316
(dp317
g62
(dp318
g89
g90
ssg71
g307
sg64
(lp319
S':'
asbag57
(g78
g59
NtRp320
(dp321
g62
(dp322
sg71
g307
sg64
(lp323
g57
(g58
g59
NtRp324
(dp325
g62
(dp326
g70
I3
ssg71
g320
sg64
(lp327
S''
asbasbasbag57
(g73
g59
NtRp328
(dp329
g62
(dp330
sg71
g282
sg64
(lp331
g57
(g78
g59
NtRp332
(dp333
g62
(dp334
g82
g83
ssg71
g328
sg64
(lp335
S'expires'
p336
asbag57
(g78
g59
NtRp337
(dp338
g62
(dp339
g89
g90
ssg71
g328
sg64
(lp340
S':'
asbag57
(g78
g59
NtRp341
(dp342
g62
(dp343
sg71
g328
sg64
(lp344
g57
(g58
g59
NtRp345
(dp346
g62
(dp347
g70
I3
ssg71
g341
sg64
(lp348
S''
asbasbasbag57
(g73
g59
NtRp349
(dp350
g62
(dp351
sg71
g282
sg64
(lp352
g57
(g78
g59
NtRp353
(dp354
g62
(dp355
g82
g83
ssg71
g349
sg64
(lp356
S'httponly'
p357
asbag57
(g78
g59
NtRp358
(dp359
g62
(dp360
g89
g90
ssg71
g349
sg64
(lp361
S':'
asbag57
(g78
g59
NtRp362
(dp363
g62
(dp364
sg71
g349
sg64
(lp365
g57
(g58
g59
NtRp366
(dp367
g62
(dp368
g70
I3
ssg71
g362
sg64
(lp369
S''
asbasbasbag57
(g73
g59
NtRp370
(dp371
g62
(dp372
sg71
g282
sg64
(lp373
g57
(g78
g59
NtRp374
(dp375
g62
(dp376
g82
g83
ssg71
g370
sg64
(lp377
S'max-age'
p378
asbag57
(g78
g59
NtRp379
(dp380
g62
(dp381
g89
g90
ssg71
g370
sg64
(lp382
S':'
asbag57
(g78
g59
NtRp383
(dp384
g62
(dp385
sg71
g370
sg64
(lp386
g57
(g58
g59
NtRp387
(dp388
g62
(dp389
g70
I3
ssg71
g383
sg64
(lp390
S''
asbasbasbag57
(g73
g59
NtRp391
(dp392
g62
(dp393
sg71
g282
sg64
(lp394
g57
(g78
g59
NtRp395
(dp396
g62
(dp397
g82
g83
ssg71
g391
sg64
(lp398
S'path'
p399
asbag57
(g78
g59
NtRp400
(dp401
g62
(dp402
g89
g90
ssg71
g391
sg64
(lp403
S':'
asbag57
(g78
g59
NtRp404
(dp405
g62
(dp406
sg71
g391
sg64
(lp407
g57
(g58
g59
NtRp408
(dp409
g62
(dp410
g70
I3
ssg71
g404
sg64
(lp411
S''
asbasbasbag57
(g73
g59
NtRp412
(dp413
g62
(dp414
sg71
g282
sg64
(lp415
g57
(g78
g59
NtRp416
(dp417
g62
(dp418
g82
g83
ssg71
g412
sg64
(lp419
S'secure'
p420
asbag57
(g78
g59
NtRp421
(dp422
g62
(dp423
g89
g90
ssg71
g412
sg64
(lp424
S':'
asbag57
(g78
g59
NtRp425
(dp426
g62
(dp427
sg71
g412
sg64
(lp428
g57
(g58
g59
NtRp429
(dp430
g62
(dp431
g70
I3
ssg71
g425
sg64
(lp432
S''
asbasbasbag57
(g73
g59
NtRp433
(dp434
g62
(dp435
sg71
g282
sg64
(lp436
g57
(g78
g59
NtRp437
(dp438
g62
(dp439
g82
g83
ssg71
g433
sg64
(lp440
S'version'
p441
asbag57
(g78
g59
NtRp442
(dp443
g62
(dp444
g89
g90
ssg71
g433
sg64
(lp445
S':'
asbag57
(g78
g59
NtRp446
(dp447
g62
(dp448
sg71
g433
sg64
(lp449
g57
(g58
g59
NtRp450
(dp451
g62
(dp452
g70
I3
ssg71
g446
sg64
(lp453
S''
asbasbasbasbasbasbasbag57
(g73
g59
NtRp454
(dp455
g62
(dp456
sg71
g256
sg64
(lp457
g57
(g78
g59
NtRp458
(dp459
g62
(dp460
g82
g83
ssg71
g454
sg64
(lp461
S'session_id_betsy'
p462
asbag57
(g78
g59
NtRp463
(dp464
g62
(dp465
g89
g90
ssg71
g454
sg64
(lp466
S':'
asbag57
(g78
g59
NtRp467
(dp468
g62
(dp469
sg71
g454
sg64
(lp470
g57
(g58
g59
NtRp471
(dp472
g62
(dp473
g70
I4
ssg71
g467
sg64
(lp474
S'127.0.0.1-70d52105-0f5d-4884-a4e3-dce6830f30e0'
p475
ag57
(g66
g59
NtRp476
(dp477
g62
(dp478
g70
I3
ssg71
Nsg64
(lp479
g57
(g73
g59
NtRp480
(dp481
g62
(dp482
sg71
g476
sg64
(lp483
g57
(g78
g59
NtRp484
(dp485
g62
(dp486
g82
g83
ssg71
g480
sg64
(lp487
g294
asbag57
(g78
g59
NtRp488
(dp489
g62
(dp490
g89
g90
ssg71
g480
sg64
(lp491
S':'
asbag57
(g78
g59
NtRp492
(dp493
g62
(dp494
sg71
g480
sg64
(lp495
g57
(g58
g59
NtRp496
(dp497
g62
(dp498
g70
I3
ssg71
g492
sg64
(lp499
S''
asbasbasbag57
(g73
g59
NtRp500
(dp501
g62
(dp502
sg71
g476
sg64
(lp503
g57
(g78
g59
NtRp504
(dp505
g62
(dp506
g82
g83
ssg71
g500
sg64
(lp507
g315
asbag57
(g78
g59
NtRp508
(dp509
g62
(dp510
g89
g90
ssg71
g500
sg64
(lp511
S':'
asbag57
(g78
g59
NtRp512
(dp513
g62
(dp514
sg71
g500
sg64
(lp515
g57
(g58
g59
NtRp516
(dp517
g62
(dp518
g70
I3
ssg71
g512
sg64
(lp519
S''
asbasbasbag57
(g73
g59
NtRp520
(dp521
g62
(dp522
sg71
g476
sg64
(lp523
g57
(g78
g59
NtRp524
(dp525
g62
(dp526
g82
g83
ssg71
g520
sg64
(lp527
g336
asbag57
(g78
g59
NtRp528
(dp529
g62
(dp530
g89
g90
ssg71
g520
sg64
(lp531
S':'
asbag57
(g78
g59
NtRp532
(dp533
g62
(dp534
sg71
g520
sg64
(lp535
g57
(g58
g59
NtRp536
(dp537
g62
(dp538
g70
I3
ssg71
g532
sg64
(lp539
S''
asbasbasbag57
(g73
g59
NtRp540
(dp541
g62
(dp542
sg71
g476
sg64
(lp543
g57
(g78
g59
NtRp544
(dp545
g62
(dp546
g82
g83
ssg71
g540
sg64
(lp547
g357
asbag57
(g78
g59
NtRp548
(dp549
g62
(dp550
g89
g90
ssg71
g540
sg64
(lp551
S':'
asbag57
(g78
g59
NtRp552
(dp553
g62
(dp554
sg71
g540
sg64
(lp555
g57
(g58
g59
NtRp556
(dp557
g62
(dp558
g70
I3
ssg71
g552
sg64
(lp559
S''
asbasbasbag57
(g73
g59
NtRp560
(dp561
g62
(dp562
sg71
g476
sg64
(lp563
g57
(g78
g59
NtRp564
(dp565
g62
(dp566
g82
g83
ssg71
g560
sg64
(lp567
g378
asbag57
(g78
g59
NtRp568
(dp569
g62
(dp570
g89
g90
ssg71
g560
sg64
(lp571
S':'
asbag57
(g78
g59
NtRp572
(dp573
g62
(dp574
sg71
g560
sg64
(lp575
g57
(g58
g59
NtRp576
(dp577
g62
(dp578
g70
I3
ssg71
g572
sg64
(lp579
S''
asbasbasbag57
(g73
g59
NtRp580
(dp581
g62
(dp582
sg71
g476
sg64
(lp583
g57
(g78
g59
NtRp584
(dp585
g62
(dp586
g82
g83
ssg71
g580
sg64
(lp587
g399
asbag57
(g78
g59
NtRp588
(dp589
g62
(dp590
g89
g90
ssg71
g580
sg64
(lp591
S':'
asbag57
(g78
g59
NtRp592
(dp593
g62
(dp594
sg71
g580
sg64
(lp595
g57
(g58
g59
NtRp596
(dp597
g62
(dp598
g70
I3
ssg71
g592
sg64
(lp599
S''
asbasbasbag57
(g73
g59
NtRp600
(dp601
g62
(dp602
sg71
g476
sg64
(lp603
g57
(g78
g59
NtRp604
(dp605
g62
(dp606
g82
g83
ssg71
g600
sg64
(lp607
g420
asbag57
(g78
g59
NtRp608
(dp609
g62
(dp610
g89
g90
ssg71
g600
sg64
(lp611
S':'
asbag57
(g78
g59
NtRp612
(dp613
g62
(dp614
sg71
g600
sg64
(lp615
g57
(g58
g59
NtRp616
(dp617
g62
(dp618
g70
I3
ssg71
g612
sg64
(lp619
S''
asbasbasbag57
(g73
g59
NtRp620
(dp621
g62
(dp622
sg71
g476
sg64
(lp623
g57
(g78
g59
NtRp624
(dp625
g62
(dp626
g82
g83
ssg71
g620
sg64
(lp627
g441
asbag57
(g78
g59
NtRp628
(dp629
g62
(dp630
g89
g90
ssg71
g620
sg64
(lp631
S':'
asbag57
(g78
g59
NtRp632
(dp633
g62
(dp634
sg71
g620
sg64
(lp635
g57
(g58
g59
NtRp636
(dp637
g62
(dp638
g70
I3
ssg71
g632
sg64
(lp639
S''
asbasbasbasbasbasbasbasbasbasbasbag57
(g73
g59
NtRp640
(dp641
g62
(dp642
sg71
g67
sg64
(lp643
g57
(g78
g59
NtRp644
(dp645
g62
(dp646
g82
g83
ssg71
g640
sg64
(lp647
S'env'
p648
asbag57
(g78
g59
NtRp649
(dp650
g62
(dp651
g89
g90
ssg71
g640
sg64
(lp652
S':'
asbag57
(g78
g59
NtRp653
(dp654
g62
(dp655
sg71
g640
sg64
(lp656
g57
(g58
g59
NtRp657
(dp658
g62
(dp659
g70
I5
ssg71
g653
sg64
(lp660
g57
(g66
g59
NtRp661
(dp662
g62
(dp663
g70
I4
ssg71
Nsg64
(lp664
g57
(g73
g59
NtRp665
(dp666
g62
(dp667
sg71
g661
sg64
(lp668
g57
(g78
g59
NtRp669
(dp670
g62
(dp671
g82
g83
ssg71
g665
sg64
(lp672
S'app_folders'
p673
asbag57
(g78
g59
NtRp674
(dp675
g62
(dp676
g89
g90
ssg71
g665
sg64
(lp677
S':'
asbag57
(g78
g59
NtRp678
(dp679
g62
(dp680
sg71
g665
sg64
(lp681
g57
(g58
g59
NtRp682
(dp683
g62
(dp684
g70
I4
ssg71
g678
sg64
(lp685
S"set(['/home/xchen/web2py/applications/Betsy/', '/home/xchen/web2py/applications/admin/'])"
p686
asbasbasbag57
(g73
g59
NtRp687
(dp688
g62
(dp689
sg71
g661
sg64
(lp690
g57
(g78
g59
NtRp691
(dp692
g62
(dp693
g82
g83
ssg71
g687
sg64
(lp694
S'applications_parent'
p695
asbag57
(g78
g59
NtRp696
(dp697
g62
(dp698
g89
g90
ssg71
g687
sg64
(lp699
S':'
asbag57
(g78
g59
NtRp700
(dp701
g62
(dp702
sg71
g687
sg64
(lp703
g57
(g58
g59
NtRp704
(dp705
g62
(dp706
g70
I4
ssg71
g700
sg64
(lp707
S'/home/xchen/web2py'
p708
asbasbasbag57
(g73
g59
NtRp709
(dp710
g62
(dp711
sg71
g661
sg64
(lp712
g57
(g78
g59
NtRp713
(dp714
g62
(dp715
g82
g83
ssg71
g709
sg64
(lp716
S'cmd_args'
p717
asbag57
(g78
g59
NtRp718
(dp719
g62
(dp720
g89
g90
ssg71
g709
sg64
(lp721
S':'
asbag57
(g78
g59
NtRp722
(dp723
g62
(dp724
sg71
g709
sg64
(lp725
g57
(g58
g59
NtRp726
(dp727
g62
(dp728
g70
I4
ssg71
g722
sg64
(lp729
g57
(g66
g59
NtRp730
(dp731
g62
(dp732
g70
I3
ssg71
Nsg64
(lp733
sbasbasbasbag57
(g73
g59
NtRp734
(dp735
g62
(dp736
sg71
g661
sg64
(lp737
g57
(g78
g59
NtRp738
(dp739
g62
(dp740
g82
g83
ssg71
g734
sg64
(lp741
S'cmd_options'
p742
asbag57
(g78
g59
NtRp743
(dp744
g62
(dp745
g89
g90
ssg71
g734
sg64
(lp746
S':'
asbag57
(g78
g59
NtRp747
(dp748
g62
(dp749
sg71
g734
sg64
(lp750
g57
(g58
g59
NtRp751
(dp752
g62
(dp753
g70
I4
ssg71
g747
sg64
(lp754
S"<Values at 0x663ee18: {'verbose': False, 'ip': '127.0.0.1', 'with_scheduler': False, 'ips': [], 'shutdown_timeout': 5, 'taskbar': False, 'port': 8000, 'maxthreads': None, 'softcron': False, 'server_name': 'unicron.shis.uth.tmc.edu', 'bpython': False, 'nogui': False, 'pid_filename': 'httpserver.pid', 'extcron': False, 'runcron': False, 'run_system_tests': False, 'test': None, 'folder': '/home/xchen/web2py', 'config': '', 'minthreads': None, 'winservice': '', 'shell': None, 'run': '', 'log_filename': 'httpserver.log', 'debuglevel': 30, 'args': [''], 'socket_timeout': 5, 'ssl_ca_certificate': None, 'scheduler': None, 'profiler_filename': None, 'ssl_private_key': '', 'scheduler_groups': None, 'password': 'baby2008', 'request_queue_size': 5, 'ssl_certificate': '', 'cronjob': False, 'numthreads': None, 'quiet': False, 'interfaces': None, 'import_models': False, 'timeout': 10, 'plain': False, 'nobanner': False}>"
p755
asbasbasbag57
(g73
g59
NtRp756
(dp757
g62
(dp758
sg71
g661
sg64
(lp759
g57
(g78
g59
NtRp760
(dp761
g62
(dp762
g82
g83
ssg71
g756
sg64
(lp763
S'content_length'
p764
asbag57
(g78
g59
NtRp765
(dp766
g62
(dp767
g89
g90
ssg71
g756
sg64
(lp768
S':'
asbag57
(g78
g59
NtRp769
(dp770
g62
(dp771
sg71
g756
sg64
(lp772
g57
(g58
g59
NtRp773
(dp774
g62
(dp775
g70
I4
ssg71
g769
sg64
(lp776
S'7663'
p777
asbasbasbag57
(g73
g59
NtRp778
(dp779
g62
(dp780
sg71
g661
sg64
(lp781
g57
(g78
g59
NtRp782
(dp783
g62
(dp784
g82
g83
ssg71
g778
sg64
(lp785
S'content_type'
p786
asbag57
(g78
g59
NtRp787
(dp788
g62
(dp789
g89
g90
ssg71
g778
sg64
(lp790
S':'
asbag57
(g78
g59
NtRp791
(dp792
g62
(dp793
sg71
g778
sg64
(lp794
g57
(g58
g59
NtRp795
(dp796
g62
(dp797
g70
I4
ssg71
g791
sg64
(lp798
S'multipart/form-data; boundary=---------------------------49804297118644412381729993689'
p799
asbasbasbag57
(g73
g59
NtRp800
(dp801
g62
(dp802
sg71
g661
sg64
(lp803
g57
(g78
g59
NtRp804
(dp805
g62
(dp806
g82
g83
ssg71
g800
sg64
(lp807
S'db_sessions'
p808
asbag57
(g78
g59
NtRp809
(dp810
g62
(dp811
g89
g90
ssg71
g800
sg64
(lp812
S':'
asbag57
(g78
g59
NtRp813
(dp814
g62
(dp815
sg71
g800
sg64
(lp816
g57
(g58
g59
NtRp817
(dp818
g62
(dp819
g70
I4
ssg71
g813
sg64
(lp820
S'set([])'
p821
asbasbasbag57
(g73
g59
NtRp822
(dp823
g62
(dp824
sg71
g661
sg64
(lp825
g57
(g78
g59
NtRp826
(dp827
g62
(dp828
g82
g83
ssg71
g822
sg64
(lp829
S'debugging'
p830
asbag57
(g78
g59
NtRp831
(dp832
g62
(dp833
g89
g90
ssg71
g822
sg64
(lp834
S':'
asbag57
(g78
g59
NtRp835
(dp836
g62
(dp837
sg71
g822
sg64
(lp838
g57
(g58
g59
NtRp839
(dp840
g62
(dp841
g70
I4
ssg71
g835
sg64
(lp842
g100
asbasbasbag57
(g73
g59
NtRp843
(dp844
g62
(dp845
sg71
g661
sg64
(lp846
g57
(g78
g59
NtRp847
(dp848
g62
(dp849
g82
g83
ssg71
g843
sg64
(lp850
S'gluon_parent'
p851
asbag57
(g78
g59
NtRp852
(dp853
g62
(dp854
g89
g90
ssg71
g843
sg64
(lp855
S':'
asbag57
(g78
g59
NtRp856
(dp857
g62
(dp858
sg71
g843
sg64
(lp859
g57
(g58
g59
NtRp860
(dp861
g62
(dp862
g70
I4
ssg71
g856
sg64
(lp863
S'/home/xchen/web2py'
p864
asbasbasbag57
(g73
g59
NtRp865
(dp866
g62
(dp867
sg71
g661
sg64
(lp868
g57
(g78
g59
NtRp869
(dp870
g62
(dp871
g82
g83
ssg71
g865
sg64
(lp872
S'http_accept'
p873
asbag57
(g78
g59
NtRp874
(dp875
g62
(dp876
g89
g90
ssg71
g865
sg64
(lp877
S':'
asbag57
(g78
g59
NtRp878
(dp879
g62
(dp880
sg71
g865
sg64
(lp881
g57
(g58
g59
NtRp882
(dp883
g62
(dp884
g70
I4
ssg71
g878
sg64
(lp885
S'text/html,application/xhtml+xml,application/xml;q=0.9,*/*;q=0.8'
p886
asbasbasbag57
(g73
g59
NtRp887
(dp888
g62
(dp889
sg71
g661
sg64
(lp890
g57
(g78
g59
NtRp891
(dp892
g62
(dp893
g82
g83
ssg71
g887
sg64
(lp894
S'http_accept_encoding'
p895
asbag57
(g78
g59
NtRp896
(dp897
g62
(dp898
g89
g90
ssg71
g887
sg64
(lp899
S':'
asbag57
(g78
g59
NtRp900
(dp901
g62
(dp902
sg71
g887
sg64
(lp903
g57
(g58
g59
NtRp904
(dp905
g62
(dp906
g70
I4
ssg71
g900
sg64
(lp907
S'gzip, deflate'
p908
asbasbasbag57
(g73
g59
NtRp909
(dp910
g62
(dp911
sg71
g661
sg64
(lp912
g57
(g78
g59
NtRp913
(dp914
g62
(dp915
g82
g83
ssg71
g909
sg64
(lp916
S'http_accept_language'
p917
asbag57
(g78
g59
NtRp918
(dp919
g62
(dp920
g89
g90
ssg71
g909
sg64
(lp921
S':'
asbag57
(g78
g59
NtRp922
(dp923
g62
(dp924
sg71
g909
sg64
(lp925
g57
(g58
g59
NtRp926
(dp927
g62
(dp928
g70
I4
ssg71
g922
sg64
(lp929
S'en-US,en;q=0.5'
p930
asbasbasbag57
(g73
g59
NtRp931
(dp932
g62
(dp933
sg71
g661
sg64
(lp934
g57
(g78
g59
NtRp935
(dp936
g62
(dp937
g82
g83
ssg71
g931
sg64
(lp938
S'http_cache_control'
p939
asbag57
(g78
g59
NtRp940
(dp941
g62
(dp942
g89
g90
ssg71
g931
sg64
(lp943
S':'
asbag57
(g78
g59
NtRp944
(dp945
g62
(dp946
sg71
g931
sg64
(lp947
g57
(g58
g59
NtRp948
(dp949
g62
(dp950
g70
I4
ssg71
g944
sg64
(lp951
S'max-age=0'
p952
asbasbasbag57
(g73
g59
NtRp953
(dp954
g62
(dp955
sg71
g661
sg64
(lp956
g57
(g78
g59
NtRp957
(dp958
g62
(dp959
g82
g83
ssg71
g953
sg64
(lp960
S'http_connection'
p961
asbag57
(g78
g59
NtRp962
(dp963
g62
(dp964
g89
g90
ssg71
g953
sg64
(lp965
S':'
asbag57
(g78
g59
NtRp966
(dp967
g62
(dp968
sg71
g953
sg64
(lp969
g57
(g58
g59
NtRp970
(dp971
g62
(dp972
g70
I4
ssg71
g966
sg64
(lp973
S'keep-alive'
p974
asbasbasbag57
(g73
g59
NtRp975
(dp976
g62
(dp977
sg71
g661
sg64
(lp978
g57
(g78
g59
NtRp979
(dp980
g62
(dp981
g82
g83
ssg71
g975
sg64
(lp982
S'http_content_length'
p983
asbag57
(g78
g59
NtRp984
(dp985
g62
(dp986
g89
g90
ssg71
g975
sg64
(lp987
S':'
asbag57
(g78
g59
NtRp988
(dp989
g62
(dp990
sg71
g975
sg64
(lp991
g57
(g58
g59
NtRp992
(dp993
g62
(dp994
g70
I4
ssg71
g988
sg64
(lp995
g777
asbasbasbag57
(g73
g59
NtRp996
(dp997
g62
(dp998
sg71
g661
sg64
(lp999
g57
(g78
g59
NtRp1000
(dp1001
g62
(dp1002
g82
g83
ssg71
g996
sg64
(lp1003
S'http_content_type'
p1004
asbag57
(g78
g59
NtRp1005
(dp1006
g62
(dp1007
g89
g90
ssg71
g996
sg64
(lp1008
S':'
asbag57
(g78
g59
NtRp1009
(dp1010
g62
(dp1011
sg71
g996
sg64
(lp1012
g57
(g58
g59
NtRp1013
(dp1014
g62
(dp1015
g70
I4
ssg71
g1009
sg64
(lp1016
g799
asbasbasbag57
(g73
g59
NtRp1017
(dp1018
g62
(dp1019
sg71
g661
sg64
(lp1020
g57
(g78
g59
NtRp1021
(dp1022
g62
(dp1023
g82
g83
ssg71
g1017
sg64
(lp1024
S'http_cookie'
p1025
asbag57
(g78
g59
NtRp1026
(dp1027
g62
(dp1028
g89
g90
ssg71
g1017
sg64
(lp1029
S':'
asbag57
(g78
g59
NtRp1030
(dp1031
g62
(dp1032
sg71
g1017
sg64
(lp1033
g57
(g58
g59
NtRp1034
(dp1035
g62
(dp1036
g70
I4
ssg71
g1030
sg64
(lp1037
S'session_id_betsy=127.0.0.1-70d52105-0f5d-4884-a4e3-dce6830f30e0; session_id_admin=127.0.0.1-3e0bb0ca-d9be-4f2b-ad88-a47cdb90cab1'
p1038
asbasbasbag57
(g73
g59
NtRp1039
(dp1040
g62
(dp1041
sg71
g661
sg64
(lp1042
g57
(g78
g59
NtRp1043
(dp1044
g62
(dp1045
g82
g83
ssg71
g1039
sg64
(lp1046
S'http_host'
p1047
asbag57
(g78
g59
NtRp1048
(dp1049
g62
(dp1050
g89
g90
ssg71
g1039
sg64
(lp1051
S':'
asbag57
(g78
g59
NtRp1052
(dp1053
g62
(dp1054
sg71
g1039
sg64
(lp1055
g57
(g58
g59
NtRp1056
(dp1057
g62
(dp1058
g70
I4
ssg71
g1052
sg64
(lp1059
S'localhost:8000'
p1060
asbasbasbag57
(g73
g59
NtRp1061
(dp1062
g62
(dp1063
sg71
g661
sg64
(lp1064
g57
(g78
g59
NtRp1065
(dp1066
g62
(dp1067
g82
g83
ssg71
g1061
sg64
(lp1068
S'http_referer'
p1069
asbag57
(g78
g59
NtRp1070
(dp1071
g62
(dp1072
g89
g90
ssg71
g1061
sg64
(lp1073
S':'
asbag57
(g78
g59
NtRp1074
(dp1075
g62
(dp1076
sg71
g1061
sg64
(lp1077
g57
(g58
g59
NtRp1078
(dp1079
g62
(dp1080
g70
I4
ssg71
g1074
sg64
(lp1081
S'http://localhost:8000/Betsy/default/normalize_file'
p1082
asbasbasbag57
(g73
g59
NtRp1083
(dp1084
g62
(dp1085
sg71
g661
sg64
(lp1086
g57
(g78
g59
NtRp1087
(dp1088
g62
(dp1089
g82
g83
ssg71
g1083
sg64
(lp1090
S'http_user_agent'
p1091
asbag57
(g78
g59
NtRp1092
(dp1093
g62
(dp1094
g89
g90
ssg71
g1083
sg64
(lp1095
S':'
asbag57
(g78
g59
NtRp1096
(dp1097
g62
(dp1098
sg71
g1083
sg64
(lp1099
g57
(g58
g59
NtRp1100
(dp1101
g62
(dp1102
g70
I4
ssg71
g1096
sg64
(lp1103
S'Mozilla/5.0 (Macintosh; Intel Mac OS X 10.6; rv:18.0) Gecko/20100101 Firefox/18.0'
p1104
asbasbasbag57
(g73
g59
NtRp1105
(dp1106
g62
(dp1107
sg71
g661
sg64
(lp1108
g57
(g78
g59
NtRp1109
(dp1110
g62
(dp1111
g82
g83
ssg71
g1105
sg64
(lp1112
S'is_jython'
p1113
asbag57
(g78
g59
NtRp1114
(dp1115
g62
(dp1116
g89
g90
ssg71
g1105
sg64
(lp1117
S':'
asbag57
(g78
g59
NtRp1118
(dp1119
g62
(dp1120
sg71
g1105
sg64
(lp1121
g57
(g58
g59
NtRp1122
(dp1123
g62
(dp1124
g70
I4
ssg71
g1118
sg64
(lp1125
g100
asbasbasbag57
(g73
g59
NtRp1126
(dp1127
g62
(dp1128
sg71
g661
sg64
(lp1129
g57
(g78
g59
NtRp1130
(dp1131
g62
(dp1132
g82
g83
ssg71
g1126
sg64
(lp1133
S'is_pypy'
p1134
asbag57
(g78
g59
NtRp1135
(dp1136
g62
(dp1137
g89
g90
ssg71
g1126
sg64
(lp1138
S':'
asbag57
(g78
g59
NtRp1139
(dp1140
g62
(dp1141
sg71
g1126
sg64
(lp1142
g57
(g58
g59
NtRp1143
(dp1144
g62
(dp1145
g70
I4
ssg71
g1139
sg64
(lp1146
g100
asbasbasbag57
(g73
g59
NtRp1147
(dp1148
g62
(dp1149
sg71
g661
sg64
(lp1150
g57
(g78
g59
NtRp1151
(dp1152
g62
(dp1153
g82
g83
ssg71
g1147
sg64
(lp1154
S'local_hosts'
p1155
asbag57
(g78
g59
NtRp1156
(dp1157
g62
(dp1158
g89
g90
ssg71
g1147
sg64
(lp1159
S':'
asbag57
(g78
g59
NtRp1160
(dp1161
g62
(dp1162
sg71
g1147
sg64
(lp1163
g57
(g58
g59
NtRp1164
(dp1165
g62
(dp1166
g70
I4
ssg71
g1160
sg64
(lp1167
g57
(g66
g59
NtRp1168
(dp1169
g62
(dp1170
g70
I3
ssg71
Nsg64
(lp1171
g57
(g73
g59
NtRp1172
(dp1173
g62
(dp1174
sg71
g1168
sg64
(lp1175
g57
(g78
g59
NtRp1176
(dp1177
g62
(dp1178
sg71
g1172
sg64
(lp1179
g57
(g58
g59
NtRp1180
(dp1181
g62
(dp1182
g70
I3
ssg71
g1176
sg64
(lp1183
S'127.0.0.1'
p1184
asbasbasbag57
(g73
g59
NtRp1185
(dp1186
g62
(dp1187
sg71
g1168
sg64
(lp1188
g57
(g78
g59
NtRp1189
(dp1190
g62
(dp1191
sg71
g1185
sg64
(lp1192
g57
(g58
g59
NtRp1193
(dp1194
g62
(dp1195
g70
I3
ssg71
g1189
sg64
(lp1196
S'::ffff:127.0.0.1'
p1197
asbasbasbag57
(g73
g59
NtRp1198
(dp1199
g62
(dp1200
sg71
g1168
sg64
(lp1201
g57
(g78
g59
NtRp1202
(dp1203
g62
(dp1204
sg71
g1198
sg64
(lp1205
g57
(g58
g59
NtRp1206
(dp1207
g62
(dp1208
g70
I3
ssg71
g1202
sg64
(lp1209
S'unicron.shis.uth.tmc.edu'
p1210
asbasbasbag57
(g73
g59
NtRp1211
(dp1212
g62
(dp1213
sg71
g1168
sg64
(lp1214
g57
(g78
g59
NtRp1215
(dp1216
g62
(dp1217
sg71
g1211
sg64
(lp1218
g57
(g58
g59
NtRp1219
(dp1220
g62
(dp1221
g70
I3
ssg71
g1215
sg64
(lp1222
S'unicron.shis.uth.tmc.edu'
p1223
asbasbasbag57
(g73
g59
NtRp1224
(dp1225
g62
(dp1226
sg71
g1168
sg64
(lp1227
g57
(g78
g59
NtRp1228
(dp1229
g62
(dp1230
sg71
g1224
sg64
(lp1231
g57
(g58
g59
NtRp1232
(dp1233
g62
(dp1234
g70
I3
ssg71
g1228
sg64
(lp1235
S'127.0.0.1'
p1236
asbasbasbasbasbasbasbag57
(g73
g59
NtRp1237
(dp1238
g62
(dp1239
sg71
g661
sg64
(lp1240
g57
(g78
g59
NtRp1241
(dp1242
g62
(dp1243
g82
g83
ssg71
g1237
sg64
(lp1244
S'path_info'
p1245
asbag57
(g78
g59
NtRp1246
(dp1247
g62
(dp1248
g89
g90
ssg71
g1237
sg64
(lp1249
S':'
asbag57
(g78
g59
NtRp1250
(dp1251
g62
(dp1252
sg71
g1237
sg64
(lp1253
g57
(g58
g59
NtRp1254
(dp1255
g62
(dp1256
g70
I4
ssg71
g1250
sg64
(lp1257
S'/Betsy/default/normalize_file'
p1258
asbasbasbag57
(g73
g59
NtRp1259
(dp1260
g62
(dp1261
sg71
g661
sg64
(lp1262
g57
(g78
g59
NtRp1263
(dp1264
g62
(dp1265
g82
g83
ssg71
g1259
sg64
(lp1266
S'query_string'
p1267
asbag57
(g78
g59
NtRp1268
(dp1269
g62
(dp1270
g89
g90
ssg71
g1259
sg64
(lp1271
S':'
asbag57
(g78
g59
NtRp1272
(dp1273
g62
(dp1274
sg71
g1259
sg64
(lp1275
g57
(g58
g59
NtRp1276
(dp1277
g62
(dp1278
g70
I4
ssg71
g1272
sg64
(lp1279
S''
asbasbasbag57
(g73
g59
NtRp1280
(dp1281
g62
(dp1282
sg71
g661
sg64
(lp1283
g57
(g78
g59
NtRp1284
(dp1285
g62
(dp1286
g82
g83
ssg71
g1280
sg64
(lp1287
S'remote_addr'
p1288
asbag57
(g78
g59
NtRp1289
(dp1290
g62
(dp1291
g89
g90
ssg71
g1280
sg64
(lp1292
S':'
asbag57
(g78
g59
NtRp1293
(dp1294
g62
(dp1295
sg71
g1280
sg64
(lp1296
g57
(g58
g59
NtRp1297
(dp1298
g62
(dp1299
g70
I4
ssg71
g1293
sg64
(lp1300
g212
asbasbasbag57
(g73
g59
NtRp1301
(dp1302
g62
(dp1303
sg71
g661
sg64
(lp1304
g57
(g78
g59
NtRp1305
(dp1306
g62
(dp1307
g82
g83
ssg71
g1301
sg64
(lp1308
S'remote_port'
p1309
asbag57
(g78
g59
NtRp1310
(dp1311
g62
(dp1312
g89
g90
ssg71
g1301
sg64
(lp1313
S':'
asbag57
(g78
g59
NtRp1314
(dp1315
g62
(dp1316
sg71
g1301
sg64
(lp1317
g57
(g58
g59
NtRp1318
(dp1319
g62
(dp1320
g70
I4
ssg71
g1314
sg64
(lp1321
S'41708'
p1322
asbasbasbag57
(g73
g59
NtRp1323
(dp1324
g62
(dp1325
sg71
g661
sg64
(lp1326
g57
(g78
g59
NtRp1327
(dp1328
g62
(dp1329
g82
g83
ssg71
g1323
sg64
(lp1330
S'request_method'
p1331
asbag57
(g78
g59
NtRp1332
(dp1333
g62
(dp1334
g89
g90
ssg71
g1323
sg64
(lp1335
S':'
asbag57
(g78
g59
NtRp1336
(dp1337
g62
(dp1338
sg71
g1323
sg64
(lp1339
g57
(g58
g59
NtRp1340
(dp1341
g62
(dp1342
g70
I4
ssg71
g1336
sg64
(lp1343
S'POST'
p1344
asbasbasbag57
(g73
g59
NtRp1345
(dp1346
g62
(dp1347
sg71
g661
sg64
(lp1348
g57
(g78
g59
NtRp1349
(dp1350
g62
(dp1351
g82
g83
ssg71
g1345
sg64
(lp1352
S'request_uri'
p1353
asbag57
(g78
g59
NtRp1354
(dp1355
g62
(dp1356
g89
g90
ssg71
g1345
sg64
(lp1357
S':'
asbag57
(g78
g59
NtRp1358
(dp1359
g62
(dp1360
sg71
g1345
sg64
(lp1361
g57
(g58
g59
NtRp1362
(dp1363
g62
(dp1364
g70
I4
ssg71
g1358
sg64
(lp1365
g1258
asbasbasbag57
(g73
g59
NtRp1366
(dp1367
g62
(dp1368
sg71
g661
sg64
(lp1369
g57
(g78
g59
NtRp1370
(dp1371
g62
(dp1372
g82
g83
ssg71
g1366
sg64
(lp1373
S'script_name'
p1374
asbag57
(g78
g59
NtRp1375
(dp1376
g62
(dp1377
g89
g90
ssg71
g1366
sg64
(lp1378
S':'
asbag57
(g78
g59
NtRp1379
(dp1380
g62
(dp1381
sg71
g1366
sg64
(lp1382
g57
(g58
g59
NtRp1383
(dp1384
g62
(dp1385
g70
I4
ssg71
g1379
sg64
(lp1386
S''
asbasbasbag57
(g73
g59
NtRp1387
(dp1388
g62
(dp1389
sg71
g661
sg64
(lp1390
g57
(g78
g59
NtRp1391
(dp1392
g62
(dp1393
g82
g83
ssg71
g1387
sg64
(lp1394
S'server_name'
p1395
asbag57
(g78
g59
NtRp1396
(dp1397
g62
(dp1398
g89
g90
ssg71
g1387
sg64
(lp1399
S':'
asbag57
(g78
g59
NtRp1400
(dp1401
g62
(dp1402
sg71
g1387
sg64
(lp1403
g57
(g58
g59
NtRp1404
(dp1405
g62
(dp1406
g70
I4
ssg71
g1400
sg64
(lp1407
g1223
asbasbasbag57
(g73
g59
NtRp1408
(dp1409
g62
(dp1410
sg71
g661
sg64
(lp1411
g57
(g78
g59
NtRp1412
(dp1413
g62
(dp1414
g82
g83
ssg71
g1408
sg64
(lp1415
S'server_port'
p1416
asbag57
(g78
g59
NtRp1417
(dp1418
g62
(dp1419
g89
g90
ssg71
g1408
sg64
(lp1420
S':'
asbag57
(g78
g59
NtRp1421
(dp1422
g62
(dp1423
sg71
g1408
sg64
(lp1424
g57
(g58
g59
NtRp1425
(dp1426
g62
(dp1427
g70
I4
ssg71
g1421
sg64
(lp1428
S'8000'
p1429
asbasbasbag57
(g73
g59
NtRp1430
(dp1431
g62
(dp1432
sg71
g661
sg64
(lp1433
g57
(g78
g59
NtRp1434
(dp1435
g62
(dp1436
g82
g83
ssg71
g1430
sg64
(lp1437
S'server_protocol'
p1438
asbag57
(g78
g59
NtRp1439
(dp1440
g62
(dp1441
g89
g90
ssg71
g1430
sg64
(lp1442
S':'
asbag57
(g78
g59
NtRp1443
(dp1444
g62
(dp1445
sg71
g1430
sg64
(lp1446
g57
(g58
g59
NtRp1447
(dp1448
g62
(dp1449
g70
I4
ssg71
g1443
sg64
(lp1450
S'HTTP/1.1'
p1451
asbasbasbag57
(g73
g59
NtRp1452
(dp1453
g62
(dp1454
sg71
g661
sg64
(lp1455
g57
(g78
g59
NtRp1456
(dp1457
g62
(dp1458
g82
g83
ssg71
g1452
sg64
(lp1459
S'server_software'
p1460
asbag57
(g78
g59
NtRp1461
(dp1462
g62
(dp1463
g89
g90
ssg71
g1452
sg64
(lp1464
S':'
asbag57
(g78
g59
NtRp1465
(dp1466
g62
(dp1467
sg71
g1452
sg64
(lp1468
g57
(g58
g59
NtRp1469
(dp1470
g62
(dp1471
g70
I4
ssg71
g1465
sg64
(lp1472
S'Rocket 1.2.5'
p1473
asbasbasbag57
(g73
g59
NtRp1474
(dp1475
g62
(dp1476
sg71
g661
sg64
(lp1477
g57
(g78
g59
NtRp1478
(dp1479
g62
(dp1480
g82
g83
ssg71
g1474
sg64
(lp1481
S'web2py_path'
p1482
asbag57
(g78
g59
NtRp1483
(dp1484
g62
(dp1485
g89
g90
ssg71
g1474
sg64
(lp1486
S':'
asbag57
(g78
g59
NtRp1487
(dp1488
g62
(dp1489
sg71
g1474
sg64
(lp1490
g57
(g58
g59
NtRp1491
(dp1492
g62
(dp1493
g70
I4
ssg71
g1487
sg64
(lp1494
g708
asbasbasbag57
(g73
g59
NtRp1495
(dp1496
g62
(dp1497
sg71
g661
sg64
(lp1498
g57
(g78
g59
NtRp1499
(dp1500
g62
(dp1501
g82
g83
ssg71
g1495
sg64
(lp1502
S'web2py_version'
p1503
asbag57
(g78
g59
NtRp1504
(dp1505
g62
(dp1506
g89
g90
ssg71
g1495
sg64
(lp1507
S':'
asbag57
(g78
g59
NtRp1508
(dp1509
g62
(dp1510
sg71
g1495
sg64
(lp1511
g57
(g58
g59
NtRp1512
(dp1513
g62
(dp1514
g70
I4
ssg71
g1508
sg64
(lp1515
g57
(g66
g59
NtRp1516
(dp1517
g62
(dp1518
g70
I3
ssg71
Nsg64
(lp1519
g57
(g73
g59
NtRp1520
(dp1521
g62
(dp1522
sg71
g1516
sg64
(lp1523
g57
(g78
g59
NtRp1524
(dp1525
g62
(dp1526
sg71
g1520
sg64
(lp1527
g57
(g58
g59
NtRp1528
(dp1529
g62
(dp1530
g70
I3
ssg71
g1524
sg64
(lp1531
S'2'
asbasbasbag57
(g73
g59
NtRp1532
(dp1533
g62
(dp1534
sg71
g1516
sg64
(lp1535
g57
(g78
g59
NtRp1536
(dp1537
g62
(dp1538
sg71
g1532
sg64
(lp1539
g57
(g58
g59
NtRp1540
(dp1541
g62
(dp1542
g70
I3
ssg71
g1536
sg64
(lp1543
S'2'
asbasbasbag57
(g73
g59
NtRp1544
(dp1545
g62
(dp1546
sg71
g1516
sg64
(lp1547
g57
(g78
g59
NtRp1548
(dp1549
g62
(dp1550
sg71
g1544
sg64
(lp1551
g57
(g58
g59
NtRp1552
(dp1553
g62
(dp1554
g70
I3
ssg71
g1548
sg64
(lp1555
S'1'
asbasbasbag57
(g73
g59
NtRp1556
(dp1557
g62
(dp1558
sg71
g1516
sg64
(lp1559
g57
(g78
g59
NtRp1560
(dp1561
g62
(dp1562
sg71
g1556
sg64
(lp1563
g57
(g58
g59
NtRp1564
(dp1565
g62
(dp1566
g70
I3
ssg71
g1560
sg64
(lp1567
S'datetime.datetime(2012, 10, 21, 16, 57, 4)'
p1568
asbasbasbag57
(g73
g59
NtRp1569
(dp1570
g62
(dp1571
sg71
g1516
sg64
(lp1572
g57
(g78
g59
NtRp1573
(dp1574
g62
(dp1575
sg71
g1569
sg64
(lp1576
g57
(g58
g59
NtRp1577
(dp1578
g62
(dp1579
g70
I3
ssg71
g1573
sg64
(lp1580
S'stable'
p1581
asbasbasbasbasbasbasbag57
(g73
g59
NtRp1582
(dp1583
g62
(dp1584
sg71
g661
sg64
(lp1585
g57
(g78
g59
NtRp1586
(dp1587
g62
(dp1588
g82
g83
ssg71
g1582
sg64
(lp1589
S'wsgi_errors'
p1590
asbag57
(g78
g59
NtRp1591
(dp1592
g62
(dp1593
g89
g90
ssg71
g1582
sg64
(lp1594
S':'
asbag57
(g78
g59
NtRp1595
(dp1596
g62
(dp1597
sg71
g1582
sg64
(lp1598
g57
(g58
g59
NtRp1599
(dp1600
g62
(dp1601
g70
I4
ssg71
g1595
sg64
(lp1602
S"<open file '<stderr>', mode 'w' at 0x2b784d911270>"
p1603
asbasbasbag57
(g73
g59
NtRp1604
(dp1605
g62
(dp1606
sg71
g661
sg64
(lp1607
g57
(g78
g59
NtRp1608
(dp1609
g62
(dp1610
g82
g83
ssg71
g1604
sg64
(lp1611
S'wsgi_file_wrapper'
p1612
asbag57
(g78
g59
NtRp1613
(dp1614
g62
(dp1615
g89
g90
ssg71
g1604
sg64
(lp1616
S':'
asbag57
(g78
g59
NtRp1617
(dp1618
g62
(dp1619
sg71
g1604
sg64
(lp1620
g57
(g58
g59
NtRp1621
(dp1622
g62
(dp1623
g70
I4
ssg71
g1617
sg64
(lp1624
S'<class wsgiref.util.FileWrapper at 0x659ca78>'
p1625
asbasbasbag57
(g73
g59
NtRp1626
(dp1627
g62
(dp1628
sg71
g661
sg64
(lp1629
g57
(g78
g59
NtRp1630
(dp1631
g62
(dp1632
g82
g83
ssg71
g1626
sg64
(lp1633
S'wsgi_input'
p1634
asbag57
(g78
g59
NtRp1635
(dp1636
g62
(dp1637
g89
g90
ssg71
g1626
sg64
(lp1638
S':'
asbag57
(g78
g59
NtRp1639
(dp1640
g62
(dp1641
sg71
g1626
sg64
(lp1642
g57
(g58
g59
NtRp1643
(dp1644
g62
(dp1645
g70
I4
ssg71
g1639
sg64
(lp1646
S'<socket._fileobject object at 0x6b48e50>'
p1647
asbasbasbag57
(g73
g59
NtRp1648
(dp1649
g62
(dp1650
sg71
g661
sg64
(lp1651
g57
(g78
g59
NtRp1652
(dp1653
g62
(dp1654
g82
g83
ssg71
g1648
sg64
(lp1655
S'wsgi_multiprocess'
p1656
asbag57
(g78
g59
NtRp1657
(dp1658
g62
(dp1659
g89
g90
ssg71
g1648
sg64
(lp1660
S':'
asbag57
(g78
g59
NtRp1661
(dp1662
g62
(dp1663
sg71
g1648
sg64
(lp1664
g57
(g58
g59
NtRp1665
(dp1666
g62
(dp1667
g70
I4
ssg71
g1661
sg64
(lp1668
g100
asbasbasbag57
(g73
g59
NtRp1669
(dp1670
g62
(dp1671
sg71
g661
sg64
(lp1672
g57
(g78
g59
NtRp1673
(dp1674
g62
(dp1675
g82
g83
ssg71
g1669
sg64
(lp1676
S'wsgi_multithread'
p1677
asbag57
(g78
g59
NtRp1678
(dp1679
g62
(dp1680
g89
g90
ssg71
g1669
sg64
(lp1681
S':'
asbag57
(g78
g59
NtRp1682
(dp1683
g62
(dp1684
sg71
g1669
sg64
(lp1685
g57
(g58
g59
NtRp1686
(dp1687
g62
(dp1688
g70
I4
ssg71
g1682
sg64
(lp1689
S'True'
p1690
asbasbasbag57
(g73
g59
NtRp1691
(dp1692
g62
(dp1693
sg71
g661
sg64
(lp1694
g57
(g78
g59
NtRp1695
(dp1696
g62
(dp1697
g82
g83
ssg71
g1691
sg64
(lp1698
S'wsgi_run_once'
p1699
asbag57
(g78
g59
NtRp1700
(dp1701
g62
(dp1702
g89
g90
ssg71
g1691
sg64
(lp1703
S':'
asbag57
(g78
g59
NtRp1704
(dp1705
g62
(dp1706
sg71
g1691
sg64
(lp1707
g57
(g58
g59
NtRp1708
(dp1709
g62
(dp1710
g70
I4
ssg71
g1704
sg64
(lp1711
g100
asbasbasbag57
(g73
g59
NtRp1712
(dp1713
g62
(dp1714
sg71
g661
sg64
(lp1715
g57
(g78
g59
NtRp1716
(dp1717
g62
(dp1718
g82
g83
ssg71
g1712
sg64
(lp1719
S'wsgi_url_scheme'
p1720
asbag57
(g78
g59
NtRp1721
(dp1722
g62
(dp1723
g89
g90
ssg71
g1712
sg64
(lp1724
S':'
asbag57
(g78
g59
NtRp1725
(dp1726
g62
(dp1727
sg71
g1712
sg64
(lp1728
g57
(g58
g59
NtRp1729
(dp1730
g62
(dp1731
g70
I4
ssg71
g1725
sg64
(lp1732
S'http'
p1733
asbasbasbag57
(g73
g59
NtRp1734
(dp1735
g62
(dp1736
sg71
g661
sg64
(lp1737
g57
(g78
g59
NtRp1738
(dp1739
g62
(dp1740
g82
g83
ssg71
g1734
sg64
(lp1741
S'wsgi_version'
p1742
asbag57
(g78
g59
NtRp1743
(dp1744
g62
(dp1745
g89
g90
ssg71
g1734
sg64
(lp1746
S':'
asbag57
(g78
g59
NtRp1747
(dp1748
g62
(dp1749
sg71
g1734
sg64
(lp1750
g57
(g58
g59
NtRp1751
(dp1752
g62
(dp1753
g70
I4
ssg71
g1747
sg64
(lp1754
g57
(g66
g59
NtRp1755
(dp1756
g62
(dp1757
g70
I3
ssg71
Nsg64
(lp1758
g57
(g73
g59
NtRp1759
(dp1760
g62
(dp1761
sg71
g1755
sg64
(lp1762
g57
(g78
g59
NtRp1763
(dp1764
g62
(dp1765
sg71
g1759
sg64
(lp1766
g57
(g58
g59
NtRp1767
(dp1768
g62
(dp1769
g70
I3
ssg71
g1763
sg64
(lp1770
S'1'
asbasbasbag57
(g73
g59
NtRp1771
(dp1772
g62
(dp1773
sg71
g1755
sg64
(lp1774
g57
(g78
g59
NtRp1775
(dp1776
g62
(dp1777
sg71
g1771
sg64
(lp1778
g57
(g58
g59
NtRp1779
(dp1780
g62
(dp1781
g70
I3
ssg71
g1775
sg64
(lp1782
S'0'
asbasbasbasbasbasbasbasbasbasbasbag57
(g73
g59
NtRp1783
(dp1784
g62
(dp1785
sg71
g67
sg64
(lp1786
g57
(g78
g59
NtRp1787
(dp1788
g62
(dp1789
g82
g83
ssg71
g1783
sg64
(lp1790
S'extension'
p1791
asbag57
(g78
g59
NtRp1792
(dp1793
g62
(dp1794
g89
g90
ssg71
g1783
sg64
(lp1795
S':'
asbag57
(g78
g59
NtRp1796
(dp1797
g62
(dp1798
sg71
g1783
sg64
(lp1799
g57
(g58
g59
NtRp1800
(dp1801
g62
(dp1802
g70
I5
ssg71
g1796
sg64
(lp1803
S'html'
p1804
asbasbasbag57
(g73
g59
NtRp1805
(dp1806
g62
(dp1807
sg71
g67
sg64
(lp1808
g57
(g78
g59
NtRp1809
(dp1810
g62
(dp1811
g82
g83
ssg71
g1805
sg64
(lp1812
S'folder'
p1813
asbag57
(g78
g59
NtRp1814
(dp1815
g62
(dp1816
g89
g90
ssg71
g1805
sg64
(lp1817
S':'
asbag57
(g78
g59
NtRp1818
(dp1819
g62
(dp1820
sg71
g1805
sg64
(lp1821
g57
(g58
g59
NtRp1822
(dp1823
g62
(dp1824
g70
I5
ssg71
g1818
sg64
(lp1825
S'/home/xchen/web2py/applications/Betsy/'
p1826
asbasbasbag57
(g73
g59
NtRp1827
(dp1828
g62
(dp1829
sg71
g67
sg64
(lp1830
g57
(g78
g59
NtRp1831
(dp1832
g62
(dp1833
g82
g83
ssg71
g1827
sg64
(lp1834
S'function'
p1835
asbag57
(g78
g59
NtRp1836
(dp1837
g62
(dp1838
g89
g90
ssg71
g1827
sg64
(lp1839
S':'
asbag57
(g78
g59
NtRp1840
(dp1841
g62
(dp1842
sg71
g1827
sg64
(lp1843
g57
(g58
g59
NtRp1844
(dp1845
g62
(dp1846
g70
I5
ssg71
g1840
sg64
(lp1847
S'normalize_file'
p1848
asbasbasbag57
(g73
g59
NtRp1849
(dp1850
g62
(dp1851
sg71
g67
sg64
(lp1852
g57
(g78
g59
NtRp1853
(dp1854
g62
(dp1855
g82
g83
ssg71
g1849
sg64
(lp1856
S'get_vars'
p1857
asbag57
(g78
g59
NtRp1858
(dp1859
g62
(dp1860
g89
g90
ssg71
g1849
sg64
(lp1861
S':'
asbag57
(g78
g59
NtRp1862
(dp1863
g62
(dp1864
sg71
g1849
sg64
(lp1865
g57
(g58
g59
NtRp1866
(dp1867
g62
(dp1868
g70
I5
ssg71
g1862
sg64
(lp1869
g57
(g66
g59
NtRp1870
(dp1871
g62
(dp1872
g70
I4
ssg71
Nsg64
(lp1873
sbasbasbasbag57
(g73
g59
NtRp1874
(dp1875
g62
(dp1876
sg71
g67
sg64
(lp1877
g57
(g78
g59
NtRp1878
(dp1879
g62
(dp1880
g82
g83
ssg71
g1874
sg64
(lp1881
S'global_settings'
p1882
asbag57
(g78
g59
NtRp1883
(dp1884
g62
(dp1885
g89
g90
ssg71
g1874
sg64
(lp1886
S':'
asbag57
(g78
g59
NtRp1887
(dp1888
g62
(dp1889
sg71
g1874
sg64
(lp1890
g57
(g58
g59
NtRp1891
(dp1892
g62
(dp1893
g70
I5
ssg71
g1887
sg64
(lp1894
g57
(g66
g59
NtRp1895
(dp1896
g62
(dp1897
g70
I4
ssg71
Nsg64
(lp1898
g57
(g73
g59
NtRp1899
(dp1900
g62
(dp1901
sg71
g1895
sg64
(lp1902
g57
(g78
g59
NtRp1903
(dp1904
g62
(dp1905
g82
g83
ssg71
g1899
sg64
(lp1906
g673
asbag57
(g78
g59
NtRp1907
(dp1908
g62
(dp1909
g89
g90
ssg71
g1899
sg64
(lp1910
S':'
asbag57
(g78
g59
NtRp1911
(dp1912
g62
(dp1913
sg71
g1899
sg64
(lp1914
g57
(g58
g59
NtRp1915
(dp1916
g62
(dp1917
g70
I4
ssg71
g1911
sg64
(lp1918
S"set(['/home/xchen/web2py/applications/Betsy/', '/home/xchen/web2py/applications/admin/'])"
p1919
asbasbasbag57
(g73
g59
NtRp1920
(dp1921
g62
(dp1922
sg71
g1895
sg64
(lp1923
g57
(g78
g59
NtRp1924
(dp1925
g62
(dp1926
g82
g83
ssg71
g1920
sg64
(lp1927
g695
asbag57
(g78
g59
NtRp1928
(dp1929
g62
(dp1930
g89
g90
ssg71
g1920
sg64
(lp1931
S':'
asbag57
(g78
g59
NtRp1932
(dp1933
g62
(dp1934
sg71
g1920
sg64
(lp1935
g57
(g58
g59
NtRp1936
(dp1937
g62
(dp1938
g70
I4
ssg71
g1932
sg64
(lp1939
g708
asbasbasbag57
(g73
g59
NtRp1940
(dp1941
g62
(dp1942
sg71
g1895
sg64
(lp1943
g57
(g78
g59
NtRp1944
(dp1945
g62
(dp1946
g82
g83
ssg71
g1940
sg64
(lp1947
g717
asbag57
(g78
g59
NtRp1948
(dp1949
g62
(dp1950
g89
g90
ssg71
g1940
sg64
(lp1951
S':'
asbag57
(g78
g59
NtRp1952
(dp1953
g62
(dp1954
sg71
g1940
sg64
(lp1955
g57
(g58
g59
NtRp1956
(dp1957
g62
(dp1958
g70
I4
ssg71
g1952
sg64
(lp1959
g57
(g66
g59
NtRp1960
(dp1961
g62
(dp1962
g70
I3
ssg71
Nsg64
(lp1963
sbasbasbasbag57
(g73
g59
NtRp1964
(dp1965
g62
(dp1966
sg71
g1895
sg64
(lp1967
g57
(g78
g59
NtRp1968
(dp1969
g62
(dp1970
g82
g83
ssg71
g1964
sg64
(lp1971
g742
asbag57
(g78
g59
NtRp1972
(dp1973
g62
(dp1974
g89
g90
ssg71
g1964
sg64
(lp1975
S':'
asbag57
(g78
g59
NtRp1976
(dp1977
g62
(dp1978
sg71
g1964
sg64
(lp1979
g57
(g58
g59
NtRp1980
(dp1981
g62
(dp1982
g70
I4
ssg71
g1976
sg64
(lp1983
S"<Values at 0x663ee18: {'verbose': False, 'ip': '127.0.0.1', 'with_scheduler': False, 'ips': [], 'shutdown_timeout': 5, 'taskbar': False, 'port': 8000, 'maxthreads': None, 'softcron': False, 'server_name': 'unicron.shis.uth.tmc.edu', 'bpython': False, 'nogui': False, 'pid_filename': 'httpserver.pid', 'extcron': False, 'runcron': False, 'run_system_tests': False, 'test': None, 'folder': '/home/xchen/web2py', 'config': '', 'minthreads': None, 'winservice': '', 'shell': None, 'run': '', 'log_filename': 'httpserver.log', 'debuglevel': 30, 'args': [''], 'socket_timeout': 5, 'ssl_ca_certificate': None, 'scheduler': None, 'profiler_filename': None, 'ssl_private_key': '', 'scheduler_groups': None, 'password': 'baby2008', 'request_queue_size': 5, 'ssl_certificate': '', 'cronjob': False, 'numthreads': None, 'quiet': False, 'interfaces': None, 'import_models': False, 'timeout': 10, 'plain': False, 'nobanner': False}>"
p1984
asbasbasbag57
(g73
g59
NtRp1985
(dp1986
g62
(dp1987
sg71
g1895
sg64
(lp1988
g57
(g78
g59
NtRp1989
(dp1990
g62
(dp1991
g82
g83
ssg71
g1985
sg64
(lp1992
g808
asbag57
(g78
g59
NtRp1993
(dp1994
g62
(dp1995
g89
g90
ssg71
g1985
sg64
(lp1996
S':'
asbag57
(g78
g59
NtRp1997
(dp1998
g62
(dp1999
sg71
g1985
sg64
(lp2000
g57
(g58
g59
NtRp2001
(dp2002
g62
(dp2003
g70
I4
ssg71
g1997
sg64
(lp2004
S'set([])'
p2005
asbasbasbag57
(g73
g59
NtRp2006
(dp2007
g62
(dp2008
sg71
g1895
sg64
(lp2009
g57
(g78
g59
NtRp2010
(dp2011
g62
(dp2012
g82
g83
ssg71
g2006
sg64
(lp2013
g830
asbag57
(g78
g59
NtRp2014
(dp2015
g62
(dp2016
g89
g90
ssg71
g2006
sg64
(lp2017
S':'
asbag57
(g78
g59
NtRp2018
(dp2019
g62
(dp2020
sg71
g2006
sg64
(lp2021
g57
(g58
g59
NtRp2022
(dp2023
g62
(dp2024
g70
I4
ssg71
g2018
sg64
(lp2025
g100
asbasbasbag57
(g73
g59
NtRp2026
(dp2027
g62
(dp2028
sg71
g1895
sg64
(lp2029
g57
(g78
g59
NtRp2030
(dp2031
g62
(dp2032
g82
g83
ssg71
g2026
sg64
(lp2033
g851
asbag57
(g78
g59
NtRp2034
(dp2035
g62
(dp2036
g89
g90
ssg71
g2026
sg64
(lp2037
S':'
asbag57
(g78
g59
NtRp2038
(dp2039
g62
(dp2040
sg71
g2026
sg64
(lp2041
g57
(g58
g59
NtRp2042
(dp2043
g62
(dp2044
g70
I4
ssg71
g2038
sg64
(lp2045
g864
asbasbasbag57
(g73
g59
NtRp2046
(dp2047
g62
(dp2048
sg71
g1895
sg64
(lp2049
g57
(g78
g59
NtRp2050
(dp2051
g62
(dp2052
g82
g83
ssg71
g2046
sg64
(lp2053
g1113
asbag57
(g78
g59
NtRp2054
(dp2055
g62
(dp2056
g89
g90
ssg71
g2046
sg64
(lp2057
S':'
asbag57
(g78
g59
NtRp2058
(dp2059
g62
(dp2060
sg71
g2046
sg64
(lp2061
g57
(g58
g59
NtRp2062
(dp2063
g62
(dp2064
g70
I4
ssg71
g2058
sg64
(lp2065
g100
asbasbasbag57
(g73
g59
NtRp2066
(dp2067
g62
(dp2068
sg71
g1895
sg64
(lp2069
g57
(g78
g59
NtRp2070
(dp2071
g62
(dp2072
g82
g83
ssg71
g2066
sg64
(lp2073
g1134
asbag57
(g78
g59
NtRp2074
(dp2075
g62
(dp2076
g89
g90
ssg71
g2066
sg64
(lp2077
S':'
asbag57
(g78
g59
NtRp2078
(dp2079
g62
(dp2080
sg71
g2066
sg64
(lp2081
g57
(g58
g59
NtRp2082
(dp2083
g62
(dp2084
g70
I4
ssg71
g2078
sg64
(lp2085
g100
asbasbasbag57
(g73
g59
NtRp2086
(dp2087
g62
(dp2088
sg71
g1895
sg64
(lp2089
g57
(g78
g59
NtRp2090
(dp2091
g62
(dp2092
g82
g83
ssg71
g2086
sg64
(lp2093
g1155
asbag57
(g78
g59
NtRp2094
(dp2095
g62
(dp2096
g89
g90
ssg71
g2086
sg64
(lp2097
S':'
asbag57
(g78
g59
NtRp2098
(dp2099
g62
(dp2100
sg71
g2086
sg64
(lp2101
g57
(g58
g59
NtRp2102
(dp2103
g62
(dp2104
g70
I4
ssg71
g2098
sg64
(lp2105
g57
(g66
g59
NtRp2106
(dp2107
g62
(dp2108
g70
I3
ssg71
Nsg64
(lp2109
g57
(g73
g59
NtRp2110
(dp2111
g62
(dp2112
sg71
g2106
sg64
(lp2113
g57
(g78
g59
NtRp2114
(dp2115
g62
(dp2116
sg71
g2110
sg64
(lp2117
g57
(g58
g59
NtRp2118
(dp2119
g62
(dp2120
g70
I3
ssg71
g2114
sg64
(lp2121
g1184
asbasbasbag57
(g73
g59
NtRp2122
(dp2123
g62
(dp2124
sg71
g2106
sg64
(lp2125
g57
(g78
g59
NtRp2126
(dp2127
g62
(dp2128
sg71
g2122
sg64
(lp2129
g57
(g58
g59
NtRp2130
(dp2131
g62
(dp2132
g70
I3
ssg71
g2126
sg64
(lp2133
g1197
asbasbasbag57
(g73
g59
NtRp2134
(dp2135
g62
(dp2136
sg71
g2106
sg64
(lp2137
g57
(g78
g59
NtRp2138
(dp2139
g62
(dp2140
sg71
g2134
sg64
(lp2141
g57
(g58
g59
NtRp2142
(dp2143
g62
(dp2144
g70
I3
ssg71
g2138
sg64
(lp2145
g1210
asbasbasbag57
(g73
g59
NtRp2146
(dp2147
g62
(dp2148
sg71
g2106
sg64
(lp2149
g57
(g78
g59
NtRp2150
(dp2151
g62
(dp2152
sg71
g2146
sg64
(lp2153
g57
(g58
g59
NtRp2154
(dp2155
g62
(dp2156
g70
I3
ssg71
g2150
sg64
(lp2157
g1223
asbasbasbag57
(g73
g59
NtRp2158
(dp2159
g62
(dp2160
sg71
g2106
sg64
(lp2161
g57
(g78
g59
NtRp2162
(dp2163
g62
(dp2164
sg71
g2158
sg64
(lp2165
g57
(g58
g59
NtRp2166
(dp2167
g62
(dp2168
g70
I3
ssg71
g2162
sg64
(lp2169
g1236
asbasbasbasbasbasbasbag57
(g73
g59
NtRp2170
(dp2171
g62
(dp2172
sg71
g1895
sg64
(lp2173
g57
(g78
g59
NtRp2174
(dp2175
g62
(dp2176
g82
g83
ssg71
g2170
sg64
(lp2177
g1503
asbag57
(g78
g59
NtRp2178
(dp2179
g62
(dp2180
g89
g90
ssg71
g2170
sg64
(lp2181
S':'
asbag57
(g78
g59
NtRp2182
(dp2183
g62
(dp2184
sg71
g2170
sg64
(lp2185
g57
(g58
g59
NtRp2186
(dp2187
g62
(dp2188
g70
I4
ssg71
g2182
sg64
(lp2189
g57
(g66
g59
NtRp2190
(dp2191
g62
(dp2192
g70
I3
ssg71
Nsg64
(lp2193
g57
(g73
g59
NtRp2194
(dp2195
g62
(dp2196
sg71
g2190
sg64
(lp2197
g57
(g78
g59
NtRp2198
(dp2199
g62
(dp2200
sg71
g2194
sg64
(lp2201
g57
(g58
g59
NtRp2202
(dp2203
g62
(dp2204
g70
I3
ssg71
g2198
sg64
(lp2205
S'2'
asbasbasbag57
(g73
g59
NtRp2206
(dp2207
g62
(dp2208
sg71
g2190
sg64
(lp2209
g57
(g78
g59
NtRp2210
(dp2211
g62
(dp2212
sg71
g2206
sg64
(lp2213
g57
(g58
g59
NtRp2214
(dp2215
g62
(dp2216
g70
I3
ssg71
g2210
sg64
(lp2217
S'2'
asbasbasbag57
(g73
g59
NtRp2218
(dp2219
g62
(dp2220
sg71
g2190
sg64
(lp2221
g57
(g78
g59
NtRp2222
(dp2223
g62
(dp2224
sg71
g2218
sg64
(lp2225
g57
(g58
g59
NtRp2226
(dp2227
g62
(dp2228
g70
I3
ssg71
g2222
sg64
(lp2229
S'1'
asbasbasbag57
(g73
g59
NtRp2230
(dp2231
g62
(dp2232
sg71
g2190
sg64
(lp2233
g57
(g78
g59
NtRp2234
(dp2235
g62
(dp2236
sg71
g2230
sg64
(lp2237
g57
(g58
g59
NtRp2238
(dp2239
g62
(dp2240
g70
I3
ssg71
g2234
sg64
(lp2241
S'datetime.datetime(2012, 10, 21, 16, 57, 4)'
p2242
asbasbasbag57
(g73
g59
NtRp2243
(dp2244
g62
(dp2245
sg71
g2190
sg64
(lp2246
g57
(g78
g59
NtRp2247
(dp2248
g62
(dp2249
sg71
g2243
sg64
(lp2250
g57
(g58
g59
NtRp2251
(dp2252
g62
(dp2253
g70
I3
ssg71
g2247
sg64
(lp2254
g1581
asbasbasbasbasbasbasbasbasbasbasbag57
(g73
g59
NtRp2255
(dp2256
g62
(dp2257
sg71
g67
sg64
(lp2258
g57
(g78
g59
NtRp2259
(dp2260
g62
(dp2261
g82
g83
ssg71
g2255
sg64
(lp2262
S'is_https'
p2263
asbag57
(g78
g59
NtRp2264
(dp2265
g62
(dp2266
g89
g90
ssg71
g2255
sg64
(lp2267
S':'
asbag57
(g78
g59
NtRp2268
(dp2269
g62
(dp2270
sg71
g2255
sg64
(lp2271
g57
(g58
g59
NtRp2272
(dp2273
g62
(dp2274
g70
I5
ssg71
g2268
sg64
(lp2275
g100
asbasbasbag57
(g73
g59
NtRp2276
(dp2277
g62
(dp2278
sg71
g67
sg64
(lp2279
g57
(g78
g59
NtRp2280
(dp2281
g62
(dp2282
g82
g83
ssg71
g2276
sg64
(lp2283
S'is_local'
p2284
asbag57
(g78
g59
NtRp2285
(dp2286
g62
(dp2287
g89
g90
ssg71
g2276
sg64
(lp2288
S':'
asbag57
(g78
g59
NtRp2289
(dp2290
g62
(dp2291
sg71
g2276
sg64
(lp2292
g57
(g58
g59
NtRp2293
(dp2294
g62
(dp2295
g70
I5
ssg71
g2289
sg64
(lp2296
g1690
asbasbasbag57
(g73
g59
NtRp2297
(dp2298
g62
(dp2299
sg71
g67
sg64
(lp2300
g57
(g78
g59
NtRp2301
(dp2302
g62
(dp2303
g82
g83
ssg71
g2297
sg64
(lp2304
S'is_restful'
p2305
asbag57
(g78
g59
NtRp2306
(dp2307
g62
(dp2308
g89
g90
ssg71
g2297
sg64
(lp2309
S':'
asbag57
(g78
g59
NtRp2310
(dp2311
g62
(dp2312
sg71
g2297
sg64
(lp2313
g57
(g58
g59
NtRp2314
(dp2315
g62
(dp2316
g70
I5
ssg71
g2310
sg64
(lp2317
g100
asbasbasbag57
(g73
g59
NtRp2318
(dp2319
g62
(dp2320
sg71
g67
sg64
(lp2321
g57
(g78
g59
NtRp2322
(dp2323
g62
(dp2324
g82
g83
ssg71
g2318
sg64
(lp2325
S'now'
p2326
asbag57
(g78
g59
NtRp2327
(dp2328
g62
(dp2329
g89
g90
ssg71
g2318
sg64
(lp2330
S':'
asbag57
(g78
g59
NtRp2331
(dp2332
g62
(dp2333
sg71
g2318
sg64
(lp2334
g57
(g58
g59
NtRp2335
(dp2336
g62
(dp2337
g70
I5
ssg71
g2331
sg64
(lp2338
S'datetime.datetime(2013, 2, 13, 14, 19, 46, 682081)'
p2339
asbasbasbag57
(g73
g59
NtRp2340
(dp2341
g62
(dp2342
sg71
g67
sg64
(lp2343
g57
(g78
g59
NtRp2344
(dp2345
g62
(dp2346
g82
g83
ssg71
g2340
sg64
(lp2347
S'post_vars'
p2348
asbag57
(g78
g59
NtRp2349
(dp2350
g62
(dp2351
g89
g90
ssg71
g2340
sg64
(lp2352
S':'
asbag57
(g78
g59
NtRp2353
(dp2354
g62
(dp2355
sg71
g2340
sg64
(lp2356
g57
(g58
g59
NtRp2357
(dp2358
g62
(dp2359
g70
I5
ssg71
g2353
sg64
(lp2360
g57
(g66
g59
NtRp2361
(dp2362
g62
(dp2363
g70
I4
ssg71
Nsg64
(lp2364
g57
(g73
g59
NtRp2365
(dp2366
g62
(dp2367
sg71
g2361
sg64
(lp2368
g57
(g78
g59
NtRp2369
(dp2370
g62
(dp2371
g82
g83
ssg71
g2365
sg64
(lp2372
S'bfrm'
p2373
asbag57
(g78
g59
NtRp2374
(dp2375
g62
(dp2376
g89
g90
ssg71
g2365
sg64
(lp2377
S':'
asbag57
(g78
g59
NtRp2378
(dp2379
g62
(dp2380
sg71
g2365
sg64
(lp2381
g57
(g58
g59
NtRp2382
(dp2383
g62
(dp2384
g70
I4
ssg71
g2378
sg64
(lp2385
S'no_bfrm'
p2386
asbasbasbag57
(g73
g59
NtRp2387
(dp2388
g62
(dp2389
sg71
g2361
sg64
(lp2390
g57
(g78
g59
NtRp2391
(dp2392
g62
(dp2393
g82
g83
ssg71
g2387
sg64
(lp2394
S'cn_abs_diff'
p2395
asbag57
(g78
g59
NtRp2396
(dp2397
g62
(dp2398
g89
g90
ssg71
g2387
sg64
(lp2399
S':'
asbag57
(g78
g59
NtRp2400
(dp2401
g62
(dp2402
sg71
g2387
sg64
(lp2403
g57
(g58
g59
NtRp2404
(dp2405
g62
(dp2406
g70
I4
ssg71
g2400
sg64
(lp2407
S'float'
p2408
asbasbasbag57
(g73
g59
NtRp2409
(dp2410
g62
(dp2411
sg71
g2361
sg64
(lp2412
g57
(g78
g59
NtRp2413
(dp2414
g62
(dp2415
g82
g83
ssg71
g2409
sg64
(lp2416
S'cn_filter_data'
p2417
asbag57
(g78
g59
NtRp2418
(dp2419
g62
(dp2420
g89
g90
ssg71
g2409
sg64
(lp2421
S':'
asbag57
(g78
g59
NtRp2422
(dp2423
g62
(dp2424
sg71
g2409
sg64
(lp2425
g57
(g58
g59
NtRp2426
(dp2427
g62
(dp2428
g70
I4
ssg71
g2422
sg64
(lp2429
S'cn_yes'
p2430
asbasbasbag57
(g73
g59
NtRp2431
(dp2432
g62
(dp2433
sg71
g2361
sg64
(lp2434
g57
(g78
g59
NtRp2435
(dp2436
g62
(dp2437
g82
g83
ssg71
g2431
sg64
(lp2438
S'cn_max_threshold'
p2439
asbag57
(g78
g59
NtRp2440
(dp2441
g62
(dp2442
g89
g90
ssg71
g2431
sg64
(lp2443
S':'
asbag57
(g78
g59
NtRp2444
(dp2445
g62
(dp2446
sg71
g2431
sg64
(lp2447
g57
(g58
g59
NtRp2448
(dp2449
g62
(dp2450
g70
I4
ssg71
g2444
sg64
(lp2451
S'float'
p2452
asbasbasbag57
(g73
g59
NtRp2453
(dp2454
g62
(dp2455
sg71
g2361
sg64
(lp2456
g57
(g78
g59
NtRp2457
(dp2458
g62
(dp2459
g82
g83
ssg71
g2453
sg64
(lp2460
S'cn_mean_or_median'
p2461
asbag57
(g78
g59
NtRp2462
(dp2463
g62
(dp2464
g89
g90
ssg71
g2453
sg64
(lp2465
S':'
asbag57
(g78
g59
NtRp2466
(dp2467
g62
(dp2468
sg71
g2453
sg64
(lp2469
g57
(g58
g59
NtRp2470
(dp2471
g62
(dp2472
g70
I4
ssg71
g2466
sg64
(lp2473
S'cn_mean'
p2474
asbasbasbag57
(g73
g59
NtRp2475
(dp2476
g62
(dp2477
sg71
g2361
sg64
(lp2478
g57
(g78
g59
NtRp2479
(dp2480
g62
(dp2481
g82
g83
ssg71
g2475
sg64
(lp2482
S'cn_min_folddiff'
p2483
asbag57
(g78
g59
NtRp2484
(dp2485
g62
(dp2486
g89
g90
ssg71
g2475
sg64
(lp2487
S':'
asbag57
(g78
g59
NtRp2488
(dp2489
g62
(dp2490
sg71
g2475
sg64
(lp2491
g57
(g58
g59
NtRp2492
(dp2493
g62
(dp2494
g70
I4
ssg71
g2488
sg64
(lp2495
S'float'
p2496
asbasbasbag57
(g73
g59
NtRp2497
(dp2498
g62
(dp2499
sg71
g2361
sg64
(lp2500
g57
(g78
g59
NtRp2501
(dp2502
g62
(dp2503
g82
g83
ssg71
g2497
sg64
(lp2504
S'cn_min_threshold'
p2505
asbag57
(g78
g59
NtRp2506
(dp2507
g62
(dp2508
g89
g90
ssg71
g2497
sg64
(lp2509
S':'
asbag57
(g78
g59
NtRp2510
(dp2511
g62
(dp2512
sg71
g2497
sg64
(lp2513
g57
(g58
g59
NtRp2514
(dp2515
g62
(dp2516
g70
I4
ssg71
g2510
sg64
(lp2517
S'float'
p2518
asbasbasbag57
(g73
g59
NtRp2519
(dp2520
g62
(dp2521
sg71
g2361
sg64
(lp2522
g57
(g78
g59
NtRp2523
(dp2524
g62
(dp2525
g82
g83
ssg71
g2519
sg64
(lp2526
S'cn_num_neighbors'
p2527
asbag57
(g78
g59
NtRp2528
(dp2529
g62
(dp2530
g89
g90
ssg71
g2519
sg64
(lp2531
S':'
asbag57
(g78
g59
NtRp2532
(dp2533
g62
(dp2534
sg71
g2519
sg64
(lp2535
g57
(g58
g59
NtRp2536
(dp2537
g62
(dp2538
g70
I4
ssg71
g2532
sg64
(lp2539
S'integer'
p2540
asbasbasbag57
(g73
g59
NtRp2541
(dp2542
g62
(dp2543
sg71
g2361
sg64
(lp2544
g57
(g78
g59
NtRp2545
(dp2546
g62
(dp2547
g82
g83
ssg71
g2541
sg64
(lp2548
S'cn_num_perm'
p2549
asbag57
(g78
g59
NtRp2550
(dp2551
g62
(dp2552
g89
g90
ssg71
g2541
sg64
(lp2553
S':'
asbag57
(g78
g59
NtRp2554
(dp2555
g62
(dp2556
sg71
g2541
sg64
(lp2557
g57
(g58
g59
NtRp2558
(dp2559
g62
(dp2560
g70
I4
ssg71
g2554
sg64
(lp2561
S'integer'
p2562
asbasbasbag57
(g73
g59
NtRp2563
(dp2564
g62
(dp2565
sg71
g2361
sg64
(lp2566
g57
(g78
g59
NtRp2567
(dp2568
g62
(dp2569
g82
g83
ssg71
g2563
sg64
(lp2570
S'cn_ttest_or_snr'
p2571
asbag57
(g78
g59
NtRp2572
(dp2573
g62
(dp2574
g89
g90
ssg71
g2563
sg64
(lp2575
S':'
asbag57
(g78
g59
NtRp2576
(dp2577
g62
(dp2578
sg71
g2563
sg64
(lp2579
g57
(g58
g59
NtRp2580
(dp2581
g62
(dp2582
g70
I4
ssg71
g2576
sg64
(lp2583
S'cn_test'
p2584
asbasbasbag57
(g73
g59
NtRp2585
(dp2586
g62
(dp2587
sg71
g2361
sg64
(lp2588
g57
(g78
g59
NtRp2589
(dp2590
g62
(dp2591
g82
g83
ssg71
g2585
sg64
(lp2592
S'cn_user_pval'
p2593
asbag57
(g78
g59
NtRp2594
(dp2595
g62
(dp2596
g89
g90
ssg71
g2585
sg64
(lp2597
S':'
asbag57
(g78
g59
NtRp2598
(dp2599
g62
(dp2600
sg71
g2585
sg64
(lp2601
g57
(g58
g59
NtRp2602
(dp2603
g62
(dp2604
g70
I4
ssg71
g2598
sg64
(lp2605
S'float'
p2606
asbasbasbag57
(g73
g59
NtRp2607
(dp2608
g62
(dp2609
sg71
g2361
sg64
(lp2610
g57
(g78
g59
NtRp2611
(dp2612
g62
(dp2613
g82
g83
ssg71
g2607
sg64
(lp2614
S'combat'
p2615
asbag57
(g78
g59
NtRp2616
(dp2617
g62
(dp2618
g89
g90
ssg71
g2607
sg64
(lp2619
S':'
asbag57
(g78
g59
NtRp2620
(dp2621
g62
(dp2622
sg71
g2607
sg64
(lp2623
g57
(g58
g59
NtRp2624
(dp2625
g62
(dp2626
g70
I4
ssg71
g2620
sg64
(lp2627
S'no_combat'
p2628
asbasbasbag57
(g73
g59
NtRp2629
(dp2630
g62
(dp2631
sg71
g2361
sg64
(lp2632
g57
(g78
g59
NtRp2633
(dp2634
g62
(dp2635
g82
g83
ssg71
g2629
sg64
(lp2636
S'contents'
p2637
asbag57
(g78
g59
NtRp2638
(dp2639
g62
(dp2640
g89
g90
ssg71
g2629
sg64
(lp2641
S':'
asbag57
(g78
g59
NtRp2642
(dp2643
g62
(dp2644
sg71
g2629
sg64
(lp2645
g57
(g58
g59
NtRp2646
(dp2647
g62
(dp2648
g70
I4
ssg71
g2642
sg64
(lp2649
S'list'
p2650
asbasbasbag57
(g73
g59
NtRp2651
(dp2652
g62
(dp2653
sg71
g2361
sg64
(lp2654
g57
(g78
g59
NtRp2655
(dp2656
g62
(dp2657
g82
g83
ssg71
g2651
sg64
(lp2658
S'duplicate_data'
p2659
asbag57
(g78
g59
NtRp2660
(dp2661
g62
(dp2662
g89
g90
ssg71
g2651
sg64
(lp2663
S':'
asbag57
(g78
g59
NtRp2664
(dp2665
g62
(dp2666
sg71
g2651
sg64
(lp2667
g57
(g58
g59
NtRp2668
(dp2669
g62
(dp2670
g70
I4
ssg71
g2664
sg64
(lp2671
S'yes_duplicate_data'
p2672
asbasbasbag57
(g73
g59
NtRp2673
(dp2674
g62
(dp2675
sg71
g2361
sg64
(lp2676
g57
(g78
g59
NtRp2677
(dp2678
g62
(dp2679
g82
g83
ssg71
g2673
sg64
(lp2680
S'duplicate_probe'
p2681
asbag57
(g78
g59
NtRp2682
(dp2683
g62
(dp2684
g89
g90
ssg71
g2673
sg64
(lp2685
S':'
asbag57
(g78
g59
NtRp2686
(dp2687
g62
(dp2688
sg71
g2673
sg64
(lp2689
g57
(g58
g59
NtRp2690
(dp2691
g62
(dp2692
g70
I4
ssg71
g2686
sg64
(lp2693
S'yes_duplicate_probe'
p2694
asbasbasbag57
(g73
g59
NtRp2695
(dp2696
g62
(dp2697
sg71
g2361
sg64
(lp2698
g57
(g78
g59
NtRp2699
(dp2700
g62
(dp2701
g82
g83
ssg71
g2695
sg64
(lp2702
S'dwd'
p2703
asbag57
(g78
g59
NtRp2704
(dp2705
g62
(dp2706
g89
g90
ssg71
g2695
sg64
(lp2707
S':'
asbag57
(g78
g59
NtRp2708
(dp2709
g62
(dp2710
sg71
g2695
sg64
(lp2711
g57
(g58
g59
NtRp2712
(dp2713
g62
(dp2714
g70
I4
ssg71
g2708
sg64
(lp2715
S'no_dwd'
p2716
asbasbasbag57
(g73
g59
NtRp2717
(dp2718
g62
(dp2719
sg71
g2361
sg64
(lp2720
g57
(g78
g59
NtRp2721
(dp2722
g62
(dp2723
g82
g83
ssg71
g2717
sg64
(lp2724
S'filter'
p2725
asbag57
(g78
g59
NtRp2726
(dp2727
g62
(dp2728
g89
g90
ssg71
g2717
sg64
(lp2729
S':'
asbag57
(g78
g59
NtRp2730
(dp2731
g62
(dp2732
sg71
g2717
sg64
(lp2733
g57
(g58
g59
NtRp2734
(dp2735
g62
(dp2736
g70
I4
ssg71
g2730
sg64
(lp2737
S'2'
asbasbasbag57
(g73
g59
NtRp2738
(dp2739
g62
(dp2740
sg71
g2361
sg64
(lp2741
g57
(g78
g59
NtRp2742
(dp2743
g62
(dp2744
g82
g83
ssg71
g2738
sg64
(lp2745
S'format'
p2746
asbag57
(g78
g59
NtRp2747
(dp2748
g62
(dp2749
g89
g90
ssg71
g2738
sg64
(lp2750
S':'
asbag57
(g78
g59
NtRp2751
(dp2752
g62
(dp2753
sg71
g2738
sg64
(lp2754
g57
(g58
g59
NtRp2755
(dp2756
g62
(dp2757
g70
I4
ssg71
g2751
sg64
(lp2758
S'tdf'
p2759
asbasbasbag57
(g73
g59
NtRp2760
(dp2761
g62
(dp2762
sg71
g2361
sg64
(lp2763
g57
(g78
g59
NtRp2764
(dp2765
g62
(dp2766
g82
g83
ssg71
g2760
sg64
(lp2767
S'gene_center'
p2768
asbag57
(g78
g59
NtRp2769
(dp2770
g62
(dp2771
g89
g90
ssg71
g2760
sg64
(lp2772
S':'
asbag57
(g78
g59
NtRp2773
(dp2774
g62
(dp2775
sg71
g2760
sg64
(lp2776
g57
(g58
g59
NtRp2777
(dp2778
g62
(dp2779
g70
I4
ssg71
g2773
sg64
(lp2780
S'no_gene_center'
p2781
asbasbasbag57
(g73
g59
NtRp2782
(dp2783
g62
(dp2784
sg71
g2361
sg64
(lp2785
g57
(g78
g59
NtRp2786
(dp2787
g62
(dp2788
g82
g83
ssg71
g2782
sg64
(lp2789
S'gene_normalize'
p2790
asbag57
(g78
g59
NtRp2791
(dp2792
g62
(dp2793
g89
g90
ssg71
g2782
sg64
(lp2794
S':'
asbag57
(g78
g59
NtRp2795
(dp2796
g62
(dp2797
sg71
g2782
sg64
(lp2798
g57
(g58
g59
NtRp2799
(dp2800
g62
(dp2801
g70
I4
ssg71
g2795
sg64
(lp2802
S'no_gene_normalize'
p2803
asbasbasbag57
(g73
g59
NtRp2804
(dp2805
g62
(dp2806
sg71
g2361
sg64
(lp2807
g57
(g78
g59
NtRp2808
(dp2809
g62
(dp2810
g82
g83
ssg71
g2804
sg64
(lp2811
S'gene_order'
p2812
asbag57
(g78
g59
NtRp2813
(dp2814
g62
(dp2815
g89
g90
ssg71
g2804
sg64
(lp2816
S':'
asbag57
(g78
g59
NtRp2817
(dp2818
g62
(dp2819
sg71
g2804
sg64
(lp2820
g57
(g58
g59
NtRp2821
(dp2822
g62
(dp2823
g70
I4
ssg71
g2817
sg64
(lp2824
S'no_order'
p2825
asbasbasbag57
(g73
g59
NtRp2826
(dp2827
g62
(dp2828
sg71
g2361
sg64
(lp2829
g57
(g78
g59
NtRp2830
(dp2831
g62
(dp2832
g82
g83
ssg71
g2826
sg64
(lp2833
S'gene_select_threshold'
p2834
asbag57
(g78
g59
NtRp2835
(dp2836
g62
(dp2837
g89
g90
ssg71
g2826
sg64
(lp2838
S':'
asbag57
(g78
g59
NtRp2839
(dp2840
g62
(dp2841
sg71
g2826
sg64
(lp2842
g57
(g58
g59
NtRp2843
(dp2844
g62
(dp2845
g70
I4
ssg71
g2839
sg64
(lp2846
S'float'
p2847
asbasbasbag57
(g73
g59
NtRp2848
(dp2849
g62
(dp2850
sg71
g2361
sg64
(lp2851
g57
(g78
g59
NtRp2852
(dp2853
g62
(dp2854
g82
g83
ssg71
g2848
sg64
(lp2855
S'group_fc'
p2856
asbag57
(g78
g59
NtRp2857
(dp2858
g62
(dp2859
g89
g90
ssg71
g2848
sg64
(lp2860
S':'
asbag57
(g78
g59
NtRp2861
(dp2862
g62
(dp2863
sg71
g2848
sg64
(lp2864
g57
(g58
g59
NtRp2865
(dp2866
g62
(dp2867
g70
I4
ssg71
g2861
sg64
(lp2868
S'integer'
p2869
asbasbasbag57
(g73
g59
NtRp2870
(dp2871
g62
(dp2872
sg71
g2361
sg64
(lp2873
g57
(g78
g59
NtRp2874
(dp2875
g62
(dp2876
g82
g83
ssg71
g2870
sg64
(lp2877
S'has_annotation_gene_id'
p2878
asbag57
(g78
g59
NtRp2879
(dp2880
g62
(dp2881
g89
g90
ssg71
g2870
sg64
(lp2882
S':'
asbag57
(g78
g59
NtRp2883
(dp2884
g62
(dp2885
sg71
g2870
sg64
(lp2886
g57
(g58
g59
NtRp2887
(dp2888
g62
(dp2889
g70
I4
ssg71
g2883
sg64
(lp2890
S'yes_gene_id'
p2891
asbasbasbag57
(g73
g59
NtRp2892
(dp2893
g62
(dp2894
sg71
g2361
sg64
(lp2895
g57
(g78
g59
NtRp2896
(dp2897
g62
(dp2898
g82
g83
ssg71
g2892
sg64
(lp2899
S'has_missing_value'
p2900
asbag57
(g78
g59
NtRp2901
(dp2902
g62
(dp2903
g89
g90
ssg71
g2892
sg64
(lp2904
S':'
asbag57
(g78
g59
NtRp2905
(dp2906
g62
(dp2907
sg71
g2892
sg64
(lp2908
g57
(g58
g59
NtRp2909
(dp2910
g62
(dp2911
g70
I4
ssg71
g2905
sg64
(lp2912
S'no_missing'
p2913
asbasbasbag57
(g73
g59
NtRp2914
(dp2915
g62
(dp2916
sg71
g2361
sg64
(lp2917
g57
(g78
g59
NtRp2918
(dp2919
g62
(dp2920
g82
g83
ssg71
g2914
sg64
(lp2921
S'ill_bg_mode'
p2922
asbag57
(g78
g59
NtRp2923
(dp2924
g62
(dp2925
g89
g90
ssg71
g2914
sg64
(lp2926
S':'
asbag57
(g78
g59
NtRp2927
(dp2928
g62
(dp2929
sg71
g2914
sg64
(lp2930
g57
(g58
g59
NtRp2931
(dp2932
g62
(dp2933
g70
I4
ssg71
g2927
sg64
(lp2934
S'ill_yes'
p2935
asbasbasbag57
(g73
g59
NtRp2936
(dp2937
g62
(dp2938
sg71
g2361
sg64
(lp2939
g57
(g78
g59
NtRp2940
(dp2941
g62
(dp2942
g82
g83
ssg71
g2936
sg64
(lp2943
S'ill_chip'
p2944
asbag57
(g78
g59
NtRp2945
(dp2946
g62
(dp2947
g89
g90
ssg71
g2936
sg64
(lp2948
S':'
asbag57
(g78
g59
NtRp2949
(dp2950
g62
(dp2951
sg71
g2936
sg64
(lp2952
g57
(g58
g59
NtRp2953
(dp2954
g62
(dp2955
g70
I4
ssg71
g2949
sg64
(lp2956
S'string'
p2957
asbasbasbag57
(g73
g59
NtRp2958
(dp2959
g62
(dp2960
sg71
g2361
sg64
(lp2961
g57
(g78
g59
NtRp2962
(dp2963
g62
(dp2964
g82
g83
ssg71
g2958
sg64
(lp2965
S'ill_clm'
p2966
asbag57
(g78
g59
NtRp2967
(dp2968
g62
(dp2969
g89
g90
ssg71
g2958
sg64
(lp2970
S':'
asbag57
(g78
g59
NtRp2971
(dp2972
g62
(dp2973
sg71
g2958
sg64
(lp2974
g57
(g58
g59
NtRp2975
(dp2976
g62
(dp2977
g70
I4
ssg71
g2971
sg64
(lp2978
S'string'
p2979
asbasbasbag57
(g73
g59
NtRp2980
(dp2981
g62
(dp2982
sg71
g2361
sg64
(lp2983
g57
(g78
g59
NtRp2984
(dp2985
g62
(dp2986
g82
g83
ssg71
g2980
sg64
(lp2987
S'ill_coll_mode'
p2988
asbag57
(g78
g59
NtRp2989
(dp2990
g62
(dp2991
g89
g90
ssg71
g2980
sg64
(lp2992
S':'
asbag57
(g78
g59
NtRp2993
(dp2994
g62
(dp2995
sg71
g2980
sg64
(lp2996
g57
(g58
g59
NtRp2997
(dp2998
g62
(dp2999
g70
I4
ssg71
g2993
sg64
(lp3000
S'ill_none'
p3001
asbasbasbag57
(g73
g59
NtRp3002
(dp3003
g62
(dp3004
sg71
g2361
sg64
(lp3005
g57
(g78
g59
NtRp3006
(dp3007
g62
(dp3008
g82
g83
ssg71
g3002
sg64
(lp3009
S'ill_custom_chip'
p3010
asbag57
(g78
g59
NtRp3011
(dp3012
g62
(dp3013
g89
g90
ssg71
g3002
sg64
(lp3014
S':'
asbag57
(g78
g59
NtRp3015
(dp3016
g62
(dp3017
sg71
g3002
sg64
(lp3018
g57
(g58
g59
NtRp3019
(dp3020
g62
(dp3021
g70
I4
ssg71
g3015
sg64
(lp3022
S'string'
p3023
asbasbasbag57
(g73
g59
NtRp3024
(dp3025
g62
(dp3026
sg71
g2361
sg64
(lp3027
g57
(g78
g59
NtRp3028
(dp3029
g62
(dp3030
g82
g83
ssg71
g3024
sg64
(lp3031
S'ill_custom_manifest'
p3032
asbag57
(g78
g59
NtRp3033
(dp3034
g62
(dp3035
g89
g90
ssg71
g3024
sg64
(lp3036
S':'
asbag57
(g78
g59
NtRp3037
(dp3038
g62
(dp3039
sg71
g3024
sg64
(lp3040
g57
(g58
g59
NtRp3041
(dp3042
g62
(dp3043
g70
I4
ssg71
g3037
sg64
(lp3044
S'string'
p3045
asbasbasbag57
(g73
g59
NtRp3046
(dp3047
g62
(dp3048
sg71
g2361
sg64
(lp3049
g57
(g78
g59
NtRp3050
(dp3051
g62
(dp3052
g82
g83
ssg71
g3046
sg64
(lp3053
S'ill_manifest'
p3054
asbag57
(g78
g59
NtRp3055
(dp3056
g62
(dp3057
g89
g90
ssg71
g3046
sg64
(lp3058
S':'
asbag57
(g78
g59
NtRp3059
(dp3060
g62
(dp3061
sg71
g3046
sg64
(lp3062
g57
(g58
g59
NtRp3063
(dp3064
g62
(dp3065
g70
I4
ssg71
g3059
sg64
(lp3066
S'string'
p3067
asbasbasbag57
(g73
g59
NtRp3068
(dp3069
g62
(dp3070
sg71
g2361
sg64
(lp3071
g57
(g78
g59
NtRp3072
(dp3073
g62
(dp3074
g82
g83
ssg71
g3068
sg64
(lp3075
S'is_logged'
p3076
asbag57
(g78
g59
NtRp3077
(dp3078
g62
(dp3079
g89
g90
ssg71
g3068
sg64
(lp3080
S':'
asbag57
(g78
g59
NtRp3081
(dp3082
g62
(dp3083
sg71
g3068
sg64
(lp3084
g57
(g58
g59
NtRp3085
(dp3086
g62
(dp3087
g70
I4
ssg71
g3081
sg64
(lp3088
S'logged'
p3089
asbasbasbag57
(g73
g59
NtRp3090
(dp3091
g62
(dp3092
sg71
g2361
sg64
(lp3093
g57
(g78
g59
NtRp3094
(dp3095
g62
(dp3096
g82
g83
ssg71
g3090
sg64
(lp3097
S'myfile0'
p3098
asbag57
(g78
g59
NtRp3099
(dp3100
g62
(dp3101
g89
g90
ssg71
g3090
sg64
(lp3102
S':'
asbag57
(g78
g59
NtRp3103
(dp3104
g62
(dp3105
sg71
g3090
sg64
(lp3106
g57
(g58
g59
NtRp3107
(dp3108
g62
(dp3109
g70
I4
ssg71
g3103
sg64
(lp3110
S''
asbasbasbag57
(g73
g59
NtRp3111
(dp3112
g62
(dp3113
sg71
g2361
sg64
(lp3114
g57
(g78
g59
NtRp3115
(dp3116
g62
(dp3117
g82
g83
ssg71
g3111
sg64
(lp3118
S'myfile0_path'
p3119
asbag57
(g78
g59
NtRp3120
(dp3121
g62
(dp3122
g89
g90
ssg71
g3111
sg64
(lp3123
S':'
asbag57
(g78
g59
NtRp3124
(dp3125
g62
(dp3126
sg71
g3111
sg64
(lp3127
g57
(g58
g59
NtRp3128
(dp3129
g62
(dp3130
g70
I4
ssg71
g3124
sg64
(lp3131
S''
asbasbasbag57
(g73
g59
NtRp3132
(dp3133
g62
(dp3134
sg71
g2361
sg64
(lp3135
g57
(g78
g59
NtRp3136
(dp3137
g62
(dp3138
g82
g83
ssg71
g3132
sg64
(lp3139
S'myfile1'
p3140
asbag57
(g78
g59
NtRp3141
(dp3142
g62
(dp3143
g89
g90
ssg71
g3132
sg64
(lp3144
S':'
asbag57
(g78
g59
NtRp3145
(dp3146
g62
(dp3147
sg71
g3132
sg64
(lp3148
g57
(g58
g59
NtRp3149
(dp3150
g62
(dp3151
g70
I4
ssg71
g3145
sg64
(lp3152
S''
asbasbasbag57
(g73
g59
NtRp3153
(dp3154
g62
(dp3155
sg71
g2361
sg64
(lp3156
g57
(g78
g59
NtRp3157
(dp3158
g62
(dp3159
g82
g83
ssg71
g3153
sg64
(lp3160
S'myfile1_path'
p3161
asbag57
(g78
g59
NtRp3162
(dp3163
g62
(dp3164
g89
g90
ssg71
g3153
sg64
(lp3165
S':'
asbag57
(g78
g59
NtRp3166
(dp3167
g62
(dp3168
sg71
g3153
sg64
(lp3169
g57
(g58
g59
NtRp3170
(dp3171
g62
(dp3172
g70
I4
ssg71
g3166
sg64
(lp3173
S''
asbasbasbag57
(g73
g59
NtRp3174
(dp3175
g62
(dp3176
sg71
g2361
sg64
(lp3177
g57
(g78
g59
NtRp3178
(dp3179
g62
(dp3180
g82
g83
ssg71
g3174
sg64
(lp3181
S'myfile2'
p3182
asbag57
(g78
g59
NtRp3183
(dp3184
g62
(dp3185
g89
g90
ssg71
g3174
sg64
(lp3186
S':'
asbag57
(g78
g59
NtRp3187
(dp3188
g62
(dp3189
sg71
g3174
sg64
(lp3190
g57
(g58
g59
NtRp3191
(dp3192
g62
(dp3193
g70
I4
ssg71
g3187
sg64
(lp3194
S''
asbasbasbag57
(g73
g59
NtRp3195
(dp3196
g62
(dp3197
sg71
g2361
sg64
(lp3198
g57
(g78
g59
NtRp3199
(dp3200
g62
(dp3201
g82
g83
ssg71
g3195
sg64
(lp3202
S'myfile2_path'
p3203
asbag57
(g78
g59
NtRp3204
(dp3205
g62
(dp3206
g89
g90
ssg71
g3195
sg64
(lp3207
S':'
asbag57
(g78
g59
NtRp3208
(dp3209
g62
(dp3210
sg71
g3195
sg64
(lp3211
g57
(g58
g59
NtRp3212
(dp3213
g62
(dp3214
g70
I4
ssg71
g3208
sg64
(lp3215
S''
asbasbasbag57
(g73
g59
NtRp3216
(dp3217
g62
(dp3218
sg71
g2361
sg64
(lp3219
g57
(g78
g59
NtRp3220
(dp3221
g62
(dp3222
g82
g83
ssg71
g3216
sg64
(lp3223
S'myfile3'
p3224
asbag57
(g78
g59
NtRp3225
(dp3226
g62
(dp3227
g89
g90
ssg71
g3216
sg64
(lp3228
S':'
asbag57
(g78
g59
NtRp3229
(dp3230
g62
(dp3231
sg71
g3216
sg64
(lp3232
g57
(g58
g59
NtRp3233
(dp3234
g62
(dp3235
g70
I4
ssg71
g3229
sg64
(lp3236
S''
asbasbasbag57
(g73
g59
NtRp3237
(dp3238
g62
(dp3239
sg71
g2361
sg64
(lp3240
g57
(g78
g59
NtRp3241
(dp3242
g62
(dp3243
g82
g83
ssg71
g3237
sg64
(lp3244
S'myfile3_path'
p3245
asbag57
(g78
g59
NtRp3246
(dp3247
g62
(dp3248
g89
g90
ssg71
g3237
sg64
(lp3249
S':'
asbag57
(g78
g59
NtRp3250
(dp3251
g62
(dp3252
sg71
g3237
sg64
(lp3253
g57
(g58
g59
NtRp3254
(dp3255
g62
(dp3256
g70
I4
ssg71
g3250
sg64
(lp3257
S''
asbasbasbag57
(g73
g59
NtRp3258
(dp3259
g62
(dp3260
sg71
g2361
sg64
(lp3261
g57
(g78
g59
NtRp3262
(dp3263
g62
(dp3264
g82
g83
ssg71
g3258
sg64
(lp3265
S'myfile4'
p3266
asbag57
(g78
g59
NtRp3267
(dp3268
g62
(dp3269
g89
g90
ssg71
g3258
sg64
(lp3270
S':'
asbag57
(g78
g59
NtRp3271
(dp3272
g62
(dp3273
sg71
g3258
sg64
(lp3274
g57
(g58
g59
NtRp3275
(dp3276
g62
(dp3277
g70
I4
ssg71
g3271
sg64
(lp3278
S''
asbasbasbag57
(g73
g59
NtRp3279
(dp3280
g62
(dp3281
sg71
g2361
sg64
(lp3282
g57
(g78
g59
NtRp3283
(dp3284
g62
(dp3285
g82
g83
ssg71
g3279
sg64
(lp3286
S'myfile4_path'
p3287
asbag57
(g78
g59
NtRp3288
(dp3289
g62
(dp3290
g89
g90
ssg71
g3279
sg64
(lp3291
S':'
asbag57
(g78
g59
NtRp3292
(dp3293
g62
(dp3294
sg71
g3279
sg64
(lp3295
g57
(g58
g59
NtRp3296
(dp3297
g62
(dp3298
g70
I4
ssg71
g3292
sg64
(lp3299
S''
asbasbasbag57
(g73
g59
NtRp3300
(dp3301
g62
(dp3302
sg71
g2361
sg64
(lp3303
g57
(g78
g59
NtRp3304
(dp3305
g62
(dp3306
g82
g83
ssg71
g3300
sg64
(lp3307
S'myfile5'
p3308
asbag57
(g78
g59
NtRp3309
(dp3310
g62
(dp3311
g89
g90
ssg71
g3300
sg64
(lp3312
S':'
asbag57
(g78
g59
NtRp3313
(dp3314
g62
(dp3315
sg71
g3300
sg64
(lp3316
g57
(g58
g59
NtRp3317
(dp3318
g62
(dp3319
g70
I4
ssg71
g3313
sg64
(lp3320
S''
asbasbasbag57
(g73
g59
NtRp3321
(dp3322
g62
(dp3323
sg71
g2361
sg64
(lp3324
g57
(g78
g59
NtRp3325
(dp3326
g62
(dp3327
g82
g83
ssg71
g3321
sg64
(lp3328
S'myfile5_path'
p3329
asbag57
(g78
g59
NtRp3330
(dp3331
g62
(dp3332
g89
g90
ssg71
g3321
sg64
(lp3333
S':'
asbag57
(g78
g59
NtRp3334
(dp3335
g62
(dp3336
sg71
g3321
sg64
(lp3337
g57
(g58
g59
NtRp3338
(dp3339
g62
(dp3340
g70
I4
ssg71
g3334
sg64
(lp3341
S''
asbasbasbag57
(g73
g59
NtRp3342
(dp3343
g62
(dp3344
sg71
g2361
sg64
(lp3345
g57
(g78
g59
NtRp3346
(dp3347
g62
(dp3348
g82
g83
ssg71
g3342
sg64
(lp3349
S'num_factors'
p3350
asbag57
(g78
g59
NtRp3351
(dp3352
g62
(dp3353
g89
g90
ssg71
g3342
sg64
(lp3354
S':'
asbag57
(g78
g59
NtRp3355
(dp3356
g62
(dp3357
sg71
g3342
sg64
(lp3358
g57
(g58
g59
NtRp3359
(dp3360
g62
(dp3361
g70
I4
ssg71
g3355
sg64
(lp3362
S'integer'
p3363
asbasbasbag57
(g73
g59
NtRp3364
(dp3365
g62
(dp3366
sg71
g2361
sg64
(lp3367
g57
(g78
g59
NtRp3368
(dp3369
g62
(dp3370
g82
g83
ssg71
g3364
sg64
(lp3371
S'num_features'
p3372
asbag57
(g78
g59
NtRp3373
(dp3374
g62
(dp3375
g89
g90
ssg71
g3364
sg64
(lp3376
S':'
asbag57
(g78
g59
NtRp3377
(dp3378
g62
(dp3379
sg71
g3364
sg64
(lp3380
g57
(g58
g59
NtRp3381
(dp3382
g62
(dp3383
g70
I4
ssg71
g3377
sg64
(lp3384
S'integer'
p3385
asbasbasbag57
(g73
g59
NtRp3386
(dp3387
g62
(dp3388
sg71
g2361
sg64
(lp3389
g57
(g78
g59
NtRp3390
(dp3391
g62
(dp3392
g82
g83
ssg71
g3386
sg64
(lp3393
S'pca_gene_num'
p3394
asbag57
(g78
g59
NtRp3395
(dp3396
g62
(dp3397
g89
g90
ssg71
g3386
sg64
(lp3398
S':'
asbag57
(g78
g59
NtRp3399
(dp3400
g62
(dp3401
sg71
g3386
sg64
(lp3402
g57
(g58
g59
NtRp3403
(dp3404
g62
(dp3405
g70
I4
ssg71
g3399
sg64
(lp3406
S'integer'
p3407
asbasbasbag57
(g73
g59
NtRp3408
(dp3409
g62
(dp3410
sg71
g2361
sg64
(lp3411
g57
(g78
g59
NtRp3412
(dp3413
g62
(dp3414
g82
g83
ssg71
g3408
sg64
(lp3415
S'platform'
p3416
asbag57
(g78
g59
NtRp3417
(dp3418
g62
(dp3419
g89
g90
ssg71
g3408
sg64
(lp3420
S':'
asbag57
(g78
g59
NtRp3421
(dp3422
g62
(dp3423
sg71
g3408
sg64
(lp3424
g57
(g58
g59
NtRp3425
(dp3426
g62
(dp3427
g70
I4
ssg71
g3421
sg64
(lp3428
S'unknown_platform'
p3429
asbasbasbag57
(g73
g59
NtRp3430
(dp3431
g62
(dp3432
sg71
g2361
sg64
(lp3433
g57
(g78
g59
NtRp3434
(dp3435
g62
(dp3436
g82
g83
ssg71
g3430
sg64
(lp3437
S'predataset'
p3438
asbag57
(g78
g59
NtRp3439
(dp3440
g62
(dp3441
g89
g90
ssg71
g3430
sg64
(lp3442
S':'
asbag57
(g78
g59
NtRp3443
(dp3444
g62
(dp3445
sg71
g3430
sg64
(lp3446
g57
(g58
g59
NtRp3447
(dp3448
g62
(dp3449
g70
I4
ssg71
g3443
sg64
(lp3450
S'no_predataset'
p3451
asbasbasbag57
(g73
g59
NtRp3452
(dp3453
g62
(dp3454
sg71
g2361
sg64
(lp3455
g57
(g78
g59
NtRp3456
(dp3457
g62
(dp3458
g82
g83
ssg71
g3452
sg64
(lp3459
S'preprocess'
p3460
asbag57
(g78
g59
NtRp3461
(dp3462
g62
(dp3463
g89
g90
ssg71
g3452
sg64
(lp3464
S':'
asbag57
(g78
g59
NtRp3465
(dp3466
g62
(dp3467
sg71
g3452
sg64
(lp3468
g57
(g58
g59
NtRp3469
(dp3470
g62
(dp3471
g70
I4
ssg71
g3465
sg64
(lp3472
S'unknown_preprocess'
p3473
asbasbasbag57
(g73
g59
NtRp3474
(dp3475
g62
(dp3476
sg71
g2361
sg64
(lp3477
g57
(g78
g59
NtRp3478
(dp3479
g62
(dp3480
g82
g83
ssg71
g3474
sg64
(lp3481
S'quantile'
p3482
asbag57
(g78
g59
NtRp3483
(dp3484
g62
(dp3485
g89
g90
ssg71
g3474
sg64
(lp3486
S':'
asbag57
(g78
g59
NtRp3487
(dp3488
g62
(dp3489
sg71
g3474
sg64
(lp3490
g57
(g58
g59
NtRp3491
(dp3492
g62
(dp3493
g70
I4
ssg71
g3487
sg64
(lp3494
S'no_quantile'
p3495
asbasbasbag57
(g73
g59
NtRp3496
(dp3497
g62
(dp3498
sg71
g2361
sg64
(lp3499
g57
(g78
g59
NtRp3500
(dp3501
g62
(dp3502
g82
g83
ssg71
g3496
sg64
(lp3503
S'rename_sample'
p3504
asbag57
(g78
g59
NtRp3505
(dp3506
g62
(dp3507
g89
g90
ssg71
g3496
sg64
(lp3508
S':'
asbag57
(g78
g59
NtRp3509
(dp3510
g62
(dp3511
sg71
g3496
sg64
(lp3512
g57
(g58
g59
NtRp3513
(dp3514
g62
(dp3515
g70
I4
ssg71
g3509
sg64
(lp3516
S'no_rename'
p3517
asbasbasbag57
(g73
g59
NtRp3518
(dp3519
g62
(dp3520
sg71
g2361
sg64
(lp3521
g57
(g78
g59
NtRp3522
(dp3523
g62
(dp3524
g82
g83
ssg71
g3518
sg64
(lp3525
S'shiftscale'
p3526
asbag57
(g78
g59
NtRp3527
(dp3528
g62
(dp3529
g89
g90
ssg71
g3518
sg64
(lp3530
S':'
asbag57
(g78
g59
NtRp3531
(dp3532
g62
(dp3533
sg71
g3518
sg64
(lp3534
g57
(g58
g59
NtRp3535
(dp3536
g62
(dp3537
g70
I4
ssg71
g3531
sg64
(lp3538
S'no_shiftscale'
p3539
asbasbasbag57
(g73
g59
NtRp3540
(dp3541
g62
(dp3542
sg71
g2361
sg64
(lp3543
g57
(g78
g59
NtRp3544
(dp3545
g62
(dp3546
g82
g83
ssg71
g3540
sg64
(lp3547
S'testcontents'
p3548
asbag57
(g78
g59
NtRp3549
(dp3550
g62
(dp3551
g89
g90
ssg71
g3540
sg64
(lp3552
S':'
asbag57
(g78
g59
NtRp3553
(dp3554
g62
(dp3555
sg71
g3540
sg64
(lp3556
g57
(g58
g59
NtRp3557
(dp3558
g62
(dp3559
g70
I4
ssg71
g3553
sg64
(lp3560
S'list'
p3561
asbasbasbag57
(g73
g59
NtRp3562
(dp3563
g62
(dp3564
sg71
g2361
sg64
(lp3565
g57
(g78
g59
NtRp3566
(dp3567
g62
(dp3568
g82
g83
ssg71
g3562
sg64
(lp3569
S'traincontents'
p3570
asbag57
(g78
g59
NtRp3571
(dp3572
g62
(dp3573
g89
g90
ssg71
g3562
sg64
(lp3574
S':'
asbag57
(g78
g59
NtRp3575
(dp3576
g62
(dp3577
sg71
g3562
sg64
(lp3578
g57
(g58
g59
NtRp3579
(dp3580
g62
(dp3581
g70
I4
ssg71
g3575
sg64
(lp3582
S'list'
p3583
asbasbasbag57
(g73
g59
NtRp3584
(dp3585
g62
(dp3586
sg71
g2361
sg64
(lp3587
g57
(g78
g59
NtRp3588
(dp3589
g62
(dp3590
g82
g83
ssg71
g3584
sg64
(lp3591
S'unique_genes'
p3592
asbag57
(g78
g59
NtRp3593
(dp3594
g62
(dp3595
g89
g90
ssg71
g3584
sg64
(lp3596
S':'
asbag57
(g78
g59
NtRp3597
(dp3598
g62
(dp3599
sg71
g3584
sg64
(lp3600
g57
(g58
g59
NtRp3601
(dp3602
g62
(dp3603
g70
I4
ssg71
g3597
sg64
(lp3604
S'no_unique_genes'
p3605
asbasbasbasbasbasbasbag57
(g73
g59
NtRp3606
(dp3607
g62
(dp3608
sg71
g67
sg64
(lp3609
g57
(g78
g59
NtRp3610
(dp3611
g62
(dp3612
g82
g83
ssg71
g3606
sg64
(lp3613
S'raw_args'
p3614
asbag57
(g78
g59
NtRp3615
(dp3616
g62
(dp3617
g89
g90
ssg71
g3606
sg64
(lp3618
S':'
asbag57
(g78
g59
NtRp3619
(dp3620
g62
(dp3621
sg71
g3606
sg64
(lp3622
g57
(g58
g59
NtRp3623
(dp3624
g62
(dp3625
g70
I5
ssg71
g3619
sg64
(lp3626
S''
asbasbasbag57
(g73
g59
NtRp3627
(dp3628
g62
(dp3629
sg71
g67
sg64
(lp3630
g57
(g78
g59
NtRp3631
(dp3632
g62
(dp3633
g82
g83
ssg71
g3627
sg64
(lp3634
S'raw_extension'
p3635
asbag57
(g78
g59
NtRp3636
(dp3637
g62
(dp3638
g89
g90
ssg71
g3627
sg64
(lp3639
S':'
asbag57
(g78
g59
NtRp3640
(dp3641
g62
(dp3642
sg71
g3627
sg64
(lp3643
g57
(g58
g59
NtRp3644
(dp3645
g62
(dp3646
g70
I5
ssg71
g3640
sg64
(lp3647
S'None'
p3648
asbasbasbag57
(g73
g59
NtRp3649
(dp3650
g62
(dp3651
sg71
g67
sg64
(lp3652
g57
(g78
g59
NtRp3653
(dp3654
g62
(dp3655
g82
g83
ssg71
g3649
sg64
(lp3656
S'url'
p3657
asbag57
(g78
g59
NtRp3658
(dp3659
g62
(dp3660
g89
g90
ssg71
g3649
sg64
(lp3661
S':'
asbag57
(g78
g59
NtRp3662
(dp3663
g62
(dp3664
sg71
g3649
sg64
(lp3665
g57
(g58
g59
NtRp3666
(dp3667
g62
(dp3668
g70
I5
ssg71
g3662
sg64
(lp3669
g1258
asbasbasbag57
(g73
g59
NtRp3670
(dp3671
g62
(dp3672
sg71
g67
sg64
(lp3673
g57
(g78
g59
NtRp3674
(dp3675
g62
(dp3676
g82
g83
ssg71
g3670
sg64
(lp3677
S'utcnow'
p3678
asbag57
(g78
g59
NtRp3679
(dp3680
g62
(dp3681
g89
g90
ssg71
g3670
sg64
(lp3682
S':'
asbag57
(g78
g59
NtRp3683
(dp3684
g62
(dp3685
sg71
g3670
sg64
(lp3686
g57
(g58
g59
NtRp3687
(dp3688
g62
(dp3689
g70
I5
ssg71
g3683
sg64
(lp3690
S'datetime.datetime(2013, 2, 13, 20, 19, 46, 682089)'
p3691
asbasbasbag57
(g73
g59
NtRp3692
(dp3693
g62
(dp3694
sg71
g67
sg64
(lp3695
g57
(g78
g59
NtRp3696
(dp3697
g62
(dp3698
g82
g83
ssg71
g3692
sg64
(lp3699
S'uuid'
p3700
asbag57
(g78
g59
NtRp3701
(dp3702
g62
(dp3703
g89
g90
ssg71
g3692
sg64
(lp3704
S':'
asbag57
(g78
g59
NtRp3705
(dp3706
g62
(dp3707
sg71
g3692
sg64
(lp3708
g57
(g58
g59
NtRp3709
(dp3710
g62
(dp3711
g70
I5
ssg71
g3705
sg64
(lp3712
S'Betsy/127.0.0.1.2013-02-13.14-19-46.a962d12f-9f50-4bd1-ac00-dc018f87f38f'
p3713
asbasbasbag57
(g73
g59
NtRp3714
(dp3715
g62
(dp3716
sg71
g67
sg64
(lp3717
g57
(g78
g59
NtRp3718
(dp3719
g62
(dp3720
g82
g83
ssg71
g3714
sg64
(lp3721
S'vars'
p3722
asbag57
(g78
g59
NtRp3723
(dp3724
g62
(dp3725
g89
g90
ssg71
g3714
sg64
(lp3726
S':'
asbag57
(g78
g59
NtRp3727
(dp3728
g62
(dp3729
sg71
g3714
sg64
(lp3730
g57
(g58
g59
NtRp3731
(dp3732
g62
(dp3733
g70
I5
ssg71
g3727
sg64
(lp3734
g57
(g66
g59
NtRp3735
(dp3736
g62
(dp3737
g70
I4
ssg71
Nsg64
(lp3738
g57
(g73
g59
NtRp3739
(dp3740
g62
(dp3741
sg71
g3735
sg64
(lp3742
g57
(g78
g59
NtRp3743
(dp3744
g62
(dp3745
g82
g83
ssg71
g3739
sg64
(lp3746
g2373
asbag57
(g78
g59
NtRp3747
(dp3748
g62
(dp3749
g89
g90
ssg71
g3739
sg64
(lp3750
S':'
asbag57
(g78
g59
NtRp3751
(dp3752
g62
(dp3753
sg71
g3739
sg64
(lp3754
g57
(g58
g59
NtRp3755
(dp3756
g62
(dp3757
g70
I4
ssg71
g3751
sg64
(lp3758
g2386
asbasbasbag57
(g73
g59
NtRp3759
(dp3760
g62
(dp3761
sg71
g3735
sg64
(lp3762
g57
(g78
g59
NtRp3763
(dp3764
g62
(dp3765
g82
g83
ssg71
g3759
sg64
(lp3766
g2395
asbag57
(g78
g59
NtRp3767
(dp3768
g62
(dp3769
g89
g90
ssg71
g3759
sg64
(lp3770
S':'
asbag57
(g78
g59
NtRp3771
(dp3772
g62
(dp3773
sg71
g3759
sg64
(lp3774
g57
(g58
g59
NtRp3775
(dp3776
g62
(dp3777
g70
I4
ssg71
g3771
sg64
(lp3778
g2408
asbasbasbag57
(g73
g59
NtRp3779
(dp3780
g62
(dp3781
sg71
g3735
sg64
(lp3782
g57
(g78
g59
NtRp3783
(dp3784
g62
(dp3785
g82
g83
ssg71
g3779
sg64
(lp3786
g2417
asbag57
(g78
g59
NtRp3787
(dp3788
g62
(dp3789
g89
g90
ssg71
g3779
sg64
(lp3790
S':'
asbag57
(g78
g59
NtRp3791
(dp3792
g62
(dp3793
sg71
g3779
sg64
(lp3794
g57
(g58
g59
NtRp3795
(dp3796
g62
(dp3797
g70
I4
ssg71
g3791
sg64
(lp3798
g2430
asbasbasbag57
(g73
g59
NtRp3799
(dp3800
g62
(dp3801
sg71
g3735
sg64
(lp3802
g57
(g78
g59
NtRp3803
(dp3804
g62
(dp3805
g82
g83
ssg71
g3799
sg64
(lp3806
g2439
asbag57
(g78
g59
NtRp3807
(dp3808
g62
(dp3809
g89
g90
ssg71
g3799
sg64
(lp3810
S':'
asbag57
(g78
g59
NtRp3811
(dp3812
g62
(dp3813
sg71
g3799
sg64
(lp3814
g57
(g58
g59
NtRp3815
(dp3816
g62
(dp3817
g70
I4
ssg71
g3811
sg64
(lp3818
g2452
asbasbasbag57
(g73
g59
NtRp3819
(dp3820
g62
(dp3821
sg71
g3735
sg64
(lp3822
g57
(g78
g59
NtRp3823
(dp3824
g62
(dp3825
g82
g83
ssg71
g3819
sg64
(lp3826
g2461
asbag57
(g78
g59
NtRp3827
(dp3828
g62
(dp3829
g89
g90
ssg71
g3819
sg64
(lp3830
S':'
asbag57
(g78
g59
NtRp3831
(dp3832
g62
(dp3833
sg71
g3819
sg64
(lp3834
g57
(g58
g59
NtRp3835
(dp3836
g62
(dp3837
g70
I4
ssg71
g3831
sg64
(lp3838
g2474
asbasbasbag57
(g73
g59
NtRp3839
(dp3840
g62
(dp3841
sg71
g3735
sg64
(lp3842
g57
(g78
g59
NtRp3843
(dp3844
g62
(dp3845
g82
g83
ssg71
g3839
sg64
(lp3846
g2483
asbag57
(g78
g59
NtRp3847
(dp3848
g62
(dp3849
g89
g90
ssg71
g3839
sg64
(lp3850
S':'
asbag57
(g78
g59
NtRp3851
(dp3852
g62
(dp3853
sg71
g3839
sg64
(lp3854
g57
(g58
g59
NtRp3855
(dp3856
g62
(dp3857
g70
I4
ssg71
g3851
sg64
(lp3858
g2496
asbasbasbag57
(g73
g59
NtRp3859
(dp3860
g62
(dp3861
sg71
g3735
sg64
(lp3862
g57
(g78
g59
NtRp3863
(dp3864
g62
(dp3865
g82
g83
ssg71
g3859
sg64
(lp3866
g2505
asbag57
(g78
g59
NtRp3867
(dp3868
g62
(dp3869
g89
g90
ssg71
g3859
sg64
(lp3870
S':'
asbag57
(g78
g59
NtRp3871
(dp3872
g62
(dp3873
sg71
g3859
sg64
(lp3874
g57
(g58
g59
NtRp3875
(dp3876
g62
(dp3877
g70
I4
ssg71
g3871
sg64
(lp3878
g2518
asbasbasbag57
(g73
g59
NtRp3879
(dp3880
g62
(dp3881
sg71
g3735
sg64
(lp3882
g57
(g78
g59
NtRp3883
(dp3884
g62
(dp3885
g82
g83
ssg71
g3879
sg64
(lp3886
g2527
asbag57
(g78
g59
NtRp3887
(dp3888
g62
(dp3889
g89
g90
ssg71
g3879
sg64
(lp3890
S':'
asbag57
(g78
g59
NtRp3891
(dp3892
g62
(dp3893
sg71
g3879
sg64
(lp3894
g57
(g58
g59
NtRp3895
(dp3896
g62
(dp3897
g70
I4
ssg71
g3891
sg64
(lp3898
g2540
asbasbasbag57
(g73
g59
NtRp3899
(dp3900
g62
(dp3901
sg71
g3735
sg64
(lp3902
g57
(g78
g59
NtRp3903
(dp3904
g62
(dp3905
g82
g83
ssg71
g3899
sg64
(lp3906
g2549
asbag57
(g78
g59
NtRp3907
(dp3908
g62
(dp3909
g89
g90
ssg71
g3899
sg64
(lp3910
S':'
asbag57
(g78
g59
NtRp3911
(dp3912
g62
(dp3913
sg71
g3899
sg64
(lp3914
g57
(g58
g59
NtRp3915
(dp3916
g62
(dp3917
g70
I4
ssg71
g3911
sg64
(lp3918
g2562
asbasbasbag57
(g73
g59
NtRp3919
(dp3920
g62
(dp3921
sg71
g3735
sg64
(lp3922
g57
(g78
g59
NtRp3923
(dp3924
g62
(dp3925
g82
g83
ssg71
g3919
sg64
(lp3926
g2571
asbag57
(g78
g59
NtRp3927
(dp3928
g62
(dp3929
g89
g90
ssg71
g3919
sg64
(lp3930
S':'
asbag57
(g78
g59
NtRp3931
(dp3932
g62
(dp3933
sg71
g3919
sg64
(lp3934
g57
(g58
g59
NtRp3935
(dp3936
g62
(dp3937
g70
I4
ssg71
g3931
sg64
(lp3938
g2584
asbasbasbag57
(g73
g59
NtRp3939
(dp3940
g62
(dp3941
sg71
g3735
sg64
(lp3942
g57
(g78
g59
NtRp3943
(dp3944
g62
(dp3945
g82
g83
ssg71
g3939
sg64
(lp3946
g2593
asbag57
(g78
g59
NtRp3947
(dp3948
g62
(dp3949
g89
g90
ssg71
g3939
sg64
(lp3950
S':'
asbag57
(g78
g59
NtRp3951
(dp3952
g62
(dp3953
sg71
g3939
sg64
(lp3954
g57
(g58
g59
NtRp3955
(dp3956
g62
(dp3957
g70
I4
ssg71
g3951
sg64
(lp3958
g2606
asbasbasbag57
(g73
g59
NtRp3959
(dp3960
g62
(dp3961
sg71
g3735
sg64
(lp3962
g57
(g78
g59
NtRp3963
(dp3964
g62
(dp3965
g82
g83
ssg71
g3959
sg64
(lp3966
g2615
asbag57
(g78
g59
NtRp3967
(dp3968
g62
(dp3969
g89
g90
ssg71
g3959
sg64
(lp3970
S':'
asbag57
(g78
g59
NtRp3971
(dp3972
g62
(dp3973
sg71
g3959
sg64
(lp3974
g57
(g58
g59
NtRp3975
(dp3976
g62
(dp3977
g70
I4
ssg71
g3971
sg64
(lp3978
g2628
asbasbasbag57
(g73
g59
NtRp3979
(dp3980
g62
(dp3981
sg71
g3735
sg64
(lp3982
g57
(g78
g59
NtRp3983
(dp3984
g62
(dp3985
g82
g83
ssg71
g3979
sg64
(lp3986
g2637
asbag57
(g78
g59
NtRp3987
(dp3988
g62
(dp3989
g89
g90
ssg71
g3979
sg64
(lp3990
S':'
asbag57
(g78
g59
NtRp3991
(dp3992
g62
(dp3993
sg71
g3979
sg64
(lp3994
g57
(g58
g59
NtRp3995
(dp3996
g62
(dp3997
g70
I4
ssg71
g3991
sg64
(lp3998
g2650
asbasbasbag57
(g73
g59
NtRp3999
(dp4000
g62
(dp4001
sg71
g3735
sg64
(lp4002
g57
(g78
g59
NtRp4003
(dp4004
g62
(dp4005
g82
g83
ssg71
g3999
sg64
(lp4006
g2659
asbag57
(g78
g59
NtRp4007
(dp4008
g62
(dp4009
g89
g90
ssg71
g3999
sg64
(lp4010
S':'
asbag57
(g78
g59
NtRp4011
(dp4012
g62
(dp4013
sg71
g3999
sg64
(lp4014
g57
(g58
g59
NtRp4015
(dp4016
g62
(dp4017
g70
I4
ssg71
g4011
sg64
(lp4018
g2672
asbasbasbag57
(g73
g59
NtRp4019
(dp4020
g62
(dp4021
sg71
g3735
sg64
(lp4022
g57
(g78
g59
NtRp4023
(dp4024
g62
(dp4025
g82
g83
ssg71
g4019
sg64
(lp4026
g2681
asbag57
(g78
g59
NtRp4027
(dp4028
g62
(dp4029
g89
g90
ssg71
g4019
sg64
(lp4030
S':'
asbag57
(g78
g59
NtRp4031
(dp4032
g62
(dp4033
sg71
g4019
sg64
(lp4034
g57
(g58
g59
NtRp4035
(dp4036
g62
(dp4037
g70
I4
ssg71
g4031
sg64
(lp4038
g2694
asbasbasbag57
(g73
g59
NtRp4039
(dp4040
g62
(dp4041
sg71
g3735
sg64
(lp4042
g57
(g78
g59
NtRp4043
(dp4044
g62
(dp4045
g82
g83
ssg71
g4039
sg64
(lp4046
g2703
asbag57
(g78
g59
NtRp4047
(dp4048
g62
(dp4049
g89
g90
ssg71
g4039
sg64
(lp4050
S':'
asbag57
(g78
g59
NtRp4051
(dp4052
g62
(dp4053
sg71
g4039
sg64
(lp4054
g57
(g58
g59
NtRp4055
(dp4056
g62
(dp4057
g70
I4
ssg71
g4051
sg64
(lp4058
g2716
asbasbasbag57
(g73
g59
NtRp4059
(dp4060
g62
(dp4061
sg71
g3735
sg64
(lp4062
g57
(g78
g59
NtRp4063
(dp4064
g62
(dp4065
g82
g83
ssg71
g4059
sg64
(lp4066
g2725
asbag57
(g78
g59
NtRp4067
(dp4068
g62
(dp4069
g89
g90
ssg71
g4059
sg64
(lp4070
S':'
asbag57
(g78
g59
NtRp4071
(dp4072
g62
(dp4073
sg71
g4059
sg64
(lp4074
g57
(g58
g59
NtRp4075
(dp4076
g62
(dp4077
g70
I4
ssg71
g4071
sg64
(lp4078
S'2'
asbasbasbag57
(g73
g59
NtRp4079
(dp4080
g62
(dp4081
sg71
g3735
sg64
(lp4082
g57
(g78
g59
NtRp4083
(dp4084
g62
(dp4085
g82
g83
ssg71
g4079
sg64
(lp4086
g2746
asbag57
(g78
g59
NtRp4087
(dp4088
g62
(dp4089
g89
g90
ssg71
g4079
sg64
(lp4090
S':'
asbag57
(g78
g59
NtRp4091
(dp4092
g62
(dp4093
sg71
g4079
sg64
(lp4094
g57
(g58
g59
NtRp4095
(dp4096
g62
(dp4097
g70
I4
ssg71
g4091
sg64
(lp4098
g2759
asbasbasbag57
(g73
g59
NtRp4099
(dp4100
g62
(dp4101
sg71
g3735
sg64
(lp4102
g57
(g78
g59
NtRp4103
(dp4104
g62
(dp4105
g82
g83
ssg71
g4099
sg64
(lp4106
g2768
asbag57
(g78
g59
NtRp4107
(dp4108
g62
(dp4109
g89
g90
ssg71
g4099
sg64
(lp4110
S':'
asbag57
(g78
g59
NtRp4111
(dp4112
g62
(dp4113
sg71
g4099
sg64
(lp4114
g57
(g58
g59
NtRp4115
(dp4116
g62
(dp4117
g70
I4
ssg71
g4111
sg64
(lp4118
g2781
asbasbasbag57
(g73
g59
NtRp4119
(dp4120
g62
(dp4121
sg71
g3735
sg64
(lp4122
g57
(g78
g59
NtRp4123
(dp4124
g62
(dp4125
g82
g83
ssg71
g4119
sg64
(lp4126
g2790
asbag57
(g78
g59
NtRp4127
(dp4128
g62
(dp4129
g89
g90
ssg71
g4119
sg64
(lp4130
S':'
asbag57
(g78
g59
NtRp4131
(dp4132
g62
(dp4133
sg71
g4119
sg64
(lp4134
g57
(g58
g59
NtRp4135
(dp4136
g62
(dp4137
g70
I4
ssg71
g4131
sg64
(lp4138
g2803
asbasbasbag57
(g73
g59
NtRp4139
(dp4140
g62
(dp4141
sg71
g3735
sg64
(lp4142
g57
(g78
g59
NtRp4143
(dp4144
g62
(dp4145
g82
g83
ssg71
g4139
sg64
(lp4146
g2812
asbag57
(g78
g59
NtRp4147
(dp4148
g62
(dp4149
g89
g90
ssg71
g4139
sg64
(lp4150
S':'
asbag57
(g78
g59
NtRp4151
(dp4152
g62
(dp4153
sg71
g4139
sg64
(lp4154
g57
(g58
g59
NtRp4155
(dp4156
g62
(dp4157
g70
I4
ssg71
g4151
sg64
(lp4158
g2825
asbasbasbag57
(g73
g59
NtRp4159
(dp4160
g62
(dp4161
sg71
g3735
sg64
(lp4162
g57
(g78
g59
NtRp4163
(dp4164
g62
(dp4165
g82
g83
ssg71
g4159
sg64
(lp4166
g2834
asbag57
(g78
g59
NtRp4167
(dp4168
g62
(dp4169
g89
g90
ssg71
g4159
sg64
(lp4170
S':'
asbag57
(g78
g59
NtRp4171
(dp4172
g62
(dp4173
sg71
g4159
sg64
(lp4174
g57
(g58
g59
NtRp4175
(dp4176
g62
(dp4177
g70
I4
ssg71
g4171
sg64
(lp4178
g2847
asbasbasbag57
(g73
g59
NtRp4179
(dp4180
g62
(dp4181
sg71
g3735
sg64
(lp4182
g57
(g78
g59
NtRp4183
(dp4184
g62
(dp4185
g82
g83
ssg71
g4179
sg64
(lp4186
g2856
asbag57
(g78
g59
NtRp4187
(dp4188
g62
(dp4189
g89
g90
ssg71
g4179
sg64
(lp4190
S':'
asbag57
(g78
g59
NtRp4191
(dp4192
g62
(dp4193
sg71
g4179
sg64
(lp4194
g57
(g58
g59
NtRp4195
(dp4196
g62
(dp4197
g70
I4
ssg71
g4191
sg64
(lp4198
g2869
asbasbasbag57
(g73
g59
NtRp4199
(dp4200
g62
(dp4201
sg71
g3735
sg64
(lp4202
g57
(g78
g59
NtRp4203
(dp4204
g62
(dp4205
g82
g83
ssg71
g4199
sg64
(lp4206
g2878
asbag57
(g78
g59
NtRp4207
(dp4208
g62
(dp4209
g89
g90
ssg71
g4199
sg64
(lp4210
S':'
asbag57
(g78
g59
NtRp4211
(dp4212
g62
(dp4213
sg71
g4199
sg64
(lp4214
g57
(g58
g59
NtRp4215
(dp4216
g62
(dp4217
g70
I4
ssg71
g4211
sg64
(lp4218
g2891
asbasbasbag57
(g73
g59
NtRp4219
(dp4220
g62
(dp4221
sg71
g3735
sg64
(lp4222
g57
(g78
g59
NtRp4223
(dp4224
g62
(dp4225
g82
g83
ssg71
g4219
sg64
(lp4226
g2900
asbag57
(g78
g59
NtRp4227
(dp4228
g62
(dp4229
g89
g90
ssg71
g4219
sg64
(lp4230
S':'
asbag57
(g78
g59
NtRp4231
(dp4232
g62
(dp4233
sg71
g4219
sg64
(lp4234
g57
(g58
g59
NtRp4235
(dp4236
g62
(dp4237
g70
I4
ssg71
g4231
sg64
(lp4238
g2913
asbasbasbag57
(g73
g59
NtRp4239
(dp4240
g62
(dp4241
sg71
g3735
sg64
(lp4242
g57
(g78
g59
NtRp4243
(dp4244
g62
(dp4245
g82
g83
ssg71
g4239
sg64
(lp4246
g2922
asbag57
(g78
g59
NtRp4247
(dp4248
g62
(dp4249
g89
g90
ssg71
g4239
sg64
(lp4250
S':'
asbag57
(g78
g59
NtRp4251
(dp4252
g62
(dp4253
sg71
g4239
sg64
(lp4254
g57
(g58
g59
NtRp4255
(dp4256
g62
(dp4257
g70
I4
ssg71
g4251
sg64
(lp4258
g2935
asbasbasbag57
(g73
g59
NtRp4259
(dp4260
g62
(dp4261
sg71
g3735
sg64
(lp4262
g57
(g78
g59
NtRp4263
(dp4264
g62
(dp4265
g82
g83
ssg71
g4259
sg64
(lp4266
g2944
asbag57
(g78
g59
NtRp4267
(dp4268
g62
(dp4269
g89
g90
ssg71
g4259
sg64
(lp4270
S':'
asbag57
(g78
g59
NtRp4271
(dp4272
g62
(dp4273
sg71
g4259
sg64
(lp4274
g57
(g58
g59
NtRp4275
(dp4276
g62
(dp4277
g70
I4
ssg71
g4271
sg64
(lp4278
g2957
asbasbasbag57
(g73
g59
NtRp4279
(dp4280
g62
(dp4281
sg71
g3735
sg64
(lp4282
g57
(g78
g59
NtRp4283
(dp4284
g62
(dp4285
g82
g83
ssg71
g4279
sg64
(lp4286
g2966
asbag57
(g78
g59
NtRp4287
(dp4288
g62
(dp4289
g89
g90
ssg71
g4279
sg64
(lp4290
S':'
asbag57
(g78
g59
NtRp4291
(dp4292
g62
(dp4293
sg71
g4279
sg64
(lp4294
g57
(g58
g59
NtRp4295
(dp4296
g62
(dp4297
g70
I4
ssg71
g4291
sg64
(lp4298
g2979
asbasbasbag57
(g73
g59
NtRp4299
(dp4300
g62
(dp4301
sg71
g3735
sg64
(lp4302
g57
(g78
g59
NtRp4303
(dp4304
g62
(dp4305
g82
g83
ssg71
g4299
sg64
(lp4306
g2988
asbag57
(g78
g59
NtRp4307
(dp4308
g62
(dp4309
g89
g90
ssg71
g4299
sg64
(lp4310
S':'
asbag57
(g78
g59
NtRp4311
(dp4312
g62
(dp4313
sg71
g4299
sg64
(lp4314
g57
(g58
g59
NtRp4315
(dp4316
g62
(dp4317
g70
I4
ssg71
g4311
sg64
(lp4318
g3001
asbasbasbag57
(g73
g59
NtRp4319
(dp4320
g62
(dp4321
sg71
g3735
sg64
(lp4322
g57
(g78
g59
NtRp4323
(dp4324
g62
(dp4325
g82
g83
ssg71
g4319
sg64
(lp4326
g3010
asbag57
(g78
g59
NtRp4327
(dp4328
g62
(dp4329
g89
g90
ssg71
g4319
sg64
(lp4330
S':'
asbag57
(g78
g59
NtRp4331
(dp4332
g62
(dp4333
sg71
g4319
sg64
(lp4334
g57
(g58
g59
NtRp4335
(dp4336
g62
(dp4337
g70
I4
ssg71
g4331
sg64
(lp4338
g3023
asbasbasbag57
(g73
g59
NtRp4339
(dp4340
g62
(dp4341
sg71
g3735
sg64
(lp4342
g57
(g78
g59
NtRp4343
(dp4344
g62
(dp4345
g82
g83
ssg71
g4339
sg64
(lp4346
g3032
asbag57
(g78
g59
NtRp4347
(dp4348
g62
(dp4349
g89
g90
ssg71
g4339
sg64
(lp4350
S':'
asbag57
(g78
g59
NtRp4351
(dp4352
g62
(dp4353
sg71
g4339
sg64
(lp4354
g57
(g58
g59
NtRp4355
(dp4356
g62
(dp4357
g70
I4
ssg71
g4351
sg64
(lp4358
g3045
asbasbasbag57
(g73
g59
NtRp4359
(dp4360
g62
(dp4361
sg71
g3735
sg64
(lp4362
g57
(g78
g59
NtRp4363
(dp4364
g62
(dp4365
g82
g83
ssg71
g4359
sg64
(lp4366
g3054
asbag57
(g78
g59
NtRp4367
(dp4368
g62
(dp4369
g89
g90
ssg71
g4359
sg64
(lp4370
S':'
asbag57
(g78
g59
NtRp4371
(dp4372
g62
(dp4373
sg71
g4359
sg64
(lp4374
g57
(g58
g59
NtRp4375
(dp4376
g62
(dp4377
g70
I4
ssg71
g4371
sg64
(lp4378
g3067
asbasbasbag57
(g73
g59
NtRp4379
(dp4380
g62
(dp4381
sg71
g3735
sg64
(lp4382
g57
(g78
g59
NtRp4383
(dp4384
g62
(dp4385
g82
g83
ssg71
g4379
sg64
(lp4386
g3076
asbag57
(g78
g59
NtRp4387
(dp4388
g62
(dp4389
g89
g90
ssg71
g4379
sg64
(lp4390
S':'
asbag57
(g78
g59
NtRp4391
(dp4392
g62
(dp4393
sg71
g4379
sg64
(lp4394
g57
(g58
g59
NtRp4395
(dp4396
g62
(dp4397
g70
I4
ssg71
g4391
sg64
(lp4398
g3089
asbasbasbag57
(g73
g59
NtRp4399
(dp4400
g62
(dp4401
sg71
g3735
sg64
(lp4402
g57
(g78
g59
NtRp4403
(dp4404
g62
(dp4405
g82
g83
ssg71
g4399
sg64
(lp4406
g3098
asbag57
(g78
g59
NtRp4407
(dp4408
g62
(dp4409
g89
g90
ssg71
g4399
sg64
(lp4410
S':'
asbag57
(g78
g59
NtRp4411
(dp4412
g62
(dp4413
sg71
g4399
sg64
(lp4414
g57
(g58
g59
NtRp4415
(dp4416
g62
(dp4417
g70
I4
ssg71
g4411
sg64
(lp4418
S''
asbasbasbag57
(g73
g59
NtRp4419
(dp4420
g62
(dp4421
sg71
g3735
sg64
(lp4422
g57
(g78
g59
NtRp4423
(dp4424
g62
(dp4425
g82
g83
ssg71
g4419
sg64
(lp4426
g3119
asbag57
(g78
g59
NtRp4427
(dp4428
g62
(dp4429
g89
g90
ssg71
g4419
sg64
(lp4430
S':'
asbag57
(g78
g59
NtRp4431
(dp4432
g62
(dp4433
sg71
g4419
sg64
(lp4434
g57
(g58
g59
NtRp4435
(dp4436
g62
(dp4437
g70
I4
ssg71
g4431
sg64
(lp4438
S''
asbasbasbag57
(g73
g59
NtRp4439
(dp4440
g62
(dp4441
sg71
g3735
sg64
(lp4442
g57
(g78
g59
NtRp4443
(dp4444
g62
(dp4445
g82
g83
ssg71
g4439
sg64
(lp4446
g3140
asbag57
(g78
g59
NtRp4447
(dp4448
g62
(dp4449
g89
g90
ssg71
g4439
sg64
(lp4450
S':'
asbag57
(g78
g59
NtRp4451
(dp4452
g62
(dp4453
sg71
g4439
sg64
(lp4454
g57
(g58
g59
NtRp4455
(dp4456
g62
(dp4457
g70
I4
ssg71
g4451
sg64
(lp4458
S''
asbasbasbag57
(g73
g59
NtRp4459
(dp4460
g62
(dp4461
sg71
g3735
sg64
(lp4462
g57
(g78
g59
NtRp4463
(dp4464
g62
(dp4465
g82
g83
ssg71
g4459
sg64
(lp4466
g3161
asbag57
(g78
g59
NtRp4467
(dp4468
g62
(dp4469
g89
g90
ssg71
g4459
sg64
(lp4470
S':'
asbag57
(g78
g59
NtRp4471
(dp4472
g62
(dp4473
sg71
g4459
sg64
(lp4474
g57
(g58
g59
NtRp4475
(dp4476
g62
(dp4477
g70
I4
ssg71
g4471
sg64
(lp4478
S''
asbasbasbag57
(g73
g59
NtRp4479
(dp4480
g62
(dp4481
sg71
g3735
sg64
(lp4482
g57
(g78
g59
NtRp4483
(dp4484
g62
(dp4485
g82
g83
ssg71
g4479
sg64
(lp4486
g3182
asbag57
(g78
g59
NtRp4487
(dp4488
g62
(dp4489
g89
g90
ssg71
g4479
sg64
(lp4490
S':'
asbag57
(g78
g59
NtRp4491
(dp4492
g62
(dp4493
sg71
g4479
sg64
(lp4494
g57
(g58
g59
NtRp4495
(dp4496
g62
(dp4497
g70
I4
ssg71
g4491
sg64
(lp4498
S''
asbasbasbag57
(g73
g59
NtRp4499
(dp4500
g62
(dp4501
sg71
g3735
sg64
(lp4502
g57
(g78
g59
NtRp4503
(dp4504
g62
(dp4505
g82
g83
ssg71
g4499
sg64
(lp4506
g3203
asbag57
(g78
g59
NtRp4507
(dp4508
g62
(dp4509
g89
g90
ssg71
g4499
sg64
(lp4510
S':'
asbag57
(g78
g59
NtRp4511
(dp4512
g62
(dp4513
sg71
g4499
sg64
(lp4514
g57
(g58
g59
NtRp4515
(dp4516
g62
(dp4517
g70
I4
ssg71
g4511
sg64
(lp4518
S''
asbasbasbag57
(g73
g59
NtRp4519
(dp4520
g62
(dp4521
sg71
g3735
sg64
(lp4522
g57
(g78
g59
NtRp4523
(dp4524
g62
(dp4525
g82
g83
ssg71
g4519
sg64
(lp4526
g3224
asbag57
(g78
g59
NtRp4527
(dp4528
g62
(dp4529
g89
g90
ssg71
g4519
sg64
(lp4530
S':'
asbag57
(g78
g59
NtRp4531
(dp4532
g62
(dp4533
sg71
g4519
sg64
(lp4534
g57
(g58
g59
NtRp4535
(dp4536
g62
(dp4537
g70
I4
ssg71
g4531
sg64
(lp4538
S''
asbasbasbag57
(g73
g59
NtRp4539
(dp4540
g62
(dp4541
sg71
g3735
sg64
(lp4542
g57
(g78
g59
NtRp4543
(dp4544
g62
(dp4545
g82
g83
ssg71
g4539
sg64
(lp4546
g3245
asbag57
(g78
g59
NtRp4547
(dp4548
g62
(dp4549
g89
g90
ssg71
g4539
sg64
(lp4550
S':'
asbag57
(g78
g59
NtRp4551
(dp4552
g62
(dp4553
sg71
g4539
sg64
(lp4554
g57
(g58
g59
NtRp4555
(dp4556
g62
(dp4557
g70
I4
ssg71
g4551
sg64
(lp4558
S''
asbasbasbag57
(g73
g59
NtRp4559
(dp4560
g62
(dp4561
sg71
g3735
sg64
(lp4562
g57
(g78
g59
NtRp4563
(dp4564
g62
(dp4565
g82
g83
ssg71
g4559
sg64
(lp4566
g3266
asbag57
(g78
g59
NtRp4567
(dp4568
g62
(dp4569
g89
g90
ssg71
g4559
sg64
(lp4570
S':'
asbag57
(g78
g59
NtRp4571
(dp4572
g62
(dp4573
sg71
g4559
sg64
(lp4574
g57
(g58
g59
NtRp4575
(dp4576
g62
(dp4577
g70
I4
ssg71
g4571
sg64
(lp4578
S''
asbasbasbag57
(g73
g59
NtRp4579
(dp4580
g62
(dp4581
sg71
g3735
sg64
(lp4582
g57
(g78
g59
NtRp4583
(dp4584
g62
(dp4585
g82
g83
ssg71
g4579
sg64
(lp4586
g3287
asbag57
(g78
g59
NtRp4587
(dp4588
g62
(dp4589
g89
g90
ssg71
g4579
sg64
(lp4590
S':'
asbag57
(g78
g59
NtRp4591
(dp4592
g62
(dp4593
sg71
g4579
sg64
(lp4594
g57
(g58
g59
NtRp4595
(dp4596
g62
(dp4597
g70
I4
ssg71
g4591
sg64
(lp4598
S''
asbasbasbag57
(g73
g59
NtRp4599
(dp4600
g62
(dp4601
sg71
g3735
sg64
(lp4602
g57
(g78
g59
NtRp4603
(dp4604
g62
(dp4605
g82
g83
ssg71
g4599
sg64
(lp4606
g3308
asbag57
(g78
g59
NtRp4607
(dp4608
g62
(dp4609
g89
g90
ssg71
g4599
sg64
(lp4610
S':'
asbag57
(g78
g59
NtRp4611
(dp4612
g62
(dp4613
sg71
g4599
sg64
(lp4614
g57
(g58
g59
NtRp4615
(dp4616
g62
(dp4617
g70
I4
ssg71
g4611
sg64
(lp4618
S''
asbasbasbag57
(g73
g59
NtRp4619
(dp4620
g62
(dp4621
sg71
g3735
sg64
(lp4622
g57
(g78
g59
NtRp4623
(dp4624
g62
(dp4625
g82
g83
ssg71
g4619
sg64
(lp4626
g3329
asbag57
(g78
g59
NtRp4627
(dp4628
g62
(dp4629
g89
g90
ssg71
g4619
sg64
(lp4630
S':'
asbag57
(g78
g59
NtRp4631
(dp4632
g62
(dp4633
sg71
g4619
sg64
(lp4634
g57
(g58
g59
NtRp4635
(dp4636
g62
(dp4637
g70
I4
ssg71
g4631
sg64
(lp4638
S''
asbasbasbag57
(g73
g59
NtRp4639
(dp4640
g62
(dp4641
sg71
g3735
sg64
(lp4642
g57
(g78
g59
NtRp4643
(dp4644
g62
(dp4645
g82
g83
ssg71
g4639
sg64
(lp4646
g3350
asbag57
(g78
g59
NtRp4647
(dp4648
g62
(dp4649
g89
g90
ssg71
g4639
sg64
(lp4650
S':'
asbag57
(g78
g59
NtRp4651
(dp4652
g62
(dp4653
sg71
g4639
sg64
(lp4654
g57
(g58
g59
NtRp4655
(dp4656
g62
(dp4657
g70
I4
ssg71
g4651
sg64
(lp4658
g3363
asbasbasbag57
(g73
g59
NtRp4659
(dp4660
g62
(dp4661
sg71
g3735
sg64
(lp4662
g57
(g78
g59
NtRp4663
(dp4664
g62
(dp4665
g82
g83
ssg71
g4659
sg64
(lp4666
g3372
asbag57
(g78
g59
NtRp4667
(dp4668
g62
(dp4669
g89
g90
ssg71
g4659
sg64
(lp4670
S':'
asbag57
(g78
g59
NtRp4671
(dp4672
g62
(dp4673
sg71
g4659
sg64
(lp4674
g57
(g58
g59
NtRp4675
(dp4676
g62
(dp4677
g70
I4
ssg71
g4671
sg64
(lp4678
g3385
asbasbasbag57
(g73
g59
NtRp4679
(dp4680
g62
(dp4681
sg71
g3735
sg64
(lp4682
g57
(g78
g59
NtRp4683
(dp4684
g62
(dp4685
g82
g83
ssg71
g4679
sg64
(lp4686
g3394
asbag57
(g78
g59
NtRp4687
(dp4688
g62
(dp4689
g89
g90
ssg71
g4679
sg64
(lp4690
S':'
asbag57
(g78
g59
NtRp4691
(dp4692
g62
(dp4693
sg71
g4679
sg64
(lp4694
g57
(g58
g59
NtRp4695
(dp4696
g62
(dp4697
g70
I4
ssg71
g4691
sg64
(lp4698
g3407
asbasbasbag57
(g73
g59
NtRp4699
(dp4700
g62
(dp4701
sg71
g3735
sg64
(lp4702
g57
(g78
g59
NtRp4703
(dp4704
g62
(dp4705
g82
g83
ssg71
g4699
sg64
(lp4706
g3416
asbag57
(g78
g59
NtRp4707
(dp4708
g62
(dp4709
g89
g90
ssg71
g4699
sg64
(lp4710
S':'
asbag57
(g78
g59
NtRp4711
(dp4712
g62
(dp4713
sg71
g4699
sg64
(lp4714
g57
(g58
g59
NtRp4715
(dp4716
g62
(dp4717
g70
I4
ssg71
g4711
sg64
(lp4718
g3429
asbasbasbag57
(g73
g59
NtRp4719
(dp4720
g62
(dp4721
sg71
g3735
sg64
(lp4722
g57
(g78
g59
NtRp4723
(dp4724
g62
(dp4725
g82
g83
ssg71
g4719
sg64
(lp4726
g3438
asbag57
(g78
g59
NtRp4727
(dp4728
g62
(dp4729
g89
g90
ssg71
g4719
sg64
(lp4730
S':'
asbag57
(g78
g59
NtRp4731
(dp4732
g62
(dp4733
sg71
g4719
sg64
(lp4734
g57
(g58
g59
NtRp4735
(dp4736
g62
(dp4737
g70
I4
ssg71
g4731
sg64
(lp4738
g3451
asbasbasbag57
(g73
g59
NtRp4739
(dp4740
g62
(dp4741
sg71
g3735
sg64
(lp4742
g57
(g78
g59
NtRp4743
(dp4744
g62
(dp4745
g82
g83
ssg71
g4739
sg64
(lp4746
g3460
asbag57
(g78
g59
NtRp4747
(dp4748
g62
(dp4749
g89
g90
ssg71
g4739
sg64
(lp4750
S':'
asbag57
(g78
g59
NtRp4751
(dp4752
g62
(dp4753
sg71
g4739
sg64
(lp4754
g57
(g58
g59
NtRp4755
(dp4756
g62
(dp4757
g70
I4
ssg71
g4751
sg64
(lp4758
g3473
asbasbasbag57
(g73
g59
NtRp4759
(dp4760
g62
(dp4761
sg71
g3735
sg64
(lp4762
g57
(g78
g59
NtRp4763
(dp4764
g62
(dp4765
g82
g83
ssg71
g4759
sg64
(lp4766
g3482
asbag57
(g78
g59
NtRp4767
(dp4768
g62
(dp4769
g89
g90
ssg71
g4759
sg64
(lp4770
S':'
asbag57
(g78
g59
NtRp4771
(dp4772
g62
(dp4773
sg71
g4759
sg64
(lp4774
g57
(g58
g59
NtRp4775
(dp4776
g62
(dp4777
g70
I4
ssg71
g4771
sg64
(lp4778
g3495
asbasbasbag57
(g73
g59
NtRp4779
(dp4780
g62
(dp4781
sg71
g3735
sg64
(lp4782
g57
(g78
g59
NtRp4783
(dp4784
g62
(dp4785
g82
g83
ssg71
g4779
sg64
(lp4786
g3504
asbag57
(g78
g59
NtRp4787
(dp4788
g62
(dp4789
g89
g90
ssg71
g4779
sg64
(lp4790
S':'
asbag57
(g78
g59
NtRp4791
(dp4792
g62
(dp4793
sg71
g4779
sg64
(lp4794
g57
(g58
g59
NtRp4795
(dp4796
g62
(dp4797
g70
I4
ssg71
g4791
sg64
(lp4798
g3517
asbasbasbag57
(g73
g59
NtRp4799
(dp4800
g62
(dp4801
sg71
g3735
sg64
(lp4802
g57
(g78
g59
NtRp4803
(dp4804
g62
(dp4805
g82
g83
ssg71
g4799
sg64
(lp4806
g3526
asbag57
(g78
g59
NtRp4807
(dp4808
g62
(dp4809
g89
g90
ssg71
g4799
sg64
(lp4810
S':'
asbag57
(g78
g59
NtRp4811
(dp4812
g62
(dp4813
sg71
g4799
sg64
(lp4814
g57
(g58
g59
NtRp4815
(dp4816
g62
(dp4817
g70
I4
ssg71
g4811
sg64
(lp4818
g3539
asbasbasbag57
(g73
g59
NtRp4819
(dp4820
g62
(dp4821
sg71
g3735
sg64
(lp4822
g57
(g78
g59
NtRp4823
(dp4824
g62
(dp4825
g82
g83
ssg71
g4819
sg64
(lp4826
g3548
asbag57
(g78
g59
NtRp4827
(dp4828
g62
(dp4829
g89
g90
ssg71
g4819
sg64
(lp4830
S':'
asbag57
(g78
g59
NtRp4831
(dp4832
g62
(dp4833
sg71
g4819
sg64
(lp4834
g57
(g58
g59
NtRp4835
(dp4836
g62
(dp4837
g70
I4
ssg71
g4831
sg64
(lp4838
g3561
asbasbasbag57
(g73
g59
NtRp4839
(dp4840
g62
(dp4841
sg71
g3735
sg64
(lp4842
g57
(g78
g59
NtRp4843
(dp4844
g62
(dp4845
g82
g83
ssg71
g4839
sg64
(lp4846
g3570
asbag57
(g78
g59
NtRp4847
(dp4848
g62
(dp4849
g89
g90
ssg71
g4839
sg64
(lp4850
S':'
asbag57
(g78
g59
NtRp4851
(dp4852
g62
(dp4853
sg71
g4839
sg64
(lp4854
g57
(g58
g59
NtRp4855
(dp4856
g62
(dp4857
g70
I4
ssg71
g4851
sg64
(lp4858
g3583
asbasbasbag57
(g73
g59
NtRp4859
(dp4860
g62
(dp4861
sg71
g3735
sg64
(lp4862
g57
(g78
g59
NtRp4863
(dp4864
g62
(dp4865
g82
g83
ssg71
g4859
sg64
(lp4866
g3592
asbag57
(g78
g59
NtRp4867
(dp4868
g62
(dp4869
g89
g90
ssg71
g4859
sg64
(lp4870
S':'
asbag57
(g78
g59
NtRp4871
(dp4872
g62
(dp4873
sg71
g4859
sg64
(lp4874
g57
(g58
g59
NtRp4875
(dp4876
g62
(dp4877
g70
I4
ssg71
g4871
sg64
(lp4878
g3605
asbasbasbasbasbasbasbag57
(g73
g59
NtRp4879
(dp4880
g62
(dp4881
sg71
g67
sg64
(lp4882
g57
(g78
g59
NtRp4883
(dp4884
g62
(dp4885
g82
g83
ssg71
g4879
sg64
(lp4886
S'wsgi'
p4887
asbag57
(g78
g59
NtRp4888
(dp4889
g62
(dp4890
g89
g90
ssg71
g4879
sg64
(lp4891
S':'
asbag57
(g78
g59
NtRp4892
(dp4893
g62
(dp4894
sg71
g4879
sg64
(lp4895
g57
(g58
g59
NtRp4896
(dp4897
g62
(dp4898
g70
I5
ssg71
g4892
sg64
(lp4899
g57
(g66
g59
NtRp4900
(dp4901
g62
(dp4902
g70
I4
ssg71
Nsg64
(lp4903
g57
(g73
g59
NtRp4904
(dp4905
g62
(dp4906
sg71
g4900
sg64
(lp4907
g57
(g78
g59
NtRp4908
(dp4909
g62
(dp4910
g82
g83
ssg71
g4904
sg64
(lp4911
S'environ'
p4912
asbag57
(g78
g59
NtRp4913
(dp4914
g62
(dp4915
g89
g90
ssg71
g4904
sg64
(lp4916
S':'
asbag57
(g78
g59
NtRp4917
(dp4918
g62
(dp4919
sg71
g4904
sg64
(lp4920
g57
(g58
g59
NtRp4921
(dp4922
g62
(dp4923
g70
I4
ssg71
g4917
sg64
(lp4924
g57
(g66
g59
NtRp4925
(dp4926
g62
(dp4927
g70
I3
ssg71
Nsg64
(lp4928
g57
(g73
g59
NtRp4929
(dp4930
g62
(dp4931
sg71
g4925
sg64
(lp4932
g57
(g78
g59
NtRp4933
(dp4934
g62
(dp4935
g82
g83
ssg71
g4929
sg64
(lp4936
S'CONTENT_LENGTH'
p4937
asbag57
(g78
g59
NtRp4938
(dp4939
g62
(dp4940
g89
g90
ssg71
g4929
sg64
(lp4941
S':'
asbag57
(g78
g59
NtRp4942
(dp4943
g62
(dp4944
sg71
g4929
sg64
(lp4945
g57
(g58
g59
NtRp4946
(dp4947
g62
(dp4948
g70
I3
ssg71
g4942
sg64
(lp4949
g777
asbasbasbag57
(g73
g59
NtRp4950
(dp4951
g62
(dp4952
sg71
g4925
sg64
(lp4953
g57
(g78
g59
NtRp4954
(dp4955
g62
(dp4956
g82
g83
ssg71
g4950
sg64
(lp4957
S'CONTENT_TYPE'
p4958
asbag57
(g78
g59
NtRp4959
(dp4960
g62
(dp4961
g89
g90
ssg71
g4950
sg64
(lp4962
S':'
asbag57
(g78
g59
NtRp4963
(dp4964
g62
(dp4965
sg71
g4950
sg64
(lp4966
g57
(g58
g59
NtRp4967
(dp4968
g62
(dp4969
g70
I3
ssg71
g4963
sg64
(lp4970
g799
asbasbasbag57
(g73
g59
NtRp4971
(dp4972
g62
(dp4973
sg71
g4925
sg64
(lp4974
g57
(g78
g59
NtRp4975
(dp4976
g62
(dp4977
g82
g83
ssg71
g4971
sg64
(lp4978
S'HTTP_ACCEPT'
p4979
asbag57
(g78
g59
NtRp4980
(dp4981
g62
(dp4982
g89
g90
ssg71
g4971
sg64
(lp4983
S':'
asbag57
(g78
g59
NtRp4984
(dp4985
g62
(dp4986
sg71
g4971
sg64
(lp4987
g57
(g58
g59
NtRp4988
(dp4989
g62
(dp4990
g70
I3
ssg71
g4984
sg64
(lp4991
g886
asbasbasbag57
(g73
g59
NtRp4992
(dp4993
g62
(dp4994
sg71
g4925
sg64
(lp4995
g57
(g78
g59
NtRp4996
(dp4997
g62
(dp4998
g82
g83
ssg71
g4992
sg64
(lp4999
S'HTTP_ACCEPT_ENCODING'
p5000
asbag57
(g78
g59
NtRp5001
(dp5002
g62
(dp5003
g89
g90
ssg71
g4992
sg64
(lp5004
S':'
asbag57
(g78
g59
NtRp5005
(dp5006
g62
(dp5007
sg71
g4992
sg64
(lp5008
g57
(g58
g59
NtRp5009
(dp5010
g62
(dp5011
g70
I3
ssg71
g5005
sg64
(lp5012
g908
asbasbasbag57
(g73
g59
NtRp5013
(dp5014
g62
(dp5015
sg71
g4925
sg64
(lp5016
g57
(g78
g59
NtRp5017
(dp5018
g62
(dp5019
g82
g83
ssg71
g5013
sg64
(lp5020
S'HTTP_ACCEPT_LANGUAGE'
p5021
asbag57
(g78
g59
NtRp5022
(dp5023
g62
(dp5024
g89
g90
ssg71
g5013
sg64
(lp5025
S':'
asbag57
(g78
g59
NtRp5026
(dp5027
g62
(dp5028
sg71
g5013
sg64
(lp5029
g57
(g58
g59
NtRp5030
(dp5031
g62
(dp5032
g70
I3
ssg71
g5026
sg64
(lp5033
g930
asbasbasbag57
(g73
g59
NtRp5034
(dp5035
g62
(dp5036
sg71
g4925
sg64
(lp5037
g57
(g78
g59
NtRp5038
(dp5039
g62
(dp5040
g82
g83
ssg71
g5034
sg64
(lp5041
S'HTTP_CACHE_CONTROL'
p5042
asbag57
(g78
g59
NtRp5043
(dp5044
g62
(dp5045
g89
g90
ssg71
g5034
sg64
(lp5046
S':'
asbag57
(g78
g59
NtRp5047
(dp5048
g62
(dp5049
sg71
g5034
sg64
(lp5050
g57
(g58
g59
NtRp5051
(dp5052
g62
(dp5053
g70
I3
ssg71
g5047
sg64
(lp5054
g952
asbasbasbag57
(g73
g59
NtRp5055
(dp5056
g62
(dp5057
sg71
g4925
sg64
(lp5058
g57
(g78
g59
NtRp5059
(dp5060
g62
(dp5061
g82
g83
ssg71
g5055
sg64
(lp5062
S'HTTP_CONNECTION'
p5063
asbag57
(g78
g59
NtRp5064
(dp5065
g62
(dp5066
g89
g90
ssg71
g5055
sg64
(lp5067
S':'
asbag57
(g78
g59
NtRp5068
(dp5069
g62
(dp5070
sg71
g5055
sg64
(lp5071
g57
(g58
g59
NtRp5072
(dp5073
g62
(dp5074
g70
I3
ssg71
g5068
sg64
(lp5075
g974
asbasbasbag57
(g73
g59
NtRp5076
(dp5077
g62
(dp5078
sg71
g4925
sg64
(lp5079
g57
(g78
g59
NtRp5080
(dp5081
g62
(dp5082
g82
g83
ssg71
g5076
sg64
(lp5083
S'HTTP_CONTENT_LENGTH'
p5084
asbag57
(g78
g59
NtRp5085
(dp5086
g62
(dp5087
g89
g90
ssg71
g5076
sg64
(lp5088
S':'
asbag57
(g78
g59
NtRp5089
(dp5090
g62
(dp5091
sg71
g5076
sg64
(lp5092
g57
(g58
g59
NtRp5093
(dp5094
g62
(dp5095
g70
I3
ssg71
g5089
sg64
(lp5096
g777
asbasbasbag57
(g73
g59
NtRp5097
(dp5098
g62
(dp5099
sg71
g4925
sg64
(lp5100
g57
(g78
g59
NtRp5101
(dp5102
g62
(dp5103
g82
g83
ssg71
g5097
sg64
(lp5104
S'HTTP_CONTENT_TYPE'
p5105
asbag57
(g78
g59
NtRp5106
(dp5107
g62
(dp5108
g89
g90
ssg71
g5097
sg64
(lp5109
S':'
asbag57
(g78
g59
NtRp5110
(dp5111
g62
(dp5112
sg71
g5097
sg64
(lp5113
g57
(g58
g59
NtRp5114
(dp5115
g62
(dp5116
g70
I3
ssg71
g5110
sg64
(lp5117
g799
asbasbasbag57
(g73
g59
NtRp5118
(dp5119
g62
(dp5120
sg71
g4925
sg64
(lp5121
g57
(g78
g59
NtRp5122
(dp5123
g62
(dp5124
g82
g83
ssg71
g5118
sg64
(lp5125
S'HTTP_COOKIE'
p5126
asbag57
(g78
g59
NtRp5127
(dp5128
g62
(dp5129
g89
g90
ssg71
g5118
sg64
(lp5130
S':'
asbag57
(g78
g59
NtRp5131
(dp5132
g62
(dp5133
sg71
g5118
sg64
(lp5134
g57
(g58
g59
NtRp5135
(dp5136
g62
(dp5137
g70
I3
ssg71
g5131
sg64
(lp5138
g1038
asbasbasbag57
(g73
g59
NtRp5139
(dp5140
g62
(dp5141
sg71
g4925
sg64
(lp5142
g57
(g78
g59
NtRp5143
(dp5144
g62
(dp5145
g82
g83
ssg71
g5139
sg64
(lp5146
S'HTTP_HOST'
p5147
asbag57
(g78
g59
NtRp5148
(dp5149
g62
(dp5150
g89
g90
ssg71
g5139
sg64
(lp5151
S':'
asbag57
(g78
g59
NtRp5152
(dp5153
g62
(dp5154
sg71
g5139
sg64
(lp5155
g57
(g58
g59
NtRp5156
(dp5157
g62
(dp5158
g70
I3
ssg71
g5152
sg64
(lp5159
g1060
asbasbasbag57
(g73
g59
NtRp5160
(dp5161
g62
(dp5162
sg71
g4925
sg64
(lp5163
g57
(g78
g59
NtRp5164
(dp5165
g62
(dp5166
g82
g83
ssg71
g5160
sg64
(lp5167
S'HTTP_REFERER'
p5168
asbag57
(g78
g59
NtRp5169
(dp5170
g62
(dp5171
g89
g90
ssg71
g5160
sg64
(lp5172
S':'
asbag57
(g78
g59
NtRp5173
(dp5174
g62
(dp5175
sg71
g5160
sg64
(lp5176
g57
(g58
g59
NtRp5177
(dp5178
g62
(dp5179
g70
I3
ssg71
g5173
sg64
(lp5180
g1082
asbasbasbag57
(g73
g59
NtRp5181
(dp5182
g62
(dp5183
sg71
g4925
sg64
(lp5184
g57
(g78
g59
NtRp5185
(dp5186
g62
(dp5187
g82
g83
ssg71
g5181
sg64
(lp5188
S'HTTP_USER_AGENT'
p5189
asbag57
(g78
g59
NtRp5190
(dp5191
g62
(dp5192
g89
g90
ssg71
g5181
sg64
(lp5193
S':'
asbag57
(g78
g59
NtRp5194
(dp5195
g62
(dp5196
sg71
g5181
sg64
(lp5197
g57
(g58
g59
NtRp5198
(dp5199
g62
(dp5200
g70
I3
ssg71
g5194
sg64
(lp5201
g1104
asbasbasbag57
(g73
g59
NtRp5202
(dp5203
g62
(dp5204
sg71
g4925
sg64
(lp5205
g57
(g78
g59
NtRp5206
(dp5207
g62
(dp5208
g82
g83
ssg71
g5202
sg64
(lp5209
S'PATH_INFO'
p5210
asbag57
(g78
g59
NtRp5211
(dp5212
g62
(dp5213
g89
g90
ssg71
g5202
sg64
(lp5214
S':'
asbag57
(g78
g59
NtRp5215
(dp5216
g62
(dp5217
sg71
g5202
sg64
(lp5218
g57
(g58
g59
NtRp5219
(dp5220
g62
(dp5221
g70
I3
ssg71
g5215
sg64
(lp5222
g1258
asbasbasbag57
(g73
g59
NtRp5223
(dp5224
g62
(dp5225
sg71
g4925
sg64
(lp5226
g57
(g78
g59
NtRp5227
(dp5228
g62
(dp5229
g82
g83
ssg71
g5223
sg64
(lp5230
S'QUERY_STRING'
p5231
asbag57
(g78
g59
NtRp5232
(dp5233
g62
(dp5234
g89
g90
ssg71
g5223
sg64
(lp5235
S':'
asbag57
(g78
g59
NtRp5236
(dp5237
g62
(dp5238
sg71
g5223
sg64
(lp5239
g57
(g58
g59
NtRp5240
(dp5241
g62
(dp5242
g70
I3
ssg71
g5236
sg64
(lp5243
S''
asbasbasbag57
(g73
g59
NtRp5244
(dp5245
g62
(dp5246
sg71
g4925
sg64
(lp5247
g57
(g78
g59
NtRp5248
(dp5249
g62
(dp5250
g82
g83
ssg71
g5244
sg64
(lp5251
S'REMOTE_ADDR'
p5252
asbag57
(g78
g59
NtRp5253
(dp5254
g62
(dp5255
g89
g90
ssg71
g5244
sg64
(lp5256
S':'
asbag57
(g78
g59
NtRp5257
(dp5258
g62
(dp5259
sg71
g5244
sg64
(lp5260
g57
(g58
g59
NtRp5261
(dp5262
g62
(dp5263
g70
I3
ssg71
g5257
sg64
(lp5264
g212
asbasbasbag57
(g73
g59
NtRp5265
(dp5266
g62
(dp5267
sg71
g4925
sg64
(lp5268
g57
(g78
g59
NtRp5269
(dp5270
g62
(dp5271
g82
g83
ssg71
g5265
sg64
(lp5272
S'REMOTE_PORT'
p5273
asbag57
(g78
g59
NtRp5274
(dp5275
g62
(dp5276
g89
g90
ssg71
g5265
sg64
(lp5277
S':'
asbag57
(g78
g59
NtRp5278
(dp5279
g62
(dp5280
sg71
g5265
sg64
(lp5281
g57
(g58
g59
NtRp5282
(dp5283
g62
(dp5284
g70
I3
ssg71
g5278
sg64
(lp5285
g1322
asbasbasbag57
(g73
g59
NtRp5286
(dp5287
g62
(dp5288
sg71
g4925
sg64
(lp5289
g57
(g78
g59
NtRp5290
(dp5291
g62
(dp5292
g82
g83
ssg71
g5286
sg64
(lp5293
S'REQUEST_METHOD'
p5294
asbag57
(g78
g59
NtRp5295
(dp5296
g62
(dp5297
g89
g90
ssg71
g5286
sg64
(lp5298
S':'
asbag57
(g78
g59
NtRp5299
(dp5300
g62
(dp5301
sg71
g5286
sg64
(lp5302
g57
(g58
g59
NtRp5303
(dp5304
g62
(dp5305
g70
I3
ssg71
g5299
sg64
(lp5306
g1344
asbasbasbag57
(g73
g59
NtRp5307
(dp5308
g62
(dp5309
sg71
g4925
sg64
(lp5310
g57
(g78
g59
NtRp5311
(dp5312
g62
(dp5313
g82
g83
ssg71
g5307
sg64
(lp5314
S'REQUEST_URI'
p5315
asbag57
(g78
g59
NtRp5316
(dp5317
g62
(dp5318
g89
g90
ssg71
g5307
sg64
(lp5319
S':'
asbag57
(g78
g59
NtRp5320
(dp5321
g62
(dp5322
sg71
g5307
sg64
(lp5323
g57
(g58
g59
NtRp5324
(dp5325
g62
(dp5326
g70
I3
ssg71
g5320
sg64
(lp5327
g1258
asbasbasbag57
(g73
g59
NtRp5328
(dp5329
g62
(dp5330
sg71
g4925
sg64
(lp5331
g57
(g78
g59
NtRp5332
(dp5333
g62
(dp5334
g82
g83
ssg71
g5328
sg64
(lp5335
S'SCRIPT_NAME'
p5336
asbag57
(g78
g59
NtRp5337
(dp5338
g62
(dp5339
g89
g90
ssg71
g5328
sg64
(lp5340
S':'
asbag57
(g78
g59
NtRp5341
(dp5342
g62
(dp5343
sg71
g5328
sg64
(lp5344
g57
(g58
g59
NtRp5345
(dp5346
g62
(dp5347
g70
I3
ssg71
g5341
sg64
(lp5348
S''
asbasbasbag57
(g73
g59
NtRp5349
(dp5350
g62
(dp5351
sg71
g4925
sg64
(lp5352
g57
(g78
g59
NtRp5353
(dp5354
g62
(dp5355
g82
g83
ssg71
g5349
sg64
(lp5356
S'SERVER_NAME'
p5357
asbag57
(g78
g59
NtRp5358
(dp5359
g62
(dp5360
g89
g90
ssg71
g5349
sg64
(lp5361
S':'
asbag57
(g78
g59
NtRp5362
(dp5363
g62
(dp5364
sg71
g5349
sg64
(lp5365
g57
(g58
g59
NtRp5366
(dp5367
g62
(dp5368
g70
I3
ssg71
g5362
sg64
(lp5369
g1223
asbasbasbag57
(g73
g59
NtRp5370
(dp5371
g62
(dp5372
sg71
g4925
sg64
(lp5373
g57
(g78
g59
NtRp5374
(dp5375
g62
(dp5376
g82
g83
ssg71
g5370
sg64
(lp5377
S'SERVER_PORT'
p5378
asbag57
(g78
g59
NtRp5379
(dp5380
g62
(dp5381
g89
g90
ssg71
g5370
sg64
(lp5382
S':'
asbag57
(g78
g59
NtRp5383
(dp5384
g62
(dp5385
sg71
g5370
sg64
(lp5386
g57
(g58
g59
NtRp5387
(dp5388
g62
(dp5389
g70
I3
ssg71
g5383
sg64
(lp5390
g1429
asbasbasbag57
(g73
g59
NtRp5391
(dp5392
g62
(dp5393
sg71
g4925
sg64
(lp5394
g57
(g78
g59
NtRp5395
(dp5396
g62
(dp5397
g82
g83
ssg71
g5391
sg64
(lp5398
S'SERVER_PROTOCOL'
p5399
asbag57
(g78
g59
NtRp5400
(dp5401
g62
(dp5402
g89
g90
ssg71
g5391
sg64
(lp5403
S':'
asbag57
(g78
g59
NtRp5404
(dp5405
g62
(dp5406
sg71
g5391
sg64
(lp5407
g57
(g58
g59
NtRp5408
(dp5409
g62
(dp5410
g70
I3
ssg71
g5404
sg64
(lp5411
g1451
asbasbasbag57
(g73
g59
NtRp5412
(dp5413
g62
(dp5414
sg71
g4925
sg64
(lp5415
g57
(g78
g59
NtRp5416
(dp5417
g62
(dp5418
g82
g83
ssg71
g5412
sg64
(lp5419
S'SERVER_SOFTWARE'
p5420
asbag57
(g78
g59
NtRp5421
(dp5422
g62
(dp5423
g89
g90
ssg71
g5412
sg64
(lp5424
S':'
asbag57
(g78
g59
NtRp5425
(dp5426
g62
(dp5427
sg71
g5412
sg64
(lp5428
g57
(g58
g59
NtRp5429
(dp5430
g62
(dp5431
g70
I3
ssg71
g5425
sg64
(lp5432
g1473
asbasbasbag57
(g73
g59
NtRp5433
(dp5434
g62
(dp5435
sg71
g4925
sg64
(lp5436
g57
(g78
g59
NtRp5437
(dp5438
g62
(dp5439
g82
g83
ssg71
g5433
sg64
(lp5440
S'wsgi.errors'
p5441
asbag57
(g78
g59
NtRp5442
(dp5443
g62
(dp5444
g89
g90
ssg71
g5433
sg64
(lp5445
S':'
asbag57
(g78
g59
NtRp5446
(dp5447
g62
(dp5448
sg71
g5433
sg64
(lp5449
g57
(g58
g59
NtRp5450
(dp5451
g62
(dp5452
g70
I3
ssg71
g5446
sg64
(lp5453
S"<open file '<stderr>', mode 'w' at 0x2b784d911270>"
p5454
asbasbasbag57
(g73
g59
NtRp5455
(dp5456
g62
(dp5457
sg71
g4925
sg64
(lp5458
g57
(g78
g59
NtRp5459
(dp5460
g62
(dp5461
g82
g83
ssg71
g5455
sg64
(lp5462
S'wsgi.file_wrapper'
p5463
asbag57
(g78
g59
NtRp5464
(dp5465
g62
(dp5466
g89
g90
ssg71
g5455
sg64
(lp5467
S':'
asbag57
(g78
g59
NtRp5468
(dp5469
g62
(dp5470
sg71
g5455
sg64
(lp5471
g57
(g58
g59
NtRp5472
(dp5473
g62
(dp5474
g70
I3
ssg71
g5468
sg64
(lp5475
S'<class wsgiref.util.FileWrapper at 0x659ca78>'
p5476
asbasbasbag57
(g73
g59
NtRp5477
(dp5478
g62
(dp5479
sg71
g4925
sg64
(lp5480
g57
(g78
g59
NtRp5481
(dp5482
g62
(dp5483
g82
g83
ssg71
g5477
sg64
(lp5484
S'wsgi.input'
p5485
asbag57
(g78
g59
NtRp5486
(dp5487
g62
(dp5488
g89
g90
ssg71
g5477
sg64
(lp5489
S':'
asbag57
(g78
g59
NtRp5490
(dp5491
g62
(dp5492
sg71
g5477
sg64
(lp5493
g57
(g58
g59
NtRp5494
(dp5495
g62
(dp5496
g70
I3
ssg71
g5490
sg64
(lp5497
S"<open file '<fdopen>', mode 'w+b' at 0x72cb930>"
p5498
asbasbasbag57
(g73
g59
NtRp5499
(dp5500
g62
(dp5501
sg71
g4925
sg64
(lp5502
g57
(g78
g59
NtRp5503
(dp5504
g62
(dp5505
g82
g83
ssg71
g5499
sg64
(lp5506
S'wsgi.multiprocess'
p5507
asbag57
(g78
g59
NtRp5508
(dp5509
g62
(dp5510
g89
g90
ssg71
g5499
sg64
(lp5511
S':'
asbag57
(g78
g59
NtRp5512
(dp5513
g62
(dp5514
sg71
g5499
sg64
(lp5515
g57
(g58
g59
NtRp5516
(dp5517
g62
(dp5518
g70
I3
ssg71
g5512
sg64
(lp5519
g100
asbasbasbag57
(g73
g59
NtRp5520
(dp5521
g62
(dp5522
sg71
g4925
sg64
(lp5523
g57
(g78
g59
NtRp5524
(dp5525
g62
(dp5526
g82
g83
ssg71
g5520
sg64
(lp5527
S'wsgi.multithread'
p5528
asbag57
(g78
g59
NtRp5529
(dp5530
g62
(dp5531
g89
g90
ssg71
g5520
sg64
(lp5532
S':'
asbag57
(g78
g59
NtRp5533
(dp5534
g62
(dp5535
sg71
g5520
sg64
(lp5536
g57
(g58
g59
NtRp5537
(dp5538
g62
(dp5539
g70
I3
ssg71
g5533
sg64
(lp5540
g1690
asbasbasbag57
(g73
g59
NtRp5541
(dp5542
g62
(dp5543
sg71
g4925
sg64
(lp5544
g57
(g78
g59
NtRp5545
(dp5546
g62
(dp5547
g82
g83
ssg71
g5541
sg64
(lp5548
S'wsgi.run_once'
p5549
asbag57
(g78
g59
NtRp5550
(dp5551
g62
(dp5552
g89
g90
ssg71
g5541
sg64
(lp5553
S':'
asbag57
(g78
g59
NtRp5554
(dp5555
g62
(dp5556
sg71
g5541
sg64
(lp5557
g57
(g58
g59
NtRp5558
(dp5559
g62
(dp5560
g70
I3
ssg71
g5554
sg64
(lp5561
g100
asbasbasbag57
(g73
g59
NtRp5562
(dp5563
g62
(dp5564
sg71
g4925
sg64
(lp5565
g57
(g78
g59
NtRp5566
(dp5567
g62
(dp5568
g82
g83
ssg71
g5562
sg64
(lp5569
S'wsgi.url_scheme'
p5570
asbag57
(g78
g59
NtRp5571
(dp5572
g62
(dp5573
g89
g90
ssg71
g5562
sg64
(lp5574
S':'
asbag57
(g78
g59
NtRp5575
(dp5576
g62
(dp5577
sg71
g5562
sg64
(lp5578
g57
(g58
g59
NtRp5579
(dp5580
g62
(dp5581
g70
I3
ssg71
g5575
sg64
(lp5582
g1733
asbasbasbag57
(g73
g59
NtRp5583
(dp5584
g62
(dp5585
sg71
g4925
sg64
(lp5586
g57
(g78
g59
NtRp5587
(dp5588
g62
(dp5589
g82
g83
ssg71
g5583
sg64
(lp5590
S'wsgi.version'
p5591
asbag57
(g78
g59
NtRp5592
(dp5593
g62
(dp5594
g89
g90
ssg71
g5583
sg64
(lp5595
S':'
asbag57
(g78
g59
NtRp5596
(dp5597
g62
(dp5598
sg71
g5583
sg64
(lp5599
g57
(g58
g59
NtRp5600
(dp5601
g62
(dp5602
g70
I3
ssg71
g5596
sg64
(lp5603
S'1'
asbasbasbasbasbasbasbasbasbasbasbasbasbsS'frames'
p5604
(lp5605
(dp5606
S'file'
p5607
S'/home/xchen/web2py/gluon/restricted.py'
p5608
sS'dump'
p5609
(dp5610
S'environment'
p5611
S"{'A': <class 'gluon.html.A'>, 'Auth': <class 'gluon.tools.Auth'>, 'B': <class 'gluon.html.B'>, 'BEAUTIFY': <class 'gluon.html.BEAUTIFY'>, 'BODY': <class 'gluon.html.BODY'>, 'BR': <class 'gluon.html.BR'>, 'BUTTON': <class 'gluon.html.BUTTON'>, 'CAT': <class 'gluon.html.CAT'>, 'CENTER': <class 'gluon.html.CENTER'>, 'CLEANUP': <class 'gluon.validators.CLEANUP'>, ...}"
p5612
sS'ccode'
p5613
S'<code object <module> at 0x684ecb0, file "/home/...lications/Betsy/controllers/default.py", line 11>'
p5614
ssS'lnum'
p5615
I212
sS'lines'
p5616
(dp5617
I207
S'    try:'
p5618
sI208
S'        if isinstance(code, types.CodeType):'
p5619
sI209
S'            ccode = code'
p5620
sI210
S'        else:'
p5621
sI211
S'            ccode = compile2(code, layer)'
p5622
sI212
S'        exec ccode in environment'
p5623
sI213
S'    except HTTP:'
p5624
sI214
S'        raise'
p5625
sI215
S'    except RestrictedError:'
p5626
sI216
S'        # do not encapsulate (obfuscate) the original RestrictedError'
p5627
ssS'call'
p5628
S"(code='# -*- coding: utf-8 -*-\\n# this file is released ...\\nresponse._vars=response._caller(normalize_file)\\n', environment={'A': <class 'gluon.html.A'>, 'Auth': <class 'gluon.tools.Auth'>, 'B': <class 'gluon.html.B'>, 'BEAUTIFY': <class 'gluon.html.BEAUTIFY'>, 'BODY': <class 'gluon.html.BODY'>, 'BR': <class 'gluon.html.BR'>, 'BUTTON': <class 'gluon.html.BUTTON'>, 'CAT': <class 'gluon.html.CAT'>, 'CENTER': <class 'gluon.html.CENTER'>, 'CLEANUP': <class 'gluon.validators.CLEANUP'>, ...}, layer='/home/xchen/web2py/applications/Betsy/controllers/default.py')"
p5629
sS'func'
p5630
S'restricted'
p5631
sa(dp5632
g5607
S'/home/xchen/web2py/applications/Betsy/controllers/default.py'
p5633
sg5609
(dp5634
sg5615
I435
sg5616
(dp5635
I424
S'    http://..../[app]/default/data/update/[table]/[id]'
p5636
sI425
S'    http://..../[app]/default/data/delete/[table]/[id]'
p5637
sI426
S'    http://..../[app]/default/data/select/[table]'
p5638
sI427
S'    http://..../[app]/default/data/search/[table]'
p5639
sI428
S'    but URLs must be signed, i.e. linked with'
p5640
sI429
S"      A('table',_href=URL('data/tables',user_signature=True))"
p5641
sI430
S'    or with the signed load operator'
p5642
sI431
S"      LOAD('default','data.load',args='tables',ajax=True,user_signature=True)"
p5643
sI432
S'    """'
p5644
sI433
S'    return dict(form=crud())'
p5645
ssg5628
S'()'
p5646
sg5630
S'<module>'
p5647
sa(dp5648
g5607
S'/home/xchen/web2py/gluon/globals.py'
p5649
sg5609
(dp5650
S'self'
p5651
S'undefined'
p5652
sS'f'
S'<function normalize_file>'
p5653
ssg5615
I188
sg5616
(dp5654
I192
S''
sI183
S'        self.menu = []             # used by the default view layout'
p5655
sI184
S'        self.files = []            # used by web2py_ajax.html'
p5656
sI185
S'        self.generic_patterns = []  # patterns to allow generic views'
p5657
sI186
S"        self.delimiters = ('{{', '}}')"
p5658
sI187
S'        self._vars = None'
p5659
sI188
S'        self._caller = lambda f: f()'
p5660
sI189
S'        self._view_environment = None'
p5661
sI190
S'        self._custom_commit = None'
p5662
sI191
S'        self._custom_rollback = None'
p5663
ssg5628
S'(f=<function normalize_file>)'
p5664
sg5630
S'<lambda>'
p5665
sa(dp5666
g5607
S'/home/xchen/web2py/applications/Betsy/controllers/default.py'
p5667
sg5609
(dp5668
S'builtinisinstance'
p5669
S'<built-in function isinstance>'
p5670
sS'builtinlist'
p5671
S"<type 'list'>"
p5672
sS'key'
p5673
S"'shiftscale'"
p5674
sS'global common_parameters'
p5675
S"{'filter': ('integer', '0'), 'format': ['tdf', 'gct'], 'gene_center': ['no_gene_center', 'mean', 'median'], 'gene_normalize': ['no_gene_normalize', 'variance', 'sum_of_squares'], 'gene_order': ['no_order', 't_test_p', 't_test_fdr', 'by_gene_list', 'by_class_neighbors'], 'has_missing_value': ['no_missing', 'median_fill', 'zero_fill', 'unknown_missing'], 'is_logged': ['logged', 'no_logged'], 'preprocess': ['unknown_preprocess', 'rma', 'mas5', 'loess', 'illumina_controls', 'illumina', 'agilent'], 'unique_genes': ['no_unique_genes', 'average_genes', 'high_var', 'first_gene']}"
p5676
ssg5615
I93
sg5616
(dp5677
I96
S'            fields.append(Field(key,default=normalize_parameters[key][1]))'
p5678
sI97
S'    for key in optional_parameters:'
p5679
sI88
S'        if isinstance(common_parameters[key],list):'
p5680
sI89
S'            fields.append(Field(key,requires=IS_IN_SET(common_parameters[key]),default=common_parameters[key][0]))'
p5681
sI90
S'        else:'
p5682
sI91
S'            fields.append(Field(key,default=common_parameters[key][1]))'
p5683
sI92
S'    for key in normalize_parameters:'
p5684
sI93
S'        if isinstance(common_parameters[key],list):'
p5685
sI94
S'            fields.append(Field(key,requires=IS_IN_SET(normalize_parameters[key]),default=normalize_parameters[key][0]))'
p5686
sI95
S'        else:'
p5687
ssg5628
S'()'
p5688
sg5630
S'normalize_file'
p5689
sasS'pyver'
p5690
S'Python 2.7.3: /usr/local/bin/python'
p5691
sS'session'
p5692
g57
(g58
g59
NtRp5693
(dp5694
g62
(dp5695
sg64
(lp5696
g57
(g66
g59
NtRp5697
(dp5698
g62
(dp5699
g70
I5
ssg71
Nsg64
(lp5700
g57
(g73
g59
NtRp5701
(dp5702
g62
(dp5703
sg71
g5697
sg64
(lp5704
g57
(g78
g59
NtRp5705
(dp5706
g62
(dp5707
g82
g83
ssg71
g5701
sg64
(lp5708
S'auth'
p5709
asbag57
(g78
g59
NtRp5710
(dp5711
g62
(dp5712
g89
g90
ssg71
g5701
sg64
(lp5713
S':'
asbag57
(g78
g59
NtRp5714
(dp5715
g62
(dp5716
sg71
g5701
sg64
(lp5717
g57
(g58
g59
NtRp5718
(dp5719
g62
(dp5720
g70
I5
ssg71
g5714
sg64
(lp5721
g57
(g66
g59
NtRp5722
(dp5723
g62
(dp5724
g70
I4
ssg71
Nsg64
(lp5725
g57
(g73
g59
NtRp5726
(dp5727
g62
(dp5728
sg71
g5722
sg64
(lp5729
g57
(g78
g59
NtRp5730
(dp5731
g62
(dp5732
g82
g83
ssg71
g5726
sg64
(lp5733
S'expiration'
p5734
asbag57
(g78
g59
NtRp5735
(dp5736
g62
(dp5737
g89
g90
ssg71
g5726
sg64
(lp5738
S':'
asbag57
(g78
g59
NtRp5739
(dp5740
g62
(dp5741
sg71
g5726
sg64
(lp5742
g57
(g58
g59
NtRp5743
(dp5744
g62
(dp5745
g70
I4
ssg71
g5739
sg64
(lp5746
S'2592000'
p5747
asbasbasbag57
(g73
g59
NtRp5748
(dp5749
g62
(dp5750
sg71
g5722
sg64
(lp5751
g57
(g78
g59
NtRp5752
(dp5753
g62
(dp5754
g82
g83
ssg71
g5748
sg64
(lp5755
S'hmac_key'
p5756
asbag57
(g78
g59
NtRp5757
(dp5758
g62
(dp5759
g89
g90
ssg71
g5748
sg64
(lp5760
S':'
asbag57
(g78
g59
NtRp5761
(dp5762
g62
(dp5763
sg71
g5748
sg64
(lp5764
g57
(g58
g59
NtRp5765
(dp5766
g62
(dp5767
g70
I4
ssg71
g5761
sg64
(lp5768
S'739afc94-a36b-429c-8715-edcd03ea4351'
p5769
asbasbasbag57
(g73
g59
NtRp5770
(dp5771
g62
(dp5772
sg71
g5722
sg64
(lp5773
g57
(g78
g59
NtRp5774
(dp5775
g62
(dp5776
g82
g83
ssg71
g5770
sg64
(lp5777
S'last_visit'
p5778
asbag57
(g78
g59
NtRp5779
(dp5780
g62
(dp5781
g89
g90
ssg71
g5770
sg64
(lp5782
S':'
asbag57
(g78
g59
NtRp5783
(dp5784
g62
(dp5785
sg71
g5770
sg64
(lp5786
g57
(g58
g59
NtRp5787
(dp5788
g62
(dp5789
g70
I4
ssg71
g5783
sg64
(lp5790
S'datetime.datetime(2013, 2, 4, 10, 24, 37, 237452)'
p5791
asbasbasbag57
(g73
g59
NtRp5792
(dp5793
g62
(dp5794
sg71
g5722
sg64
(lp5795
g57
(g78
g59
NtRp5796
(dp5797
g62
(dp5798
g82
g83
ssg71
g5792
sg64
(lp5799
S'remember'
p5800
asbag57
(g78
g59
NtRp5801
(dp5802
g62
(dp5803
g89
g90
ssg71
g5792
sg64
(lp5804
S':'
asbag57
(g78
g59
NtRp5805
(dp5806
g62
(dp5807
sg71
g5792
sg64
(lp5808
g57
(g58
g59
NtRp5809
(dp5810
g62
(dp5811
g70
I4
ssg71
g5805
sg64
(lp5812
g1690
asbasbasbag57
(g73
g59
NtRp5813
(dp5814
g62
(dp5815
sg71
g5722
sg64
(lp5816
g57
(g78
g59
NtRp5817
(dp5818
g62
(dp5819
g82
g83
ssg71
g5813
sg64
(lp5820
S'user'
p5821
asbag57
(g78
g59
NtRp5822
(dp5823
g62
(dp5824
g89
g90
ssg71
g5813
sg64
(lp5825
S':'
asbag57
(g78
g59
NtRp5826
(dp5827
g62
(dp5828
sg71
g5813
sg64
(lp5829
g57
(g58
g59
NtRp5830
(dp5831
g62
(dp5832
g70
I4
ssg71
g5826
sg64
(lp5833
g57
(g66
g59
NtRp5834
(dp5835
g62
(dp5836
g70
I3
ssg71
Nsg64
(lp5837
g57
(g73
g59
NtRp5838
(dp5839
g62
(dp5840
sg71
g5834
sg64
(lp5841
g57
(g78
g59
NtRp5842
(dp5843
g62
(dp5844
g82
g83
ssg71
g5838
sg64
(lp5845
S'email'
p5846
asbag57
(g78
g59
NtRp5847
(dp5848
g62
(dp5849
g89
g90
ssg71
g5838
sg64
(lp5850
S':'
asbag57
(g78
g59
NtRp5851
(dp5852
g62
(dp5853
sg71
g5838
sg64
(lp5854
g57
(g58
g59
NtRp5855
(dp5856
g62
(dp5857
g70
I3
ssg71
g5851
sg64
(lp5858
S'xiaoling.chen@uth.tmc.edu'
p5859
asbasbasbag57
(g73
g59
NtRp5860
(dp5861
g62
(dp5862
sg71
g5834
sg64
(lp5863
g57
(g78
g59
NtRp5864
(dp5865
g62
(dp5866
g82
g83
ssg71
g5860
sg64
(lp5867
S'first_name'
p5868
asbag57
(g78
g59
NtRp5869
(dp5870
g62
(dp5871
g89
g90
ssg71
g5860
sg64
(lp5872
S':'
asbag57
(g78
g59
NtRp5873
(dp5874
g62
(dp5875
sg71
g5860
sg64
(lp5876
g57
(g58
g59
NtRp5877
(dp5878
g62
(dp5879
g70
I3
ssg71
g5873
sg64
(lp5880
S'Xiaoling'
p5881
asbasbasbag57
(g73
g59
NtRp5882
(dp5883
g62
(dp5884
sg71
g5834
sg64
(lp5885
g57
(g78
g59
NtRp5886
(dp5887
g62
(dp5888
g82
g83
ssg71
g5882
sg64
(lp5889
S'id'
p5890
asbag57
(g78
g59
NtRp5891
(dp5892
g62
(dp5893
g89
g90
ssg71
g5882
sg64
(lp5894
S':'
asbag57
(g78
g59
NtRp5895
(dp5896
g62
(dp5897
sg71
g5882
sg64
(lp5898
g57
(g58
g59
NtRp5899
(dp5900
g62
(dp5901
g70
I3
ssg71
g5895
sg64
(lp5902
S'1'
asbasbasbag57
(g73
g59
NtRp5903
(dp5904
g62
(dp5905
sg71
g5834
sg64
(lp5906
g57
(g78
g59
NtRp5907
(dp5908
g62
(dp5909
g82
g83
ssg71
g5903
sg64
(lp5910
S'last_name'
p5911
asbag57
(g78
g59
NtRp5912
(dp5913
g62
(dp5914
g89
g90
ssg71
g5903
sg64
(lp5915
S':'
asbag57
(g78
g59
NtRp5916
(dp5917
g62
(dp5918
sg71
g5903
sg64
(lp5919
g57
(g58
g59
NtRp5920
(dp5921
g62
(dp5922
g70
I3
ssg71
g5916
sg64
(lp5923
S'Chen'
p5924
asbasbasbag57
(g73
g59
NtRp5925
(dp5926
g62
(dp5927
sg71
g5834
sg64
(lp5928
g57
(g78
g59
NtRp5929
(dp5930
g62
(dp5931
g82
g83
ssg71
g5925
sg64
(lp5932
S'registration_id'
p5933
asbag57
(g78
g59
NtRp5934
(dp5935
g62
(dp5936
g89
g90
ssg71
g5925
sg64
(lp5937
S':'
asbag57
(g78
g59
NtRp5938
(dp5939
g62
(dp5940
sg71
g5925
sg64
(lp5941
g57
(g58
g59
NtRp5942
(dp5943
g62
(dp5944
g70
I3
ssg71
g5938
sg64
(lp5945
S''
asbasbasbag57
(g73
g59
NtRp5946
(dp5947
g62
(dp5948
sg71
g5834
sg64
(lp5949
g57
(g78
g59
NtRp5950
(dp5951
g62
(dp5952
g82
g83
ssg71
g5946
sg64
(lp5953
S'registration_key'
p5954
asbag57
(g78
g59
NtRp5955
(dp5956
g62
(dp5957
g89
g90
ssg71
g5946
sg64
(lp5958
S':'
asbag57
(g78
g59
NtRp5959
(dp5960
g62
(dp5961
sg71
g5946
sg64
(lp5962
g57
(g58
g59
NtRp5963
(dp5964
g62
(dp5965
g70
I3
ssg71
g5959
sg64
(lp5966
S''
asbasbasbag57
(g73
g59
NtRp5967
(dp5968
g62
(dp5969
sg71
g5834
sg64
(lp5970
g57
(g78
g59
NtRp5971
(dp5972
g62
(dp5973
g82
g83
ssg71
g5967
sg64
(lp5974
S'reset_password_key'
p5975
asbag57
(g78
g59
NtRp5976
(dp5977
g62
(dp5978
g89
g90
ssg71
g5967
sg64
(lp5979
S':'
asbag57
(g78
g59
NtRp5980
(dp5981
g62
(dp5982
sg71
g5967
sg64
(lp5983
g57
(g58
g59
NtRp5984
(dp5985
g62
(dp5986
g70
I3
ssg71
g5980
sg64
(lp5987
S''
asbasbasbasbasbasbasbag57
(g73
g59
NtRp5988
(dp5989
g62
(dp5990
sg71
g5722
sg64
(lp5991
g57
(g78
g59
NtRp5992
(dp5993
g62
(dp5994
g82
g83
ssg71
g5988
sg64
(lp5995
S'user_groups'
p5996
asbag57
(g78
g59
NtRp5997
(dp5998
g62
(dp5999
g89
g90
ssg71
g5988
sg64
(lp6000
S':'
asbag57
(g78
g59
NtRp6001
(dp6002
g62
(dp6003
sg71
g5988
sg64
(lp6004
g57
(g58
g59
NtRp6005
(dp6006
g62
(dp6007
g70
I4
ssg71
g6001
sg64
(lp6008
g57
(g66
g59
NtRp6009
(dp6010
g62
(dp6011
g70
I3
ssg71
Nsg64
(lp6012
g57
(g73
g59
NtRp6013
(dp6014
g62
(dp6015
sg71
g6009
sg64
(lp6016
g57
(g78
g59
NtRp6017
(dp6018
g62
(dp6019
g82
g83
ssg71
g6013
sg64
(lp6020
S'1'
asbag57
(g78
g59
NtRp6021
(dp6022
g62
(dp6023
g89
g90
ssg71
g6013
sg64
(lp6024
S':'
asbag57
(g78
g59
NtRp6025
(dp6026
g62
(dp6027
sg71
g6013
sg64
(lp6028
g57
(g58
g59
NtRp6029
(dp6030
g62
(dp6031
g70
I3
ssg71
g6025
sg64
(lp6032
S'user_1'
p6033
asbasbasbasbasbasbasbasbasbasbasbag57
(g73
g59
NtRp6034
(dp6035
g62
(dp6036
sg71
g5697
sg64
(lp6037
g57
(g78
g59
NtRp6038
(dp6039
g62
(dp6040
g82
g83
ssg71
g6034
sg64
(lp6041
S'cmd'
p6042
asbag57
(g78
g59
NtRp6043
(dp6044
g62
(dp6045
g89
g90
ssg71
g6034
sg64
(lp6046
S':'
asbag57
(g78
g59
NtRp6047
(dp6048
g62
(dp6049
sg71
g6034
sg64
(lp6050
g57
(g58
g59
NtRp6051
(dp6052
g62
(dp6053
g70
I5
ssg71
g6047
sg64
(lp6054
g57
(g66
g59
NtRp6055
(dp6056
g62
(dp6057
g70
I4
ssg71
Nsg64
(lp6058
g57
(g73
g59
NtRp6059
(dp6060
g62
(dp6061
sg71
g6055
sg64
(lp6062
g57
(g78
g59
NtRp6063
(dp6064
g62
(dp6065
sg71
g6059
sg64
(lp6066
g57
(g58
g59
NtRp6067
(dp6068
g62
(dp6069
g70
I4
ssg71
g6063
sg64
(lp6070
S'python'
p6071
asbasbasbag57
(g73
g59
NtRp6072
(dp6073
g62
(dp6074
sg71
g6055
sg64
(lp6075
g57
(g78
g59
NtRp6076
(dp6077
g62
(dp6078
sg71
g6072
sg64
(lp6079
g57
(g58
g59
NtRp6080
(dp6081
g62
(dp6082
g70
I4
ssg71
g6076
sg64
(lp6083
S'/home/xchen/chencode/tmp/try_parallel/queue.py'
p6084
asbasbasbag57
(g73
g59
NtRp6085
(dp6086
g62
(dp6087
sg71
g6055
sg64
(lp6088
g57
(g78
g59
NtRp6089
(dp6090
g62
(dp6091
sg71
g6085
sg64
(lp6092
g57
(g58
g59
NtRp6093
(dp6094
g62
(dp6095
g70
I4
ssg71
g6089
sg64
(lp6096
S'python /home/xchen/chencode/Betsy/scripts/run_protocol.py --protocol normalize_file --input input_signal_file:/home/xchen/chencode/upload/no_table.myfile1.a8dd7d225fa076b2.4368616e675f415230303431302e70636c.pcl --parameters has_missing_value:zero_fill --parameters preprocess:unknown_preprocess'
p6097
asbasbasbasbasbasbasbag57
(g73
g59
NtRp6098
(dp6099
g62
(dp6100
sg71
g5697
sg64
(lp6101
g57
(g78
g59
NtRp6102
(dp6103
g62
(dp6104
g82
g83
ssg71
g6098
sg64
(lp6105
S'command'
p6106
asbag57
(g78
g59
NtRp6107
(dp6108
g62
(dp6109
g89
g90
ssg71
g6098
sg64
(lp6110
S':'
asbag57
(g78
g59
NtRp6111
(dp6112
g62
(dp6113
sg71
g6098
sg64
(lp6114
g57
(g58
g59
NtRp6115
(dp6116
g62
(dp6117
g70
I5
ssg71
g6111
sg64
(lp6118
S'--input input_signal_file:myfile1 --parameters has_missing_value:zero_fill'
p6119
asbasbasbag57
(g73
g59
NtRp6120
(dp6121
g62
(dp6122
sg71
g5697
sg64
(lp6123
g57
(g78
g59
NtRp6124
(dp6125
g62
(dp6126
g82
g83
ssg71
g6120
sg64
(lp6127
S'flash'
p6128
asbag57
(g78
g59
NtRp6129
(dp6130
g62
(dp6131
g89
g90
ssg71
g6120
sg64
(lp6132
S':'
asbag57
(g78
g59
NtRp6133
(dp6134
g62
(dp6135
sg71
g6120
sg64
(lp6136
g57
(g58
g59
NtRp6137
(dp6138
g62
(dp6139
g70
I5
ssg71
g6133
sg64
(lp6140
S'None'
p6141
asbasbasbag57
(g73
g59
NtRp6142
(dp6143
g62
(dp6144
sg71
g5697
sg64
(lp6145
g57
(g78
g59
NtRp6146
(dp6147
g62
(dp6148
g82
g83
ssg71
g6142
sg64
(lp6149
S'last_orderby'
p6150
asbag57
(g78
g59
NtRp6151
(dp6152
g62
(dp6153
g89
g90
ssg71
g6142
sg64
(lp6154
S':'
asbag57
(g78
g59
NtRp6155
(dp6156
g62
(dp6157
sg71
g6142
sg64
(lp6158
g57
(g58
g59
NtRp6159
(dp6160
g62
(dp6161
g70
I5
ssg71
g6155
sg64
(lp6162
S'None'
p6163
asbasbasbag57
(g73
g59
NtRp6164
(dp6165
g62
(dp6166
sg71
g5697
sg64
(lp6167
g57
(g78
g59
NtRp6168
(dp6169
g62
(dp6170
g82
g83
ssg71
g6164
sg64
(lp6171
S'last_query'
p6172
asbag57
(g78
g59
NtRp6173
(dp6174
g62
(dp6175
g89
g90
ssg71
g6164
sg64
(lp6176
S':'
asbag57
(g78
g59
NtRp6177
(dp6178
g62
(dp6179
sg71
g6164
sg64
(lp6180
g57
(g58
g59
NtRp6181
(dp6182
g62
(dp6183
g70
I5
ssg71
g6177
sg64
(lp6184
S'db.status.id>0'
p6185
asbasbasbag57
(g73
g59
NtRp6186
(dp6187
g62
(dp6188
sg71
g5697
sg64
(lp6189
g57
(g78
g59
NtRp6190
(dp6191
g62
(dp6192
g82
g83
ssg71
g6186
sg64
(lp6193
S'myfile0'
p6194
asbag57
(g78
g59
NtRp6195
(dp6196
g62
(dp6197
g89
g90
ssg71
g6186
sg64
(lp6198
S':'
asbag57
(g78
g59
NtRp6199
(dp6200
g62
(dp6201
sg71
g6186
sg64
(lp6202
g57
(g58
g59
NtRp6203
(dp6204
g62
(dp6205
g70
I5
ssg71
g6199
sg64
(lp6206
S''
asbasbasbag57
(g73
g59
NtRp6207
(dp6208
g62
(dp6209
sg71
g5697
sg64
(lp6210
g57
(g78
g59
NtRp6211
(dp6212
g62
(dp6213
g82
g83
ssg71
g6207
sg64
(lp6214
S'myfile1'
p6215
asbag57
(g78
g59
NtRp6216
(dp6217
g62
(dp6218
g89
g90
ssg71
g6207
sg64
(lp6219
S':'
asbag57
(g78
g59
NtRp6220
(dp6221
g62
(dp6222
sg71
g6207
sg64
(lp6223
g57
(g58
g59
NtRp6224
(dp6225
g62
(dp6226
g70
I5
ssg71
g6220
sg64
(lp6227
S''
asbasbasbag57
(g73
g59
NtRp6228
(dp6229
g62
(dp6230
sg71
g5697
sg64
(lp6231
g57
(g78
g59
NtRp6232
(dp6233
g62
(dp6234
g82
g83
ssg71
g6228
sg64
(lp6235
S'myfile2'
p6236
asbag57
(g78
g59
NtRp6237
(dp6238
g62
(dp6239
g89
g90
ssg71
g6228
sg64
(lp6240
S':'
asbag57
(g78
g59
NtRp6241
(dp6242
g62
(dp6243
sg71
g6228
sg64
(lp6244
g57
(g58
g59
NtRp6245
(dp6246
g62
(dp6247
g70
I5
ssg71
g6241
sg64
(lp6248
S''
asbasbasbag57
(g73
g59
NtRp6249
(dp6250
g62
(dp6251
sg71
g5697
sg64
(lp6252
g57
(g78
g59
NtRp6253
(dp6254
g62
(dp6255
g82
g83
ssg71
g6249
sg64
(lp6256
S'myfile3'
p6257
asbag57
(g78
g59
NtRp6258
(dp6259
g62
(dp6260
g89
g90
ssg71
g6249
sg64
(lp6261
S':'
asbag57
(g78
g59
NtRp6262
(dp6263
g62
(dp6264
sg71
g6249
sg64
(lp6265
g57
(g58
g59
NtRp6266
(dp6267
g62
(dp6268
g70
I5
ssg71
g6262
sg64
(lp6269
S''
asbasbasbag57
(g73
g59
NtRp6270
(dp6271
g62
(dp6272
sg71
g5697
sg64
(lp6273
g57
(g78
g59
NtRp6274
(dp6275
g62
(dp6276
g82
g83
ssg71
g6270
sg64
(lp6277
S'myfile4'
p6278
asbag57
(g78
g59
NtRp6279
(dp6280
g62
(dp6281
g89
g90
ssg71
g6270
sg64
(lp6282
S':'
asbag57
(g78
g59
NtRp6283
(dp6284
g62
(dp6285
sg71
g6270
sg64
(lp6286
g57
(g58
g59
NtRp6287
(dp6288
g62
(dp6289
g70
I5
ssg71
g6283
sg64
(lp6290
S''
asbasbasbag57
(g73
g59
NtRp6291
(dp6292
g62
(dp6293
sg71
g5697
sg64
(lp6294
g57
(g78
g59
NtRp6295
(dp6296
g62
(dp6297
g82
g83
ssg71
g6291
sg64
(lp6298
S'myfile5'
p6299
asbag57
(g78
g59
NtRp6300
(dp6301
g62
(dp6302
g89
g90
ssg71
g6291
sg64
(lp6303
S':'
asbag57
(g78
g59
NtRp6304
(dp6305
g62
(dp6306
sg71
g6291
sg64
(lp6307
g57
(g58
g59
NtRp6308
(dp6309
g62
(dp6310
g70
I5
ssg71
g6304
sg64
(lp6311
S''
asbasbasbag57
(g73
g59
NtRp6312
(dp6313
g62
(dp6314
sg71
g5697
sg64
(lp6315
g57
(g78
g59
NtRp6316
(dp6317
g62
(dp6318
g82
g83
ssg71
g6312
sg64
(lp6319
S'myfile6'
p6320
asbag57
(g78
g59
NtRp6321
(dp6322
g62
(dp6323
g89
g90
ssg71
g6312
sg64
(lp6324
S':'
asbag57
(g78
g59
NtRp6325
(dp6326
g62
(dp6327
sg71
g6312
sg64
(lp6328
g57
(g58
g59
NtRp6329
(dp6330
g62
(dp6331
g70
I5
ssg71
g6325
sg64
(lp6332
S'None'
p6333
asbasbasbag57
(g73
g59
NtRp6334
(dp6335
g62
(dp6336
sg71
g5697
sg64
(lp6337
g57
(g78
g59
NtRp6338
(dp6339
g62
(dp6340
g82
g83
ssg71
g6334
sg64
(lp6341
S'output'
p6342
asbag57
(g78
g59
NtRp6343
(dp6344
g62
(dp6345
g89
g90
ssg71
g6334
sg64
(lp6346
S':'
asbag57
(g78
g59
NtRp6347
(dp6348
g62
(dp6349
sg71
g6334
sg64
(lp6350
g57
(g58
g59
NtRp6351
(dp6352
g62
(dp6353
g70
I5
ssg71
g6347
sg64
(lp6354
g57
(g66
g59
NtRp6355
(dp6356
g62
(dp6357
g70
I4
ssg71
Nsg64
(lp6358
sbasbasbasbag57
(g73
g59
NtRp6359
(dp6360
g62
(dp6361
sg71
g5697
sg64
(lp6362
g57
(g78
g59
NtRp6363
(dp6364
g62
(dp6365
g82
g83
ssg71
g6359
sg64
(lp6366
S'protocol'
p6367
asbag57
(g78
g59
NtRp6368
(dp6369
g62
(dp6370
g89
g90
ssg71
g6359
sg64
(lp6371
S':'
asbag57
(g78
g59
NtRp6372
(dp6373
g62
(dp6374
sg71
g6359
sg64
(lp6375
g57
(g58
g59
NtRp6376
(dp6377
g62
(dp6378
g70
I5
ssg71
g6372
sg64
(lp6379
S'normalize_file'
p6380
asbasbasbasbasbsS'etype'
p6381
S"<type 'exceptions.KeyError'>"
p6382
sS'date'
p6383
S'Wed Feb 13 14:19:46 2013'
p6384
sS'response'
p6385
g57
(g58
g59
NtRp6386
(dp6387
g62
(dp6388
sg64
(lp6389
g57
(g66
g59
NtRp6390
(dp6391
g62
(dp6392
g70
I5
ssg71
Nsg64
(lp6393
g57
(g73
g59
NtRp6394
(dp6395
g62
(dp6396
sg71
g6390
sg64
(lp6397
g57
(g78
g59
NtRp6398
(dp6399
g62
(dp6400
g82
g83
ssg71
g6394
sg64
(lp6401
g155
asbag57
(g78
g59
NtRp6402
(dp6403
g62
(dp6404
g89
g90
ssg71
g6394
sg64
(lp6405
S':'
asbag57
(g78
g59
NtRp6406
(dp6407
g62
(dp6408
sg71
g6394
sg64
(lp6409
g57
(g58
g59
NtRp6410
(dp6411
g62
(dp6412
g70
I5
ssg71
g6406
sg64
(lp6413
S'<cStringIO.StringO object at 0x6688650>'
p6414
asbasbasbag57
(g73
g59
NtRp6415
(dp6416
g62
(dp6417
sg71
g6390
sg64
(lp6418
g57
(g78
g59
NtRp6419
(dp6420
g62
(dp6421
g82
g83
ssg71
g6415
sg64
(lp6422
g243
asbag57
(g78
g59
NtRp6423
(dp6424
g62
(dp6425
g89
g90
ssg71
g6415
sg64
(lp6426
S':'
asbag57
(g78
g59
NtRp6427
(dp6428
g62
(dp6429
sg71
g6415
sg64
(lp6430
g57
(g58
g59
NtRp6431
(dp6432
g62
(dp6433
g70
I5
ssg71
g6427
sg64
(lp6434
g57
(g66
g59
NtRp6435
(dp6436
g62
(dp6437
g70
I4
ssg71
Nsg64
(lp6438
g57
(g73
g59
NtRp6439
(dp6440
g62
(dp6441
sg71
g6435
sg64
(lp6442
g57
(g78
g59
NtRp6443
(dp6444
g62
(dp6445
g82
g83
ssg71
g6439
sg64
(lp6446
S'session_id_betsy'
p6447
asbag57
(g78
g59
NtRp6448
(dp6449
g62
(dp6450
g89
g90
ssg71
g6439
sg64
(lp6451
S':'
asbag57
(g78
g59
NtRp6452
(dp6453
g62
(dp6454
sg71
g6439
sg64
(lp6455
g57
(g58
g59
NtRp6456
(dp6457
g62
(dp6458
g70
I4
ssg71
g6452
sg64
(lp6459
g475
ag57
(g66
g59
NtRp6460
(dp6461
g62
(dp6462
g70
I3
ssg71
Nsg64
(lp6463
g57
(g73
g59
NtRp6464
(dp6465
g62
(dp6466
sg71
g6460
sg64
(lp6467
g57
(g78
g59
NtRp6468
(dp6469
g62
(dp6470
g82
g83
ssg71
g6464
sg64
(lp6471
g294
asbag57
(g78
g59
NtRp6472
(dp6473
g62
(dp6474
g89
g90
ssg71
g6464
sg64
(lp6475
S':'
asbag57
(g78
g59
NtRp6476
(dp6477
g62
(dp6478
sg71
g6464
sg64
(lp6479
g57
(g58
g59
NtRp6480
(dp6481
g62
(dp6482
g70
I3
ssg71
g6476
sg64
(lp6483
S''
asbasbasbag57
(g73
g59
NtRp6484
(dp6485
g62
(dp6486
sg71
g6460
sg64
(lp6487
g57
(g78
g59
NtRp6488
(dp6489
g62
(dp6490
g82
g83
ssg71
g6484
sg64
(lp6491
g315
asbag57
(g78
g59
NtRp6492
(dp6493
g62
(dp6494
g89
g90
ssg71
g6484
sg64
(lp6495
S':'
asbag57
(g78
g59
NtRp6496
(dp6497
g62
(dp6498
sg71
g6484
sg64
(lp6499
g57
(g58
g59
NtRp6500
(dp6501
g62
(dp6502
g70
I3
ssg71
g6496
sg64
(lp6503
S''
asbasbasbag57
(g73
g59
NtRp6504
(dp6505
g62
(dp6506
sg71
g6460
sg64
(lp6507
g57
(g78
g59
NtRp6508
(dp6509
g62
(dp6510
g82
g83
ssg71
g6504
sg64
(lp6511
g336
asbag57
(g78
g59
NtRp6512
(dp6513
g62
(dp6514
g89
g90
ssg71
g6504
sg64
(lp6515
S':'
asbag57
(g78
g59
NtRp6516
(dp6517
g62
(dp6518
sg71
g6504
sg64
(lp6519
g57
(g58
g59
NtRp6520
(dp6521
g62
(dp6522
g70
I3
ssg71
g6516
sg64
(lp6523
S'2592000'
p6524
asbasbasbag57
(g73
g59
NtRp6525
(dp6526
g62
(dp6527
sg71
g6460
sg64
(lp6528
g57
(g78
g59
NtRp6529
(dp6530
g62
(dp6531
g82
g83
ssg71
g6525
sg64
(lp6532
g357
asbag57
(g78
g59
NtRp6533
(dp6534
g62
(dp6535
g89
g90
ssg71
g6525
sg64
(lp6536
S':'
asbag57
(g78
g59
NtRp6537
(dp6538
g62
(dp6539
sg71
g6525
sg64
(lp6540
g57
(g58
g59
NtRp6541
(dp6542
g62
(dp6543
g70
I3
ssg71
g6537
sg64
(lp6544
S''
asbasbasbag57
(g73
g59
NtRp6545
(dp6546
g62
(dp6547
sg71
g6460
sg64
(lp6548
g57
(g78
g59
NtRp6549
(dp6550
g62
(dp6551
g82
g83
ssg71
g6545
sg64
(lp6552
g378
asbag57
(g78
g59
NtRp6553
(dp6554
g62
(dp6555
g89
g90
ssg71
g6545
sg64
(lp6556
S':'
asbag57
(g78
g59
NtRp6557
(dp6558
g62
(dp6559
sg71
g6545
sg64
(lp6560
g57
(g58
g59
NtRp6561
(dp6562
g62
(dp6563
g70
I3
ssg71
g6557
sg64
(lp6564
S''
asbasbasbag57
(g73
g59
NtRp6565
(dp6566
g62
(dp6567
sg71
g6460
sg64
(lp6568
g57
(g78
g59
NtRp6569
(dp6570
g62
(dp6571
g82
g83
ssg71
g6565
sg64
(lp6572
g399
asbag57
(g78
g59
NtRp6573
(dp6574
g62
(dp6575
g89
g90
ssg71
g6565
sg64
(lp6576
S':'
asbag57
(g78
g59
NtRp6577
(dp6578
g62
(dp6579
sg71
g6565
sg64
(lp6580
g57
(g58
g59
NtRp6581
(dp6582
g62
(dp6583
g70
I3
ssg71
g6577
sg64
(lp6584
S'/'
asbasbasbag57
(g73
g59
NtRp6585
(dp6586
g62
(dp6587
sg71
g6460
sg64
(lp6588
g57
(g78
g59
NtRp6589
(dp6590
g62
(dp6591
g82
g83
ssg71
g6585
sg64
(lp6592
g420
asbag57
(g78
g59
NtRp6593
(dp6594
g62
(dp6595
g89
g90
ssg71
g6585
sg64
(lp6596
S':'
asbag57
(g78
g59
NtRp6597
(dp6598
g62
(dp6599
sg71
g6585
sg64
(lp6600
g57
(g58
g59
NtRp6601
(dp6602
g62
(dp6603
g70
I3
ssg71
g6597
sg64
(lp6604
S''
asbasbasbag57
(g73
g59
NtRp6605
(dp6606
g62
(dp6607
sg71
g6460
sg64
(lp6608
g57
(g78
g59
NtRp6609
(dp6610
g62
(dp6611
g82
g83
ssg71
g6605
sg64
(lp6612
g441
asbag57
(g78
g59
NtRp6613
(dp6614
g62
(dp6615
g89
g90
ssg71
g6605
sg64
(lp6616
S':'
asbag57
(g78
g59
NtRp6617
(dp6618
g62
(dp6619
sg71
g6605
sg64
(lp6620
g57
(g58
g59
NtRp6621
(dp6622
g62
(dp6623
g70
I3
ssg71
g6617
sg64
(lp6624
S''
asbasbasbasbasbasbasbasbasbasbasbag57
(g73
g59
NtRp6625
(dp6626
g62
(dp6627
sg71
g6390
sg64
(lp6628
g57
(g78
g59
NtRp6629
(dp6630
g62
(dp6631
g82
g83
ssg71
g6625
sg64
(lp6632
S'delimiters'
p6633
asbag57
(g78
g59
NtRp6634
(dp6635
g62
(dp6636
g89
g90
ssg71
g6625
sg64
(lp6637
S':'
asbag57
(g78
g59
NtRp6638
(dp6639
g62
(dp6640
sg71
g6625
sg64
(lp6641
g57
(g58
g59
NtRp6642
(dp6643
g62
(dp6644
g70
I5
ssg71
g6638
sg64
(lp6645
g57
(g66
g59
NtRp6646
(dp6647
g62
(dp6648
g70
I4
ssg71
Nsg64
(lp6649
g57
(g73
g59
NtRp6650
(dp6651
g62
(dp6652
sg71
g6646
sg64
(lp6653
g57
(g78
g59
NtRp6654
(dp6655
g62
(dp6656
sg71
g6650
sg64
(lp6657
g57
(g58
g59
NtRp6658
(dp6659
g62
(dp6660
g70
I4
ssg71
g6654
sg64
(lp6661
S'{{'
p6662
asbasbasbag57
(g73
g59
NtRp6663
(dp6664
g62
(dp6665
sg71
g6646
sg64
(lp6666
g57
(g78
g59
NtRp6667
(dp6668
g62
(dp6669
sg71
g6663
sg64
(lp6670
g57
(g58
g59
NtRp6671
(dp6672
g62
(dp6673
g70
I4
ssg71
g6667
sg64
(lp6674
S'}}'
p6675
asbasbasbasbasbasbasbag57
(g73
g59
NtRp6676
(dp6677
g62
(dp6678
sg71
g6390
sg64
(lp6679
g57
(g78
g59
NtRp6680
(dp6681
g62
(dp6682
g82
g83
ssg71
g6676
sg64
(lp6683
S'files'
p6684
asbag57
(g78
g59
NtRp6685
(dp6686
g62
(dp6687
g89
g90
ssg71
g6676
sg64
(lp6688
S':'
asbag57
(g78
g59
NtRp6689
(dp6690
g62
(dp6691
sg71
g6676
sg64
(lp6692
g57
(g58
g59
NtRp6693
(dp6694
g62
(dp6695
g70
I5
ssg71
g6689
sg64
(lp6696
g57
(g66
g59
NtRp6697
(dp6698
g62
(dp6699
g70
I4
ssg71
Nsg64
(lp6700
sbasbasbasbag57
(g73
g59
NtRp6701
(dp6702
g62
(dp6703
sg71
g6390
sg64
(lp6704
g57
(g78
g59
NtRp6705
(dp6706
g62
(dp6707
g82
g83
ssg71
g6701
sg64
(lp6708
S'flash'
p6709
asbag57
(g78
g59
NtRp6710
(dp6711
g62
(dp6712
g89
g90
ssg71
g6701
sg64
(lp6713
S':'
asbag57
(g78
g59
NtRp6714
(dp6715
g62
(dp6716
sg71
g6701
sg64
(lp6717
g57
(g58
g59
NtRp6718
(dp6719
g62
(dp6720
g70
I5
ssg71
g6714
sg64
(lp6721
S''
asbasbasbag57
(g73
g59
NtRp6722
(dp6723
g62
(dp6724
sg71
g6390
sg64
(lp6725
g57
(g78
g59
NtRp6726
(dp6727
g62
(dp6728
g82
g83
ssg71
g6722
sg64
(lp6729
S'generic_patterns'
p6730
asbag57
(g78
g59
NtRp6731
(dp6732
g62
(dp6733
g89
g90
ssg71
g6722
sg64
(lp6734
S':'
asbag57
(g78
g59
NtRp6735
(dp6736
g62
(dp6737
sg71
g6722
sg64
(lp6738
g57
(g58
g59
NtRp6739
(dp6740
g62
(dp6741
g70
I5
ssg71
g6735
sg64
(lp6742
g57
(g66
g59
NtRp6743
(dp6744
g62
(dp6745
g70
I4
ssg71
Nsg64
(lp6746
g57
(g73
g59
NtRp6747
(dp6748
g62
(dp6749
sg71
g6743
sg64
(lp6750
g57
(g78
g59
NtRp6751
(dp6752
g62
(dp6753
sg71
g6747
sg64
(lp6754
g57
(g58
g59
NtRp6755
(dp6756
g62
(dp6757
g70
I4
ssg71
g6751
sg64
(lp6758
S'*'
asbasbasbasbasbasbasbag57
(g73
g59
NtRp6759
(dp6760
g62
(dp6761
sg71
g6390
sg64
(lp6762
g57
(g78
g59
NtRp6763
(dp6764
g62
(dp6765
g82
g83
ssg71
g6759
sg64
(lp6766
S'google_analytics_id'
p6767
asbag57
(g78
g59
NtRp6768
(dp6769
g62
(dp6770
g89
g90
ssg71
g6759
sg64
(lp6771
S':'
asbag57
(g78
g59
NtRp6772
(dp6773
g62
(dp6774
sg71
g6759
sg64
(lp6775
g57
(g58
g59
NtRp6776
(dp6777
g62
(dp6778
g70
I5
ssg71
g6772
sg64
(lp6779
S'None'
p6780
asbasbasbag57
(g73
g59
NtRp6781
(dp6782
g62
(dp6783
sg71
g6390
sg64
(lp6784
g57
(g78
g59
NtRp6785
(dp6786
g62
(dp6787
g82
g83
ssg71
g6781
sg64
(lp6788
S'headers'
p6789
asbag57
(g78
g59
NtRp6790
(dp6791
g62
(dp6792
g89
g90
ssg71
g6781
sg64
(lp6793
S':'
asbag57
(g78
g59
NtRp6794
(dp6795
g62
(dp6796
sg71
g6781
sg64
(lp6797
g57
(g58
g59
NtRp6798
(dp6799
g62
(dp6800
g70
I5
ssg71
g6794
sg64
(lp6801
g57
(g66
g59
NtRp6802
(dp6803
g62
(dp6804
g70
I4
ssg71
Nsg64
(lp6805
g57
(g73
g59
NtRp6806
(dp6807
g62
(dp6808
sg71
g6802
sg64
(lp6809
g57
(g78
g59
NtRp6810
(dp6811
g62
(dp6812
g82
g83
ssg71
g6806
sg64
(lp6813
S'X-Powered-By'
p6814
asbag57
(g78
g59
NtRp6815
(dp6816
g62
(dp6817
g89
g90
ssg71
g6806
sg64
(lp6818
S':'
asbag57
(g78
g59
NtRp6819
(dp6820
g62
(dp6821
sg71
g6806
sg64
(lp6822
g57
(g58
g59
NtRp6823
(dp6824
g62
(dp6825
g70
I4
ssg71
g6819
sg64
(lp6826
S'web2py'
p6827
asbasbasbasbasbasbasbag57
(g73
g59
NtRp6828
(dp6829
g62
(dp6830
sg71
g6390
sg64
(lp6831
g57
(g78
g59
NtRp6832
(dp6833
g62
(dp6834
g82
g83
ssg71
g6828
sg64
(lp6835
S'menu'
p6836
asbag57
(g78
g59
NtRp6837
(dp6838
g62
(dp6839
g89
g90
ssg71
g6828
sg64
(lp6840
S':'
asbag57
(g78
g59
NtRp6841
(dp6842
g62
(dp6843
sg71
g6828
sg64
(lp6844
g57
(g58
g59
NtRp6845
(dp6846
g62
(dp6847
g70
I5
ssg71
g6841
sg64
(lp6848
g57
(g66
g59
NtRp6849
(dp6850
g62
(dp6851
g70
I4
ssg71
Nsg64
(lp6852
g57
(g73
g59
NtRp6853
(dp6854
g62
(dp6855
sg71
g6849
sg64
(lp6856
g57
(g78
g59
NtRp6857
(dp6858
g62
(dp6859
sg71
g6853
sg64
(lp6860
g57
(g58
g59
NtRp6861
(dp6862
g62
(dp6863
g70
I4
ssg71
g6857
sg64
(lp6864
g57
(g66
g59
NtRp6865
(dp6866
g62
(dp6867
g70
I3
ssg71
Nsg64
(lp6868
g57
(g73
g59
NtRp6869
(dp6870
g62
(dp6871
sg71
g6865
sg64
(lp6872
g57
(g78
g59
NtRp6873
(dp6874
g62
(dp6875
sg71
g6869
sg64
(lp6876
g57
(g58
g59
NtRp6877
(dp6878
g62
(dp6879
g70
I3
ssg71
g6873
sg64
(lp6880
cgluon.languages
lazyT_unpickle
p6881
(S's\x04\x00\x00\x00Home'
tRp6882
asbasbasbag57
(g73
g59
NtRp6883
(dp6884
g62
(dp6885
sg71
g6865
sg64
(lp6886
g57
(g78
g59
NtRp6887
(dp6888
g62
(dp6889
sg71
g6883
sg64
(lp6890
g57
(g58
g59
NtRp6891
(dp6892
g62
(dp6893
g70
I3
ssg71
g6887
sg64
(lp6894
g100
asbasbasbag57
(g73
g59
NtRp6895
(dp6896
g62
(dp6897
sg71
g6865
sg64
(lp6898
g57
(g78
g59
NtRp6899
(dp6900
g62
(dp6901
sg71
g6895
sg64
(lp6902
g57
(g58
g59
NtRp6903
(dp6904
g62
(dp6905
g70
I3
ssg71
g6899
sg64
(lp6906
S'/Betsy/default/index'
p6907
asbasbasbag57
(g73
g59
NtRp6908
(dp6909
g62
(dp6910
sg71
g6865
sg64
(lp6911
g57
(g78
g59
NtRp6912
(dp6913
g62
(dp6914
sg71
g6908
sg64
(lp6915
g57
(g58
g59
NtRp6916
(dp6917
g62
(dp6918
g70
I3
ssg71
g6912
sg64
(lp6919
g57
(g66
g59
NtRp6920
(dp6921
g62
(dp6922
g70
I2
ssg71
Nsg64
(lp6923
sbasbasbasbasbasbasbasbag57
(g73
g59
NtRp6924
(dp6925
g62
(dp6926
sg71
g6849
sg64
(lp6927
g57
(g78
g59
NtRp6928
(dp6929
g62
(dp6930
sg71
g6924
sg64
(lp6931
g57
(g58
g59
NtRp6932
(dp6933
g62
(dp6934
g70
I4
ssg71
g6928
sg64
(lp6935
g57
(g66
g59
NtRp6936
(dp6937
g62
(dp6938
g70
I3
ssg71
Nsg64
(lp6939
g57
(g73
g59
NtRp6940
(dp6941
g62
(dp6942
sg71
g6936
sg64
(lp6943
g57
(g78
g59
NtRp6944
(dp6945
g62
(dp6946
sg71
g6940
sg64
(lp6947
g57
(g58
g59
NtRp6948
(dp6949
g62
(dp6950
g70
I3
ssg71
g6944
sg64
(lp6951
g57
(cgluon.html
SPAN
p6952
g59
NtRp6953
(dp6954
g62
(dp6955
S'_class'
p6956
S'highlighted'
p6957
ssg71
Nsg64
(lp6958
g6827
asbasbasbasbag57
(g73
g59
NtRp6959
(dp6960
g62
(dp6961
sg71
g6936
sg64
(lp6962
g57
(g78
g59
NtRp6963
(dp6964
g62
(dp6965
sg71
g6959
sg64
(lp6966
g57
(g58
g59
NtRp6967
(dp6968
g62
(dp6969
g70
I3
ssg71
g6963
sg64
(lp6970
g100
asbasbasbag57
(g73
g59
NtRp6971
(dp6972
g62
(dp6973
sg71
g6936
sg64
(lp6974
g57
(g78
g59
NtRp6975
(dp6976
g62
(dp6977
sg71
g6971
sg64
(lp6978
g57
(g58
g59
NtRp6979
(dp6980
g62
(dp6981
g70
I3
ssg71
g6975
sg64
(lp6982
S'http://web2py.com'
p6983
asbasbasbag57
(g73
g59
NtRp6984
(dp6985
g62
(dp6986
sg71
g6936
sg64
(lp6987
g57
(g78
g59
NtRp6988
(dp6989
g62
(dp6990
sg71
g6984
sg64
(lp6991
g57
(g58
g59
NtRp6992
(dp6993
g62
(dp6994
g70
I3
ssg71
g6988
sg64
(lp6995
g57
(g66
g59
NtRp6996
(dp6997
g62
(dp6998
g70
I2
ssg71
Nsg64
(lp6999
g57
(g73
g59
NtRp7000
(dp7001
g62
(dp7002
sg71
g6996
sg64
(lp7003
g57
(g78
g59
NtRp7004
(dp7005
g62
(dp7006
sg71
g7000
sg64
(lp7007
g57
(g58
g59
NtRp7008
(dp7009
g62
(dp7010
g70
I2
ssg71
g7004
sg64
(lp7011
g57
(g66
g59
NtRp7012
(dp7013
g62
(dp7014
g70
I1
ssg71
Nsg64
(lp7015
g57
(g73
g59
NtRp7016
(dp7017
g62
(dp7018
sg71
g7012
sg64
(lp7019
g57
(g78
g59
NtRp7020
(dp7021
g62
(dp7022
sg71
g7016
sg64
(lp7023
g57
(g58
g59
NtRp7024
(dp7025
g62
(dp7026
g70
I1
ssg71
g7020
sg64
(lp7027
g6881
(S's\x08\x00\x00\x00My Sites'
tRp7028
asbasbasbag57
(g73
g59
NtRp7029
(dp7030
g62
(dp7031
sg71
g7012
sg64
(lp7032
g57
(g78
g59
NtRp7033
(dp7034
g62
(dp7035
sg71
g7029
sg64
(lp7036
g57
(g58
g59
NtRp7037
(dp7038
g62
(dp7039
g70
I1
ssg71
g7033
sg64
(lp7040
I00
asbasbasbag57
(g73
g59
NtRp7041
(dp7042
g62
(dp7043
sg71
g7012
sg64
(lp7044
g57
(g78
g59
NtRp7045
(dp7046
g62
(dp7047
sg71
g7041
sg64
(lp7048
g57
(g58
g59
NtRp7049
(dp7050
g62
(dp7051
g70
I1
ssg71
g7045
sg64
(lp7052
S'/admin/default/site'
p7053
asbasbasbasbasbasbasbag57
(g73
g59
NtRp7054
(dp7055
g62
(dp7056
sg71
g6996
sg64
(lp7057
g57
(g78
g59
NtRp7058
(dp7059
g62
(dp7060
sg71
g7054
sg64
(lp7061
g57
(g58
g59
NtRp7062
(dp7063
g62
(dp7064
g70
I2
ssg71
g7058
sg64
(lp7065
g57
(g66
g59
NtRp7066
(dp7067
g62
(dp7068
g70
I1
ssg71
Nsg64
(lp7069
g57
(g73
g59
NtRp7070
(dp7071
g62
(dp7072
sg71
g7066
sg64
(lp7073
g57
(g78
g59
NtRp7074
(dp7075
g62
(dp7076
sg71
g7070
sg64
(lp7077
g57
(g58
g59
NtRp7078
(dp7079
g62
(dp7080
g70
I1
ssg71
g7074
sg64
(lp7081
g6881
(S's\x08\x00\x00\x00This App'
tRp7082
asbasbasbag57
(g73
g59
NtRp7083
(dp7084
g62
(dp7085
sg71
g7066
sg64
(lp7086
g57
(g78
g59
NtRp7087
(dp7088
g62
(dp7089
sg71
g7083
sg64
(lp7090
g57
(g58
g59
NtRp7091
(dp7092
g62
(dp7093
g70
I1
ssg71
g7087
sg64
(lp7094
I00
asbasbasbag57
(g73
g59
NtRp7095
(dp7096
g62
(dp7097
sg71
g7066
sg64
(lp7098
g57
(g78
g59
NtRp7099
(dp7100
g62
(dp7101
sg71
g7095
sg64
(lp7102
g57
(g58
g59
NtRp7103
(dp7104
g62
(dp7105
g70
I1
ssg71
g7099
sg64
(lp7106
S'/admin/default/design/Betsy'
p7107
asbasbasbag57
(g73
g59
NtRp7108
(dp7109
g62
(dp7110
sg71
g7066
sg64
(lp7111
g57
(g78
g59
NtRp7112
(dp7113
g62
(dp7114
sg71
g7108
sg64
(lp7115
g57
(g58
g59
NtRp7116
(dp7117
g62
(dp7118
g70
I1
ssg71
g7112
sg64
(lp7119
(lp7120
(g6881
(S's\n\x00\x00\x00Controller'
tRp7121
I00
S'/admin/default/edit/Betsy/controllers/default.py'
tp7122
a(g6881
(S's\x04\x00\x00\x00View'
tRp7123
I00
S'/admin/default/edit/Betsy/views/default/normalize_file.html'
tp7124
a(g6881
(S's\x06\x00\x00\x00Layout'
tRp7125
I00
S'/admin/default/edit/Betsy/views/layout.html'
tp7126
a(g6881
(S's\n\x00\x00\x00Stylesheet'
tRp7127
I00
S'/admin/default/edit/Betsy/static/css/web2py.css'
tp7128
a(g6881
(S's\x08\x00\x00\x00DB Model'
tRp7129
I00
S'/admin/default/edit/Betsy/models/db.py'
tp7130
a(g6881
(S's\n\x00\x00\x00Menu Model'
tRp7131
I00
S'/admin/default/edit/Betsy/models/menu.py'
tp7132
a(g6881
(S's\x08\x00\x00\x00Database'
tRp7133
I00
S'/Betsy/appadmin/index'
tp7134
a(g6881
(S's\x06\x00\x00\x00Errors'
tRp7135
I00
S'/admin/default/errors/Betsy'
tp7136
a(g6881
(S's\x05\x00\x00\x00About'
tRp7137
I00
S'/admin/default/about/Betsy'
tp7138
aasbasbasbasbasbasbasbag57
(g73
g59
NtRp7139
(dp7140
g62
(dp7141
sg71
g6996
sg64
(lp7142
g57
(g78
g59
NtRp7143
(dp7144
g62
(dp7145
sg71
g7139
sg64
(lp7146
g57
(g58
g59
NtRp7147
(dp7148
g62
(dp7149
g70
I2
ssg71
g7143
sg64
(lp7150
g57
(g66
g59
NtRp7151
(dp7152
g62
(dp7153
g70
I1
ssg71
Nsg64
(lp7154
g57
(g73
g59
NtRp7155
(dp7156
g62
(dp7157
sg71
g7151
sg64
(lp7158
g57
(g78
g59
NtRp7159
(dp7160
g62
(dp7161
sg71
g7155
sg64
(lp7162
g57
(g58
g59
NtRp7163
(dp7164
g62
(dp7165
g70
I1
ssg71
g7159
sg64
(lp7166
S'web2py.com'
p7167
asbasbasbag57
(g73
g59
NtRp7168
(dp7169
g62
(dp7170
sg71
g7151
sg64
(lp7171
g57
(g78
g59
NtRp7172
(dp7173
g62
(dp7174
sg71
g7168
sg64
(lp7175
g57
(g58
g59
NtRp7176
(dp7177
g62
(dp7178
g70
I1
ssg71
g7172
sg64
(lp7179
I00
asbasbasbag57
(g73
g59
NtRp7180
(dp7181
g62
(dp7182
sg71
g7151
sg64
(lp7183
g57
(g78
g59
NtRp7184
(dp7185
g62
(dp7186
sg71
g7180
sg64
(lp7187
g57
(g58
g59
NtRp7188
(dp7189
g62
(dp7190
g70
I1
ssg71
g7184
sg64
(lp7191
S'http://www.web2py.com'
p7192
asbasbasbag57
(g73
g59
NtRp7193
(dp7194
g62
(dp7195
sg71
g7151
sg64
(lp7196
g57
(g78
g59
NtRp7197
(dp7198
g62
(dp7199
sg71
g7193
sg64
(lp7200
g57
(g58
g59
NtRp7201
(dp7202
g62
(dp7203
g70
I1
ssg71
g7197
sg64
(lp7204
(lp7205
(g6881
(S's\x08\x00\x00\x00Download'
tRp7206
I00
S'http://www.web2py.com/examples/default/download'
p7207
tp7208
a(g6881
(S's\x07\x00\x00\x00Support'
tRp7209
I00
S'http://www.web2py.com/examples/default/support'
p7210
tp7211
a(g6881
(S's\x04\x00\x00\x00Demo'
tRp7212
I00
S'http://web2py.com/demo_admin'
p7213
tp7214
a(g6881
(S's\x0e\x00\x00\x00Quick Examples'
tRp7215
I00
S'http://web2py.com/examples/default/examples'
p7216
tp7217
a(g6881
(S's\x03\x00\x00\x00FAQ'
tRp7218
I00
S'http://web2py.com/AlterEgo'
p7219
tp7220
a(g6881
(S's\x06\x00\x00\x00Videos'
tRp7221
I00
S'http://www.web2py.com/examples/default/videos/'
p7222
tp7223
a(g6881
(S's\x11\x00\x00\x00Free Applications'
tRp7224
I00
S'http://web2py.com/appliances'
p7225
tp7226
a(g6881
(S's\x07\x00\x00\x00Plugins'
tRp7227
I00
S'http://web2py.com/plugins'
p7228
tp7229
a(g6881
(S's\x07\x00\x00\x00Layouts'
tRp7230
I00
S'http://web2py.com/layouts'
p7231
tp7232
a(g6881
(S's\x07\x00\x00\x00Recipes'
tRp7233
I00
S'http://web2pyslices.com/'
p7234
tp7235
a(g6881
(S's\x08\x00\x00\x00Semantic'
tRp7236
I00
S'http://web2py.com/semantic'
p7237
tp7238
aasbasbasbasbasbasbasbag57
(g73
g59
NtRp7239
(dp7240
g62
(dp7241
sg71
g6996
sg64
(lp7242
g57
(g78
g59
NtRp7243
(dp7244
g62
(dp7245
sg71
g7239
sg64
(lp7246
g57
(g58
g59
NtRp7247
(dp7248
g62
(dp7249
g70
I2
ssg71
g7243
sg64
(lp7250
g57
(g66
g59
NtRp7251
(dp7252
g62
(dp7253
g70
I1
ssg71
Nsg64
(lp7254
g57
(g73
g59
NtRp7255
(dp7256
g62
(dp7257
sg71
g7251
sg64
(lp7258
g57
(g78
g59
NtRp7259
(dp7260
g62
(dp7261
sg71
g7255
sg64
(lp7262
g57
(g58
g59
NtRp7263
(dp7264
g62
(dp7265
g70
I1
ssg71
g7259
sg64
(lp7266
g6881
(S's\r\x00\x00\x00Documentation'
tRp7267
asbasbasbag57
(g73
g59
NtRp7268
(dp7269
g62
(dp7270
sg71
g7251
sg64
(lp7271
g57
(g78
g59
NtRp7272
(dp7273
g62
(dp7274
sg71
g7268
sg64
(lp7275
g57
(g58
g59
NtRp7276
(dp7277
g62
(dp7278
g70
I1
ssg71
g7272
sg64
(lp7279
I00
asbasbasbag57
(g73
g59
NtRp7280
(dp7281
g62
(dp7282
sg71
g7251
sg64
(lp7283
g57
(g78
g59
NtRp7284
(dp7285
g62
(dp7286
sg71
g7280
sg64
(lp7287
g57
(g58
g59
NtRp7288
(dp7289
g62
(dp7290
g70
I1
ssg71
g7284
sg64
(lp7291
S'http://www.web2py.com/book'
p7292
asbasbasbag57
(g73
g59
NtRp7293
(dp7294
g62
(dp7295
sg71
g7251
sg64
(lp7296
g57
(g78
g59
NtRp7297
(dp7298
g62
(dp7299
sg71
g7293
sg64
(lp7300
g57
(g58
g59
NtRp7301
(dp7302
g62
(dp7303
g70
I1
ssg71
g7297
sg64
(lp7304
(lp7305
(g6881
(S's\x07\x00\x00\x00Preface'
tRp7306
I00
S'http://www.web2py.com/book/default/chapter/00'
p7307
tp7308
a(g6881
(S's\x0c\x00\x00\x00Introduction'
tRp7309
I00
S'http://www.web2py.com/book/default/chapter/01'
p7310
tp7311
a(g6881
(S's\x06\x00\x00\x00Python'
tRp7312
I00
S'http://www.web2py.com/book/default/chapter/02'
p7313
tp7314
a(g6881
(S's\x08\x00\x00\x00Overview'
tRp7315
I00
S'http://www.web2py.com/book/default/chapter/03'
p7316
tp7317
a(g6881
(S's\x08\x00\x00\x00The Core'
tRp7318
I00
S'http://www.web2py.com/book/default/chapter/04'
p7319
tp7320
a(g6881
(S's\t\x00\x00\x00The Views'
tRp7321
I00
S'http://www.web2py.com/book/default/chapter/05'
p7322
tp7323
a(g6881
(S's\x08\x00\x00\x00Database'
tRp7324
I00
S'http://www.web2py.com/book/default/chapter/06'
p7325
tp7326
a(g6881
(S's\x14\x00\x00\x00Forms and Validators'
tRp7327
I00
S'http://www.web2py.com/book/default/chapter/07'
p7328
tp7329
a(g6881
(S's\r\x00\x00\x00Email and SMS'
tRp7330
I00
S'http://www.web2py.com/book/default/chapter/08'
p7331
tp7332
a(g6881
(S's\x0e\x00\x00\x00Access Control'
tRp7333
I00
S'http://www.web2py.com/book/default/chapter/09'
p7334
tp7335
a(g6881
(S's\x08\x00\x00\x00Services'
tRp7336
I00
S'http://www.web2py.com/book/default/chapter/10'
p7337
tp7338
a(g6881
(S's\x0c\x00\x00\x00Ajax Recipes'
tRp7339
I00
S'http://www.web2py.com/book/default/chapter/11'
p7340
tp7341
a(g6881
(S's\x16\x00\x00\x00Components and Plugins'
tRp7342
I00
S'http://www.web2py.com/book/default/chapter/12'
p7343
tp7344
a(g6881
(S's\x12\x00\x00\x00Deployment Recipes'
tRp7345
I00
S'http://www.web2py.com/book/default/chapter/13'
p7346
tp7347
a(g6881
(S's\r\x00\x00\x00Other Recipes'
tRp7348
I00
S'http://www.web2py.com/book/default/chapter/14'
p7349
tp7350
a(g6881
(S's\r\x00\x00\x00Buy this book'
tRp7351
I00
S'http://stores.lulu.com/web2py'
p7352
tp7353
aasbasbasbasbasbasbasbag57
(g73
g59
NtRp7354
(dp7355
g62
(dp7356
sg71
g6996
sg64
(lp7357
g57
(g78
g59
NtRp7358
(dp7359
g62
(dp7360
sg71
g7354
sg64
(lp7361
g57
(g58
g59
NtRp7362
(dp7363
g62
(dp7364
g70
I2
ssg71
g7358
sg64
(lp7365
g57
(g66
g59
NtRp7366
(dp7367
g62
(dp7368
g70
I1
ssg71
Nsg64
(lp7369
g57
(g73
g59
NtRp7370
(dp7371
g62
(dp7372
sg71
g7366
sg64
(lp7373
g57
(g78
g59
NtRp7374
(dp7375
g62
(dp7376
sg71
g7370
sg64
(lp7377
g57
(g58
g59
NtRp7378
(dp7379
g62
(dp7380
g70
I1
ssg71
g7374
sg64
(lp7381
g6881
(S's\t\x00\x00\x00Community'
tRp7382
asbasbasbag57
(g73
g59
NtRp7383
(dp7384
g62
(dp7385
sg71
g7366
sg64
(lp7386
g57
(g78
g59
NtRp7387
(dp7388
g62
(dp7389
sg71
g7383
sg64
(lp7390
g57
(g58
g59
NtRp7391
(dp7392
g62
(dp7393
g70
I1
ssg71
g7387
sg64
(lp7394
I00
asbasbasbag57
(g73
g59
NtRp7395
(dp7396
g62
(dp7397
sg71
g7366
sg64
(lp7398
g57
(g78
g59
NtRp7399
(dp7400
g62
(dp7401
sg71
g7395
sg64
(lp7402
g57
(g58
g59
NtRp7403
(dp7404
g62
(dp7405
g70
I1
ssg71
g7399
sg64
(lp7406
Nasbasbasbag57
(g73
g59
NtRp7407
(dp7408
g62
(dp7409
sg71
g7366
sg64
(lp7410
g57
(g78
g59
NtRp7411
(dp7412
g62
(dp7413
sg71
g7407
sg64
(lp7414
g57
(g58
g59
NtRp7415
(dp7416
g62
(dp7417
g70
I1
ssg71
g7411
sg64
(lp7418
(lp7419
(g6881
(S's\x06\x00\x00\x00Groups'
tRp7420
I00
S'http://www.web2py.com/examples/default/usergroups'
p7421
tp7422
a(g6881
(S's\x07\x00\x00\x00Twitter'
tRp7423
I00
S'http://twitter.com/web2py'
p7424
tp7425
a(g6881
(S's\t\x00\x00\x00Live Chat'
tRp7426
I00
S'http://webchat.freenode.net/?channels=web2py'
p7427
tp7428
aasbasbasbasbasbasbasbag57
(g73
g59
NtRp7429
(dp7430
g62
(dp7431
sg71
g6996
sg64
(lp7432
g57
(g78
g59
NtRp7433
(dp7434
g62
(dp7435
sg71
g7429
sg64
(lp7436
g57
(g58
g59
NtRp7437
(dp7438
g62
(dp7439
g70
I2
ssg71
g7433
sg64
(lp7440
g57
(g66
g59
NtRp7441
(dp7442
g62
(dp7443
g70
I1
ssg71
Nsg64
(lp7444
g57
(g73
g59
NtRp7445
(dp7446
g62
(dp7447
sg71
g7441
sg64
(lp7448
g57
(g78
g59
NtRp7449
(dp7450
g62
(dp7451
sg71
g7445
sg64
(lp7452
g57
(g58
g59
NtRp7453
(dp7454
g62
(dp7455
g70
I1
ssg71
g7449
sg64
(lp7456
g6881
(S's\x07\x00\x00\x00Plugins'
tRp7457
asbasbasbag57
(g73
g59
NtRp7458
(dp7459
g62
(dp7460
sg71
g7441
sg64
(lp7461
g57
(g78
g59
NtRp7462
(dp7463
g62
(dp7464
sg71
g7458
sg64
(lp7465
g57
(g58
g59
NtRp7466
(dp7467
g62
(dp7468
g70
I1
ssg71
g7462
sg64
(lp7469
I00
asbasbasbag57
(g73
g59
NtRp7470
(dp7471
g62
(dp7472
sg71
g7441
sg64
(lp7473
g57
(g78
g59
NtRp7474
(dp7475
g62
(dp7476
sg71
g7470
sg64
(lp7477
g57
(g58
g59
NtRp7478
(dp7479
g62
(dp7480
g70
I1
ssg71
g7474
sg64
(lp7481
Nasbasbasbag57
(g73
g59
NtRp7482
(dp7483
g62
(dp7484
sg71
g7441
sg64
(lp7485
g57
(g78
g59
NtRp7486
(dp7487
g62
(dp7488
sg71
g7482
sg64
(lp7489
g57
(g58
g59
NtRp7490
(dp7491
g62
(dp7492
g70
I1
ssg71
g7486
sg64
(lp7493
(lp7494
(S'plugin_wiki'
p7495
I00
S'http://web2py.com/examples/default/download'
p7496
tp7497
a(g6881
(S's\r\x00\x00\x00Other Plugins'
tRp7498
I00
g7228
tp7499
a(g6881
(S's\x0e\x00\x00\x00Layout Plugins'
tRp7500
I00
g7231
tp7501
aasbasbasbasbasbasbasbasbasbasbasbasbasbasbasbasbasbasbasbag57
(g73
g59
NtRp7502
(dp7503
g62
(dp7504
sg71
g6390
sg64
(lp7505
g57
(g78
g59
NtRp7506
(dp7507
g62
(dp7508
g82
g83
ssg71
g7502
sg64
(lp7509
S'meta'
p7510
asbag57
(g78
g59
NtRp7511
(dp7512
g62
(dp7513
g89
g90
ssg71
g7502
sg64
(lp7514
S':'
asbag57
(g78
g59
NtRp7515
(dp7516
g62
(dp7517
sg71
g7502
sg64
(lp7518
g57
(g58
g59
NtRp7519
(dp7520
g62
(dp7521
g70
I5
ssg71
g7515
sg64
(lp7522
g57
(g66
g59
NtRp7523
(dp7524
g62
(dp7525
g70
I4
ssg71
Nsg64
(lp7526
g57
(g73
g59
NtRp7527
(dp7528
g62
(dp7529
sg71
g7523
sg64
(lp7530
g57
(g78
g59
NtRp7531
(dp7532
g62
(dp7533
g82
g83
ssg71
g7527
sg64
(lp7534
S'author'
p7535
asbag57
(g78
g59
NtRp7536
(dp7537
g62
(dp7538
g89
g90
ssg71
g7527
sg64
(lp7539
S':'
asbag57
(g78
g59
NtRp7540
(dp7541
g62
(dp7542
sg71
g7527
sg64
(lp7543
g57
(g58
g59
NtRp7544
(dp7545
g62
(dp7546
g70
I4
ssg71
g7540
sg64
(lp7547
S'Your Name <you@example.com>'
p7548
asbasbasbag57
(g73
g59
NtRp7549
(dp7550
g62
(dp7551
sg71
g7523
sg64
(lp7552
g57
(g78
g59
NtRp7553
(dp7554
g62
(dp7555
g82
g83
ssg71
g7549
sg64
(lp7556
S'description'
p7557
asbag57
(g78
g59
NtRp7558
(dp7559
g62
(dp7560
g89
g90
ssg71
g7549
sg64
(lp7561
S':'
asbag57
(g78
g59
NtRp7562
(dp7563
g62
(dp7564
sg71
g7549
sg64
(lp7565
g57
(g58
g59
NtRp7566
(dp7567
g62
(dp7568
g70
I4
ssg71
g7562
sg64
(lp7569
S'a cool new app'
p7570
asbasbasbag57
(g73
g59
NtRp7571
(dp7572
g62
(dp7573
sg71
g7523
sg64
(lp7574
g57
(g78
g59
NtRp7575
(dp7576
g62
(dp7577
g82
g83
ssg71
g7571
sg64
(lp7578
S'generator'
p7579
asbag57
(g78
g59
NtRp7580
(dp7581
g62
(dp7582
g89
g90
ssg71
g7571
sg64
(lp7583
S':'
asbag57
(g78
g59
NtRp7584
(dp7585
g62
(dp7586
sg71
g7571
sg64
(lp7587
g57
(g58
g59
NtRp7588
(dp7589
g62
(dp7590
g70
I4
ssg71
g7584
sg64
(lp7591
S'Web2py Web Framework'
p7592
asbasbasbag57
(g73
g59
NtRp7593
(dp7594
g62
(dp7595
sg71
g7523
sg64
(lp7596
g57
(g78
g59
NtRp7597
(dp7598
g62
(dp7599
g82
g83
ssg71
g7593
sg64
(lp7600
S'keywords'
p7601
asbag57
(g78
g59
NtRp7602
(dp7603
g62
(dp7604
g89
g90
ssg71
g7593
sg64
(lp7605
S':'
asbag57
(g78
g59
NtRp7606
(dp7607
g62
(dp7608
sg71
g7593
sg64
(lp7609
g57
(g58
g59
NtRp7610
(dp7611
g62
(dp7612
g70
I4
ssg71
g7606
sg64
(lp7613
S'web2py, python, framework'
p7614
asbasbasbasbasbasbasbag57
(g73
g59
NtRp7615
(dp7616
g62
(dp7617
sg71
g6390
sg64
(lp7618
g57
(g78
g59
NtRp7619
(dp7620
g62
(dp7621
g82
g83
ssg71
g7615
sg64
(lp7622
S'models_to_run'
p7623
asbag57
(g78
g59
NtRp7624
(dp7625
g62
(dp7626
g89
g90
ssg71
g7615
sg64
(lp7627
S':'
asbag57
(g78
g59
NtRp7628
(dp7629
g62
(dp7630
sg71
g7615
sg64
(lp7631
g57
(g58
g59
NtRp7632
(dp7633
g62
(dp7634
g70
I5
ssg71
g7628
sg64
(lp7635
g57
(g66
g59
NtRp7636
(dp7637
g62
(dp7638
g70
I4
ssg71
Nsg64
(lp7639
g57
(g73
g59
NtRp7640
(dp7641
g62
(dp7642
sg71
g7636
sg64
(lp7643
g57
(g78
g59
NtRp7644
(dp7645
g62
(dp7646
sg71
g7640
sg64
(lp7647
g57
(g58
g59
NtRp7648
(dp7649
g62
(dp7650
g70
I4
ssg71
g7644
sg64
(lp7651
S'^\\w+\\.py$'
p7652
asbasbasbag57
(g73
g59
NtRp7653
(dp7654
g62
(dp7655
sg71
g7636
sg64
(lp7656
g57
(g78
g59
NtRp7657
(dp7658
g62
(dp7659
sg71
g7653
sg64
(lp7660
g57
(g58
g59
NtRp7661
(dp7662
g62
(dp7663
g70
I4
ssg71
g7657
sg64
(lp7664
S'^default/\\w+\\.py$'
p7665
asbasbasbag57
(g73
g59
NtRp7666
(dp7667
g62
(dp7668
sg71
g7636
sg64
(lp7669
g57
(g78
g59
NtRp7670
(dp7671
g62
(dp7672
sg71
g7666
sg64
(lp7673
g57
(g58
g59
NtRp7674
(dp7675
g62
(dp7676
g70
I4
ssg71
g7670
sg64
(lp7677
S'^default/normalize_file/\\w+\\.py$'
p7678
asbasbasbasbasbasbasbag57
(g73
g59
NtRp7679
(dp7680
g62
(dp7681
sg71
g6390
sg64
(lp7682
g57
(g78
g59
NtRp7683
(dp7684
g62
(dp7685
g82
g83
ssg71
g7679
sg64
(lp7686
S'postprocessing'
p7687
asbag57
(g78
g59
NtRp7688
(dp7689
g62
(dp7690
g89
g90
ssg71
g7679
sg64
(lp7691
S':'
asbag57
(g78
g59
NtRp7692
(dp7693
g62
(dp7694
sg71
g7679
sg64
(lp7695
g57
(g58
g59
NtRp7696
(dp7697
g62
(dp7698
g70
I5
ssg71
g7692
sg64
(lp7699
g57
(g66
g59
NtRp7700
(dp7701
g62
(dp7702
g70
I4
ssg71
Nsg64
(lp7703
sbasbasbasbag57
(g73
g59
NtRp7704
(dp7705
g62
(dp7706
sg71
g6390
sg64
(lp7707
g57
(g78
g59
NtRp7708
(dp7709
g62
(dp7710
g82
g83
ssg71
g7704
sg64
(lp7711
S'session_cookie_expires'
p7712
asbag57
(g78
g59
NtRp7713
(dp7714
g62
(dp7715
g89
g90
ssg71
g7704
sg64
(lp7716
S':'
asbag57
(g78
g59
NtRp7717
(dp7718
g62
(dp7719
sg71
g7704
sg64
(lp7720
g57
(g58
g59
NtRp7721
(dp7722
g62
(dp7723
g70
I5
ssg71
g7717
sg64
(lp7724
S'None'
p7725
asbasbasbag57
(g73
g59
NtRp7726
(dp7727
g62
(dp7728
sg71
g6390
sg64
(lp7729
g57
(g78
g59
NtRp7730
(dp7731
g62
(dp7732
g82
g83
ssg71
g7726
sg64
(lp7733
S'session_data_name'
p7734
asbag57
(g78
g59
NtRp7735
(dp7736
g62
(dp7737
g89
g90
ssg71
g7726
sg64
(lp7738
S':'
asbag57
(g78
g59
NtRp7739
(dp7740
g62
(dp7741
sg71
g7726
sg64
(lp7742
g57
(g58
g59
NtRp7743
(dp7744
g62
(dp7745
g70
I5
ssg71
g7739
sg64
(lp7746
S'session_data_betsy'
p7747
asbasbasbag57
(g73
g59
NtRp7748
(dp7749
g62
(dp7750
sg71
g6390
sg64
(lp7751
g57
(g78
g59
NtRp7752
(dp7753
g62
(dp7754
g82
g83
ssg71
g7748
sg64
(lp7755
S'session_file'
p7756
asbag57
(g78
g59
NtRp7757
(dp7758
g62
(dp7759
g89
g90
ssg71
g7748
sg64
(lp7760
S':'
asbag57
(g78
g59
NtRp7761
(dp7762
g62
(dp7763
sg71
g7748
sg64
(lp7764
g57
(g58
g59
NtRp7765
(dp7766
g62
(dp7767
g70
I5
ssg71
g7761
sg64
(lp7768
S"<open file '/home/xchen/web2py/applications/Betsy/sessions/127.0.0.1-70d52105-0f5d-4884-a4e3-dce6830f30e0', mode 'rb+' at 0x72cb6f0>"
p7769
asbasbasbag57
(g73
g59
NtRp7770
(dp7771
g62
(dp7772
sg71
g6390
sg64
(lp7773
g57
(g78
g59
NtRp7774
(dp7775
g62
(dp7776
g82
g83
ssg71
g7770
sg64
(lp7777
S'session_filename'
p7778
asbag57
(g78
g59
NtRp7779
(dp7780
g62
(dp7781
g89
g90
ssg71
g7770
sg64
(lp7782
S':'
asbag57
(g78
g59
NtRp7783
(dp7784
g62
(dp7785
sg71
g7770
sg64
(lp7786
g57
(g58
g59
NtRp7787
(dp7788
g62
(dp7789
g70
I5
ssg71
g7783
sg64
(lp7790
S'/home/xchen/web2py/applications/Betsy/sessions/127.0.0.1-70d52105-0f5d-4884-a4e3-dce6830f30e0'
p7791
asbasbasbag57
(g73
g59
NtRp7792
(dp7793
g62
(dp7794
sg71
g6390
sg64
(lp7795
g57
(g78
g59
NtRp7796
(dp7797
g62
(dp7798
g82
g83
ssg71
g7792
sg64
(lp7799
S'session_id'
p7800
asbag57
(g78
g59
NtRp7801
(dp7802
g62
(dp7803
g89
g90
ssg71
g7792
sg64
(lp7804
S':'
asbag57
(g78
g59
NtRp7805
(dp7806
g62
(dp7807
sg71
g7792
sg64
(lp7808
g57
(g58
g59
NtRp7809
(dp7810
g62
(dp7811
g70
I5
ssg71
g7805
sg64
(lp7812
g475
asbasbasbag57
(g73
g59
NtRp7813
(dp7814
g62
(dp7815
sg71
g6390
sg64
(lp7816
g57
(g78
g59
NtRp7817
(dp7818
g62
(dp7819
g82
g83
ssg71
g7813
sg64
(lp7820
S'session_id_name'
p7821
asbag57
(g78
g59
NtRp7822
(dp7823
g62
(dp7824
g89
g90
ssg71
g7813
sg64
(lp7825
S':'
asbag57
(g78
g59
NtRp7826
(dp7827
g62
(dp7828
sg71
g7813
sg64
(lp7829
g57
(g58
g59
NtRp7830
(dp7831
g62
(dp7832
g70
I5
ssg71
g7826
sg64
(lp7833
g6447
asbasbasbag57
(g73
g59
NtRp7834
(dp7835
g62
(dp7836
sg71
g6390
sg64
(lp7837
g57
(g78
g59
NtRp7838
(dp7839
g62
(dp7840
g82
g83
ssg71
g7834
sg64
(lp7841
S'session_locked'
p7842
asbag57
(g78
g59
NtRp7843
(dp7844
g62
(dp7845
g89
g90
ssg71
g7834
sg64
(lp7846
S':'
asbag57
(g78
g59
NtRp7847
(dp7848
g62
(dp7849
sg71
g7834
sg64
(lp7850
g57
(g58
g59
NtRp7851
(dp7852
g62
(dp7853
g70
I5
ssg71
g7847
sg64
(lp7854
g1690
asbasbasbag57
(g73
g59
NtRp7855
(dp7856
g62
(dp7857
sg71
g6390
sg64
(lp7858
g57
(g78
g59
NtRp7859
(dp7860
g62
(dp7861
g82
g83
ssg71
g7855
sg64
(lp7862
S'session_new'
p7863
asbag57
(g78
g59
NtRp7864
(dp7865
g62
(dp7866
g89
g90
ssg71
g7855
sg64
(lp7867
S':'
asbag57
(g78
g59
NtRp7868
(dp7869
g62
(dp7870
sg71
g7855
sg64
(lp7871
g57
(g58
g59
NtRp7872
(dp7873
g62
(dp7874
g70
I5
ssg71
g7868
sg64
(lp7875
g100
asbasbasbag57
(g73
g59
NtRp7876
(dp7877
g62
(dp7878
sg71
g6390
sg64
(lp7879
g57
(g78
g59
NtRp7880
(dp7881
g62
(dp7882
g82
g83
ssg71
g7876
sg64
(lp7883
S'session_storage_type'
p7884
asbag57
(g78
g59
NtRp7885
(dp7886
g62
(dp7887
g89
g90
ssg71
g7876
sg64
(lp7888
S':'
asbag57
(g78
g59
NtRp7889
(dp7890
g62
(dp7891
sg71
g7876
sg64
(lp7892
g57
(g58
g59
NtRp7893
(dp7894
g62
(dp7895
g70
I5
ssg71
g7889
sg64
(lp7896
g5607
asbasbasbag57
(g73
g59
NtRp7897
(dp7898
g62
(dp7899
sg71
g6390
sg64
(lp7900
g57
(g78
g59
NtRp7901
(dp7902
g62
(dp7903
g82
g83
ssg71
g7897
sg64
(lp7904
S'status'
p7905
asbag57
(g78
g59
NtRp7906
(dp7907
g62
(dp7908
g89
g90
ssg71
g7897
sg64
(lp7909
S':'
asbag57
(g78
g59
NtRp7910
(dp7911
g62
(dp7912
sg71
g7897
sg64
(lp7913
g57
(g58
g59
NtRp7914
(dp7915
g62
(dp7916
g70
I5
ssg71
g7910
sg64
(lp7917
S'200'
p7918
asbasbasbag57
(g73
g59
NtRp7919
(dp7920
g62
(dp7921
sg71
g6390
sg64
(lp7922
g57
(g78
g59
NtRp7923
(dp7924
g62
(dp7925
g82
g83
ssg71
g7919
sg64
(lp7926
S'subtitle'
p7927
asbag57
(g78
g59
NtRp7928
(dp7929
g62
(dp7930
g89
g90
ssg71
g7919
sg64
(lp7931
S':'
asbag57
(g78
g59
NtRp7932
(dp7933
g62
(dp7934
sg71
g7919
sg64
(lp7935
g57
(g58
g59
NtRp7936
(dp7937
g62
(dp7938
g70
I5
ssg71
g7932
sg64
(lp7939
g6881
(S's\r\x00\x00\x00customize me!'
tRp7940
asbasbasbag57
(g73
g59
NtRp7941
(dp7942
g62
(dp7943
sg71
g6390
sg64
(lp7944
g57
(g78
g59
NtRp7945
(dp7946
g62
(dp7947
g82
g83
ssg71
g7941
sg64
(lp7948
S'title'
p7949
asbag57
(g78
g59
NtRp7950
(dp7951
g62
(dp7952
g89
g90
ssg71
g7941
sg64
(lp7953
S':'
asbag57
(g78
g59
NtRp7954
(dp7955
g62
(dp7956
sg71
g7941
sg64
(lp7957
g57
(g58
g59
NtRp7958
(dp7959
g62
(dp7960
g70
I5
ssg71
g7954
sg64
(lp7961
S'Betsy'
p7962
asbasbasbag57
(g73
g59
NtRp7963
(dp7964
g62
(dp7965
sg71
g6390
sg64
(lp7966
g57
(g78
g59
NtRp7967
(dp7968
g62
(dp7969
g82
g83
ssg71
g7963
sg64
(lp7970
S'view'
p7971
asbag57
(g78
g59
NtRp7972
(dp7973
g62
(dp7974
g89
g90
ssg71
g7963
sg64
(lp7975
S':'
asbag57
(g78
g59
NtRp7976
(dp7977
g62
(dp7978
sg71
g7963
sg64
(lp7979
g57
(g58
g59
NtRp7980
(dp7981
g62
(dp7982
g70
I5
ssg71
g7976
sg64
(lp7983
S'default/normalize_file.html'
p7984
asbasbasbasbasbsS'locals'
p7985
(dp7986
S'i'
S'5'
sS'fields'
p7987
S'[<gluon.dal.Field object>, <gluon.dal.Field object>, <gluon.dal.Field object>, <gluon.dal.Field object>, <gluon.dal.Field object>, <gluon.dal.Field object>, <gluon.dal.Field object>, <gluon.dal.Field object>, <gluon.dal.Field object>, <gluon.dal.Field object>, <gluon.dal.Field object>, <gluon.dal.Field object>, <gluon.dal.Field object>, <gluon.dal.Field object>, <gluon.dal.Field object>, <gluon.dal.Field object>, <gluon.dal.Field object>, <gluon.dal.Field object>, <gluon.dal.Field object>, <gluon.dal.Field object>, ...]'
p7988
sS'key'
p7989
S"'shiftscale'"
p7990
sssS'traceback'
p7991
S'Traceback (most recent call last):\n  File "/home/xchen/web2py/gluon/restricted.py", line 212, in restricted\n    exec ccode in environment\n  File "/home/xchen/web2py/applications/Betsy/controllers/default.py", line 435, in <module>\n  File "/home/xchen/web2py/gluon/globals.py", line 188, in <lambda>\n    self._caller = lambda f: f()\n  File "/home/xchen/web2py/applications/Betsy/controllers/default.py", line 93, in normalize_file\n    if isinstance(common_parameters[key],list):\nKeyError: \'shiftscale\'\n'
p7992
s.