(dp1
S'output'
p2
S"<type 'exceptions.SyntaxError'> invalid syntax (protocol.html, line 195)"
p3
sS'layer'
p4
S'/home/xchen/web2py/applications/Betsy/views/default/protocol.html'
p5
sS'code'
p6
S'response.write(\'<!DOCTYPE html>\\n<!-- paulirish.com/2008/conditional-stylesheets-vs-css-hacks-answer-neither/ -->\\n<!--[if lt IE 7]><html class="ie ie6 ie-lte9 ie-lte8 ie-lte7 no-js" lang="\', escape=False)\nresponse.write(T.accepted_language or \'en\')\nresponse.write(\'"> <![endif]-->\\n<!--[if IE 7]><html class="ie ie7 ie-lte9 ie-lte8 ie-lte7 no-js" lang="\', escape=False)\nresponse.write(T.accepted_language or \'en\')\nresponse.write(\'"> <![endif]-->\\n<!--[if IE 8]><html class="ie ie8 ie-lte9 ie-lte8 no-js" lang="\', escape=False)\nresponse.write(T.accepted_language or \'en\')\nresponse.write(\'"> <![endif]-->\\n<!--[if IE 9]><html class="ie9 ie-lte9 no-js" lang="\', escape=False)\nresponse.write(T.accepted_language or \'en\')\nresponse.write(\'"> <![endif]-->\\n<!--[if (gt IE 9)|!(IE)]><!--> <html class="no-js" lang="\', escape=False)\nresponse.write(T.accepted_language or \'en\')\nresponse.write(\'"> <!--<![endif]-->\\n<head>\\n  <meta charset="utf-8" />\\n  <!-- www.phpied.com/conditional-comments-block-downloads/ -->\\n  <!-- Always force latest IE rendering engine\\n       (even in intranet) & Chrome Frame\\n       Remove this if you use the .htaccess -->\\n  <!--[if IE]>\\n      <meta http-equiv="X-UA-Compatible" content="IE=edge\', escape=False)\nresponse.write(not request.is_local and \',chrome=1\' or \'\')\nresponse.write(\'">\\n      <![endif]-->\\n\\n  <title>\', escape=False)\nresponse.write(response.title or request.application)\nresponse.write(\'</title>\\n  <!-- http://dev.w3.org/html5/markup/meta.name.html -->\\n  <meta name="application-name" content="\', escape=False)\nresponse.write(request.application)\nresponse.write(\'" />\\n  \\n\\n  <!-- Speaking of Google, don\\\'t forget to set your site up:\\n       http://google.com/webmasters -->\\n  <meta name="google-site-verification" content="" />\\n\\n  <!--  Mobile Viewport Fix\\n        j.mp/mobileviewport & davidbcalhoun.com/2010/viewport-metatag\\n        device-width: Occupy full width of the screen in its current orientation\\n        initial-scale = 1.0 retains dimensions instead of zooming out if page height > device height\\n        user-scalable = yes allows the user to zoom in -->\\n  <meta name="viewport" content="width=device-width, initial-scale=1.0">\\n\\n  <link rel="shortcut icon" href="\', escape=False)\nresponse.write(URL(\'static\',\'images/favicon.ico\'))\nresponse.write(\'" type="image/x-icon">\\n  <link rel="apple-touch-icon" href="\', escape=False)\nresponse.write(URL(\'static\',\'images/favicon.png\'))\nresponse.write(\'">\\n\\n  <!-- All JavaScript at the bottom, except for Modernizr which enables\\n       HTML5 elements & feature detects -->\\n  <script src="\', escape=False)\nresponse.write(URL(\'static\',\'js/modernizr.custom.js\'))\nresponse.write(\'"></script>\\n\\n  <!-- include stylesheets -->\\n  \', escape=False)\nresponse.files.append(URL(\'static\',\'css/web2py.css\'))\nresponse.files.append(URL(\'static\',\'css/bootstrap.min.css\'))\nresponse.files.append(URL(\'static\',\'css/bootstrap-responsive.min.css\'))\nresponse.files.append(URL(\'static\',\'css/web2py_bootstrap.css\'))\nresponse.write(\'\\n\\n  \', escape=False)\nresponse.write(\'<script type="text/javascript"><!--\\n    // These variables are used by the web2py_ajax_init function in web2py_ajax.js (which is loaded below).\\n    var w2p_ajax_confirm_message = "\', escape=False)\nresponse.write(T(\'Are you sure you want to delete this object?\'))\nresponse.write(\'";\\n    var w2p_ajax_date_format = "\', escape=False)\nresponse.write(T(\'%Y-%m-%d\'))\nresponse.write(\'";\\n    var w2p_ajax_datetime_format = "\', escape=False)\nresponse.write(T(\'%Y-%m-%d %H:%M:%S\'))\nresponse.write(\'";\\n    //--></script>\\n\', escape=False)\nresponse.files.insert(0,URL(\'static\',\'js/jquery.js\'))\nresponse.files.insert(1,URL(\'static\',\'css/calendar.css\'))\nresponse.files.insert(2,URL(\'static\',\'js/calendar.js\'))\nresponse.files.insert(3,URL(\'static\',\'js/web2py.js\'))\nresponse.include_meta()\nresponse.include_files()\nresponse.write(\'\\n\', escape=False)\nresponse.write(\'\\n\\n  \', escape=False)\n# using sidebars need to know what sidebar you want to use\nleft_sidebar_enabled = globals().get(\'left_sidebar_enabled\',False)\nright_sidebar_enabled = globals().get(\'right_sidebar_enabled\',False)\nmiddle_columns = {0:\'span12\',1:\'span9\',2:\'span6\'}[\n(left_sidebar_enabled and 1 or 0)+(right_sidebar_enabled and 1 or 0)]\nresponse.write(\'\\n\\n  <!-- uncomment here to load jquery-ui\\n       <link rel="stylesheet" href="http://ajax.googleapis.com/ajax/libs/jqueryui/1.8.16/themes/base/jquery-ui.css" type="text/css" media="all" />\\n       <script src="http://ajax.googleapis.com/ajax/libs/jqueryui/1.8.16/jquery-ui.min.js" type="text/javascript"></script>\\n       uncomment to load jquery-ui //-->\\n  <noscript><link href="\', escape=False)\nresponse.write(URL(\'static\', \'css/web2py_bootstrap_nojs.css\'))\nresponse.write(\'" rel="stylesheet" type="text/css" /></noscript>\\n  \', escape=False)\nresponse.write(\'\\n</head>\\n\\n<body>\\n  <!-- Navbar ================================================== -->\\n  <div class="navbar navbar-inverse navbar-fixed-top">\\n    <div class="flash">\', escape=False)\nresponse.write(response.flash or \'\')\nresponse.write(\'</div>\\n    <div class="navbar-inner">\\n      <div class="container">\\n        <!-- the next tag is necessary for bootstrap menus, do not remove -->\\n        <button type="button" class="btn btn-navbar" data-toggle="collapse" data-target=".nav-collapse">\\n          <span class="icon-bar"></span>\\n          <span class="icon-bar"></span>\\n          <span class="icon-bar"></span>\\n        </button>\\n        <a class="brand" href="http://www.web2py.com/"><b>web<span>2</span>py</b>&trade;&nbsp;</a>\\n        <ul id="navbar" class="nav pull-right">\', escape=False)\nresponse.write(\'auth\' in globals() and auth.navbar(mode="dropdown") or \'\')\nresponse.write(\'</ul>\\n        <div class="nav-collapse">\\n          \', escape=False)\nis_mobile=request.user_agent().is_mobile\nresponse.write(\'\\n          \', escape=False)\nif response.menu:\n    response.write(\'\\n          \', escape=False)\n    response.write(MENU(response.menu, _class=\'mobile-menu nav\' if is_mobile else \'nav\',mobile=is_mobile,li_class=\'dropdown\',ul_class=\'dropdown-menu\'))\n    response.write(\'\\n          \', escape=False)\n    pass\nresponse.write(\'\\n        </div><!--/.nav-collapse -->\\n      </div>\\n    </div>\\n  </div><!--/top navbar -->\\n\\n  <div class="container">\\n    <!-- Masthead ================================================== -->\\n    <header class="mastheader row" id="header">\\n        <div class="span12">\\n            <div class="page-header">\\n                <h1>\\n                    BETSY\\n                </h1>\\n                <h2>Bioinformatics ExerT SYstem</h2>\\n            </div>\\n        </div>\\n    </header>\\n\\n    <section id="main" class="main row">\\n        \', escape=False)\nif left_sidebar_enabled:\n    response.write(\'\\n        <div class="span3 left-sidebar">\\n            \', escape=False)\n    response.write(\'\\n            <h3>Left Sidebar</h3>\\n            <p></p>\\n            \', escape=False)\n    response.write(\'\\n        </div>\\n        \', escape=False)\n    pass\nresponse.write(\'\\n\\n        <div class="\', escape=False)\nresponse.write(middle_columns)\nresponse.write(\'">\\n            \', escape=False)\nresponse.write(\'\\n            \', escape=False)\nresponse.write(\'\\n\', escape=False)\nresponse.write(form_queue)\nresponse.write(\'\\n<center><h1>  \', escape=False)\nresponse.write(pretty_name)\nresponse.write(\'</h1></center>\\n\', escape=False)\nresponse.write(form.custom.begin)\nresponse.write(\'\\n\', escape=False)\nresponse.write(form.custom.submit)\nresponse.write(\'\\n<table width="100%">\\n<tr><td><td><td>\\n    <h2> inputs</h2>\\n\', escape=False)\nlabels = form.custom.widget.keys()\nresponse.write(\'\\n\', escape=False)\nleft_labels=labels[:]\nresponse.write(\'\\n\', escape=False)\nfor label in labels:\n    response.write(\'\\n    \', escape=False)\n    if label in protocol_inputs:\n        response.write(\'\\n    \\t\', escape=False)\n        left_labels.remove(label)\n        response.write(\'\\n    \\t\', escape=False)\n        left_labels.remove(label+\'_content\')\n        response.write(\'\\n    \\t\', escape=False)\n        response.write(label)\n        response.write(\':\', escape=False)\n        response.write(form.custom.widget[label])\n        response.write(\'<br/>\\n    \\t\', escape=False)\n        response.write(label+\'_content\')\n        response.write(\':\', escape=False)\n        response.write(form.custom.widget[label+\'_content\'])\n        response.write(\'<br/>\\n    \', escape=False)\n        pass\n    response.write(\'\\n \', escape=False)\n    pass\nresponse.write(\'   \\n\', escape=False)\nfor i in range(4):\n    response.write(\'\\n    \', escape=False)\n    label=\'myfile\'+str(i)\n    response.write(\'    \\n    \', escape=False)\n    response.write(label)\n    response.write(\':\', escape=False)\n    response.write(form.custom.widget[label])\n    response.write(\'<br/>\\n    \', escape=False)\n    response.write(label+\'_content\')\n    response.write(\':\', escape=False)\n    response.write(form.custom.widget[label+\'_content\'])\n    response.write(\'<br/>\\n    \', escape=False)\n    response.write(label+\'_path\')\n    response.write(\':\', escape=False)\n    response.write(form.custom.widget[label+\'_path\'])\n    response.write(\'<br/>\\n    \', escape=False)\n    left_labels.remove(label+\'_content\')\n    response.write(\'\\n    \', escape=False)\n    left_labels.remove(label+\'_path\')\n    response.write(\'\\n    \', escape=False)\n    left_labels.remove(label)\n    response.write(\'\\n\', escape=False)\n    pass\nresponse.write(\'\\n\\n </td><td><td><td>\\n    <h2> \', escape=False)\nresponse.write(column_name[0])\nresponse.write(\'</h2>\\n\', escape=False)\nfor label in labels:\n    response.write(\'\\n\\t\', escape=False)\n    if label in protocol_common:\n        response.write(\'\\n    \', escape=False)\n        response.write(label)\n        response.write(\':\', escape=False)\n        response.write(form.custom.widget[label])\n        response.write(\'<br/>\\n    \', escape=False)\n        left_labels.remove(label)\n        response.write(\'\\n    \', escape=False)\n        pass\n    response.write(\'\\n\', escape=False)\n    pass\nresponse.write(\'\\n    </td></td><td><td>\\n<h2>\', escape=False)\nresponse.write(column_name[1])\nresponse.write(\'</h2>\\n\', escape=False)\nfor label in labels:\n    response.write(\'\\n\\t\', escape=False)\n    if label in protocol_normalize:\n        response.write(\'\\n    \\t\', escape=False)\n        response.write(label)\n        response.write(\':\', escape=False)\n        response.write(form.custom.widget[label])\n        response.write(\' <br/>\\n    \\t\', escape=False)\n        left_labels.remove(label)\n        response.write(\'\\n    \', escape=False)\n        pass\n    response.write(\'\\n\', escape=False)\n    pass\nresponse.write(\'\\n</td></td></td><td>\\n<h2>\', escape=False)\nresponse.write(column_name[2])\nresponse.write(\'</h2>\\n\', escape=False)\nfor label in labels:\n    response.write(\'\\n\\t\', escape=False)\n    if label in protocol_option:\n        response.write(\'\\n    \', escape=False)\n        response.write(label)\n        response.write(\':\', escape=False)\n        response.write(form.custom.widget[label])\n        response.write(\'<br/>\\n    \', escape=False)\n        left_labels.remove(label)\n        response.write(\'\\n    \', escape=False)\n        pass\n    response.write(\'\\n\', escape=False)\n    pass\nresponse.write(\'\\n\\n</tr></tr></tr></tr>\\n</table>\\n\\n<table width="60%">\\n<tr><td><td>\\n    <h2> \', escape=False)\nresponse.write(column_name[3])\nresponse.write(\'</h2>\\n\', escape=False)\nfor label in labels:\n    response.write(\'\\n\', escape=False)\n    if label.startswith(\'ill\'):\n        response.write(\'\\n\\t\', escape=False)\n        left_labels.remove(label)\n        response.write(\'\\n\\t\', escape=False)\n        response.write(label)\n        response.write(\':\', escape=False)\n        response.write(form.custom.widget[label])\n        response.write(\'<br/>\\n\', escape=False)\n        pass\n    response.write(\'\\n\', escape=False)\n    pass\nresponse.write(\'\\n    </td><td><td>\\n    <h2> \', escape=False)\nresponse.write(column_name[4]}</h2>\n{{for label in labels:)\nresponse.write(\'\\n\', escape=False)\nif label.startswith(\'cn\'):\n    response.write(\'\\n\\t\', escape=False)\n    left_labels.remove(label)\n    response.write(\'\\n\\t\', escape=False)\n    response.write(label)\n    response.write(\':\', escape=False)\n    response.write(form.custom.widget[label])\n    response.write(\'<br/>\\n\', escape=False)\n    pass\nresponse.write(\'\\n\', escape=False)\npass\nresponse.write(\'\\n    </td></td><td>\\n\\n\\n\', escape=False)\nleft_labels.remove(\'id\')\nresponse.write(\'\\n\', escape=False)\nif left_labels:\n    response.write(\'\\n<h2> \', escape=False)\n    response.write(protocol_label)\n    response.write(\' parameters</h2>\\n\', escape=False)\n    for label in left_labels:\n        response.write(\'\\n\', escape=False)\n        response.write(label)\n        response.write(\':\', escape=False)\n        response.write(form.custom.widget[label])\n        response.write(\'<br/>\\n\', escape=False)\n        pass\n    response.write(\'\\n\', escape=False)\n    pass\nresponse.write(\'\\n</td></td></td>\\n</table>\\n\', escape=False)\nresponse.write(form.custom.end)\nresponse.write(\'\\n\', escape=False)\nresponse.write(\'\\n            \', escape=False)\nresponse.write(\'\\n        </div>\\n\\n        \', escape=False)\nif right_sidebar_enabled:\n    response.write(\'\\n        <div class="span3">\\n            \', escape=False)\n    response.write(\'\\n            <h3>Right Sidebar</h3>\\n            <p></p>\\n            \', escape=False)\n    response.write(\'\\n        </div>\\n        \', escape=False)\n    pass\nresponse.write(\'\\n    </section><!--/main-->\\n\\n    <!-- Footer ================================================== -->\\n    <div class="row">\\n        <footer class="footer span12" id="footer">\\n            <div class="footer-content">\\n                \', escape=False)\nresponse.write(\' <!-- this is default footer -->\\n                <div class="copyright pull-left">\', escape=False)\nresponse.write(T(\'Copyright\'))\nresponse.write(\' &#169; \', escape=False)\nresponse.write(request.now.year)\nresponse.write(\'</div>\\n                <div id="poweredBy" class="pull-right">\\n                    \', escape=False)\nresponse.write(T(\'Powered by\'))\nresponse.write(\'\\n                    <a href="http://www.web2py.com/">web2py</a>\\n                </div>\\n                \', escape=False)\nresponse.write(\'\\n            </div>\\n        </footer>\\n    </div>\\n\\n  </div> <!-- /container -->\\n\\n  <!-- The javascript =============================================\\n       (Placed at the end of the document so the pages load faster) -->\\n  <script src="\', escape=False)\nresponse.write(URL(\'static\',\'js/bootstrap.min.js\'))\nresponse.write(\'"></script>\\n  <script src="\', escape=False)\nresponse.write(URL(\'static\',\'js/web2py_bootstrap.js\'))\nresponse.write(\'"></script>\\n  <!--[if lt IE 7 ]>\\n      <script src="\', escape=False)\nresponse.write(URL(\'static\',\'js/dd_belatedpng.js\'))\nresponse.write(\'"></script>\\n      <script> DD_belatedPNG.fix(\\\'img, .png_bg\\\'); //fix any <img> or .png_bg background-images </script>\\n      <![endif]-->\\n  \', escape=False)\nif response.google_analytics_id:\n    response.write(\'<script type="text/javascript"> var _gaq = _gaq || []; _gaq.push([\\\'_setAccount\\\', \\\'\', escape=False)\n    response.write(response.google_analytics_id)\n    response.write("\']); _gaq.push([\'_trackPageview\']); (function() { var ga = document.createElement(\'script\'); ga.type = \'text/javascript\'; ga.async = true; ga.src = (\'https:\' == document.location.protocol ? \'https://ssl\' : \'http://www\') + \'.google-analytics.com/ga.js\'; var s = document.getElementsByTagName(\'script\')[0]; s.parentNode.insertBefore(ga, s); })(); </script> ", escape=False)\n    pass\nresponse.write(\'\\n  <script src="\', escape=False)\nresponse.write(URL(\'static\',\'js/share.js\',vars=dict(static=URL(\'static\',\'images\'))))\nresponse.write(\'"></script>\\n</body>\\n</html>\\n\', escape=False)'
p7
sS'snapshot'
p8
(dp9
S'exception'
p10
(dp11
S'__getslice__'
p12
S"<method-wrapper '__getslice__' of exceptions.SyntaxError object>"
p13
sS'text'
p14
S"'response.write(column_name[4]}</h2>\\n'"
p15
sS'__str__'
p16
S"<method-wrapper '__str__' of exceptions.SyntaxError object>"
p17
sS'__reduce__'
p18
S'<built-in method __reduce__ of exceptions.SyntaxError object>'
p19
sS'__dict__'
p20
S'{}'
p21
sS'__sizeof__'
p22
S'<built-in method __sizeof__ of exceptions.SyntaxError object>'
p23
sS'__init__'
p24
S"<method-wrapper '__init__' of exceptions.SyntaxError object>"
p25
sS'__setattr__'
p26
S"<method-wrapper '__setattr__' of exceptions.SyntaxError object>"
p27
sS'__reduce_ex__'
p28
S'<built-in method __reduce_ex__ of exceptions.SyntaxError object>'
p29
sS'__new__'
p30
S'<built-in method __new__ of type object>'
p31
sS'__format__'
p32
S'<built-in method __format__ of exceptions.SyntaxError object>'
p33
sS'__class__'
p34
S"<type 'exceptions.SyntaxError'>"
p35
sS'filename'
p36
S"'/home/xchen/web2py/applications/Betsy/views/default/protocol.html'"
p37
sS'lineno'
p38
S'195'
p39
sS'msg'
p40
S"'invalid syntax'"
p41
sS'__doc__'
p42
S"'Invalid syntax.'"
p43
sS'__getitem__'
p44
S"<method-wrapper '__getitem__' of exceptions.SyntaxError object>"
p45
sS'__setstate__'
p46
S'<built-in method __setstate__ of exceptions.SyntaxError object>'
p47
sS'__getattribute__'
p48
S"<method-wrapper '__getattribute__' of exceptions.SyntaxError object>"
p49
sS'print_file_and_line'
p50
S'None'
p51
sS'args'
p52
S"('invalid syntax', ('/home/xchen/web2py/applications/Betsy/views/default/protocol.html', 195, 30, 'response.write(column_name[4]}</h2>\\n'))"
p53
sS'__subclasshook__'
p54
S'<built-in method __subclasshook__ of type object>'
p55
sS'offset'
p56
S'30'
p57
sS'__unicode__'
p58
S'<built-in method __unicode__ of exceptions.SyntaxError object>'
p59
sS'__delattr__'
p60
S"<method-wrapper '__delattr__' of exceptions.SyntaxError object>"
p61
sS'__repr__'
p62
S"<method-wrapper '__repr__' of exceptions.SyntaxError object>"
p63
sS'__hash__'
p64
S"<method-wrapper '__hash__' of exceptions.SyntaxError object>"
p65
ssS'evalue'
p66
S'invalid syntax (protocol.html, line 195)'
p67
sS'request'
p68
ccopy_reg
_reconstructor
p69
(cgluon.html
BEAUTIFY
p70
c__builtin__
object
p71
NtRp72
(dp73
S'attributes'
p74
(dp75
sS'components'
p76
(lp77
g69
(cgluon.html
TABLE
p78
g71
NtRp79
(dp80
g74
(dp81
S'level'
p82
I5
ssS'parent'
p83
Nsg76
(lp84
g69
(cgluon.html
TR
p85
g71
NtRp86
(dp87
g74
(dp88
sg83
g79
sg76
(lp89
g69
(cgluon.html
TD
p90
g71
NtRp91
(dp92
g74
(dp93
S'_style'
p94
S'font-weight:bold;vertical-align:top'
p95
ssg83
g86
sg76
(lp96
S'ajax'
p97
asbag69
(g90
g71
NtRp98
(dp99
g74
(dp100
S'_valign'
p101
S'top'
p102
ssg83
g86
sg76
(lp103
S':'
asbag69
(g90
g71
NtRp104
(dp105
g74
(dp106
sg83
g86
sg76
(lp107
g69
(g70
g71
NtRp108
(dp109
g74
(dp110
g82
I5
ssg83
g104
sg76
(lp111
S'False'
p112
asbasbasbag69
(g85
g71
NtRp113
(dp114
g74
(dp115
sg83
g79
sg76
(lp116
g69
(g90
g71
NtRp117
(dp118
g74
(dp119
g94
g95
ssg83
g113
sg76
(lp120
S'application'
p121
asbag69
(g90
g71
NtRp122
(dp123
g74
(dp124
g101
g102
ssg83
g113
sg76
(lp125
S':'
asbag69
(g90
g71
NtRp126
(dp127
g74
(dp128
sg83
g113
sg76
(lp129
g69
(g70
g71
NtRp130
(dp131
g74
(dp132
g82
I5
ssg83
g126
sg76
(lp133
S'Betsy'
p134
asbasbasbag69
(g85
g71
NtRp135
(dp136
g74
(dp137
sg83
g79
sg76
(lp138
g69
(g90
g71
NtRp139
(dp140
g74
(dp141
g94
g95
ssg83
g135
sg76
(lp142
g52
asbag69
(g90
g71
NtRp143
(dp144
g74
(dp145
g101
g102
ssg83
g135
sg76
(lp146
S':'
asbag69
(g90
g71
NtRp147
(dp148
g74
(dp149
sg83
g135
sg76
(lp150
g69
(g70
g71
NtRp151
(dp152
g74
(dp153
g82
I5
ssg83
g147
sg76
(lp154
g69
(g78
g71
NtRp155
(dp156
g74
(dp157
g82
I4
ssg83
Nsg76
(lp158
g69
(g85
g71
NtRp159
(dp160
g74
(dp161
sg83
g155
sg76
(lp162
g69
(g90
g71
NtRp163
(dp164
g74
(dp165
sg83
g159
sg76
(lp166
g69
(g70
g71
NtRp167
(dp168
g74
(dp169
g82
I4
ssg83
g163
sg76
(lp170
S'normalize_file'
p171
asbasbasbasbasbasbasbag69
(g85
g71
NtRp172
(dp173
g74
(dp174
sg83
g79
sg76
(lp175
g69
(g90
g71
NtRp176
(dp177
g74
(dp178
g94
g95
ssg83
g172
sg76
(lp179
S'body'
p180
asbag69
(g90
g71
NtRp181
(dp182
g74
(dp183
g101
g102
ssg83
g172
sg76
(lp184
S':'
asbag69
(g90
g71
NtRp185
(dp186
g74
(dp187
sg83
g172
sg76
(lp188
g69
(g70
g71
NtRp189
(dp190
g74
(dp191
g82
I5
ssg83
g185
sg76
(lp192
S'<cStringIO.StringO object at 0x1f033928>'
p193
asbasbasbag69
(g85
g71
NtRp194
(dp195
g74
(dp196
sg83
g79
sg76
(lp197
g69
(g90
g71
NtRp198
(dp199
g74
(dp200
g94
g95
ssg83
g194
sg76
(lp201
S'cid'
p202
asbag69
(g90
g71
NtRp203
(dp204
g74
(dp205
g101
g102
ssg83
g194
sg76
(lp206
S':'
asbag69
(g90
g71
NtRp207
(dp208
g74
(dp209
sg83
g194
sg76
(lp210
g69
(g70
g71
NtRp211
(dp212
g74
(dp213
g82
I5
ssg83
g207
sg76
(lp214
S'None'
p215
asbasbasbag69
(g85
g71
NtRp216
(dp217
g74
(dp218
sg83
g79
sg76
(lp219
g69
(g90
g71
NtRp220
(dp221
g74
(dp222
g94
g95
ssg83
g216
sg76
(lp223
S'client'
p224
asbag69
(g90
g71
NtRp225
(dp226
g74
(dp227
g101
g102
ssg83
g216
sg76
(lp228
S':'
asbag69
(g90
g71
NtRp229
(dp230
g74
(dp231
sg83
g216
sg76
(lp232
g69
(g70
g71
NtRp233
(dp234
g74
(dp235
g82
I5
ssg83
g229
sg76
(lp236
S'127.0.0.1'
p237
asbasbasbag69
(g85
g71
NtRp238
(dp239
g74
(dp240
sg83
g79
sg76
(lp241
g69
(g90
g71
NtRp242
(dp243
g74
(dp244
g94
g95
ssg83
g238
sg76
(lp245
S'controller'
p246
asbag69
(g90
g71
NtRp247
(dp248
g74
(dp249
g101
g102
ssg83
g238
sg76
(lp250
S':'
asbag69
(g90
g71
NtRp251
(dp252
g74
(dp253
sg83
g238
sg76
(lp254
g69
(g70
g71
NtRp255
(dp256
g74
(dp257
g82
I5
ssg83
g251
sg76
(lp258
S'default'
p259
asbasbasbag69
(g85
g71
NtRp260
(dp261
g74
(dp262
sg83
g79
sg76
(lp263
g69
(g90
g71
NtRp264
(dp265
g74
(dp266
g94
g95
ssg83
g260
sg76
(lp267
S'cookies'
p268
asbag69
(g90
g71
NtRp269
(dp270
g74
(dp271
g101
g102
ssg83
g260
sg76
(lp272
S':'
asbag69
(g90
g71
NtRp273
(dp274
g74
(dp275
sg83
g260
sg76
(lp276
g69
(g70
g71
NtRp277
(dp278
g74
(dp279
g82
I5
ssg83
g273
sg76
(lp280
g69
(g78
g71
NtRp281
(dp282
g74
(dp283
g82
I4
ssg83
Nsg76
(lp284
g69
(g85
g71
NtRp285
(dp286
g74
(dp287
sg83
g281
sg76
(lp288
g69
(g90
g71
NtRp289
(dp290
g74
(dp291
g94
g95
ssg83
g285
sg76
(lp292
S'session_id_admin'
p293
asbag69
(g90
g71
NtRp294
(dp295
g74
(dp296
g101
g102
ssg83
g285
sg76
(lp297
S':'
asbag69
(g90
g71
NtRp298
(dp299
g74
(dp300
sg83
g285
sg76
(lp301
g69
(g70
g71
NtRp302
(dp303
g74
(dp304
g82
I4
ssg83
g298
sg76
(lp305
S'127.0.0.1-f2ec71e9-eefe-4ac1-9317-3aa87c3281a1'
p306
ag69
(g78
g71
NtRp307
(dp308
g74
(dp309
g82
I3
ssg83
Nsg76
(lp310
g69
(g85
g71
NtRp311
(dp312
g74
(dp313
sg83
g307
sg76
(lp314
g69
(g90
g71
NtRp315
(dp316
g74
(dp317
g94
g95
ssg83
g311
sg76
(lp318
S'comment'
p319
asbag69
(g90
g71
NtRp320
(dp321
g74
(dp322
g101
g102
ssg83
g311
sg76
(lp323
S':'
asbag69
(g90
g71
NtRp324
(dp325
g74
(dp326
sg83
g311
sg76
(lp327
g69
(g70
g71
NtRp328
(dp329
g74
(dp330
g82
I3
ssg83
g324
sg76
(lp331
S''
asbasbasbag69
(g85
g71
NtRp332
(dp333
g74
(dp334
sg83
g307
sg76
(lp335
g69
(g90
g71
NtRp336
(dp337
g74
(dp338
g94
g95
ssg83
g332
sg76
(lp339
S'domain'
p340
asbag69
(g90
g71
NtRp341
(dp342
g74
(dp343
g101
g102
ssg83
g332
sg76
(lp344
S':'
asbag69
(g90
g71
NtRp345
(dp346
g74
(dp347
sg83
g332
sg76
(lp348
g69
(g70
g71
NtRp349
(dp350
g74
(dp351
g82
I3
ssg83
g345
sg76
(lp352
S''
asbasbasbag69
(g85
g71
NtRp353
(dp354
g74
(dp355
sg83
g307
sg76
(lp356
g69
(g90
g71
NtRp357
(dp358
g74
(dp359
g94
g95
ssg83
g353
sg76
(lp360
S'expires'
p361
asbag69
(g90
g71
NtRp362
(dp363
g74
(dp364
g101
g102
ssg83
g353
sg76
(lp365
S':'
asbag69
(g90
g71
NtRp366
(dp367
g74
(dp368
sg83
g353
sg76
(lp369
g69
(g70
g71
NtRp370
(dp371
g74
(dp372
g82
I3
ssg83
g366
sg76
(lp373
S''
asbasbasbag69
(g85
g71
NtRp374
(dp375
g74
(dp376
sg83
g307
sg76
(lp377
g69
(g90
g71
NtRp378
(dp379
g74
(dp380
g94
g95
ssg83
g374
sg76
(lp381
S'httponly'
p382
asbag69
(g90
g71
NtRp383
(dp384
g74
(dp385
g101
g102
ssg83
g374
sg76
(lp386
S':'
asbag69
(g90
g71
NtRp387
(dp388
g74
(dp389
sg83
g374
sg76
(lp390
g69
(g70
g71
NtRp391
(dp392
g74
(dp393
g82
I3
ssg83
g387
sg76
(lp394
S''
asbasbasbag69
(g85
g71
NtRp395
(dp396
g74
(dp397
sg83
g307
sg76
(lp398
g69
(g90
g71
NtRp399
(dp400
g74
(dp401
g94
g95
ssg83
g395
sg76
(lp402
S'max-age'
p403
asbag69
(g90
g71
NtRp404
(dp405
g74
(dp406
g101
g102
ssg83
g395
sg76
(lp407
S':'
asbag69
(g90
g71
NtRp408
(dp409
g74
(dp410
sg83
g395
sg76
(lp411
g69
(g70
g71
NtRp412
(dp413
g74
(dp414
g82
I3
ssg83
g408
sg76
(lp415
S''
asbasbasbag69
(g85
g71
NtRp416
(dp417
g74
(dp418
sg83
g307
sg76
(lp419
g69
(g90
g71
NtRp420
(dp421
g74
(dp422
g94
g95
ssg83
g416
sg76
(lp423
S'path'
p424
asbag69
(g90
g71
NtRp425
(dp426
g74
(dp427
g101
g102
ssg83
g416
sg76
(lp428
S':'
asbag69
(g90
g71
NtRp429
(dp430
g74
(dp431
sg83
g416
sg76
(lp432
g69
(g70
g71
NtRp433
(dp434
g74
(dp435
g82
I3
ssg83
g429
sg76
(lp436
S''
asbasbasbag69
(g85
g71
NtRp437
(dp438
g74
(dp439
sg83
g307
sg76
(lp440
g69
(g90
g71
NtRp441
(dp442
g74
(dp443
g94
g95
ssg83
g437
sg76
(lp444
S'secure'
p445
asbag69
(g90
g71
NtRp446
(dp447
g74
(dp448
g101
g102
ssg83
g437
sg76
(lp449
S':'
asbag69
(g90
g71
NtRp450
(dp451
g74
(dp452
sg83
g437
sg76
(lp453
g69
(g70
g71
NtRp454
(dp455
g74
(dp456
g82
I3
ssg83
g450
sg76
(lp457
S''
asbasbasbag69
(g85
g71
NtRp458
(dp459
g74
(dp460
sg83
g307
sg76
(lp461
g69
(g90
g71
NtRp462
(dp463
g74
(dp464
g94
g95
ssg83
g458
sg76
(lp465
S'version'
p466
asbag69
(g90
g71
NtRp467
(dp468
g74
(dp469
g101
g102
ssg83
g458
sg76
(lp470
S':'
asbag69
(g90
g71
NtRp471
(dp472
g74
(dp473
sg83
g458
sg76
(lp474
g69
(g70
g71
NtRp475
(dp476
g74
(dp477
g82
I3
ssg83
g471
sg76
(lp478
S''
asbasbasbasbasbasbasbag69
(g85
g71
NtRp479
(dp480
g74
(dp481
sg83
g281
sg76
(lp482
g69
(g90
g71
NtRp483
(dp484
g74
(dp485
g94
g95
ssg83
g479
sg76
(lp486
S'session_id_betsy'
p487
asbag69
(g90
g71
NtRp488
(dp489
g74
(dp490
g101
g102
ssg83
g479
sg76
(lp491
S':'
asbag69
(g90
g71
NtRp492
(dp493
g74
(dp494
sg83
g479
sg76
(lp495
g69
(g70
g71
NtRp496
(dp497
g74
(dp498
g82
I4
ssg83
g492
sg76
(lp499
S'127.0.0.1-60759fd0-5a1f-4d09-84db-59f8b4a9ee8e'
p500
ag69
(g78
g71
NtRp501
(dp502
g74
(dp503
g82
I3
ssg83
Nsg76
(lp504
g69
(g85
g71
NtRp505
(dp506
g74
(dp507
sg83
g501
sg76
(lp508
g69
(g90
g71
NtRp509
(dp510
g74
(dp511
g94
g95
ssg83
g505
sg76
(lp512
g319
asbag69
(g90
g71
NtRp513
(dp514
g74
(dp515
g101
g102
ssg83
g505
sg76
(lp516
S':'
asbag69
(g90
g71
NtRp517
(dp518
g74
(dp519
sg83
g505
sg76
(lp520
g69
(g70
g71
NtRp521
(dp522
g74
(dp523
g82
I3
ssg83
g517
sg76
(lp524
S''
asbasbasbag69
(g85
g71
NtRp525
(dp526
g74
(dp527
sg83
g501
sg76
(lp528
g69
(g90
g71
NtRp529
(dp530
g74
(dp531
g94
g95
ssg83
g525
sg76
(lp532
g340
asbag69
(g90
g71
NtRp533
(dp534
g74
(dp535
g101
g102
ssg83
g525
sg76
(lp536
S':'
asbag69
(g90
g71
NtRp537
(dp538
g74
(dp539
sg83
g525
sg76
(lp540
g69
(g70
g71
NtRp541
(dp542
g74
(dp543
g82
I3
ssg83
g537
sg76
(lp544
S''
asbasbasbag69
(g85
g71
NtRp545
(dp546
g74
(dp547
sg83
g501
sg76
(lp548
g69
(g90
g71
NtRp549
(dp550
g74
(dp551
g94
g95
ssg83
g545
sg76
(lp552
g361
asbag69
(g90
g71
NtRp553
(dp554
g74
(dp555
g101
g102
ssg83
g545
sg76
(lp556
S':'
asbag69
(g90
g71
NtRp557
(dp558
g74
(dp559
sg83
g545
sg76
(lp560
g69
(g70
g71
NtRp561
(dp562
g74
(dp563
g82
I3
ssg83
g557
sg76
(lp564
S''
asbasbasbag69
(g85
g71
NtRp565
(dp566
g74
(dp567
sg83
g501
sg76
(lp568
g69
(g90
g71
NtRp569
(dp570
g74
(dp571
g94
g95
ssg83
g565
sg76
(lp572
g382
asbag69
(g90
g71
NtRp573
(dp574
g74
(dp575
g101
g102
ssg83
g565
sg76
(lp576
S':'
asbag69
(g90
g71
NtRp577
(dp578
g74
(dp579
sg83
g565
sg76
(lp580
g69
(g70
g71
NtRp581
(dp582
g74
(dp583
g82
I3
ssg83
g577
sg76
(lp584
S''
asbasbasbag69
(g85
g71
NtRp585
(dp586
g74
(dp587
sg83
g501
sg76
(lp588
g69
(g90
g71
NtRp589
(dp590
g74
(dp591
g94
g95
ssg83
g585
sg76
(lp592
g403
asbag69
(g90
g71
NtRp593
(dp594
g74
(dp595
g101
g102
ssg83
g585
sg76
(lp596
S':'
asbag69
(g90
g71
NtRp597
(dp598
g74
(dp599
sg83
g585
sg76
(lp600
g69
(g70
g71
NtRp601
(dp602
g74
(dp603
g82
I3
ssg83
g597
sg76
(lp604
S''
asbasbasbag69
(g85
g71
NtRp605
(dp606
g74
(dp607
sg83
g501
sg76
(lp608
g69
(g90
g71
NtRp609
(dp610
g74
(dp611
g94
g95
ssg83
g605
sg76
(lp612
g424
asbag69
(g90
g71
NtRp613
(dp614
g74
(dp615
g101
g102
ssg83
g605
sg76
(lp616
S':'
asbag69
(g90
g71
NtRp617
(dp618
g74
(dp619
sg83
g605
sg76
(lp620
g69
(g70
g71
NtRp621
(dp622
g74
(dp623
g82
I3
ssg83
g617
sg76
(lp624
S''
asbasbasbag69
(g85
g71
NtRp625
(dp626
g74
(dp627
sg83
g501
sg76
(lp628
g69
(g90
g71
NtRp629
(dp630
g74
(dp631
g94
g95
ssg83
g625
sg76
(lp632
g445
asbag69
(g90
g71
NtRp633
(dp634
g74
(dp635
g101
g102
ssg83
g625
sg76
(lp636
S':'
asbag69
(g90
g71
NtRp637
(dp638
g74
(dp639
sg83
g625
sg76
(lp640
g69
(g70
g71
NtRp641
(dp642
g74
(dp643
g82
I3
ssg83
g637
sg76
(lp644
S''
asbasbasbag69
(g85
g71
NtRp645
(dp646
g74
(dp647
sg83
g501
sg76
(lp648
g69
(g90
g71
NtRp649
(dp650
g74
(dp651
g94
g95
ssg83
g645
sg76
(lp652
g466
asbag69
(g90
g71
NtRp653
(dp654
g74
(dp655
g101
g102
ssg83
g645
sg76
(lp656
S':'
asbag69
(g90
g71
NtRp657
(dp658
g74
(dp659
sg83
g645
sg76
(lp660
g69
(g70
g71
NtRp661
(dp662
g74
(dp663
g82
I3
ssg83
g657
sg76
(lp664
S''
asbasbasbasbasbasbasbasbasbasbasbag69
(g85
g71
NtRp665
(dp666
g74
(dp667
sg83
g79
sg76
(lp668
g69
(g90
g71
NtRp669
(dp670
g74
(dp671
g94
g95
ssg83
g665
sg76
(lp672
S'env'
p673
asbag69
(g90
g71
NtRp674
(dp675
g74
(dp676
g101
g102
ssg83
g665
sg76
(lp677
S':'
asbag69
(g90
g71
NtRp678
(dp679
g74
(dp680
sg83
g665
sg76
(lp681
g69
(g70
g71
NtRp682
(dp683
g74
(dp684
g82
I5
ssg83
g678
sg76
(lp685
g69
(g78
g71
NtRp686
(dp687
g74
(dp688
g82
I4
ssg83
Nsg76
(lp689
g69
(g85
g71
NtRp690
(dp691
g74
(dp692
sg83
g686
sg76
(lp693
g69
(g90
g71
NtRp694
(dp695
g74
(dp696
g94
g95
ssg83
g690
sg76
(lp697
S'app_folders'
p698
asbag69
(g90
g71
NtRp699
(dp700
g74
(dp701
g101
g102
ssg83
g690
sg76
(lp702
S':'
asbag69
(g90
g71
NtRp703
(dp704
g74
(dp705
sg83
g690
sg76
(lp706
g69
(g70
g71
NtRp707
(dp708
g74
(dp709
g82
I4
ssg83
g703
sg76
(lp710
S"set(['/home/xchen/web2py/applications/Betsy/', '/home/xchen/web2py/applications/admin/'])"
p711
asbasbasbag69
(g85
g71
NtRp712
(dp713
g74
(dp714
sg83
g686
sg76
(lp715
g69
(g90
g71
NtRp716
(dp717
g74
(dp718
g94
g95
ssg83
g712
sg76
(lp719
S'applications_parent'
p720
asbag69
(g90
g71
NtRp721
(dp722
g74
(dp723
g101
g102
ssg83
g712
sg76
(lp724
S':'
asbag69
(g90
g71
NtRp725
(dp726
g74
(dp727
sg83
g712
sg76
(lp728
g69
(g70
g71
NtRp729
(dp730
g74
(dp731
g82
I4
ssg83
g725
sg76
(lp732
S'/home/xchen/web2py'
p733
asbasbasbag69
(g85
g71
NtRp734
(dp735
g74
(dp736
sg83
g686
sg76
(lp737
g69
(g90
g71
NtRp738
(dp739
g74
(dp740
g94
g95
ssg83
g734
sg76
(lp741
S'cmd_args'
p742
asbag69
(g90
g71
NtRp743
(dp744
g74
(dp745
g101
g102
ssg83
g734
sg76
(lp746
S':'
asbag69
(g90
g71
NtRp747
(dp748
g74
(dp749
sg83
g734
sg76
(lp750
g69
(g70
g71
NtRp751
(dp752
g74
(dp753
g82
I4
ssg83
g747
sg76
(lp754
g69
(g78
g71
NtRp755
(dp756
g74
(dp757
g82
I3
ssg83
Nsg76
(lp758
sbasbasbasbag69
(g85
g71
NtRp759
(dp760
g74
(dp761
sg83
g686
sg76
(lp762
g69
(g90
g71
NtRp763
(dp764
g74
(dp765
g94
g95
ssg83
g759
sg76
(lp766
S'cmd_options'
p767
asbag69
(g90
g71
NtRp768
(dp769
g74
(dp770
g101
g102
ssg83
g759
sg76
(lp771
S':'
asbag69
(g90
g71
NtRp772
(dp773
g74
(dp774
sg83
g759
sg76
(lp775
g69
(g70
g71
NtRp776
(dp777
g74
(dp778
g82
I4
ssg83
g772
sg76
(lp779
S"<Values at 0x1db85e18: {'verbose': False, 'ip': '127.0.0.1', 'with_scheduler': False, 'ips': [], 'shutdown_timeout': 5, 'taskbar': False, 'port': 8080, 'maxthreads': None, 'softcron': False, 'server_name': 'unicron.shis.uth.tmc.edu', 'bpython': False, 'nogui': False, 'pid_filename': 'httpserver.pid', 'extcron': False, 'runcron': False, 'run_system_tests': False, 'test': None, 'folder': '/home/xchen/web2py', 'config': '', 'minthreads': None, 'winservice': '', 'shell': None, 'run': '', 'log_filename': 'httpserver.log', 'debuglevel': 30, 'args': [''], 'socket_timeout': 5, 'ssl_ca_certificate': None, 'scheduler': None, 'profiler_filename': None, 'ssl_private_key': '', 'scheduler_groups': None, 'password': 'baby2008', 'request_queue_size': 5, 'ssl_certificate': '', 'cronjob': False, 'numthreads': None, 'quiet': False, 'interfaces': None, 'import_models': False, 'timeout': 10, 'plain': False, 'nobanner': False}>"
p780
asbasbasbag69
(g85
g71
NtRp781
(dp782
g74
(dp783
sg83
g686
sg76
(lp784
g69
(g90
g71
NtRp785
(dp786
g74
(dp787
g94
g95
ssg83
g781
sg76
(lp788
S'db_sessions'
p789
asbag69
(g90
g71
NtRp790
(dp791
g74
(dp792
g101
g102
ssg83
g781
sg76
(lp793
S':'
asbag69
(g90
g71
NtRp794
(dp795
g74
(dp796
sg83
g781
sg76
(lp797
g69
(g70
g71
NtRp798
(dp799
g74
(dp800
g82
I4
ssg83
g794
sg76
(lp801
S'set([])'
p802
asbasbasbag69
(g85
g71
NtRp803
(dp804
g74
(dp805
sg83
g686
sg76
(lp806
g69
(g90
g71
NtRp807
(dp808
g74
(dp809
g94
g95
ssg83
g803
sg76
(lp810
S'debugging'
p811
asbag69
(g90
g71
NtRp812
(dp813
g74
(dp814
g101
g102
ssg83
g803
sg76
(lp815
S':'
asbag69
(g90
g71
NtRp816
(dp817
g74
(dp818
sg83
g803
sg76
(lp819
g69
(g70
g71
NtRp820
(dp821
g74
(dp822
g82
I4
ssg83
g816
sg76
(lp823
g112
asbasbasbag69
(g85
g71
NtRp824
(dp825
g74
(dp826
sg83
g686
sg76
(lp827
g69
(g90
g71
NtRp828
(dp829
g74
(dp830
g94
g95
ssg83
g824
sg76
(lp831
S'gluon_parent'
p832
asbag69
(g90
g71
NtRp833
(dp834
g74
(dp835
g101
g102
ssg83
g824
sg76
(lp836
S':'
asbag69
(g90
g71
NtRp837
(dp838
g74
(dp839
sg83
g824
sg76
(lp840
g69
(g70
g71
NtRp841
(dp842
g74
(dp843
g82
I4
ssg83
g837
sg76
(lp844
S'/home/xchen/web2py'
p845
asbasbasbag69
(g85
g71
NtRp846
(dp847
g74
(dp848
sg83
g686
sg76
(lp849
g69
(g90
g71
NtRp850
(dp851
g74
(dp852
g94
g95
ssg83
g846
sg76
(lp853
S'http_accept'
p854
asbag69
(g90
g71
NtRp855
(dp856
g74
(dp857
g101
g102
ssg83
g846
sg76
(lp858
S':'
asbag69
(g90
g71
NtRp859
(dp860
g74
(dp861
sg83
g846
sg76
(lp862
g69
(g70
g71
NtRp863
(dp864
g74
(dp865
g82
I4
ssg83
g859
sg76
(lp866
S'text/html,application/xhtml+xml,application/xml;q=0.9,*/*;q=0.8'
p867
asbasbasbag69
(g85
g71
NtRp868
(dp869
g74
(dp870
sg83
g686
sg76
(lp871
g69
(g90
g71
NtRp872
(dp873
g74
(dp874
g94
g95
ssg83
g868
sg76
(lp875
S'http_accept_encoding'
p876
asbag69
(g90
g71
NtRp877
(dp878
g74
(dp879
g101
g102
ssg83
g868
sg76
(lp880
S':'
asbag69
(g90
g71
NtRp881
(dp882
g74
(dp883
sg83
g868
sg76
(lp884
g69
(g70
g71
NtRp885
(dp886
g74
(dp887
g82
I4
ssg83
g881
sg76
(lp888
S'gzip, deflate'
p889
asbasbasbag69
(g85
g71
NtRp890
(dp891
g74
(dp892
sg83
g686
sg76
(lp893
g69
(g90
g71
NtRp894
(dp895
g74
(dp896
g94
g95
ssg83
g890
sg76
(lp897
S'http_accept_language'
p898
asbag69
(g90
g71
NtRp899
(dp900
g74
(dp901
g101
g102
ssg83
g890
sg76
(lp902
S':'
asbag69
(g90
g71
NtRp903
(dp904
g74
(dp905
sg83
g890
sg76
(lp906
g69
(g70
g71
NtRp907
(dp908
g74
(dp909
g82
I4
ssg83
g903
sg76
(lp910
S'en-US,en;q=0.5'
p911
asbasbasbag69
(g85
g71
NtRp912
(dp913
g74
(dp914
sg83
g686
sg76
(lp915
g69
(g90
g71
NtRp916
(dp917
g74
(dp918
g94
g95
ssg83
g912
sg76
(lp919
S'http_connection'
p920
asbag69
(g90
g71
NtRp921
(dp922
g74
(dp923
g101
g102
ssg83
g912
sg76
(lp924
S':'
asbag69
(g90
g71
NtRp925
(dp926
g74
(dp927
sg83
g912
sg76
(lp928
g69
(g70
g71
NtRp929
(dp930
g74
(dp931
g82
I4
ssg83
g925
sg76
(lp932
S'keep-alive'
p933
asbasbasbag69
(g85
g71
NtRp934
(dp935
g74
(dp936
sg83
g686
sg76
(lp937
g69
(g90
g71
NtRp938
(dp939
g74
(dp940
g94
g95
ssg83
g934
sg76
(lp941
S'http_cookie'
p942
asbag69
(g90
g71
NtRp943
(dp944
g74
(dp945
g101
g102
ssg83
g934
sg76
(lp946
S':'
asbag69
(g90
g71
NtRp947
(dp948
g74
(dp949
sg83
g934
sg76
(lp950
g69
(g70
g71
NtRp951
(dp952
g74
(dp953
g82
I4
ssg83
g947
sg76
(lp954
S'session_id_betsy=127.0.0.1-60759fd0-5a1f-4d09-84db-59f8b4a9ee8e; session_id_admin=127.0.0.1-f2ec71e9-eefe-4ac1-9317-3aa87c3281a1'
p955
asbasbasbag69
(g85
g71
NtRp956
(dp957
g74
(dp958
sg83
g686
sg76
(lp959
g69
(g90
g71
NtRp960
(dp961
g74
(dp962
g94
g95
ssg83
g956
sg76
(lp963
S'http_host'
p964
asbag69
(g90
g71
NtRp965
(dp966
g74
(dp967
g101
g102
ssg83
g956
sg76
(lp968
S':'
asbag69
(g90
g71
NtRp969
(dp970
g74
(dp971
sg83
g956
sg76
(lp972
g69
(g70
g71
NtRp973
(dp974
g74
(dp975
g82
I4
ssg83
g969
sg76
(lp976
S'localhost:8080'
p977
asbasbasbag69
(g85
g71
NtRp978
(dp979
g74
(dp980
sg83
g686
sg76
(lp981
g69
(g90
g71
NtRp982
(dp983
g74
(dp984
g94
g95
ssg83
g978
sg76
(lp985
S'http_referer'
p986
asbag69
(g90
g71
NtRp987
(dp988
g74
(dp989
g101
g102
ssg83
g978
sg76
(lp990
S':'
asbag69
(g90
g71
NtRp991
(dp992
g74
(dp993
sg83
g978
sg76
(lp994
g69
(g70
g71
NtRp995
(dp996
g74
(dp997
g82
I4
ssg83
g991
sg76
(lp998
S'http://localhost:8080/Betsy/default/index'
p999
asbasbasbag69
(g85
g71
NtRp1000
(dp1001
g74
(dp1002
sg83
g686
sg76
(lp1003
g69
(g90
g71
NtRp1004
(dp1005
g74
(dp1006
g94
g95
ssg83
g1000
sg76
(lp1007
S'http_user_agent'
p1008
asbag69
(g90
g71
NtRp1009
(dp1010
g74
(dp1011
g101
g102
ssg83
g1000
sg76
(lp1012
S':'
asbag69
(g90
g71
NtRp1013
(dp1014
g74
(dp1015
sg83
g1000
sg76
(lp1016
g69
(g70
g71
NtRp1017
(dp1018
g74
(dp1019
g82
I4
ssg83
g1013
sg76
(lp1020
S'Mozilla/5.0 (Macintosh; Intel Mac OS X 10.6; rv:21.0) Gecko/20100101 Firefox/21.0'
p1021
asbasbasbag69
(g85
g71
NtRp1022
(dp1023
g74
(dp1024
sg83
g686
sg76
(lp1025
g69
(g90
g71
NtRp1026
(dp1027
g74
(dp1028
g94
g95
ssg83
g1022
sg76
(lp1029
S'is_jython'
p1030
asbag69
(g90
g71
NtRp1031
(dp1032
g74
(dp1033
g101
g102
ssg83
g1022
sg76
(lp1034
S':'
asbag69
(g90
g71
NtRp1035
(dp1036
g74
(dp1037
sg83
g1022
sg76
(lp1038
g69
(g70
g71
NtRp1039
(dp1040
g74
(dp1041
g82
I4
ssg83
g1035
sg76
(lp1042
g112
asbasbasbag69
(g85
g71
NtRp1043
(dp1044
g74
(dp1045
sg83
g686
sg76
(lp1046
g69
(g90
g71
NtRp1047
(dp1048
g74
(dp1049
g94
g95
ssg83
g1043
sg76
(lp1050
S'is_pypy'
p1051
asbag69
(g90
g71
NtRp1052
(dp1053
g74
(dp1054
g101
g102
ssg83
g1043
sg76
(lp1055
S':'
asbag69
(g90
g71
NtRp1056
(dp1057
g74
(dp1058
sg83
g1043
sg76
(lp1059
g69
(g70
g71
NtRp1060
(dp1061
g74
(dp1062
g82
I4
ssg83
g1056
sg76
(lp1063
g112
asbasbasbag69
(g85
g71
NtRp1064
(dp1065
g74
(dp1066
sg83
g686
sg76
(lp1067
g69
(g90
g71
NtRp1068
(dp1069
g74
(dp1070
g94
g95
ssg83
g1064
sg76
(lp1071
S'local_hosts'
p1072
asbag69
(g90
g71
NtRp1073
(dp1074
g74
(dp1075
g101
g102
ssg83
g1064
sg76
(lp1076
S':'
asbag69
(g90
g71
NtRp1077
(dp1078
g74
(dp1079
sg83
g1064
sg76
(lp1080
g69
(g70
g71
NtRp1081
(dp1082
g74
(dp1083
g82
I4
ssg83
g1077
sg76
(lp1084
g69
(g78
g71
NtRp1085
(dp1086
g74
(dp1087
g82
I3
ssg83
Nsg76
(lp1088
g69
(g85
g71
NtRp1089
(dp1090
g74
(dp1091
sg83
g1085
sg76
(lp1092
g69
(g90
g71
NtRp1093
(dp1094
g74
(dp1095
sg83
g1089
sg76
(lp1096
g69
(g70
g71
NtRp1097
(dp1098
g74
(dp1099
g82
I3
ssg83
g1093
sg76
(lp1100
S'127.0.0.1'
p1101
asbasbasbag69
(g85
g71
NtRp1102
(dp1103
g74
(dp1104
sg83
g1085
sg76
(lp1105
g69
(g90
g71
NtRp1106
(dp1107
g74
(dp1108
sg83
g1102
sg76
(lp1109
g69
(g70
g71
NtRp1110
(dp1111
g74
(dp1112
g82
I3
ssg83
g1106
sg76
(lp1113
S'::ffff:127.0.0.1'
p1114
asbasbasbag69
(g85
g71
NtRp1115
(dp1116
g74
(dp1117
sg83
g1085
sg76
(lp1118
g69
(g90
g71
NtRp1119
(dp1120
g74
(dp1121
sg83
g1115
sg76
(lp1122
g69
(g70
g71
NtRp1123
(dp1124
g74
(dp1125
g82
I3
ssg83
g1119
sg76
(lp1126
S'unicron.shis.uth.tmc.edu'
p1127
asbasbasbag69
(g85
g71
NtRp1128
(dp1129
g74
(dp1130
sg83
g1085
sg76
(lp1131
g69
(g90
g71
NtRp1132
(dp1133
g74
(dp1134
sg83
g1128
sg76
(lp1135
g69
(g70
g71
NtRp1136
(dp1137
g74
(dp1138
g82
I3
ssg83
g1132
sg76
(lp1139
S'unicron.shis.uth.tmc.edu'
p1140
asbasbasbag69
(g85
g71
NtRp1141
(dp1142
g74
(dp1143
sg83
g1085
sg76
(lp1144
g69
(g90
g71
NtRp1145
(dp1146
g74
(dp1147
sg83
g1141
sg76
(lp1148
g69
(g70
g71
NtRp1149
(dp1150
g74
(dp1151
g82
I3
ssg83
g1145
sg76
(lp1152
S'127.0.0.1'
p1153
asbasbasbasbasbasbasbag69
(g85
g71
NtRp1154
(dp1155
g74
(dp1156
sg83
g686
sg76
(lp1157
g69
(g90
g71
NtRp1158
(dp1159
g74
(dp1160
g94
g95
ssg83
g1154
sg76
(lp1161
S'path_info'
p1162
asbag69
(g90
g71
NtRp1163
(dp1164
g74
(dp1165
g101
g102
ssg83
g1154
sg76
(lp1166
S':'
asbag69
(g90
g71
NtRp1167
(dp1168
g74
(dp1169
sg83
g1154
sg76
(lp1170
g69
(g70
g71
NtRp1171
(dp1172
g74
(dp1173
g82
I4
ssg83
g1167
sg76
(lp1174
S'/Betsy/default/protocol/normalize_file'
p1175
asbasbasbag69
(g85
g71
NtRp1176
(dp1177
g74
(dp1178
sg83
g686
sg76
(lp1179
g69
(g90
g71
NtRp1180
(dp1181
g74
(dp1182
g94
g95
ssg83
g1176
sg76
(lp1183
S'query_string'
p1184
asbag69
(g90
g71
NtRp1185
(dp1186
g74
(dp1187
g101
g102
ssg83
g1176
sg76
(lp1188
S':'
asbag69
(g90
g71
NtRp1189
(dp1190
g74
(dp1191
sg83
g1176
sg76
(lp1192
g69
(g70
g71
NtRp1193
(dp1194
g74
(dp1195
g82
I4
ssg83
g1189
sg76
(lp1196
S''
asbasbasbag69
(g85
g71
NtRp1197
(dp1198
g74
(dp1199
sg83
g686
sg76
(lp1200
g69
(g90
g71
NtRp1201
(dp1202
g74
(dp1203
g94
g95
ssg83
g1197
sg76
(lp1204
S'remote_addr'
p1205
asbag69
(g90
g71
NtRp1206
(dp1207
g74
(dp1208
g101
g102
ssg83
g1197
sg76
(lp1209
S':'
asbag69
(g90
g71
NtRp1210
(dp1211
g74
(dp1212
sg83
g1197
sg76
(lp1213
g69
(g70
g71
NtRp1214
(dp1215
g74
(dp1216
g82
I4
ssg83
g1210
sg76
(lp1217
g237
asbasbasbag69
(g85
g71
NtRp1218
(dp1219
g74
(dp1220
sg83
g686
sg76
(lp1221
g69
(g90
g71
NtRp1222
(dp1223
g74
(dp1224
g94
g95
ssg83
g1218
sg76
(lp1225
S'remote_port'
p1226
asbag69
(g90
g71
NtRp1227
(dp1228
g74
(dp1229
g101
g102
ssg83
g1218
sg76
(lp1230
S':'
asbag69
(g90
g71
NtRp1231
(dp1232
g74
(dp1233
sg83
g1218
sg76
(lp1234
g69
(g70
g71
NtRp1235
(dp1236
g74
(dp1237
g82
I4
ssg83
g1231
sg76
(lp1238
S'42122'
p1239
asbasbasbag69
(g85
g71
NtRp1240
(dp1241
g74
(dp1242
sg83
g686
sg76
(lp1243
g69
(g90
g71
NtRp1244
(dp1245
g74
(dp1246
g94
g95
ssg83
g1240
sg76
(lp1247
S'request_method'
p1248
asbag69
(g90
g71
NtRp1249
(dp1250
g74
(dp1251
g101
g102
ssg83
g1240
sg76
(lp1252
S':'
asbag69
(g90
g71
NtRp1253
(dp1254
g74
(dp1255
sg83
g1240
sg76
(lp1256
g69
(g70
g71
NtRp1257
(dp1258
g74
(dp1259
g82
I4
ssg83
g1253
sg76
(lp1260
S'GET'
p1261
asbasbasbag69
(g85
g71
NtRp1262
(dp1263
g74
(dp1264
sg83
g686
sg76
(lp1265
g69
(g90
g71
NtRp1266
(dp1267
g74
(dp1268
g94
g95
ssg83
g1262
sg76
(lp1269
S'request_uri'
p1270
asbag69
(g90
g71
NtRp1271
(dp1272
g74
(dp1273
g101
g102
ssg83
g1262
sg76
(lp1274
S':'
asbag69
(g90
g71
NtRp1275
(dp1276
g74
(dp1277
sg83
g1262
sg76
(lp1278
g69
(g70
g71
NtRp1279
(dp1280
g74
(dp1281
g82
I4
ssg83
g1275
sg76
(lp1282
g1175
asbasbasbag69
(g85
g71
NtRp1283
(dp1284
g74
(dp1285
sg83
g686
sg76
(lp1286
g69
(g90
g71
NtRp1287
(dp1288
g74
(dp1289
g94
g95
ssg83
g1283
sg76
(lp1290
S'script_name'
p1291
asbag69
(g90
g71
NtRp1292
(dp1293
g74
(dp1294
g101
g102
ssg83
g1283
sg76
(lp1295
S':'
asbag69
(g90
g71
NtRp1296
(dp1297
g74
(dp1298
sg83
g1283
sg76
(lp1299
g69
(g70
g71
NtRp1300
(dp1301
g74
(dp1302
g82
I4
ssg83
g1296
sg76
(lp1303
S''
asbasbasbag69
(g85
g71
NtRp1304
(dp1305
g74
(dp1306
sg83
g686
sg76
(lp1307
g69
(g90
g71
NtRp1308
(dp1309
g74
(dp1310
g94
g95
ssg83
g1304
sg76
(lp1311
S'server_name'
p1312
asbag69
(g90
g71
NtRp1313
(dp1314
g74
(dp1315
g101
g102
ssg83
g1304
sg76
(lp1316
S':'
asbag69
(g90
g71
NtRp1317
(dp1318
g74
(dp1319
sg83
g1304
sg76
(lp1320
g69
(g70
g71
NtRp1321
(dp1322
g74
(dp1323
g82
I4
ssg83
g1317
sg76
(lp1324
g1140
asbasbasbag69
(g85
g71
NtRp1325
(dp1326
g74
(dp1327
sg83
g686
sg76
(lp1328
g69
(g90
g71
NtRp1329
(dp1330
g74
(dp1331
g94
g95
ssg83
g1325
sg76
(lp1332
S'server_port'
p1333
asbag69
(g90
g71
NtRp1334
(dp1335
g74
(dp1336
g101
g102
ssg83
g1325
sg76
(lp1337
S':'
asbag69
(g90
g71
NtRp1338
(dp1339
g74
(dp1340
sg83
g1325
sg76
(lp1341
g69
(g70
g71
NtRp1342
(dp1343
g74
(dp1344
g82
I4
ssg83
g1338
sg76
(lp1345
S'8080'
p1346
asbasbasbag69
(g85
g71
NtRp1347
(dp1348
g74
(dp1349
sg83
g686
sg76
(lp1350
g69
(g90
g71
NtRp1351
(dp1352
g74
(dp1353
g94
g95
ssg83
g1347
sg76
(lp1354
S'server_protocol'
p1355
asbag69
(g90
g71
NtRp1356
(dp1357
g74
(dp1358
g101
g102
ssg83
g1347
sg76
(lp1359
S':'
asbag69
(g90
g71
NtRp1360
(dp1361
g74
(dp1362
sg83
g1347
sg76
(lp1363
g69
(g70
g71
NtRp1364
(dp1365
g74
(dp1366
g82
I4
ssg83
g1360
sg76
(lp1367
S'HTTP/1.1'
p1368
asbasbasbag69
(g85
g71
NtRp1369
(dp1370
g74
(dp1371
sg83
g686
sg76
(lp1372
g69
(g90
g71
NtRp1373
(dp1374
g74
(dp1375
g94
g95
ssg83
g1369
sg76
(lp1376
S'server_software'
p1377
asbag69
(g90
g71
NtRp1378
(dp1379
g74
(dp1380
g101
g102
ssg83
g1369
sg76
(lp1381
S':'
asbag69
(g90
g71
NtRp1382
(dp1383
g74
(dp1384
sg83
g1369
sg76
(lp1385
g69
(g70
g71
NtRp1386
(dp1387
g74
(dp1388
g82
I4
ssg83
g1382
sg76
(lp1389
S'Rocket 1.2.5'
p1390
asbasbasbag69
(g85
g71
NtRp1391
(dp1392
g74
(dp1393
sg83
g686
sg76
(lp1394
g69
(g90
g71
NtRp1395
(dp1396
g74
(dp1397
g94
g95
ssg83
g1391
sg76
(lp1398
S'web2py_path'
p1399
asbag69
(g90
g71
NtRp1400
(dp1401
g74
(dp1402
g101
g102
ssg83
g1391
sg76
(lp1403
S':'
asbag69
(g90
g71
NtRp1404
(dp1405
g74
(dp1406
sg83
g1391
sg76
(lp1407
g69
(g70
g71
NtRp1408
(dp1409
g74
(dp1410
g82
I4
ssg83
g1404
sg76
(lp1411
g733
asbasbasbag69
(g85
g71
NtRp1412
(dp1413
g74
(dp1414
sg83
g686
sg76
(lp1415
g69
(g90
g71
NtRp1416
(dp1417
g74
(dp1418
g94
g95
ssg83
g1412
sg76
(lp1419
S'web2py_version'
p1420
asbag69
(g90
g71
NtRp1421
(dp1422
g74
(dp1423
g101
g102
ssg83
g1412
sg76
(lp1424
S':'
asbag69
(g90
g71
NtRp1425
(dp1426
g74
(dp1427
sg83
g1412
sg76
(lp1428
g69
(g70
g71
NtRp1429
(dp1430
g74
(dp1431
g82
I4
ssg83
g1425
sg76
(lp1432
g69
(g78
g71
NtRp1433
(dp1434
g74
(dp1435
g82
I3
ssg83
Nsg76
(lp1436
g69
(g85
g71
NtRp1437
(dp1438
g74
(dp1439
sg83
g1433
sg76
(lp1440
g69
(g90
g71
NtRp1441
(dp1442
g74
(dp1443
sg83
g1437
sg76
(lp1444
g69
(g70
g71
NtRp1445
(dp1446
g74
(dp1447
g82
I3
ssg83
g1441
sg76
(lp1448
S'2'
asbasbasbag69
(g85
g71
NtRp1449
(dp1450
g74
(dp1451
sg83
g1433
sg76
(lp1452
g69
(g90
g71
NtRp1453
(dp1454
g74
(dp1455
sg83
g1449
sg76
(lp1456
g69
(g70
g71
NtRp1457
(dp1458
g74
(dp1459
g82
I3
ssg83
g1453
sg76
(lp1460
S'2'
asbasbasbag69
(g85
g71
NtRp1461
(dp1462
g74
(dp1463
sg83
g1433
sg76
(lp1464
g69
(g90
g71
NtRp1465
(dp1466
g74
(dp1467
sg83
g1461
sg76
(lp1468
g69
(g70
g71
NtRp1469
(dp1470
g74
(dp1471
g82
I3
ssg83
g1465
sg76
(lp1472
S'1'
asbasbasbag69
(g85
g71
NtRp1473
(dp1474
g74
(dp1475
sg83
g1433
sg76
(lp1476
g69
(g90
g71
NtRp1477
(dp1478
g74
(dp1479
sg83
g1473
sg76
(lp1480
g69
(g70
g71
NtRp1481
(dp1482
g74
(dp1483
g82
I3
ssg83
g1477
sg76
(lp1484
S'datetime.datetime(2012, 10, 21, 16, 57, 4)'
p1485
asbasbasbag69
(g85
g71
NtRp1486
(dp1487
g74
(dp1488
sg83
g1433
sg76
(lp1489
g69
(g90
g71
NtRp1490
(dp1491
g74
(dp1492
sg83
g1486
sg76
(lp1493
g69
(g70
g71
NtRp1494
(dp1495
g74
(dp1496
g82
I3
ssg83
g1490
sg76
(lp1497
S'stable'
p1498
asbasbasbasbasbasbasbag69
(g85
g71
NtRp1499
(dp1500
g74
(dp1501
sg83
g686
sg76
(lp1502
g69
(g90
g71
NtRp1503
(dp1504
g74
(dp1505
g94
g95
ssg83
g1499
sg76
(lp1506
S'wsgi_errors'
p1507
asbag69
(g90
g71
NtRp1508
(dp1509
g74
(dp1510
g101
g102
ssg83
g1499
sg76
(lp1511
S':'
asbag69
(g90
g71
NtRp1512
(dp1513
g74
(dp1514
sg83
g1499
sg76
(lp1515
g69
(g70
g71
NtRp1516
(dp1517
g74
(dp1518
g82
I4
ssg83
g1512
sg76
(lp1519
S"<open file '<stderr>', mode 'w' at 0x2adc7b154270>"
p1520
asbasbasbag69
(g85
g71
NtRp1521
(dp1522
g74
(dp1523
sg83
g686
sg76
(lp1524
g69
(g90
g71
NtRp1525
(dp1526
g74
(dp1527
g94
g95
ssg83
g1521
sg76
(lp1528
S'wsgi_file_wrapper'
p1529
asbag69
(g90
g71
NtRp1530
(dp1531
g74
(dp1532
g101
g102
ssg83
g1521
sg76
(lp1533
S':'
asbag69
(g90
g71
NtRp1534
(dp1535
g74
(dp1536
sg83
g1521
sg76
(lp1537
g69
(g70
g71
NtRp1538
(dp1539
g74
(dp1540
g82
I4
ssg83
g1534
sg76
(lp1541
S'<class wsgiref.util.FileWrapper at 0x1dae4a78>'
p1542
asbasbasbag69
(g85
g71
NtRp1543
(dp1544
g74
(dp1545
sg83
g686
sg76
(lp1546
g69
(g90
g71
NtRp1547
(dp1548
g74
(dp1549
g94
g95
ssg83
g1543
sg76
(lp1550
S'wsgi_input'
p1551
asbag69
(g90
g71
NtRp1552
(dp1553
g74
(dp1554
g101
g102
ssg83
g1543
sg76
(lp1555
S':'
asbag69
(g90
g71
NtRp1556
(dp1557
g74
(dp1558
sg83
g1543
sg76
(lp1559
g69
(g70
g71
NtRp1560
(dp1561
g74
(dp1562
g82
I4
ssg83
g1556
sg76
(lp1563
S'<socket._fileobject object at 0x1e06c1d0>'
p1564
asbasbasbag69
(g85
g71
NtRp1565
(dp1566
g74
(dp1567
sg83
g686
sg76
(lp1568
g69
(g90
g71
NtRp1569
(dp1570
g74
(dp1571
g94
g95
ssg83
g1565
sg76
(lp1572
S'wsgi_multiprocess'
p1573
asbag69
(g90
g71
NtRp1574
(dp1575
g74
(dp1576
g101
g102
ssg83
g1565
sg76
(lp1577
S':'
asbag69
(g90
g71
NtRp1578
(dp1579
g74
(dp1580
sg83
g1565
sg76
(lp1581
g69
(g70
g71
NtRp1582
(dp1583
g74
(dp1584
g82
I4
ssg83
g1578
sg76
(lp1585
g112
asbasbasbag69
(g85
g71
NtRp1586
(dp1587
g74
(dp1588
sg83
g686
sg76
(lp1589
g69
(g90
g71
NtRp1590
(dp1591
g74
(dp1592
g94
g95
ssg83
g1586
sg76
(lp1593
S'wsgi_multithread'
p1594
asbag69
(g90
g71
NtRp1595
(dp1596
g74
(dp1597
g101
g102
ssg83
g1586
sg76
(lp1598
S':'
asbag69
(g90
g71
NtRp1599
(dp1600
g74
(dp1601
sg83
g1586
sg76
(lp1602
g69
(g70
g71
NtRp1603
(dp1604
g74
(dp1605
g82
I4
ssg83
g1599
sg76
(lp1606
S'True'
p1607
asbasbasbag69
(g85
g71
NtRp1608
(dp1609
g74
(dp1610
sg83
g686
sg76
(lp1611
g69
(g90
g71
NtRp1612
(dp1613
g74
(dp1614
g94
g95
ssg83
g1608
sg76
(lp1615
S'wsgi_run_once'
p1616
asbag69
(g90
g71
NtRp1617
(dp1618
g74
(dp1619
g101
g102
ssg83
g1608
sg76
(lp1620
S':'
asbag69
(g90
g71
NtRp1621
(dp1622
g74
(dp1623
sg83
g1608
sg76
(lp1624
g69
(g70
g71
NtRp1625
(dp1626
g74
(dp1627
g82
I4
ssg83
g1621
sg76
(lp1628
g112
asbasbasbag69
(g85
g71
NtRp1629
(dp1630
g74
(dp1631
sg83
g686
sg76
(lp1632
g69
(g90
g71
NtRp1633
(dp1634
g74
(dp1635
g94
g95
ssg83
g1629
sg76
(lp1636
S'wsgi_url_scheme'
p1637
asbag69
(g90
g71
NtRp1638
(dp1639
g74
(dp1640
g101
g102
ssg83
g1629
sg76
(lp1641
S':'
asbag69
(g90
g71
NtRp1642
(dp1643
g74
(dp1644
sg83
g1629
sg76
(lp1645
g69
(g70
g71
NtRp1646
(dp1647
g74
(dp1648
g82
I4
ssg83
g1642
sg76
(lp1649
S'http'
p1650
asbasbasbag69
(g85
g71
NtRp1651
(dp1652
g74
(dp1653
sg83
g686
sg76
(lp1654
g69
(g90
g71
NtRp1655
(dp1656
g74
(dp1657
g94
g95
ssg83
g1651
sg76
(lp1658
S'wsgi_version'
p1659
asbag69
(g90
g71
NtRp1660
(dp1661
g74
(dp1662
g101
g102
ssg83
g1651
sg76
(lp1663
S':'
asbag69
(g90
g71
NtRp1664
(dp1665
g74
(dp1666
sg83
g1651
sg76
(lp1667
g69
(g70
g71
NtRp1668
(dp1669
g74
(dp1670
g82
I4
ssg83
g1664
sg76
(lp1671
g69
(g78
g71
NtRp1672
(dp1673
g74
(dp1674
g82
I3
ssg83
Nsg76
(lp1675
g69
(g85
g71
NtRp1676
(dp1677
g74
(dp1678
sg83
g1672
sg76
(lp1679
g69
(g90
g71
NtRp1680
(dp1681
g74
(dp1682
sg83
g1676
sg76
(lp1683
g69
(g70
g71
NtRp1684
(dp1685
g74
(dp1686
g82
I3
ssg83
g1680
sg76
(lp1687
S'1'
asbasbasbag69
(g85
g71
NtRp1688
(dp1689
g74
(dp1690
sg83
g1672
sg76
(lp1691
g69
(g90
g71
NtRp1692
(dp1693
g74
(dp1694
sg83
g1688
sg76
(lp1695
g69
(g70
g71
NtRp1696
(dp1697
g74
(dp1698
g82
I3
ssg83
g1692
sg76
(lp1699
S'0'
asbasbasbasbasbasbasbasbasbasbasbag69
(g85
g71
NtRp1700
(dp1701
g74
(dp1702
sg83
g79
sg76
(lp1703
g69
(g90
g71
NtRp1704
(dp1705
g74
(dp1706
g94
g95
ssg83
g1700
sg76
(lp1707
S'extension'
p1708
asbag69
(g90
g71
NtRp1709
(dp1710
g74
(dp1711
g101
g102
ssg83
g1700
sg76
(lp1712
S':'
asbag69
(g90
g71
NtRp1713
(dp1714
g74
(dp1715
sg83
g1700
sg76
(lp1716
g69
(g70
g71
NtRp1717
(dp1718
g74
(dp1719
g82
I5
ssg83
g1713
sg76
(lp1720
S'html'
p1721
asbasbasbag69
(g85
g71
NtRp1722
(dp1723
g74
(dp1724
sg83
g79
sg76
(lp1725
g69
(g90
g71
NtRp1726
(dp1727
g74
(dp1728
g94
g95
ssg83
g1722
sg76
(lp1729
S'folder'
p1730
asbag69
(g90
g71
NtRp1731
(dp1732
g74
(dp1733
g101
g102
ssg83
g1722
sg76
(lp1734
S':'
asbag69
(g90
g71
NtRp1735
(dp1736
g74
(dp1737
sg83
g1722
sg76
(lp1738
g69
(g70
g71
NtRp1739
(dp1740
g74
(dp1741
g82
I5
ssg83
g1735
sg76
(lp1742
S'/home/xchen/web2py/applications/Betsy/'
p1743
asbasbasbag69
(g85
g71
NtRp1744
(dp1745
g74
(dp1746
sg83
g79
sg76
(lp1747
g69
(g90
g71
NtRp1748
(dp1749
g74
(dp1750
g94
g95
ssg83
g1744
sg76
(lp1751
S'function'
p1752
asbag69
(g90
g71
NtRp1753
(dp1754
g74
(dp1755
g101
g102
ssg83
g1744
sg76
(lp1756
S':'
asbag69
(g90
g71
NtRp1757
(dp1758
g74
(dp1759
sg83
g1744
sg76
(lp1760
g69
(g70
g71
NtRp1761
(dp1762
g74
(dp1763
g82
I5
ssg83
g1757
sg76
(lp1764
S'protocol'
p1765
asbasbasbag69
(g85
g71
NtRp1766
(dp1767
g74
(dp1768
sg83
g79
sg76
(lp1769
g69
(g90
g71
NtRp1770
(dp1771
g74
(dp1772
g94
g95
ssg83
g1766
sg76
(lp1773
S'get_vars'
p1774
asbag69
(g90
g71
NtRp1775
(dp1776
g74
(dp1777
g101
g102
ssg83
g1766
sg76
(lp1778
S':'
asbag69
(g90
g71
NtRp1779
(dp1780
g74
(dp1781
sg83
g1766
sg76
(lp1782
g69
(g70
g71
NtRp1783
(dp1784
g74
(dp1785
g82
I5
ssg83
g1779
sg76
(lp1786
g69
(g78
g71
NtRp1787
(dp1788
g74
(dp1789
g82
I4
ssg83
Nsg76
(lp1790
sbasbasbasbag69
(g85
g71
NtRp1791
(dp1792
g74
(dp1793
sg83
g79
sg76
(lp1794
g69
(g90
g71
NtRp1795
(dp1796
g74
(dp1797
g94
g95
ssg83
g1791
sg76
(lp1798
S'global_settings'
p1799
asbag69
(g90
g71
NtRp1800
(dp1801
g74
(dp1802
g101
g102
ssg83
g1791
sg76
(lp1803
S':'
asbag69
(g90
g71
NtRp1804
(dp1805
g74
(dp1806
sg83
g1791
sg76
(lp1807
g69
(g70
g71
NtRp1808
(dp1809
g74
(dp1810
g82
I5
ssg83
g1804
sg76
(lp1811
g69
(g78
g71
NtRp1812
(dp1813
g74
(dp1814
g82
I4
ssg83
Nsg76
(lp1815
g69
(g85
g71
NtRp1816
(dp1817
g74
(dp1818
sg83
g1812
sg76
(lp1819
g69
(g90
g71
NtRp1820
(dp1821
g74
(dp1822
g94
g95
ssg83
g1816
sg76
(lp1823
g698
asbag69
(g90
g71
NtRp1824
(dp1825
g74
(dp1826
g101
g102
ssg83
g1816
sg76
(lp1827
S':'
asbag69
(g90
g71
NtRp1828
(dp1829
g74
(dp1830
sg83
g1816
sg76
(lp1831
g69
(g70
g71
NtRp1832
(dp1833
g74
(dp1834
g82
I4
ssg83
g1828
sg76
(lp1835
S"set(['/home/xchen/web2py/applications/Betsy/', '/home/xchen/web2py/applications/admin/'])"
p1836
asbasbasbag69
(g85
g71
NtRp1837
(dp1838
g74
(dp1839
sg83
g1812
sg76
(lp1840
g69
(g90
g71
NtRp1841
(dp1842
g74
(dp1843
g94
g95
ssg83
g1837
sg76
(lp1844
g720
asbag69
(g90
g71
NtRp1845
(dp1846
g74
(dp1847
g101
g102
ssg83
g1837
sg76
(lp1848
S':'
asbag69
(g90
g71
NtRp1849
(dp1850
g74
(dp1851
sg83
g1837
sg76
(lp1852
g69
(g70
g71
NtRp1853
(dp1854
g74
(dp1855
g82
I4
ssg83
g1849
sg76
(lp1856
g733
asbasbasbag69
(g85
g71
NtRp1857
(dp1858
g74
(dp1859
sg83
g1812
sg76
(lp1860
g69
(g90
g71
NtRp1861
(dp1862
g74
(dp1863
g94
g95
ssg83
g1857
sg76
(lp1864
g742
asbag69
(g90
g71
NtRp1865
(dp1866
g74
(dp1867
g101
g102
ssg83
g1857
sg76
(lp1868
S':'
asbag69
(g90
g71
NtRp1869
(dp1870
g74
(dp1871
sg83
g1857
sg76
(lp1872
g69
(g70
g71
NtRp1873
(dp1874
g74
(dp1875
g82
I4
ssg83
g1869
sg76
(lp1876
g69
(g78
g71
NtRp1877
(dp1878
g74
(dp1879
g82
I3
ssg83
Nsg76
(lp1880
sbasbasbasbag69
(g85
g71
NtRp1881
(dp1882
g74
(dp1883
sg83
g1812
sg76
(lp1884
g69
(g90
g71
NtRp1885
(dp1886
g74
(dp1887
g94
g95
ssg83
g1881
sg76
(lp1888
g767
asbag69
(g90
g71
NtRp1889
(dp1890
g74
(dp1891
g101
g102
ssg83
g1881
sg76
(lp1892
S':'
asbag69
(g90
g71
NtRp1893
(dp1894
g74
(dp1895
sg83
g1881
sg76
(lp1896
g69
(g70
g71
NtRp1897
(dp1898
g74
(dp1899
g82
I4
ssg83
g1893
sg76
(lp1900
S"<Values at 0x1db85e18: {'verbose': False, 'ip': '127.0.0.1', 'with_scheduler': False, 'ips': [], 'shutdown_timeout': 5, 'taskbar': False, 'port': 8080, 'maxthreads': None, 'softcron': False, 'server_name': 'unicron.shis.uth.tmc.edu', 'bpython': False, 'nogui': False, 'pid_filename': 'httpserver.pid', 'extcron': False, 'runcron': False, 'run_system_tests': False, 'test': None, 'folder': '/home/xchen/web2py', 'config': '', 'minthreads': None, 'winservice': '', 'shell': None, 'run': '', 'log_filename': 'httpserver.log', 'debuglevel': 30, 'args': [''], 'socket_timeout': 5, 'ssl_ca_certificate': None, 'scheduler': None, 'profiler_filename': None, 'ssl_private_key': '', 'scheduler_groups': None, 'password': 'baby2008', 'request_queue_size': 5, 'ssl_certificate': '', 'cronjob': False, 'numthreads': None, 'quiet': False, 'interfaces': None, 'import_models': False, 'timeout': 10, 'plain': False, 'nobanner': False}>"
p1901
asbasbasbag69
(g85
g71
NtRp1902
(dp1903
g74
(dp1904
sg83
g1812
sg76
(lp1905
g69
(g90
g71
NtRp1906
(dp1907
g74
(dp1908
g94
g95
ssg83
g1902
sg76
(lp1909
g789
asbag69
(g90
g71
NtRp1910
(dp1911
g74
(dp1912
g101
g102
ssg83
g1902
sg76
(lp1913
S':'
asbag69
(g90
g71
NtRp1914
(dp1915
g74
(dp1916
sg83
g1902
sg76
(lp1917
g69
(g70
g71
NtRp1918
(dp1919
g74
(dp1920
g82
I4
ssg83
g1914
sg76
(lp1921
S'set([])'
p1922
asbasbasbag69
(g85
g71
NtRp1923
(dp1924
g74
(dp1925
sg83
g1812
sg76
(lp1926
g69
(g90
g71
NtRp1927
(dp1928
g74
(dp1929
g94
g95
ssg83
g1923
sg76
(lp1930
g811
asbag69
(g90
g71
NtRp1931
(dp1932
g74
(dp1933
g101
g102
ssg83
g1923
sg76
(lp1934
S':'
asbag69
(g90
g71
NtRp1935
(dp1936
g74
(dp1937
sg83
g1923
sg76
(lp1938
g69
(g70
g71
NtRp1939
(dp1940
g74
(dp1941
g82
I4
ssg83
g1935
sg76
(lp1942
g112
asbasbasbag69
(g85
g71
NtRp1943
(dp1944
g74
(dp1945
sg83
g1812
sg76
(lp1946
g69
(g90
g71
NtRp1947
(dp1948
g74
(dp1949
g94
g95
ssg83
g1943
sg76
(lp1950
g832
asbag69
(g90
g71
NtRp1951
(dp1952
g74
(dp1953
g101
g102
ssg83
g1943
sg76
(lp1954
S':'
asbag69
(g90
g71
NtRp1955
(dp1956
g74
(dp1957
sg83
g1943
sg76
(lp1958
g69
(g70
g71
NtRp1959
(dp1960
g74
(dp1961
g82
I4
ssg83
g1955
sg76
(lp1962
g845
asbasbasbag69
(g85
g71
NtRp1963
(dp1964
g74
(dp1965
sg83
g1812
sg76
(lp1966
g69
(g90
g71
NtRp1967
(dp1968
g74
(dp1969
g94
g95
ssg83
g1963
sg76
(lp1970
g1030
asbag69
(g90
g71
NtRp1971
(dp1972
g74
(dp1973
g101
g102
ssg83
g1963
sg76
(lp1974
S':'
asbag69
(g90
g71
NtRp1975
(dp1976
g74
(dp1977
sg83
g1963
sg76
(lp1978
g69
(g70
g71
NtRp1979
(dp1980
g74
(dp1981
g82
I4
ssg83
g1975
sg76
(lp1982
g112
asbasbasbag69
(g85
g71
NtRp1983
(dp1984
g74
(dp1985
sg83
g1812
sg76
(lp1986
g69
(g90
g71
NtRp1987
(dp1988
g74
(dp1989
g94
g95
ssg83
g1983
sg76
(lp1990
g1051
asbag69
(g90
g71
NtRp1991
(dp1992
g74
(dp1993
g101
g102
ssg83
g1983
sg76
(lp1994
S':'
asbag69
(g90
g71
NtRp1995
(dp1996
g74
(dp1997
sg83
g1983
sg76
(lp1998
g69
(g70
g71
NtRp1999
(dp2000
g74
(dp2001
g82
I4
ssg83
g1995
sg76
(lp2002
g112
asbasbasbag69
(g85
g71
NtRp2003
(dp2004
g74
(dp2005
sg83
g1812
sg76
(lp2006
g69
(g90
g71
NtRp2007
(dp2008
g74
(dp2009
g94
g95
ssg83
g2003
sg76
(lp2010
g1072
asbag69
(g90
g71
NtRp2011
(dp2012
g74
(dp2013
g101
g102
ssg83
g2003
sg76
(lp2014
S':'
asbag69
(g90
g71
NtRp2015
(dp2016
g74
(dp2017
sg83
g2003
sg76
(lp2018
g69
(g70
g71
NtRp2019
(dp2020
g74
(dp2021
g82
I4
ssg83
g2015
sg76
(lp2022
g69
(g78
g71
NtRp2023
(dp2024
g74
(dp2025
g82
I3
ssg83
Nsg76
(lp2026
g69
(g85
g71
NtRp2027
(dp2028
g74
(dp2029
sg83
g2023
sg76
(lp2030
g69
(g90
g71
NtRp2031
(dp2032
g74
(dp2033
sg83
g2027
sg76
(lp2034
g69
(g70
g71
NtRp2035
(dp2036
g74
(dp2037
g82
I3
ssg83
g2031
sg76
(lp2038
g1101
asbasbasbag69
(g85
g71
NtRp2039
(dp2040
g74
(dp2041
sg83
g2023
sg76
(lp2042
g69
(g90
g71
NtRp2043
(dp2044
g74
(dp2045
sg83
g2039
sg76
(lp2046
g69
(g70
g71
NtRp2047
(dp2048
g74
(dp2049
g82
I3
ssg83
g2043
sg76
(lp2050
g1114
asbasbasbag69
(g85
g71
NtRp2051
(dp2052
g74
(dp2053
sg83
g2023
sg76
(lp2054
g69
(g90
g71
NtRp2055
(dp2056
g74
(dp2057
sg83
g2051
sg76
(lp2058
g69
(g70
g71
NtRp2059
(dp2060
g74
(dp2061
g82
I3
ssg83
g2055
sg76
(lp2062
g1127
asbasbasbag69
(g85
g71
NtRp2063
(dp2064
g74
(dp2065
sg83
g2023
sg76
(lp2066
g69
(g90
g71
NtRp2067
(dp2068
g74
(dp2069
sg83
g2063
sg76
(lp2070
g69
(g70
g71
NtRp2071
(dp2072
g74
(dp2073
g82
I3
ssg83
g2067
sg76
(lp2074
g1140
asbasbasbag69
(g85
g71
NtRp2075
(dp2076
g74
(dp2077
sg83
g2023
sg76
(lp2078
g69
(g90
g71
NtRp2079
(dp2080
g74
(dp2081
sg83
g2075
sg76
(lp2082
g69
(g70
g71
NtRp2083
(dp2084
g74
(dp2085
g82
I3
ssg83
g2079
sg76
(lp2086
g1153
asbasbasbasbasbasbasbag69
(g85
g71
NtRp2087
(dp2088
g74
(dp2089
sg83
g1812
sg76
(lp2090
g69
(g90
g71
NtRp2091
(dp2092
g74
(dp2093
g94
g95
ssg83
g2087
sg76
(lp2094
g1420
asbag69
(g90
g71
NtRp2095
(dp2096
g74
(dp2097
g101
g102
ssg83
g2087
sg76
(lp2098
S':'
asbag69
(g90
g71
NtRp2099
(dp2100
g74
(dp2101
sg83
g2087
sg76
(lp2102
g69
(g70
g71
NtRp2103
(dp2104
g74
(dp2105
g82
I4
ssg83
g2099
sg76
(lp2106
g69
(g78
g71
NtRp2107
(dp2108
g74
(dp2109
g82
I3
ssg83
Nsg76
(lp2110
g69
(g85
g71
NtRp2111
(dp2112
g74
(dp2113
sg83
g2107
sg76
(lp2114
g69
(g90
g71
NtRp2115
(dp2116
g74
(dp2117
sg83
g2111
sg76
(lp2118
g69
(g70
g71
NtRp2119
(dp2120
g74
(dp2121
g82
I3
ssg83
g2115
sg76
(lp2122
S'2'
asbasbasbag69
(g85
g71
NtRp2123
(dp2124
g74
(dp2125
sg83
g2107
sg76
(lp2126
g69
(g90
g71
NtRp2127
(dp2128
g74
(dp2129
sg83
g2123
sg76
(lp2130
g69
(g70
g71
NtRp2131
(dp2132
g74
(dp2133
g82
I3
ssg83
g2127
sg76
(lp2134
S'2'
asbasbasbag69
(g85
g71
NtRp2135
(dp2136
g74
(dp2137
sg83
g2107
sg76
(lp2138
g69
(g90
g71
NtRp2139
(dp2140
g74
(dp2141
sg83
g2135
sg76
(lp2142
g69
(g70
g71
NtRp2143
(dp2144
g74
(dp2145
g82
I3
ssg83
g2139
sg76
(lp2146
S'1'
asbasbasbag69
(g85
g71
NtRp2147
(dp2148
g74
(dp2149
sg83
g2107
sg76
(lp2150
g69
(g90
g71
NtRp2151
(dp2152
g74
(dp2153
sg83
g2147
sg76
(lp2154
g69
(g70
g71
NtRp2155
(dp2156
g74
(dp2157
g82
I3
ssg83
g2151
sg76
(lp2158
S'datetime.datetime(2012, 10, 21, 16, 57, 4)'
p2159
asbasbasbag69
(g85
g71
NtRp2160
(dp2161
g74
(dp2162
sg83
g2107
sg76
(lp2163
g69
(g90
g71
NtRp2164
(dp2165
g74
(dp2166
sg83
g2160
sg76
(lp2167
g69
(g70
g71
NtRp2168
(dp2169
g74
(dp2170
g82
I3
ssg83
g2164
sg76
(lp2171
g1498
asbasbasbasbasbasbasbasbasbasbasbag69
(g85
g71
NtRp2172
(dp2173
g74
(dp2174
sg83
g79
sg76
(lp2175
g69
(g90
g71
NtRp2176
(dp2177
g74
(dp2178
g94
g95
ssg83
g2172
sg76
(lp2179
S'is_https'
p2180
asbag69
(g90
g71
NtRp2181
(dp2182
g74
(dp2183
g101
g102
ssg83
g2172
sg76
(lp2184
S':'
asbag69
(g90
g71
NtRp2185
(dp2186
g74
(dp2187
sg83
g2172
sg76
(lp2188
g69
(g70
g71
NtRp2189
(dp2190
g74
(dp2191
g82
I5
ssg83
g2185
sg76
(lp2192
g112
asbasbasbag69
(g85
g71
NtRp2193
(dp2194
g74
(dp2195
sg83
g79
sg76
(lp2196
g69
(g90
g71
NtRp2197
(dp2198
g74
(dp2199
g94
g95
ssg83
g2193
sg76
(lp2200
S'is_local'
p2201
asbag69
(g90
g71
NtRp2202
(dp2203
g74
(dp2204
g101
g102
ssg83
g2193
sg76
(lp2205
S':'
asbag69
(g90
g71
NtRp2206
(dp2207
g74
(dp2208
sg83
g2193
sg76
(lp2209
g69
(g70
g71
NtRp2210
(dp2211
g74
(dp2212
g82
I5
ssg83
g2206
sg76
(lp2213
g1607
asbasbasbag69
(g85
g71
NtRp2214
(dp2215
g74
(dp2216
sg83
g79
sg76
(lp2217
g69
(g90
g71
NtRp2218
(dp2219
g74
(dp2220
g94
g95
ssg83
g2214
sg76
(lp2221
S'is_restful'
p2222
asbag69
(g90
g71
NtRp2223
(dp2224
g74
(dp2225
g101
g102
ssg83
g2214
sg76
(lp2226
S':'
asbag69
(g90
g71
NtRp2227
(dp2228
g74
(dp2229
sg83
g2214
sg76
(lp2230
g69
(g70
g71
NtRp2231
(dp2232
g74
(dp2233
g82
I5
ssg83
g2227
sg76
(lp2234
g112
asbasbasbag69
(g85
g71
NtRp2235
(dp2236
g74
(dp2237
sg83
g79
sg76
(lp2238
g69
(g90
g71
NtRp2239
(dp2240
g74
(dp2241
g94
g95
ssg83
g2235
sg76
(lp2242
S'now'
p2243
asbag69
(g90
g71
NtRp2244
(dp2245
g74
(dp2246
g101
g102
ssg83
g2235
sg76
(lp2247
S':'
asbag69
(g90
g71
NtRp2248
(dp2249
g74
(dp2250
sg83
g2235
sg76
(lp2251
g69
(g70
g71
NtRp2252
(dp2253
g74
(dp2254
g82
I5
ssg83
g2248
sg76
(lp2255
S'datetime.datetime(2013, 5, 24, 14, 51, 52, 205615)'
p2256
asbasbasbag69
(g85
g71
NtRp2257
(dp2258
g74
(dp2259
sg83
g79
sg76
(lp2260
g69
(g90
g71
NtRp2261
(dp2262
g74
(dp2263
g94
g95
ssg83
g2257
sg76
(lp2264
S'post_vars'
p2265
asbag69
(g90
g71
NtRp2266
(dp2267
g74
(dp2268
g101
g102
ssg83
g2257
sg76
(lp2269
S':'
asbag69
(g90
g71
NtRp2270
(dp2271
g74
(dp2272
sg83
g2257
sg76
(lp2273
g69
(g70
g71
NtRp2274
(dp2275
g74
(dp2276
g82
I5
ssg83
g2270
sg76
(lp2277
g69
(g78
g71
NtRp2278
(dp2279
g74
(dp2280
g82
I4
ssg83
Nsg76
(lp2281
sbasbasbasbag69
(g85
g71
NtRp2282
(dp2283
g74
(dp2284
sg83
g79
sg76
(lp2285
g69
(g90
g71
NtRp2286
(dp2287
g74
(dp2288
g94
g95
ssg83
g2282
sg76
(lp2289
S'raw_args'
p2290
asbag69
(g90
g71
NtRp2291
(dp2292
g74
(dp2293
g101
g102
ssg83
g2282
sg76
(lp2294
S':'
asbag69
(g90
g71
NtRp2295
(dp2296
g74
(dp2297
sg83
g2282
sg76
(lp2298
g69
(g70
g71
NtRp2299
(dp2300
g74
(dp2301
g82
I5
ssg83
g2295
sg76
(lp2302
S'/normalize_file'
p2303
asbasbasbag69
(g85
g71
NtRp2304
(dp2305
g74
(dp2306
sg83
g79
sg76
(lp2307
g69
(g90
g71
NtRp2308
(dp2309
g74
(dp2310
g94
g95
ssg83
g2304
sg76
(lp2311
S'raw_extension'
p2312
asbag69
(g90
g71
NtRp2313
(dp2314
g74
(dp2315
g101
g102
ssg83
g2304
sg76
(lp2316
S':'
asbag69
(g90
g71
NtRp2317
(dp2318
g74
(dp2319
sg83
g2304
sg76
(lp2320
g69
(g70
g71
NtRp2321
(dp2322
g74
(dp2323
g82
I5
ssg83
g2317
sg76
(lp2324
S'None'
p2325
asbasbasbag69
(g85
g71
NtRp2326
(dp2327
g74
(dp2328
sg83
g79
sg76
(lp2329
g69
(g90
g71
NtRp2330
(dp2331
g74
(dp2332
g94
g95
ssg83
g2326
sg76
(lp2333
S'url'
p2334
asbag69
(g90
g71
NtRp2335
(dp2336
g74
(dp2337
g101
g102
ssg83
g2326
sg76
(lp2338
S':'
asbag69
(g90
g71
NtRp2339
(dp2340
g74
(dp2341
sg83
g2326
sg76
(lp2342
g69
(g70
g71
NtRp2343
(dp2344
g74
(dp2345
g82
I5
ssg83
g2339
sg76
(lp2346
g1175
asbasbasbag69
(g85
g71
NtRp2347
(dp2348
g74
(dp2349
sg83
g79
sg76
(lp2350
g69
(g90
g71
NtRp2351
(dp2352
g74
(dp2353
g94
g95
ssg83
g2347
sg76
(lp2354
S'utcnow'
p2355
asbag69
(g90
g71
NtRp2356
(dp2357
g74
(dp2358
g101
g102
ssg83
g2347
sg76
(lp2359
S':'
asbag69
(g90
g71
NtRp2360
(dp2361
g74
(dp2362
sg83
g2347
sg76
(lp2363
g69
(g70
g71
NtRp2364
(dp2365
g74
(dp2366
g82
I5
ssg83
g2360
sg76
(lp2367
S'datetime.datetime(2013, 5, 24, 19, 51, 52, 205621)'
p2368
asbasbasbag69
(g85
g71
NtRp2369
(dp2370
g74
(dp2371
sg83
g79
sg76
(lp2372
g69
(g90
g71
NtRp2373
(dp2374
g74
(dp2375
g94
g95
ssg83
g2369
sg76
(lp2376
S'uuid'
p2377
asbag69
(g90
g71
NtRp2378
(dp2379
g74
(dp2380
g101
g102
ssg83
g2369
sg76
(lp2381
S':'
asbag69
(g90
g71
NtRp2382
(dp2383
g74
(dp2384
sg83
g2369
sg76
(lp2385
g69
(g70
g71
NtRp2386
(dp2387
g74
(dp2388
g82
I5
ssg83
g2382
sg76
(lp2389
S'Betsy/127.0.0.1.2013-05-24.14-51-52.9f85705f-8d55-4267-99c9-f91f0b41c165'
p2390
asbasbasbag69
(g85
g71
NtRp2391
(dp2392
g74
(dp2393
sg83
g79
sg76
(lp2394
g69
(g90
g71
NtRp2395
(dp2396
g74
(dp2397
g94
g95
ssg83
g2391
sg76
(lp2398
S'vars'
p2399
asbag69
(g90
g71
NtRp2400
(dp2401
g74
(dp2402
g101
g102
ssg83
g2391
sg76
(lp2403
S':'
asbag69
(g90
g71
NtRp2404
(dp2405
g74
(dp2406
sg83
g2391
sg76
(lp2407
g69
(g70
g71
NtRp2408
(dp2409
g74
(dp2410
g82
I5
ssg83
g2404
sg76
(lp2411
g69
(g78
g71
NtRp2412
(dp2413
g74
(dp2414
g82
I4
ssg83
Nsg76
(lp2415
sbasbasbasbag69
(g85
g71
NtRp2416
(dp2417
g74
(dp2418
sg83
g79
sg76
(lp2419
g69
(g90
g71
NtRp2420
(dp2421
g74
(dp2422
g94
g95
ssg83
g2416
sg76
(lp2423
S'wsgi'
p2424
asbag69
(g90
g71
NtRp2425
(dp2426
g74
(dp2427
g101
g102
ssg83
g2416
sg76
(lp2428
S':'
asbag69
(g90
g71
NtRp2429
(dp2430
g74
(dp2431
sg83
g2416
sg76
(lp2432
g69
(g70
g71
NtRp2433
(dp2434
g74
(dp2435
g82
I5
ssg83
g2429
sg76
(lp2436
g69
(g78
g71
NtRp2437
(dp2438
g74
(dp2439
g82
I4
ssg83
Nsg76
(lp2440
g69
(g85
g71
NtRp2441
(dp2442
g74
(dp2443
sg83
g2437
sg76
(lp2444
g69
(g90
g71
NtRp2445
(dp2446
g74
(dp2447
g94
g95
ssg83
g2441
sg76
(lp2448
S'environ'
p2449
asbag69
(g90
g71
NtRp2450
(dp2451
g74
(dp2452
g101
g102
ssg83
g2441
sg76
(lp2453
S':'
asbag69
(g90
g71
NtRp2454
(dp2455
g74
(dp2456
sg83
g2441
sg76
(lp2457
g69
(g70
g71
NtRp2458
(dp2459
g74
(dp2460
g82
I4
ssg83
g2454
sg76
(lp2461
g69
(g78
g71
NtRp2462
(dp2463
g74
(dp2464
g82
I3
ssg83
Nsg76
(lp2465
g69
(g85
g71
NtRp2466
(dp2467
g74
(dp2468
sg83
g2462
sg76
(lp2469
g69
(g90
g71
NtRp2470
(dp2471
g74
(dp2472
g94
g95
ssg83
g2466
sg76
(lp2473
S'HTTP_ACCEPT'
p2474
asbag69
(g90
g71
NtRp2475
(dp2476
g74
(dp2477
g101
g102
ssg83
g2466
sg76
(lp2478
S':'
asbag69
(g90
g71
NtRp2479
(dp2480
g74
(dp2481
sg83
g2466
sg76
(lp2482
g69
(g70
g71
NtRp2483
(dp2484
g74
(dp2485
g82
I3
ssg83
g2479
sg76
(lp2486
g867
asbasbasbag69
(g85
g71
NtRp2487
(dp2488
g74
(dp2489
sg83
g2462
sg76
(lp2490
g69
(g90
g71
NtRp2491
(dp2492
g74
(dp2493
g94
g95
ssg83
g2487
sg76
(lp2494
S'HTTP_ACCEPT_ENCODING'
p2495
asbag69
(g90
g71
NtRp2496
(dp2497
g74
(dp2498
g101
g102
ssg83
g2487
sg76
(lp2499
S':'
asbag69
(g90
g71
NtRp2500
(dp2501
g74
(dp2502
sg83
g2487
sg76
(lp2503
g69
(g70
g71
NtRp2504
(dp2505
g74
(dp2506
g82
I3
ssg83
g2500
sg76
(lp2507
g889
asbasbasbag69
(g85
g71
NtRp2508
(dp2509
g74
(dp2510
sg83
g2462
sg76
(lp2511
g69
(g90
g71
NtRp2512
(dp2513
g74
(dp2514
g94
g95
ssg83
g2508
sg76
(lp2515
S'HTTP_ACCEPT_LANGUAGE'
p2516
asbag69
(g90
g71
NtRp2517
(dp2518
g74
(dp2519
g101
g102
ssg83
g2508
sg76
(lp2520
S':'
asbag69
(g90
g71
NtRp2521
(dp2522
g74
(dp2523
sg83
g2508
sg76
(lp2524
g69
(g70
g71
NtRp2525
(dp2526
g74
(dp2527
g82
I3
ssg83
g2521
sg76
(lp2528
g911
asbasbasbag69
(g85
g71
NtRp2529
(dp2530
g74
(dp2531
sg83
g2462
sg76
(lp2532
g69
(g90
g71
NtRp2533
(dp2534
g74
(dp2535
g94
g95
ssg83
g2529
sg76
(lp2536
S'HTTP_CONNECTION'
p2537
asbag69
(g90
g71
NtRp2538
(dp2539
g74
(dp2540
g101
g102
ssg83
g2529
sg76
(lp2541
S':'
asbag69
(g90
g71
NtRp2542
(dp2543
g74
(dp2544
sg83
g2529
sg76
(lp2545
g69
(g70
g71
NtRp2546
(dp2547
g74
(dp2548
g82
I3
ssg83
g2542
sg76
(lp2549
g933
asbasbasbag69
(g85
g71
NtRp2550
(dp2551
g74
(dp2552
sg83
g2462
sg76
(lp2553
g69
(g90
g71
NtRp2554
(dp2555
g74
(dp2556
g94
g95
ssg83
g2550
sg76
(lp2557
S'HTTP_COOKIE'
p2558
asbag69
(g90
g71
NtRp2559
(dp2560
g74
(dp2561
g101
g102
ssg83
g2550
sg76
(lp2562
S':'
asbag69
(g90
g71
NtRp2563
(dp2564
g74
(dp2565
sg83
g2550
sg76
(lp2566
g69
(g70
g71
NtRp2567
(dp2568
g74
(dp2569
g82
I3
ssg83
g2563
sg76
(lp2570
g955
asbasbasbag69
(g85
g71
NtRp2571
(dp2572
g74
(dp2573
sg83
g2462
sg76
(lp2574
g69
(g90
g71
NtRp2575
(dp2576
g74
(dp2577
g94
g95
ssg83
g2571
sg76
(lp2578
S'HTTP_HOST'
p2579
asbag69
(g90
g71
NtRp2580
(dp2581
g74
(dp2582
g101
g102
ssg83
g2571
sg76
(lp2583
S':'
asbag69
(g90
g71
NtRp2584
(dp2585
g74
(dp2586
sg83
g2571
sg76
(lp2587
g69
(g70
g71
NtRp2588
(dp2589
g74
(dp2590
g82
I3
ssg83
g2584
sg76
(lp2591
g977
asbasbasbag69
(g85
g71
NtRp2592
(dp2593
g74
(dp2594
sg83
g2462
sg76
(lp2595
g69
(g90
g71
NtRp2596
(dp2597
g74
(dp2598
g94
g95
ssg83
g2592
sg76
(lp2599
S'HTTP_REFERER'
p2600
asbag69
(g90
g71
NtRp2601
(dp2602
g74
(dp2603
g101
g102
ssg83
g2592
sg76
(lp2604
S':'
asbag69
(g90
g71
NtRp2605
(dp2606
g74
(dp2607
sg83
g2592
sg76
(lp2608
g69
(g70
g71
NtRp2609
(dp2610
g74
(dp2611
g82
I3
ssg83
g2605
sg76
(lp2612
g999
asbasbasbag69
(g85
g71
NtRp2613
(dp2614
g74
(dp2615
sg83
g2462
sg76
(lp2616
g69
(g90
g71
NtRp2617
(dp2618
g74
(dp2619
g94
g95
ssg83
g2613
sg76
(lp2620
S'HTTP_USER_AGENT'
p2621
asbag69
(g90
g71
NtRp2622
(dp2623
g74
(dp2624
g101
g102
ssg83
g2613
sg76
(lp2625
S':'
asbag69
(g90
g71
NtRp2626
(dp2627
g74
(dp2628
sg83
g2613
sg76
(lp2629
g69
(g70
g71
NtRp2630
(dp2631
g74
(dp2632
g82
I3
ssg83
g2626
sg76
(lp2633
g1021
asbasbasbag69
(g85
g71
NtRp2634
(dp2635
g74
(dp2636
sg83
g2462
sg76
(lp2637
g69
(g90
g71
NtRp2638
(dp2639
g74
(dp2640
g94
g95
ssg83
g2634
sg76
(lp2641
S'PATH_INFO'
p2642
asbag69
(g90
g71
NtRp2643
(dp2644
g74
(dp2645
g101
g102
ssg83
g2634
sg76
(lp2646
S':'
asbag69
(g90
g71
NtRp2647
(dp2648
g74
(dp2649
sg83
g2634
sg76
(lp2650
g69
(g70
g71
NtRp2651
(dp2652
g74
(dp2653
g82
I3
ssg83
g2647
sg76
(lp2654
g1175
asbasbasbag69
(g85
g71
NtRp2655
(dp2656
g74
(dp2657
sg83
g2462
sg76
(lp2658
g69
(g90
g71
NtRp2659
(dp2660
g74
(dp2661
g94
g95
ssg83
g2655
sg76
(lp2662
S'QUERY_STRING'
p2663
asbag69
(g90
g71
NtRp2664
(dp2665
g74
(dp2666
g101
g102
ssg83
g2655
sg76
(lp2667
S':'
asbag69
(g90
g71
NtRp2668
(dp2669
g74
(dp2670
sg83
g2655
sg76
(lp2671
g69
(g70
g71
NtRp2672
(dp2673
g74
(dp2674
g82
I3
ssg83
g2668
sg76
(lp2675
S''
asbasbasbag69
(g85
g71
NtRp2676
(dp2677
g74
(dp2678
sg83
g2462
sg76
(lp2679
g69
(g90
g71
NtRp2680
(dp2681
g74
(dp2682
g94
g95
ssg83
g2676
sg76
(lp2683
S'REMOTE_ADDR'
p2684
asbag69
(g90
g71
NtRp2685
(dp2686
g74
(dp2687
g101
g102
ssg83
g2676
sg76
(lp2688
S':'
asbag69
(g90
g71
NtRp2689
(dp2690
g74
(dp2691
sg83
g2676
sg76
(lp2692
g69
(g70
g71
NtRp2693
(dp2694
g74
(dp2695
g82
I3
ssg83
g2689
sg76
(lp2696
g237
asbasbasbag69
(g85
g71
NtRp2697
(dp2698
g74
(dp2699
sg83
g2462
sg76
(lp2700
g69
(g90
g71
NtRp2701
(dp2702
g74
(dp2703
g94
g95
ssg83
g2697
sg76
(lp2704
S'REMOTE_PORT'
p2705
asbag69
(g90
g71
NtRp2706
(dp2707
g74
(dp2708
g101
g102
ssg83
g2697
sg76
(lp2709
S':'
asbag69
(g90
g71
NtRp2710
(dp2711
g74
(dp2712
sg83
g2697
sg76
(lp2713
g69
(g70
g71
NtRp2714
(dp2715
g74
(dp2716
g82
I3
ssg83
g2710
sg76
(lp2717
g1239
asbasbasbag69
(g85
g71
NtRp2718
(dp2719
g74
(dp2720
sg83
g2462
sg76
(lp2721
g69
(g90
g71
NtRp2722
(dp2723
g74
(dp2724
g94
g95
ssg83
g2718
sg76
(lp2725
S'REQUEST_METHOD'
p2726
asbag69
(g90
g71
NtRp2727
(dp2728
g74
(dp2729
g101
g102
ssg83
g2718
sg76
(lp2730
S':'
asbag69
(g90
g71
NtRp2731
(dp2732
g74
(dp2733
sg83
g2718
sg76
(lp2734
g69
(g70
g71
NtRp2735
(dp2736
g74
(dp2737
g82
I3
ssg83
g2731
sg76
(lp2738
g1261
asbasbasbag69
(g85
g71
NtRp2739
(dp2740
g74
(dp2741
sg83
g2462
sg76
(lp2742
g69
(g90
g71
NtRp2743
(dp2744
g74
(dp2745
g94
g95
ssg83
g2739
sg76
(lp2746
S'REQUEST_URI'
p2747
asbag69
(g90
g71
NtRp2748
(dp2749
g74
(dp2750
g101
g102
ssg83
g2739
sg76
(lp2751
S':'
asbag69
(g90
g71
NtRp2752
(dp2753
g74
(dp2754
sg83
g2739
sg76
(lp2755
g69
(g70
g71
NtRp2756
(dp2757
g74
(dp2758
g82
I3
ssg83
g2752
sg76
(lp2759
g1175
asbasbasbag69
(g85
g71
NtRp2760
(dp2761
g74
(dp2762
sg83
g2462
sg76
(lp2763
g69
(g90
g71
NtRp2764
(dp2765
g74
(dp2766
g94
g95
ssg83
g2760
sg76
(lp2767
S'SCRIPT_NAME'
p2768
asbag69
(g90
g71
NtRp2769
(dp2770
g74
(dp2771
g101
g102
ssg83
g2760
sg76
(lp2772
S':'
asbag69
(g90
g71
NtRp2773
(dp2774
g74
(dp2775
sg83
g2760
sg76
(lp2776
g69
(g70
g71
NtRp2777
(dp2778
g74
(dp2779
g82
I3
ssg83
g2773
sg76
(lp2780
S''
asbasbasbag69
(g85
g71
NtRp2781
(dp2782
g74
(dp2783
sg83
g2462
sg76
(lp2784
g69
(g90
g71
NtRp2785
(dp2786
g74
(dp2787
g94
g95
ssg83
g2781
sg76
(lp2788
S'SERVER_NAME'
p2789
asbag69
(g90
g71
NtRp2790
(dp2791
g74
(dp2792
g101
g102
ssg83
g2781
sg76
(lp2793
S':'
asbag69
(g90
g71
NtRp2794
(dp2795
g74
(dp2796
sg83
g2781
sg76
(lp2797
g69
(g70
g71
NtRp2798
(dp2799
g74
(dp2800
g82
I3
ssg83
g2794
sg76
(lp2801
g1140
asbasbasbag69
(g85
g71
NtRp2802
(dp2803
g74
(dp2804
sg83
g2462
sg76
(lp2805
g69
(g90
g71
NtRp2806
(dp2807
g74
(dp2808
g94
g95
ssg83
g2802
sg76
(lp2809
S'SERVER_PORT'
p2810
asbag69
(g90
g71
NtRp2811
(dp2812
g74
(dp2813
g101
g102
ssg83
g2802
sg76
(lp2814
S':'
asbag69
(g90
g71
NtRp2815
(dp2816
g74
(dp2817
sg83
g2802
sg76
(lp2818
g69
(g70
g71
NtRp2819
(dp2820
g74
(dp2821
g82
I3
ssg83
g2815
sg76
(lp2822
g1346
asbasbasbag69
(g85
g71
NtRp2823
(dp2824
g74
(dp2825
sg83
g2462
sg76
(lp2826
g69
(g90
g71
NtRp2827
(dp2828
g74
(dp2829
g94
g95
ssg83
g2823
sg76
(lp2830
S'SERVER_PROTOCOL'
p2831
asbag69
(g90
g71
NtRp2832
(dp2833
g74
(dp2834
g101
g102
ssg83
g2823
sg76
(lp2835
S':'
asbag69
(g90
g71
NtRp2836
(dp2837
g74
(dp2838
sg83
g2823
sg76
(lp2839
g69
(g70
g71
NtRp2840
(dp2841
g74
(dp2842
g82
I3
ssg83
g2836
sg76
(lp2843
g1368
asbasbasbag69
(g85
g71
NtRp2844
(dp2845
g74
(dp2846
sg83
g2462
sg76
(lp2847
g69
(g90
g71
NtRp2848
(dp2849
g74
(dp2850
g94
g95
ssg83
g2844
sg76
(lp2851
S'SERVER_SOFTWARE'
p2852
asbag69
(g90
g71
NtRp2853
(dp2854
g74
(dp2855
g101
g102
ssg83
g2844
sg76
(lp2856
S':'
asbag69
(g90
g71
NtRp2857
(dp2858
g74
(dp2859
sg83
g2844
sg76
(lp2860
g69
(g70
g71
NtRp2861
(dp2862
g74
(dp2863
g82
I3
ssg83
g2857
sg76
(lp2864
g1390
asbasbasbag69
(g85
g71
NtRp2865
(dp2866
g74
(dp2867
sg83
g2462
sg76
(lp2868
g69
(g90
g71
NtRp2869
(dp2870
g74
(dp2871
g94
g95
ssg83
g2865
sg76
(lp2872
S'wsgi.errors'
p2873
asbag69
(g90
g71
NtRp2874
(dp2875
g74
(dp2876
g101
g102
ssg83
g2865
sg76
(lp2877
S':'
asbag69
(g90
g71
NtRp2878
(dp2879
g74
(dp2880
sg83
g2865
sg76
(lp2881
g69
(g70
g71
NtRp2882
(dp2883
g74
(dp2884
g82
I3
ssg83
g2878
sg76
(lp2885
S"<open file '<stderr>', mode 'w' at 0x2adc7b154270>"
p2886
asbasbasbag69
(g85
g71
NtRp2887
(dp2888
g74
(dp2889
sg83
g2462
sg76
(lp2890
g69
(g90
g71
NtRp2891
(dp2892
g74
(dp2893
g94
g95
ssg83
g2887
sg76
(lp2894
S'wsgi.file_wrapper'
p2895
asbag69
(g90
g71
NtRp2896
(dp2897
g74
(dp2898
g101
g102
ssg83
g2887
sg76
(lp2899
S':'
asbag69
(g90
g71
NtRp2900
(dp2901
g74
(dp2902
sg83
g2887
sg76
(lp2903
g69
(g70
g71
NtRp2904
(dp2905
g74
(dp2906
g82
I3
ssg83
g2900
sg76
(lp2907
S'<class wsgiref.util.FileWrapper at 0x1dae4a78>'
p2908
asbasbasbag69
(g85
g71
NtRp2909
(dp2910
g74
(dp2911
sg83
g2462
sg76
(lp2912
g69
(g90
g71
NtRp2913
(dp2914
g74
(dp2915
g94
g95
ssg83
g2909
sg76
(lp2916
S'wsgi.input'
p2917
asbag69
(g90
g71
NtRp2918
(dp2919
g74
(dp2920
g101
g102
ssg83
g2909
sg76
(lp2921
S':'
asbag69
(g90
g71
NtRp2922
(dp2923
g74
(dp2924
sg83
g2909
sg76
(lp2925
g69
(g70
g71
NtRp2926
(dp2927
g74
(dp2928
g82
I3
ssg83
g2922
sg76
(lp2929
S'<cStringIO.StringO object at 0x1f033928>'
p2930
asbasbasbag69
(g85
g71
NtRp2931
(dp2932
g74
(dp2933
sg83
g2462
sg76
(lp2934
g69
(g90
g71
NtRp2935
(dp2936
g74
(dp2937
g94
g95
ssg83
g2931
sg76
(lp2938
S'wsgi.multiprocess'
p2939
asbag69
(g90
g71
NtRp2940
(dp2941
g74
(dp2942
g101
g102
ssg83
g2931
sg76
(lp2943
S':'
asbag69
(g90
g71
NtRp2944
(dp2945
g74
(dp2946
sg83
g2931
sg76
(lp2947
g69
(g70
g71
NtRp2948
(dp2949
g74
(dp2950
g82
I3
ssg83
g2944
sg76
(lp2951
g112
asbasbasbag69
(g85
g71
NtRp2952
(dp2953
g74
(dp2954
sg83
g2462
sg76
(lp2955
g69
(g90
g71
NtRp2956
(dp2957
g74
(dp2958
g94
g95
ssg83
g2952
sg76
(lp2959
S'wsgi.multithread'
p2960
asbag69
(g90
g71
NtRp2961
(dp2962
g74
(dp2963
g101
g102
ssg83
g2952
sg76
(lp2964
S':'
asbag69
(g90
g71
NtRp2965
(dp2966
g74
(dp2967
sg83
g2952
sg76
(lp2968
g69
(g70
g71
NtRp2969
(dp2970
g74
(dp2971
g82
I3
ssg83
g2965
sg76
(lp2972
g1607
asbasbasbag69
(g85
g71
NtRp2973
(dp2974
g74
(dp2975
sg83
g2462
sg76
(lp2976
g69
(g90
g71
NtRp2977
(dp2978
g74
(dp2979
g94
g95
ssg83
g2973
sg76
(lp2980
S'wsgi.run_once'
p2981
asbag69
(g90
g71
NtRp2982
(dp2983
g74
(dp2984
g101
g102
ssg83
g2973
sg76
(lp2985
S':'
asbag69
(g90
g71
NtRp2986
(dp2987
g74
(dp2988
sg83
g2973
sg76
(lp2989
g69
(g70
g71
NtRp2990
(dp2991
g74
(dp2992
g82
I3
ssg83
g2986
sg76
(lp2993
g112
asbasbasbag69
(g85
g71
NtRp2994
(dp2995
g74
(dp2996
sg83
g2462
sg76
(lp2997
g69
(g90
g71
NtRp2998
(dp2999
g74
(dp3000
g94
g95
ssg83
g2994
sg76
(lp3001
S'wsgi.url_scheme'
p3002
asbag69
(g90
g71
NtRp3003
(dp3004
g74
(dp3005
g101
g102
ssg83
g2994
sg76
(lp3006
S':'
asbag69
(g90
g71
NtRp3007
(dp3008
g74
(dp3009
sg83
g2994
sg76
(lp3010
g69
(g70
g71
NtRp3011
(dp3012
g74
(dp3013
g82
I3
ssg83
g3007
sg76
(lp3014
g1650
asbasbasbag69
(g85
g71
NtRp3015
(dp3016
g74
(dp3017
sg83
g2462
sg76
(lp3018
g69
(g90
g71
NtRp3019
(dp3020
g74
(dp3021
g94
g95
ssg83
g3015
sg76
(lp3022
S'wsgi.version'
p3023
asbag69
(g90
g71
NtRp3024
(dp3025
g74
(dp3026
g101
g102
ssg83
g3015
sg76
(lp3027
S':'
asbag69
(g90
g71
NtRp3028
(dp3029
g74
(dp3030
sg83
g3015
sg76
(lp3031
g69
(g70
g71
NtRp3032
(dp3033
g74
(dp3034
g82
I3
ssg83
g3028
sg76
(lp3035
S'1'
asbasbasbasbasbasbasbasbasbasbasbasbasbsS'frames'
p3036
(lp3037
(dp3038
S'file'
p3039
S'/home/xchen/web2py/gluon/restricted.py'
p3040
sS'dump'
p3041
(dp3042
S'code'
p3043
S'\'response.write(\\\'<!DOCTYPE html>\\\\n<!-- paulirish....(\\\'"></script>\\\\n</body>\\\\n</html>\\\\n\\\', escape=False)\''
p3044
sS'layer'
p3045
S"'/home/xchen/web2py/applications/Betsy/views/default/protocol.html'"
p3046
sS'global compile2'
p3047
S'<function compile2>'
p3048
sS'ccode'
p3049
S'undefined'
p3050
ssS'lnum'
p3051
I211
sS'lines'
p3052
(dp3053
I206
S"    environment['__name__'] = '__restricted__'"
p3054
sI207
S'    try:'
p3055
sI208
S'        if isinstance(code, types.CodeType):'
p3056
sI209
S'            ccode = code'
p3057
sI210
S'        else:'
p3058
sI211
S'            ccode = compile2(code, layer)'
p3059
sI212
S'        exec ccode in environment'
p3060
sI213
S'    except HTTP:'
p3061
sI214
S'        raise'
p3062
sI215
S'    except RestrictedError:'
p3063
ssS'call'
p3064
S'(code=\'response.write(\\\'<!DOCTYPE html>\\\\n<!-- paulirish....(\\\'"></script>\\\\n</body>\\\\n</html>\\\\n\\\', escape=False)\', environment={\'A\': <class \'gluon.html.A\'>, \'Auth\': <class \'gluon.tools.Auth\'>, \'B\': <class \'gluon.html.B\'>, \'BEAUTIFY\': <class \'gluon.html.BEAUTIFY\'>, \'BODY\': <class \'gluon.html.BODY\'>, \'BR\': <class \'gluon.html.BR\'>, \'BUTTON\': <class \'gluon.html.BUTTON\'>, \'CAT\': <class \'gluon.html.CAT\'>, \'CENTER\': <class \'gluon.html.CENTER\'>, \'CLEANUP\': <class \'gluon.validators.CLEANUP\'>, ...}, layer=\'/home/xchen/web2py/applications/Betsy/views/default/protocol.html\')'
p3065
sS'func'
p3066
S'restricted'
p3067
sa(dp3068
g3039
S'/home/xchen/web2py/gluon/restricted.py'
p3069
sg3041
(dp3070
S'builtincompile'
p3071
S'<built-in function compile>'
p3072
sS'code'
p3073
S'\'response.write(\\\'<!DOCTYPE html>\\\\n<!-- paulirish....(\\\'"></script>\\\\n</body>\\\\n</html>\\\\n\\\', escape=False)\''
p3074
sS'code.rstrip'
p3075
S'<built-in method rstrip of str object>'
p3076
sS').replace'
p3077
g3050
sS'layer'
p3078
S"'/home/xchen/web2py/applications/Betsy/views/default/protocol.html'"
p3079
ssg3051
I194
sg3052
(dp3080
I192
S"    The +'\\n' is necessary else compile fails when code ends in a comment."
p3081
sI193
S'    """'
p3082
sI194
S"    return compile(code.rstrip().replace('\\r\\n', '\\n') + '\\n', layer, 'exec')"
p3083
sI195
S''
sI196
S''
sI197
S"def restricted(code, environment=None, layer='Unknown'):"
p3084
sI198
S'    """'
p3085
sI189
S''
sI190
S'def compile2(code, layer):'
p3086
sI191
S'    """'
p3087
ssg3064
S'(code=\'response.write(\\\'<!DOCTYPE html>\\\\n<!-- paulirish....(\\\'"></script>\\\\n</body>\\\\n</html>\\\\n\\\', escape=False)\', layer=\'/home/xchen/web2py/applications/Betsy/views/default/protocol.html\')'
p3088
sg3066
S'compile2'
p3089
sasS'pyver'
p3090
S'Python 2.7.3: /usr/local/bin/python'
p3091
sS'session'
p3092
g69
(g70
g71
NtRp3093
(dp3094
g74
(dp3095
sg76
(lp3096
g69
(g78
g71
NtRp3097
(dp3098
g74
(dp3099
g82
I5
ssg83
Nsg76
(lp3100
g69
(g85
g71
NtRp3101
(dp3102
g74
(dp3103
sg83
g3097
sg76
(lp3104
g69
(g90
g71
NtRp3105
(dp3106
g74
(dp3107
g94
g95
ssg83
g3101
sg76
(lp3108
S'auth'
p3109
asbag69
(g90
g71
NtRp3110
(dp3111
g74
(dp3112
g101
g102
ssg83
g3101
sg76
(lp3113
S':'
asbag69
(g90
g71
NtRp3114
(dp3115
g74
(dp3116
sg83
g3101
sg76
(lp3117
g69
(g70
g71
NtRp3118
(dp3119
g74
(dp3120
g82
I5
ssg83
g3114
sg76
(lp3121
g69
(g78
g71
NtRp3122
(dp3123
g74
(dp3124
g82
I4
ssg83
Nsg76
(lp3125
g69
(g85
g71
NtRp3126
(dp3127
g74
(dp3128
sg83
g3122
sg76
(lp3129
g69
(g90
g71
NtRp3130
(dp3131
g74
(dp3132
g94
g95
ssg83
g3126
sg76
(lp3133
S'expiration'
p3134
asbag69
(g90
g71
NtRp3135
(dp3136
g74
(dp3137
g101
g102
ssg83
g3126
sg76
(lp3138
S':'
asbag69
(g90
g71
NtRp3139
(dp3140
g74
(dp3141
sg83
g3126
sg76
(lp3142
g69
(g70
g71
NtRp3143
(dp3144
g74
(dp3145
g82
I4
ssg83
g3139
sg76
(lp3146
S'2592000'
p3147
asbasbasbag69
(g85
g71
NtRp3148
(dp3149
g74
(dp3150
sg83
g3122
sg76
(lp3151
g69
(g90
g71
NtRp3152
(dp3153
g74
(dp3154
g94
g95
ssg83
g3148
sg76
(lp3155
S'hmac_key'
p3156
asbag69
(g90
g71
NtRp3157
(dp3158
g74
(dp3159
g101
g102
ssg83
g3148
sg76
(lp3160
S':'
asbag69
(g90
g71
NtRp3161
(dp3162
g74
(dp3163
sg83
g3148
sg76
(lp3164
g69
(g70
g71
NtRp3165
(dp3166
g74
(dp3167
g82
I4
ssg83
g3161
sg76
(lp3168
S'b3c0ac18-8863-4350-b49e-617cacc7d3c1'
p3169
asbasbasbag69
(g85
g71
NtRp3170
(dp3171
g74
(dp3172
sg83
g3122
sg76
(lp3173
g69
(g90
g71
NtRp3174
(dp3175
g74
(dp3176
g94
g95
ssg83
g3170
sg76
(lp3177
S'last_visit'
p3178
asbag69
(g90
g71
NtRp3179
(dp3180
g74
(dp3181
g101
g102
ssg83
g3170
sg76
(lp3182
S':'
asbag69
(g90
g71
NtRp3183
(dp3184
g74
(dp3185
sg83
g3170
sg76
(lp3186
g69
(g70
g71
NtRp3187
(dp3188
g74
(dp3189
g82
I4
ssg83
g3183
sg76
(lp3190
S'datetime.datetime(2013, 5, 16, 10, 16, 15, 528798)'
p3191
asbasbasbag69
(g85
g71
NtRp3192
(dp3193
g74
(dp3194
sg83
g3122
sg76
(lp3195
g69
(g90
g71
NtRp3196
(dp3197
g74
(dp3198
g94
g95
ssg83
g3192
sg76
(lp3199
S'remember'
p3200
asbag69
(g90
g71
NtRp3201
(dp3202
g74
(dp3203
g101
g102
ssg83
g3192
sg76
(lp3204
S':'
asbag69
(g90
g71
NtRp3205
(dp3206
g74
(dp3207
sg83
g3192
sg76
(lp3208
g69
(g70
g71
NtRp3209
(dp3210
g74
(dp3211
g82
I4
ssg83
g3205
sg76
(lp3212
g1607
asbasbasbag69
(g85
g71
NtRp3213
(dp3214
g74
(dp3215
sg83
g3122
sg76
(lp3216
g69
(g90
g71
NtRp3217
(dp3218
g74
(dp3219
g94
g95
ssg83
g3213
sg76
(lp3220
S'user'
p3221
asbag69
(g90
g71
NtRp3222
(dp3223
g74
(dp3224
g101
g102
ssg83
g3213
sg76
(lp3225
S':'
asbag69
(g90
g71
NtRp3226
(dp3227
g74
(dp3228
sg83
g3213
sg76
(lp3229
g69
(g70
g71
NtRp3230
(dp3231
g74
(dp3232
g82
I4
ssg83
g3226
sg76
(lp3233
g69
(g78
g71
NtRp3234
(dp3235
g74
(dp3236
g82
I3
ssg83
Nsg76
(lp3237
g69
(g85
g71
NtRp3238
(dp3239
g74
(dp3240
sg83
g3234
sg76
(lp3241
g69
(g90
g71
NtRp3242
(dp3243
g74
(dp3244
g94
g95
ssg83
g3238
sg76
(lp3245
S'email'
p3246
asbag69
(g90
g71
NtRp3247
(dp3248
g74
(dp3249
g101
g102
ssg83
g3238
sg76
(lp3250
S':'
asbag69
(g90
g71
NtRp3251
(dp3252
g74
(dp3253
sg83
g3238
sg76
(lp3254
g69
(g70
g71
NtRp3255
(dp3256
g74
(dp3257
g82
I3
ssg83
g3251
sg76
(lp3258
S'xiaoling.chen@uth.tmc.edu'
p3259
asbasbasbag69
(g85
g71
NtRp3260
(dp3261
g74
(dp3262
sg83
g3234
sg76
(lp3263
g69
(g90
g71
NtRp3264
(dp3265
g74
(dp3266
g94
g95
ssg83
g3260
sg76
(lp3267
S'first_name'
p3268
asbag69
(g90
g71
NtRp3269
(dp3270
g74
(dp3271
g101
g102
ssg83
g3260
sg76
(lp3272
S':'
asbag69
(g90
g71
NtRp3273
(dp3274
g74
(dp3275
sg83
g3260
sg76
(lp3276
g69
(g70
g71
NtRp3277
(dp3278
g74
(dp3279
g82
I3
ssg83
g3273
sg76
(lp3280
S'Xiaoling'
p3281
asbasbasbag69
(g85
g71
NtRp3282
(dp3283
g74
(dp3284
sg83
g3234
sg76
(lp3285
g69
(g90
g71
NtRp3286
(dp3287
g74
(dp3288
g94
g95
ssg83
g3282
sg76
(lp3289
S'id'
p3290
asbag69
(g90
g71
NtRp3291
(dp3292
g74
(dp3293
g101
g102
ssg83
g3282
sg76
(lp3294
S':'
asbag69
(g90
g71
NtRp3295
(dp3296
g74
(dp3297
sg83
g3282
sg76
(lp3298
g69
(g70
g71
NtRp3299
(dp3300
g74
(dp3301
g82
I3
ssg83
g3295
sg76
(lp3302
S'1'
asbasbasbag69
(g85
g71
NtRp3303
(dp3304
g74
(dp3305
sg83
g3234
sg76
(lp3306
g69
(g90
g71
NtRp3307
(dp3308
g74
(dp3309
g94
g95
ssg83
g3303
sg76
(lp3310
S'last_name'
p3311
asbag69
(g90
g71
NtRp3312
(dp3313
g74
(dp3314
g101
g102
ssg83
g3303
sg76
(lp3315
S':'
asbag69
(g90
g71
NtRp3316
(dp3317
g74
(dp3318
sg83
g3303
sg76
(lp3319
g69
(g70
g71
NtRp3320
(dp3321
g74
(dp3322
g82
I3
ssg83
g3316
sg76
(lp3323
S'Chen'
p3324
asbasbasbag69
(g85
g71
NtRp3325
(dp3326
g74
(dp3327
sg83
g3234
sg76
(lp3328
g69
(g90
g71
NtRp3329
(dp3330
g74
(dp3331
g94
g95
ssg83
g3325
sg76
(lp3332
S'registration_id'
p3333
asbag69
(g90
g71
NtRp3334
(dp3335
g74
(dp3336
g101
g102
ssg83
g3325
sg76
(lp3337
S':'
asbag69
(g90
g71
NtRp3338
(dp3339
g74
(dp3340
sg83
g3325
sg76
(lp3341
g69
(g70
g71
NtRp3342
(dp3343
g74
(dp3344
g82
I3
ssg83
g3338
sg76
(lp3345
S''
asbasbasbag69
(g85
g71
NtRp3346
(dp3347
g74
(dp3348
sg83
g3234
sg76
(lp3349
g69
(g90
g71
NtRp3350
(dp3351
g74
(dp3352
g94
g95
ssg83
g3346
sg76
(lp3353
S'registration_key'
p3354
asbag69
(g90
g71
NtRp3355
(dp3356
g74
(dp3357
g101
g102
ssg83
g3346
sg76
(lp3358
S':'
asbag69
(g90
g71
NtRp3359
(dp3360
g74
(dp3361
sg83
g3346
sg76
(lp3362
g69
(g70
g71
NtRp3363
(dp3364
g74
(dp3365
g82
I3
ssg83
g3359
sg76
(lp3366
S''
asbasbasbag69
(g85
g71
NtRp3367
(dp3368
g74
(dp3369
sg83
g3234
sg76
(lp3370
g69
(g90
g71
NtRp3371
(dp3372
g74
(dp3373
g94
g95
ssg83
g3367
sg76
(lp3374
S'reset_password_key'
p3375
asbag69
(g90
g71
NtRp3376
(dp3377
g74
(dp3378
g101
g102
ssg83
g3367
sg76
(lp3379
S':'
asbag69
(g90
g71
NtRp3380
(dp3381
g74
(dp3382
sg83
g3367
sg76
(lp3383
g69
(g70
g71
NtRp3384
(dp3385
g74
(dp3386
g82
I3
ssg83
g3380
sg76
(lp3387
S''
asbasbasbasbasbasbasbag69
(g85
g71
NtRp3388
(dp3389
g74
(dp3390
sg83
g3122
sg76
(lp3391
g69
(g90
g71
NtRp3392
(dp3393
g74
(dp3394
g94
g95
ssg83
g3388
sg76
(lp3395
S'user_groups'
p3396
asbag69
(g90
g71
NtRp3397
(dp3398
g74
(dp3399
g101
g102
ssg83
g3388
sg76
(lp3400
S':'
asbag69
(g90
g71
NtRp3401
(dp3402
g74
(dp3403
sg83
g3388
sg76
(lp3404
g69
(g70
g71
NtRp3405
(dp3406
g74
(dp3407
g82
I4
ssg83
g3401
sg76
(lp3408
g69
(g78
g71
NtRp3409
(dp3410
g74
(dp3411
g82
I3
ssg83
Nsg76
(lp3412
g69
(g85
g71
NtRp3413
(dp3414
g74
(dp3415
sg83
g3409
sg76
(lp3416
g69
(g90
g71
NtRp3417
(dp3418
g74
(dp3419
g94
g95
ssg83
g3413
sg76
(lp3420
S'1'
asbag69
(g90
g71
NtRp3421
(dp3422
g74
(dp3423
g101
g102
ssg83
g3413
sg76
(lp3424
S':'
asbag69
(g90
g71
NtRp3425
(dp3426
g74
(dp3427
sg83
g3413
sg76
(lp3428
g69
(g70
g71
NtRp3429
(dp3430
g74
(dp3431
g82
I3
ssg83
g3425
sg76
(lp3432
S'user_1'
p3433
asbasbasbasbasbasbasbasbasbasbasbag69
(g85
g71
NtRp3434
(dp3435
g74
(dp3436
sg83
g3097
sg76
(lp3437
g69
(g90
g71
NtRp3438
(dp3439
g74
(dp3440
g94
g95
ssg83
g3434
sg76
(lp3441
S'flash'
p3442
asbag69
(g90
g71
NtRp3443
(dp3444
g74
(dp3445
g101
g102
ssg83
g3434
sg76
(lp3446
S':'
asbag69
(g90
g71
NtRp3447
(dp3448
g74
(dp3449
sg83
g3434
sg76
(lp3450
g69
(g70
g71
NtRp3451
(dp3452
g74
(dp3453
g82
I5
ssg83
g3447
sg76
(lp3454
S'None'
p3455
asbasbasbag69
(g85
g71
NtRp3456
(dp3457
g74
(dp3458
sg83
g3097
sg76
(lp3459
g69
(g90
g71
NtRp3460
(dp3461
g74
(dp3462
g94
g95
ssg83
g3456
sg76
(lp3463
S'label'
p3464
asbag69
(g90
g71
NtRp3465
(dp3466
g74
(dp3467
g101
g102
ssg83
g3456
sg76
(lp3468
S':'
asbag69
(g90
g71
NtRp3469
(dp3470
g74
(dp3471
sg83
g3456
sg76
(lp3472
g69
(g70
g71
NtRp3473
(dp3474
g74
(dp3475
g82
I5
ssg83
g3469
sg76
(lp3476
S'normalize_file'
p3477
asbasbasbag69
(g85
g71
NtRp3478
(dp3479
g74
(dp3480
sg83
g3097
sg76
(lp3481
g69
(g90
g71
NtRp3482
(dp3483
g74
(dp3484
g94
g95
ssg83
g3478
sg76
(lp3485
S'output'
p3486
asbag69
(g90
g71
NtRp3487
(dp3488
g74
(dp3489
g101
g102
ssg83
g3478
sg76
(lp3490
S':'
asbag69
(g90
g71
NtRp3491
(dp3492
g74
(dp3493
sg83
g3478
sg76
(lp3494
g69
(g70
g71
NtRp3495
(dp3496
g74
(dp3497
g82
I5
ssg83
g3491
sg76
(lp3498
g69
(g78
g71
NtRp3499
(dp3500
g74
(dp3501
g82
I4
ssg83
Nsg76
(lp3502
sbasbasbasbasbasbsS'etype'
p3503
S"<type 'exceptions.SyntaxError'>"
p3504
sS'date'
p3505
S'Fri May 24 14:51:52 2013'
p3506
sS'response'
p3507
g69
(g70
g71
NtRp3508
(dp3509
g74
(dp3510
sg76
(lp3511
g69
(g78
g71
NtRp3512
(dp3513
g74
(dp3514
g82
I5
ssg83
Nsg76
(lp3515
g69
(g85
g71
NtRp3516
(dp3517
g74
(dp3518
sg83
g3512
sg76
(lp3519
g69
(g90
g71
NtRp3520
(dp3521
g74
(dp3522
g94
g95
ssg83
g3516
sg76
(lp3523
g180
asbag69
(g90
g71
NtRp3524
(dp3525
g74
(dp3526
g101
g102
ssg83
g3516
sg76
(lp3527
S':'
asbag69
(g90
g71
NtRp3528
(dp3529
g74
(dp3530
sg83
g3516
sg76
(lp3531
g69
(g70
g71
NtRp3532
(dp3533
g74
(dp3534
g82
I5
ssg83
g3528
sg76
(lp3535
S'<cStringIO.StringO object at 0x1f001458>'
p3536
asbasbasbag69
(g85
g71
NtRp3537
(dp3538
g74
(dp3539
sg83
g3512
sg76
(lp3540
g69
(g90
g71
NtRp3541
(dp3542
g74
(dp3543
g94
g95
ssg83
g3537
sg76
(lp3544
g268
asbag69
(g90
g71
NtRp3545
(dp3546
g74
(dp3547
g101
g102
ssg83
g3537
sg76
(lp3548
S':'
asbag69
(g90
g71
NtRp3549
(dp3550
g74
(dp3551
sg83
g3537
sg76
(lp3552
g69
(g70
g71
NtRp3553
(dp3554
g74
(dp3555
g82
I5
ssg83
g3549
sg76
(lp3556
g69
(g78
g71
NtRp3557
(dp3558
g74
(dp3559
g82
I4
ssg83
Nsg76
(lp3560
g69
(g85
g71
NtRp3561
(dp3562
g74
(dp3563
sg83
g3557
sg76
(lp3564
g69
(g90
g71
NtRp3565
(dp3566
g74
(dp3567
g94
g95
ssg83
g3561
sg76
(lp3568
S'session_id_betsy'
p3569
asbag69
(g90
g71
NtRp3570
(dp3571
g74
(dp3572
g101
g102
ssg83
g3561
sg76
(lp3573
S':'
asbag69
(g90
g71
NtRp3574
(dp3575
g74
(dp3576
sg83
g3561
sg76
(lp3577
g69
(g70
g71
NtRp3578
(dp3579
g74
(dp3580
g82
I4
ssg83
g3574
sg76
(lp3581
g500
ag69
(g78
g71
NtRp3582
(dp3583
g74
(dp3584
g82
I3
ssg83
Nsg76
(lp3585
g69
(g85
g71
NtRp3586
(dp3587
g74
(dp3588
sg83
g3582
sg76
(lp3589
g69
(g90
g71
NtRp3590
(dp3591
g74
(dp3592
g94
g95
ssg83
g3586
sg76
(lp3593
g319
asbag69
(g90
g71
NtRp3594
(dp3595
g74
(dp3596
g101
g102
ssg83
g3586
sg76
(lp3597
S':'
asbag69
(g90
g71
NtRp3598
(dp3599
g74
(dp3600
sg83
g3586
sg76
(lp3601
g69
(g70
g71
NtRp3602
(dp3603
g74
(dp3604
g82
I3
ssg83
g3598
sg76
(lp3605
S''
asbasbasbag69
(g85
g71
NtRp3606
(dp3607
g74
(dp3608
sg83
g3582
sg76
(lp3609
g69
(g90
g71
NtRp3610
(dp3611
g74
(dp3612
g94
g95
ssg83
g3606
sg76
(lp3613
g340
asbag69
(g90
g71
NtRp3614
(dp3615
g74
(dp3616
g101
g102
ssg83
g3606
sg76
(lp3617
S':'
asbag69
(g90
g71
NtRp3618
(dp3619
g74
(dp3620
sg83
g3606
sg76
(lp3621
g69
(g70
g71
NtRp3622
(dp3623
g74
(dp3624
g82
I3
ssg83
g3618
sg76
(lp3625
S''
asbasbasbag69
(g85
g71
NtRp3626
(dp3627
g74
(dp3628
sg83
g3582
sg76
(lp3629
g69
(g90
g71
NtRp3630
(dp3631
g74
(dp3632
g94
g95
ssg83
g3626
sg76
(lp3633
g361
asbag69
(g90
g71
NtRp3634
(dp3635
g74
(dp3636
g101
g102
ssg83
g3626
sg76
(lp3637
S':'
asbag69
(g90
g71
NtRp3638
(dp3639
g74
(dp3640
sg83
g3626
sg76
(lp3641
g69
(g70
g71
NtRp3642
(dp3643
g74
(dp3644
g82
I3
ssg83
g3638
sg76
(lp3645
S'2592000'
p3646
asbasbasbag69
(g85
g71
NtRp3647
(dp3648
g74
(dp3649
sg83
g3582
sg76
(lp3650
g69
(g90
g71
NtRp3651
(dp3652
g74
(dp3653
g94
g95
ssg83
g3647
sg76
(lp3654
g382
asbag69
(g90
g71
NtRp3655
(dp3656
g74
(dp3657
g101
g102
ssg83
g3647
sg76
(lp3658
S':'
asbag69
(g90
g71
NtRp3659
(dp3660
g74
(dp3661
sg83
g3647
sg76
(lp3662
g69
(g70
g71
NtRp3663
(dp3664
g74
(dp3665
g82
I3
ssg83
g3659
sg76
(lp3666
S''
asbasbasbag69
(g85
g71
NtRp3667
(dp3668
g74
(dp3669
sg83
g3582
sg76
(lp3670
g69
(g90
g71
NtRp3671
(dp3672
g74
(dp3673
g94
g95
ssg83
g3667
sg76
(lp3674
g403
asbag69
(g90
g71
NtRp3675
(dp3676
g74
(dp3677
g101
g102
ssg83
g3667
sg76
(lp3678
S':'
asbag69
(g90
g71
NtRp3679
(dp3680
g74
(dp3681
sg83
g3667
sg76
(lp3682
g69
(g70
g71
NtRp3683
(dp3684
g74
(dp3685
g82
I3
ssg83
g3679
sg76
(lp3686
S''
asbasbasbag69
(g85
g71
NtRp3687
(dp3688
g74
(dp3689
sg83
g3582
sg76
(lp3690
g69
(g90
g71
NtRp3691
(dp3692
g74
(dp3693
g94
g95
ssg83
g3687
sg76
(lp3694
g424
asbag69
(g90
g71
NtRp3695
(dp3696
g74
(dp3697
g101
g102
ssg83
g3687
sg76
(lp3698
S':'
asbag69
(g90
g71
NtRp3699
(dp3700
g74
(dp3701
sg83
g3687
sg76
(lp3702
g69
(g70
g71
NtRp3703
(dp3704
g74
(dp3705
g82
I3
ssg83
g3699
sg76
(lp3706
S'/'
asbasbasbag69
(g85
g71
NtRp3707
(dp3708
g74
(dp3709
sg83
g3582
sg76
(lp3710
g69
(g90
g71
NtRp3711
(dp3712
g74
(dp3713
g94
g95
ssg83
g3707
sg76
(lp3714
g445
asbag69
(g90
g71
NtRp3715
(dp3716
g74
(dp3717
g101
g102
ssg83
g3707
sg76
(lp3718
S':'
asbag69
(g90
g71
NtRp3719
(dp3720
g74
(dp3721
sg83
g3707
sg76
(lp3722
g69
(g70
g71
NtRp3723
(dp3724
g74
(dp3725
g82
I3
ssg83
g3719
sg76
(lp3726
S''
asbasbasbag69
(g85
g71
NtRp3727
(dp3728
g74
(dp3729
sg83
g3582
sg76
(lp3730
g69
(g90
g71
NtRp3731
(dp3732
g74
(dp3733
g94
g95
ssg83
g3727
sg76
(lp3734
g466
asbag69
(g90
g71
NtRp3735
(dp3736
g74
(dp3737
g101
g102
ssg83
g3727
sg76
(lp3738
S':'
asbag69
(g90
g71
NtRp3739
(dp3740
g74
(dp3741
sg83
g3727
sg76
(lp3742
g69
(g70
g71
NtRp3743
(dp3744
g74
(dp3745
g82
I3
ssg83
g3739
sg76
(lp3746
S''
asbasbasbasbasbasbasbasbasbasbasbag69
(g85
g71
NtRp3747
(dp3748
g74
(dp3749
sg83
g3512
sg76
(lp3750
g69
(g90
g71
NtRp3751
(dp3752
g74
(dp3753
g94
g95
ssg83
g3747
sg76
(lp3754
S'delimiters'
p3755
asbag69
(g90
g71
NtRp3756
(dp3757
g74
(dp3758
g101
g102
ssg83
g3747
sg76
(lp3759
S':'
asbag69
(g90
g71
NtRp3760
(dp3761
g74
(dp3762
sg83
g3747
sg76
(lp3763
g69
(g70
g71
NtRp3764
(dp3765
g74
(dp3766
g82
I5
ssg83
g3760
sg76
(lp3767
g69
(g78
g71
NtRp3768
(dp3769
g74
(dp3770
g82
I4
ssg83
Nsg76
(lp3771
g69
(g85
g71
NtRp3772
(dp3773
g74
(dp3774
sg83
g3768
sg76
(lp3775
g69
(g90
g71
NtRp3776
(dp3777
g74
(dp3778
sg83
g3772
sg76
(lp3779
g69
(g70
g71
NtRp3780
(dp3781
g74
(dp3782
g82
I4
ssg83
g3776
sg76
(lp3783
S'{{'
p3784
asbasbasbag69
(g85
g71
NtRp3785
(dp3786
g74
(dp3787
sg83
g3768
sg76
(lp3788
g69
(g90
g71
NtRp3789
(dp3790
g74
(dp3791
sg83
g3785
sg76
(lp3792
g69
(g70
g71
NtRp3793
(dp3794
g74
(dp3795
g82
I4
ssg83
g3789
sg76
(lp3796
S'}}'
p3797
asbasbasbasbasbasbasbag69
(g85
g71
NtRp3798
(dp3799
g74
(dp3800
sg83
g3512
sg76
(lp3801
g69
(g90
g71
NtRp3802
(dp3803
g74
(dp3804
g94
g95
ssg83
g3798
sg76
(lp3805
S'files'
p3806
asbag69
(g90
g71
NtRp3807
(dp3808
g74
(dp3809
g101
g102
ssg83
g3798
sg76
(lp3810
S':'
asbag69
(g90
g71
NtRp3811
(dp3812
g74
(dp3813
sg83
g3798
sg76
(lp3814
g69
(g70
g71
NtRp3815
(dp3816
g74
(dp3817
g82
I5
ssg83
g3811
sg76
(lp3818
g69
(g78
g71
NtRp3819
(dp3820
g74
(dp3821
g82
I4
ssg83
Nsg76
(lp3822
sbasbasbasbag69
(g85
g71
NtRp3823
(dp3824
g74
(dp3825
sg83
g3512
sg76
(lp3826
g69
(g90
g71
NtRp3827
(dp3828
g74
(dp3829
g94
g95
ssg83
g3823
sg76
(lp3830
S'flash'
p3831
asbag69
(g90
g71
NtRp3832
(dp3833
g74
(dp3834
g101
g102
ssg83
g3823
sg76
(lp3835
S':'
asbag69
(g90
g71
NtRp3836
(dp3837
g74
(dp3838
sg83
g3823
sg76
(lp3839
g69
(g70
g71
NtRp3840
(dp3841
g74
(dp3842
g82
I5
ssg83
g3836
sg76
(lp3843
S''
asbasbasbag69
(g85
g71
NtRp3844
(dp3845
g74
(dp3846
sg83
g3512
sg76
(lp3847
g69
(g90
g71
NtRp3848
(dp3849
g74
(dp3850
g94
g95
ssg83
g3844
sg76
(lp3851
S'generic_patterns'
p3852
asbag69
(g90
g71
NtRp3853
(dp3854
g74
(dp3855
g101
g102
ssg83
g3844
sg76
(lp3856
S':'
asbag69
(g90
g71
NtRp3857
(dp3858
g74
(dp3859
sg83
g3844
sg76
(lp3860
g69
(g70
g71
NtRp3861
(dp3862
g74
(dp3863
g82
I5
ssg83
g3857
sg76
(lp3864
g69
(g78
g71
NtRp3865
(dp3866
g74
(dp3867
g82
I4
ssg83
Nsg76
(lp3868
g69
(g85
g71
NtRp3869
(dp3870
g74
(dp3871
sg83
g3865
sg76
(lp3872
g69
(g90
g71
NtRp3873
(dp3874
g74
(dp3875
sg83
g3869
sg76
(lp3876
g69
(g70
g71
NtRp3877
(dp3878
g74
(dp3879
g82
I4
ssg83
g3873
sg76
(lp3880
S'*'
asbasbasbasbasbasbasbag69
(g85
g71
NtRp3881
(dp3882
g74
(dp3883
sg83
g3512
sg76
(lp3884
g69
(g90
g71
NtRp3885
(dp3886
g74
(dp3887
g94
g95
ssg83
g3881
sg76
(lp3888
S'google_analytics_id'
p3889
asbag69
(g90
g71
NtRp3890
(dp3891
g74
(dp3892
g101
g102
ssg83
g3881
sg76
(lp3893
S':'
asbag69
(g90
g71
NtRp3894
(dp3895
g74
(dp3896
sg83
g3881
sg76
(lp3897
g69
(g70
g71
NtRp3898
(dp3899
g74
(dp3900
g82
I5
ssg83
g3894
sg76
(lp3901
S'None'
p3902
asbasbasbag69
(g85
g71
NtRp3903
(dp3904
g74
(dp3905
sg83
g3512
sg76
(lp3906
g69
(g90
g71
NtRp3907
(dp3908
g74
(dp3909
g94
g95
ssg83
g3903
sg76
(lp3910
S'headers'
p3911
asbag69
(g90
g71
NtRp3912
(dp3913
g74
(dp3914
g101
g102
ssg83
g3903
sg76
(lp3915
S':'
asbag69
(g90
g71
NtRp3916
(dp3917
g74
(dp3918
sg83
g3903
sg76
(lp3919
g69
(g70
g71
NtRp3920
(dp3921
g74
(dp3922
g82
I5
ssg83
g3916
sg76
(lp3923
g69
(g78
g71
NtRp3924
(dp3925
g74
(dp3926
g82
I4
ssg83
Nsg76
(lp3927
g69
(g85
g71
NtRp3928
(dp3929
g74
(dp3930
sg83
g3924
sg76
(lp3931
g69
(g90
g71
NtRp3932
(dp3933
g74
(dp3934
g94
g95
ssg83
g3928
sg76
(lp3935
S'X-Powered-By'
p3936
asbag69
(g90
g71
NtRp3937
(dp3938
g74
(dp3939
g101
g102
ssg83
g3928
sg76
(lp3940
S':'
asbag69
(g90
g71
NtRp3941
(dp3942
g74
(dp3943
sg83
g3928
sg76
(lp3944
g69
(g70
g71
NtRp3945
(dp3946
g74
(dp3947
g82
I4
ssg83
g3941
sg76
(lp3948
S'web2py'
p3949
asbasbasbasbasbasbasbag69
(g85
g71
NtRp3950
(dp3951
g74
(dp3952
sg83
g3512
sg76
(lp3953
g69
(g90
g71
NtRp3954
(dp3955
g74
(dp3956
g94
g95
ssg83
g3950
sg76
(lp3957
S'menu'
p3958
asbag69
(g90
g71
NtRp3959
(dp3960
g74
(dp3961
g101
g102
ssg83
g3950
sg76
(lp3962
S':'
asbag69
(g90
g71
NtRp3963
(dp3964
g74
(dp3965
sg83
g3950
sg76
(lp3966
g69
(g70
g71
NtRp3967
(dp3968
g74
(dp3969
g82
I5
ssg83
g3963
sg76
(lp3970
g69
(g78
g71
NtRp3971
(dp3972
g74
(dp3973
g82
I4
ssg83
Nsg76
(lp3974
g69
(g85
g71
NtRp3975
(dp3976
g74
(dp3977
sg83
g3971
sg76
(lp3978
g69
(g90
g71
NtRp3979
(dp3980
g74
(dp3981
sg83
g3975
sg76
(lp3982
g69
(g70
g71
NtRp3983
(dp3984
g74
(dp3985
g82
I4
ssg83
g3979
sg76
(lp3986
g69
(g78
g71
NtRp3987
(dp3988
g74
(dp3989
g82
I3
ssg83
Nsg76
(lp3990
g69
(g85
g71
NtRp3991
(dp3992
g74
(dp3993
sg83
g3987
sg76
(lp3994
g69
(g90
g71
NtRp3995
(dp3996
g74
(dp3997
sg83
g3991
sg76
(lp3998
g69
(g70
g71
NtRp3999
(dp4000
g74
(dp4001
g82
I3
ssg83
g3995
sg76
(lp4002
cgluon.languages
lazyT_unpickle
p4003
(S's\x04\x00\x00\x00Home'
tRp4004
asbasbasbag69
(g85
g71
NtRp4005
(dp4006
g74
(dp4007
sg83
g3987
sg76
(lp4008
g69
(g90
g71
NtRp4009
(dp4010
g74
(dp4011
sg83
g4005
sg76
(lp4012
g69
(g70
g71
NtRp4013
(dp4014
g74
(dp4015
g82
I3
ssg83
g4009
sg76
(lp4016
g112
asbasbasbag69
(g85
g71
NtRp4017
(dp4018
g74
(dp4019
sg83
g3987
sg76
(lp4020
g69
(g90
g71
NtRp4021
(dp4022
g74
(dp4023
sg83
g4017
sg76
(lp4024
g69
(g70
g71
NtRp4025
(dp4026
g74
(dp4027
g82
I3
ssg83
g4021
sg76
(lp4028
S'/Betsy/default/index'
p4029
asbasbasbag69
(g85
g71
NtRp4030
(dp4031
g74
(dp4032
sg83
g3987
sg76
(lp4033
g69
(g90
g71
NtRp4034
(dp4035
g74
(dp4036
sg83
g4030
sg76
(lp4037
g69
(g70
g71
NtRp4038
(dp4039
g74
(dp4040
g82
I3
ssg83
g4034
sg76
(lp4041
g69
(g78
g71
NtRp4042
(dp4043
g74
(dp4044
g82
I2
ssg83
Nsg76
(lp4045
sbasbasbasbasbasbasbasbag69
(g85
g71
NtRp4046
(dp4047
g74
(dp4048
sg83
g3971
sg76
(lp4049
g69
(g90
g71
NtRp4050
(dp4051
g74
(dp4052
sg83
g4046
sg76
(lp4053
g69
(g70
g71
NtRp4054
(dp4055
g74
(dp4056
g82
I4
ssg83
g4050
sg76
(lp4057
g69
(g78
g71
NtRp4058
(dp4059
g74
(dp4060
g82
I3
ssg83
Nsg76
(lp4061
g69
(g85
g71
NtRp4062
(dp4063
g74
(dp4064
sg83
g4058
sg76
(lp4065
g69
(g90
g71
NtRp4066
(dp4067
g74
(dp4068
sg83
g4062
sg76
(lp4069
g69
(g70
g71
NtRp4070
(dp4071
g74
(dp4072
g82
I3
ssg83
g4066
sg76
(lp4073
g69
(cgluon.html
SPAN
p4074
g71
NtRp4075
(dp4076
g74
(dp4077
S'_class'
p4078
S'highlighted'
p4079
ssg83
Nsg76
(lp4080
g3949
asbasbasbasbag69
(g85
g71
NtRp4081
(dp4082
g74
(dp4083
sg83
g4058
sg76
(lp4084
g69
(g90
g71
NtRp4085
(dp4086
g74
(dp4087
sg83
g4081
sg76
(lp4088
g69
(g70
g71
NtRp4089
(dp4090
g74
(dp4091
g82
I3
ssg83
g4085
sg76
(lp4092
g112
asbasbasbag69
(g85
g71
NtRp4093
(dp4094
g74
(dp4095
sg83
g4058
sg76
(lp4096
g69
(g90
g71
NtRp4097
(dp4098
g74
(dp4099
sg83
g4093
sg76
(lp4100
g69
(g70
g71
NtRp4101
(dp4102
g74
(dp4103
g82
I3
ssg83
g4097
sg76
(lp4104
S'http://web2py.com'
p4105
asbasbasbag69
(g85
g71
NtRp4106
(dp4107
g74
(dp4108
sg83
g4058
sg76
(lp4109
g69
(g90
g71
NtRp4110
(dp4111
g74
(dp4112
sg83
g4106
sg76
(lp4113
g69
(g70
g71
NtRp4114
(dp4115
g74
(dp4116
g82
I3
ssg83
g4110
sg76
(lp4117
g69
(g78
g71
NtRp4118
(dp4119
g74
(dp4120
g82
I2
ssg83
Nsg76
(lp4121
g69
(g85
g71
NtRp4122
(dp4123
g74
(dp4124
sg83
g4118
sg76
(lp4125
g69
(g90
g71
NtRp4126
(dp4127
g74
(dp4128
sg83
g4122
sg76
(lp4129
g69
(g70
g71
NtRp4130
(dp4131
g74
(dp4132
g82
I2
ssg83
g4126
sg76
(lp4133
g69
(g78
g71
NtRp4134
(dp4135
g74
(dp4136
g82
I1
ssg83
Nsg76
(lp4137
g69
(g85
g71
NtRp4138
(dp4139
g74
(dp4140
sg83
g4134
sg76
(lp4141
g69
(g90
g71
NtRp4142
(dp4143
g74
(dp4144
sg83
g4138
sg76
(lp4145
g69
(g70
g71
NtRp4146
(dp4147
g74
(dp4148
g82
I1
ssg83
g4142
sg76
(lp4149
g4003
(S's\x08\x00\x00\x00My Sites'
tRp4150
asbasbasbag69
(g85
g71
NtRp4151
(dp4152
g74
(dp4153
sg83
g4134
sg76
(lp4154
g69
(g90
g71
NtRp4155
(dp4156
g74
(dp4157
sg83
g4151
sg76
(lp4158
g69
(g70
g71
NtRp4159
(dp4160
g74
(dp4161
g82
I1
ssg83
g4155
sg76
(lp4162
I00
asbasbasbag69
(g85
g71
NtRp4163
(dp4164
g74
(dp4165
sg83
g4134
sg76
(lp4166
g69
(g90
g71
NtRp4167
(dp4168
g74
(dp4169
sg83
g4163
sg76
(lp4170
g69
(g70
g71
NtRp4171
(dp4172
g74
(dp4173
g82
I1
ssg83
g4167
sg76
(lp4174
S'/admin/default/site'
p4175
asbasbasbasbasbasbasbag69
(g85
g71
NtRp4176
(dp4177
g74
(dp4178
sg83
g4118
sg76
(lp4179
g69
(g90
g71
NtRp4180
(dp4181
g74
(dp4182
sg83
g4176
sg76
(lp4183
g69
(g70
g71
NtRp4184
(dp4185
g74
(dp4186
g82
I2
ssg83
g4180
sg76
(lp4187
g69
(g78
g71
NtRp4188
(dp4189
g74
(dp4190
g82
I1
ssg83
Nsg76
(lp4191
g69
(g85
g71
NtRp4192
(dp4193
g74
(dp4194
sg83
g4188
sg76
(lp4195
g69
(g90
g71
NtRp4196
(dp4197
g74
(dp4198
sg83
g4192
sg76
(lp4199
g69
(g70
g71
NtRp4200
(dp4201
g74
(dp4202
g82
I1
ssg83
g4196
sg76
(lp4203
g4003
(S's\x08\x00\x00\x00This App'
tRp4204
asbasbasbag69
(g85
g71
NtRp4205
(dp4206
g74
(dp4207
sg83
g4188
sg76
(lp4208
g69
(g90
g71
NtRp4209
(dp4210
g74
(dp4211
sg83
g4205
sg76
(lp4212
g69
(g70
g71
NtRp4213
(dp4214
g74
(dp4215
g82
I1
ssg83
g4209
sg76
(lp4216
I00
asbasbasbag69
(g85
g71
NtRp4217
(dp4218
g74
(dp4219
sg83
g4188
sg76
(lp4220
g69
(g90
g71
NtRp4221
(dp4222
g74
(dp4223
sg83
g4217
sg76
(lp4224
g69
(g70
g71
NtRp4225
(dp4226
g74
(dp4227
g82
I1
ssg83
g4221
sg76
(lp4228
S'/admin/default/design/Betsy'
p4229
asbasbasbag69
(g85
g71
NtRp4230
(dp4231
g74
(dp4232
sg83
g4188
sg76
(lp4233
g69
(g90
g71
NtRp4234
(dp4235
g74
(dp4236
sg83
g4230
sg76
(lp4237
g69
(g70
g71
NtRp4238
(dp4239
g74
(dp4240
g82
I1
ssg83
g4234
sg76
(lp4241
(lp4242
(g4003
(S's\n\x00\x00\x00Controller'
tRp4243
I00
S'/admin/default/edit/Betsy/controllers/default.py'
tp4244
a(g4003
(S's\x04\x00\x00\x00View'
tRp4245
I00
S'/admin/default/edit/Betsy/views/default/protocol.html'
tp4246
a(g4003
(S's\x06\x00\x00\x00Layout'
tRp4247
I00
S'/admin/default/edit/Betsy/views/layout.html'
tp4248
a(g4003
(S's\n\x00\x00\x00Stylesheet'
tRp4249
I00
S'/admin/default/edit/Betsy/static/css/web2py.css'
tp4250
a(g4003
(S's\x08\x00\x00\x00DB Model'
tRp4251
I00
S'/admin/default/edit/Betsy/models/db.py'
tp4252
a(g4003
(S's\n\x00\x00\x00Menu Model'
tRp4253
I00
S'/admin/default/edit/Betsy/models/menu.py'
tp4254
a(g4003
(S's\x08\x00\x00\x00Database'
tRp4255
I00
S'/Betsy/appadmin/index'
tp4256
a(g4003
(S's\x06\x00\x00\x00Errors'
tRp4257
I00
S'/admin/default/errors/Betsy'
tp4258
a(g4003
(S's\x05\x00\x00\x00About'
tRp4259
I00
S'/admin/default/about/Betsy'
tp4260
aasbasbasbasbasbasbasbag69
(g85
g71
NtRp4261
(dp4262
g74
(dp4263
sg83
g4118
sg76
(lp4264
g69
(g90
g71
NtRp4265
(dp4266
g74
(dp4267
sg83
g4261
sg76
(lp4268
g69
(g70
g71
NtRp4269
(dp4270
g74
(dp4271
g82
I2
ssg83
g4265
sg76
(lp4272
g69
(g78
g71
NtRp4273
(dp4274
g74
(dp4275
g82
I1
ssg83
Nsg76
(lp4276
g69
(g85
g71
NtRp4277
(dp4278
g74
(dp4279
sg83
g4273
sg76
(lp4280
g69
(g90
g71
NtRp4281
(dp4282
g74
(dp4283
sg83
g4277
sg76
(lp4284
g69
(g70
g71
NtRp4285
(dp4286
g74
(dp4287
g82
I1
ssg83
g4281
sg76
(lp4288
S'web2py.com'
p4289
asbasbasbag69
(g85
g71
NtRp4290
(dp4291
g74
(dp4292
sg83
g4273
sg76
(lp4293
g69
(g90
g71
NtRp4294
(dp4295
g74
(dp4296
sg83
g4290
sg76
(lp4297
g69
(g70
g71
NtRp4298
(dp4299
g74
(dp4300
g82
I1
ssg83
g4294
sg76
(lp4301
I00
asbasbasbag69
(g85
g71
NtRp4302
(dp4303
g74
(dp4304
sg83
g4273
sg76
(lp4305
g69
(g90
g71
NtRp4306
(dp4307
g74
(dp4308
sg83
g4302
sg76
(lp4309
g69
(g70
g71
NtRp4310
(dp4311
g74
(dp4312
g82
I1
ssg83
g4306
sg76
(lp4313
S'http://www.web2py.com'
p4314
asbasbasbag69
(g85
g71
NtRp4315
(dp4316
g74
(dp4317
sg83
g4273
sg76
(lp4318
g69
(g90
g71
NtRp4319
(dp4320
g74
(dp4321
sg83
g4315
sg76
(lp4322
g69
(g70
g71
NtRp4323
(dp4324
g74
(dp4325
g82
I1
ssg83
g4319
sg76
(lp4326
(lp4327
(g4003
(S's\x08\x00\x00\x00Download'
tRp4328
I00
S'http://www.web2py.com/examples/default/download'
p4329
tp4330
a(g4003
(S's\x07\x00\x00\x00Support'
tRp4331
I00
S'http://www.web2py.com/examples/default/support'
p4332
tp4333
a(g4003
(S's\x04\x00\x00\x00Demo'
tRp4334
I00
S'http://web2py.com/demo_admin'
p4335
tp4336
a(g4003
(S's\x0e\x00\x00\x00Quick Examples'
tRp4337
I00
S'http://web2py.com/examples/default/examples'
p4338
tp4339
a(g4003
(S's\x03\x00\x00\x00FAQ'
tRp4340
I00
S'http://web2py.com/AlterEgo'
p4341
tp4342
a(g4003
(S's\x06\x00\x00\x00Videos'
tRp4343
I00
S'http://www.web2py.com/examples/default/videos/'
p4344
tp4345
a(g4003
(S's\x11\x00\x00\x00Free Applications'
tRp4346
I00
S'http://web2py.com/appliances'
p4347
tp4348
a(g4003
(S's\x07\x00\x00\x00Plugins'
tRp4349
I00
S'http://web2py.com/plugins'
p4350
tp4351
a(g4003
(S's\x07\x00\x00\x00Layouts'
tRp4352
I00
S'http://web2py.com/layouts'
p4353
tp4354
a(g4003
(S's\x07\x00\x00\x00Recipes'
tRp4355
I00
S'http://web2pyslices.com/'
p4356
tp4357
a(g4003
(S's\x08\x00\x00\x00Semantic'
tRp4358
I00
S'http://web2py.com/semantic'
p4359
tp4360
aasbasbasbasbasbasbasbag69
(g85
g71
NtRp4361
(dp4362
g74
(dp4363
sg83
g4118
sg76
(lp4364
g69
(g90
g71
NtRp4365
(dp4366
g74
(dp4367
sg83
g4361
sg76
(lp4368
g69
(g70
g71
NtRp4369
(dp4370
g74
(dp4371
g82
I2
ssg83
g4365
sg76
(lp4372
g69
(g78
g71
NtRp4373
(dp4374
g74
(dp4375
g82
I1
ssg83
Nsg76
(lp4376
g69
(g85
g71
NtRp4377
(dp4378
g74
(dp4379
sg83
g4373
sg76
(lp4380
g69
(g90
g71
NtRp4381
(dp4382
g74
(dp4383
sg83
g4377
sg76
(lp4384
g69
(g70
g71
NtRp4385
(dp4386
g74
(dp4387
g82
I1
ssg83
g4381
sg76
(lp4388
g4003
(S's\r\x00\x00\x00Documentation'
tRp4389
asbasbasbag69
(g85
g71
NtRp4390
(dp4391
g74
(dp4392
sg83
g4373
sg76
(lp4393
g69
(g90
g71
NtRp4394
(dp4395
g74
(dp4396
sg83
g4390
sg76
(lp4397
g69
(g70
g71
NtRp4398
(dp4399
g74
(dp4400
g82
I1
ssg83
g4394
sg76
(lp4401
I00
asbasbasbag69
(g85
g71
NtRp4402
(dp4403
g74
(dp4404
sg83
g4373
sg76
(lp4405
g69
(g90
g71
NtRp4406
(dp4407
g74
(dp4408
sg83
g4402
sg76
(lp4409
g69
(g70
g71
NtRp4410
(dp4411
g74
(dp4412
g82
I1
ssg83
g4406
sg76
(lp4413
S'http://www.web2py.com/book'
p4414
asbasbasbag69
(g85
g71
NtRp4415
(dp4416
g74
(dp4417
sg83
g4373
sg76
(lp4418
g69
(g90
g71
NtRp4419
(dp4420
g74
(dp4421
sg83
g4415
sg76
(lp4422
g69
(g70
g71
NtRp4423
(dp4424
g74
(dp4425
g82
I1
ssg83
g4419
sg76
(lp4426
(lp4427
(g4003
(S's\x07\x00\x00\x00Preface'
tRp4428
I00
S'http://www.web2py.com/book/default/chapter/00'
p4429
tp4430
a(g4003
(S's\x0c\x00\x00\x00Introduction'
tRp4431
I00
S'http://www.web2py.com/book/default/chapter/01'
p4432
tp4433
a(g4003
(S's\x06\x00\x00\x00Python'
tRp4434
I00
S'http://www.web2py.com/book/default/chapter/02'
p4435
tp4436
a(g4003
(S's\x08\x00\x00\x00Overview'
tRp4437
I00
S'http://www.web2py.com/book/default/chapter/03'
p4438
tp4439
a(g4003
(S's\x08\x00\x00\x00The Core'
tRp4440
I00
S'http://www.web2py.com/book/default/chapter/04'
p4441
tp4442
a(g4003
(S's\t\x00\x00\x00The Views'
tRp4443
I00
S'http://www.web2py.com/book/default/chapter/05'
p4444
tp4445
a(g4003
(S's\x08\x00\x00\x00Database'
tRp4446
I00
S'http://www.web2py.com/book/default/chapter/06'
p4447
tp4448
a(g4003
(S's\x14\x00\x00\x00Forms and Validators'
tRp4449
I00
S'http://www.web2py.com/book/default/chapter/07'
p4450
tp4451
a(g4003
(S's\r\x00\x00\x00Email and SMS'
tRp4452
I00
S'http://www.web2py.com/book/default/chapter/08'
p4453
tp4454
a(g4003
(S's\x0e\x00\x00\x00Access Control'
tRp4455
I00
S'http://www.web2py.com/book/default/chapter/09'
p4456
tp4457
a(g4003
(S's\x08\x00\x00\x00Services'
tRp4458
I00
S'http://www.web2py.com/book/default/chapter/10'
p4459
tp4460
a(g4003
(S's\x0c\x00\x00\x00Ajax Recipes'
tRp4461
I00
S'http://www.web2py.com/book/default/chapter/11'
p4462
tp4463
a(g4003
(S's\x16\x00\x00\x00Components and Plugins'
tRp4464
I00
S'http://www.web2py.com/book/default/chapter/12'
p4465
tp4466
a(g4003
(S's\x12\x00\x00\x00Deployment Recipes'
tRp4467
I00
S'http://www.web2py.com/book/default/chapter/13'
p4468
tp4469
a(g4003
(S's\r\x00\x00\x00Other Recipes'
tRp4470
I00
S'http://www.web2py.com/book/default/chapter/14'
p4471
tp4472
a(g4003
(S's\r\x00\x00\x00Buy this book'
tRp4473
I00
S'http://stores.lulu.com/web2py'
p4474
tp4475
aasbasbasbasbasbasbasbag69
(g85
g71
NtRp4476
(dp4477
g74
(dp4478
sg83
g4118
sg76
(lp4479
g69
(g90
g71
NtRp4480
(dp4481
g74
(dp4482
sg83
g4476
sg76
(lp4483
g69
(g70
g71
NtRp4484
(dp4485
g74
(dp4486
g82
I2
ssg83
g4480
sg76
(lp4487
g69
(g78
g71
NtRp4488
(dp4489
g74
(dp4490
g82
I1
ssg83
Nsg76
(lp4491
g69
(g85
g71
NtRp4492
(dp4493
g74
(dp4494
sg83
g4488
sg76
(lp4495
g69
(g90
g71
NtRp4496
(dp4497
g74
(dp4498
sg83
g4492
sg76
(lp4499
g69
(g70
g71
NtRp4500
(dp4501
g74
(dp4502
g82
I1
ssg83
g4496
sg76
(lp4503
g4003
(S's\t\x00\x00\x00Community'
tRp4504
asbasbasbag69
(g85
g71
NtRp4505
(dp4506
g74
(dp4507
sg83
g4488
sg76
(lp4508
g69
(g90
g71
NtRp4509
(dp4510
g74
(dp4511
sg83
g4505
sg76
(lp4512
g69
(g70
g71
NtRp4513
(dp4514
g74
(dp4515
g82
I1
ssg83
g4509
sg76
(lp4516
I00
asbasbasbag69
(g85
g71
NtRp4517
(dp4518
g74
(dp4519
sg83
g4488
sg76
(lp4520
g69
(g90
g71
NtRp4521
(dp4522
g74
(dp4523
sg83
g4517
sg76
(lp4524
g69
(g70
g71
NtRp4525
(dp4526
g74
(dp4527
g82
I1
ssg83
g4521
sg76
(lp4528
Nasbasbasbag69
(g85
g71
NtRp4529
(dp4530
g74
(dp4531
sg83
g4488
sg76
(lp4532
g69
(g90
g71
NtRp4533
(dp4534
g74
(dp4535
sg83
g4529
sg76
(lp4536
g69
(g70
g71
NtRp4537
(dp4538
g74
(dp4539
g82
I1
ssg83
g4533
sg76
(lp4540
(lp4541
(g4003
(S's\x06\x00\x00\x00Groups'
tRp4542
I00
S'http://www.web2py.com/examples/default/usergroups'
p4543
tp4544
a(g4003
(S's\x07\x00\x00\x00Twitter'
tRp4545
I00
S'http://twitter.com/web2py'
p4546
tp4547
a(g4003
(S's\t\x00\x00\x00Live Chat'
tRp4548
I00
S'http://webchat.freenode.net/?channels=web2py'
p4549
tp4550
aasbasbasbasbasbasbasbag69
(g85
g71
NtRp4551
(dp4552
g74
(dp4553
sg83
g4118
sg76
(lp4554
g69
(g90
g71
NtRp4555
(dp4556
g74
(dp4557
sg83
g4551
sg76
(lp4558
g69
(g70
g71
NtRp4559
(dp4560
g74
(dp4561
g82
I2
ssg83
g4555
sg76
(lp4562
g69
(g78
g71
NtRp4563
(dp4564
g74
(dp4565
g82
I1
ssg83
Nsg76
(lp4566
g69
(g85
g71
NtRp4567
(dp4568
g74
(dp4569
sg83
g4563
sg76
(lp4570
g69
(g90
g71
NtRp4571
(dp4572
g74
(dp4573
sg83
g4567
sg76
(lp4574
g69
(g70
g71
NtRp4575
(dp4576
g74
(dp4577
g82
I1
ssg83
g4571
sg76
(lp4578
g4003
(S's\x07\x00\x00\x00Plugins'
tRp4579
asbasbasbag69
(g85
g71
NtRp4580
(dp4581
g74
(dp4582
sg83
g4563
sg76
(lp4583
g69
(g90
g71
NtRp4584
(dp4585
g74
(dp4586
sg83
g4580
sg76
(lp4587
g69
(g70
g71
NtRp4588
(dp4589
g74
(dp4590
g82
I1
ssg83
g4584
sg76
(lp4591
I00
asbasbasbag69
(g85
g71
NtRp4592
(dp4593
g74
(dp4594
sg83
g4563
sg76
(lp4595
g69
(g90
g71
NtRp4596
(dp4597
g74
(dp4598
sg83
g4592
sg76
(lp4599
g69
(g70
g71
NtRp4600
(dp4601
g74
(dp4602
g82
I1
ssg83
g4596
sg76
(lp4603
Nasbasbasbag69
(g85
g71
NtRp4604
(dp4605
g74
(dp4606
sg83
g4563
sg76
(lp4607
g69
(g90
g71
NtRp4608
(dp4609
g74
(dp4610
sg83
g4604
sg76
(lp4611
g69
(g70
g71
NtRp4612
(dp4613
g74
(dp4614
g82
I1
ssg83
g4608
sg76
(lp4615
(lp4616
(S'plugin_wiki'
p4617
I00
S'http://web2py.com/examples/default/download'
p4618
tp4619
a(g4003
(S's\r\x00\x00\x00Other Plugins'
tRp4620
I00
g4350
tp4621
a(g4003
(S's\x0e\x00\x00\x00Layout Plugins'
tRp4622
I00
g4353
tp4623
aasbasbasbasbasbasbasbasbasbasbasbasbasbasbasbasbasbasbasbag69
(g85
g71
NtRp4624
(dp4625
g74
(dp4626
sg83
g3512
sg76
(lp4627
g69
(g90
g71
NtRp4628
(dp4629
g74
(dp4630
g94
g95
ssg83
g4624
sg76
(lp4631
S'meta'
p4632
asbag69
(g90
g71
NtRp4633
(dp4634
g74
(dp4635
g101
g102
ssg83
g4624
sg76
(lp4636
S':'
asbag69
(g90
g71
NtRp4637
(dp4638
g74
(dp4639
sg83
g4624
sg76
(lp4640
g69
(g70
g71
NtRp4641
(dp4642
g74
(dp4643
g82
I5
ssg83
g4637
sg76
(lp4644
g69
(g78
g71
NtRp4645
(dp4646
g74
(dp4647
g82
I4
ssg83
Nsg76
(lp4648
g69
(g85
g71
NtRp4649
(dp4650
g74
(dp4651
sg83
g4645
sg76
(lp4652
g69
(g90
g71
NtRp4653
(dp4654
g74
(dp4655
g94
g95
ssg83
g4649
sg76
(lp4656
S'author'
p4657
asbag69
(g90
g71
NtRp4658
(dp4659
g74
(dp4660
g101
g102
ssg83
g4649
sg76
(lp4661
S':'
asbag69
(g90
g71
NtRp4662
(dp4663
g74
(dp4664
sg83
g4649
sg76
(lp4665
g69
(g70
g71
NtRp4666
(dp4667
g74
(dp4668
g82
I4
ssg83
g4662
sg76
(lp4669
S'Your Name <you@example.com>'
p4670
asbasbasbag69
(g85
g71
NtRp4671
(dp4672
g74
(dp4673
sg83
g4645
sg76
(lp4674
g69
(g90
g71
NtRp4675
(dp4676
g74
(dp4677
g94
g95
ssg83
g4671
sg76
(lp4678
S'description'
p4679
asbag69
(g90
g71
NtRp4680
(dp4681
g74
(dp4682
g101
g102
ssg83
g4671
sg76
(lp4683
S':'
asbag69
(g90
g71
NtRp4684
(dp4685
g74
(dp4686
sg83
g4671
sg76
(lp4687
g69
(g70
g71
NtRp4688
(dp4689
g74
(dp4690
g82
I4
ssg83
g4684
sg76
(lp4691
S'a cool new app'
p4692
asbasbasbag69
(g85
g71
NtRp4693
(dp4694
g74
(dp4695
sg83
g4645
sg76
(lp4696
g69
(g90
g71
NtRp4697
(dp4698
g74
(dp4699
g94
g95
ssg83
g4693
sg76
(lp4700
S'generator'
p4701
asbag69
(g90
g71
NtRp4702
(dp4703
g74
(dp4704
g101
g102
ssg83
g4693
sg76
(lp4705
S':'
asbag69
(g90
g71
NtRp4706
(dp4707
g74
(dp4708
sg83
g4693
sg76
(lp4709
g69
(g70
g71
NtRp4710
(dp4711
g74
(dp4712
g82
I4
ssg83
g4706
sg76
(lp4713
S'Web2py Web Framework'
p4714
asbasbasbag69
(g85
g71
NtRp4715
(dp4716
g74
(dp4717
sg83
g4645
sg76
(lp4718
g69
(g90
g71
NtRp4719
(dp4720
g74
(dp4721
g94
g95
ssg83
g4715
sg76
(lp4722
S'keywords'
p4723
asbag69
(g90
g71
NtRp4724
(dp4725
g74
(dp4726
g101
g102
ssg83
g4715
sg76
(lp4727
S':'
asbag69
(g90
g71
NtRp4728
(dp4729
g74
(dp4730
sg83
g4715
sg76
(lp4731
g69
(g70
g71
NtRp4732
(dp4733
g74
(dp4734
g82
I4
ssg83
g4728
sg76
(lp4735
S'web2py, python, framework'
p4736
asbasbasbasbasbasbasbag69
(g85
g71
NtRp4737
(dp4738
g74
(dp4739
sg83
g3512
sg76
(lp4740
g69
(g90
g71
NtRp4741
(dp4742
g74
(dp4743
g94
g95
ssg83
g4737
sg76
(lp4744
S'models_to_run'
p4745
asbag69
(g90
g71
NtRp4746
(dp4747
g74
(dp4748
g101
g102
ssg83
g4737
sg76
(lp4749
S':'
asbag69
(g90
g71
NtRp4750
(dp4751
g74
(dp4752
sg83
g4737
sg76
(lp4753
g69
(g70
g71
NtRp4754
(dp4755
g74
(dp4756
g82
I5
ssg83
g4750
sg76
(lp4757
g69
(g78
g71
NtRp4758
(dp4759
g74
(dp4760
g82
I4
ssg83
Nsg76
(lp4761
g69
(g85
g71
NtRp4762
(dp4763
g74
(dp4764
sg83
g4758
sg76
(lp4765
g69
(g90
g71
NtRp4766
(dp4767
g74
(dp4768
sg83
g4762
sg76
(lp4769
g69
(g70
g71
NtRp4770
(dp4771
g74
(dp4772
g82
I4
ssg83
g4766
sg76
(lp4773
S'^\\w+\\.py$'
p4774
asbasbasbag69
(g85
g71
NtRp4775
(dp4776
g74
(dp4777
sg83
g4758
sg76
(lp4778
g69
(g90
g71
NtRp4779
(dp4780
g74
(dp4781
sg83
g4775
sg76
(lp4782
g69
(g70
g71
NtRp4783
(dp4784
g74
(dp4785
g82
I4
ssg83
g4779
sg76
(lp4786
S'^default/\\w+\\.py$'
p4787
asbasbasbag69
(g85
g71
NtRp4788
(dp4789
g74
(dp4790
sg83
g4758
sg76
(lp4791
g69
(g90
g71
NtRp4792
(dp4793
g74
(dp4794
sg83
g4788
sg76
(lp4795
g69
(g70
g71
NtRp4796
(dp4797
g74
(dp4798
g82
I4
ssg83
g4792
sg76
(lp4799
S'^default/protocol/\\w+\\.py$'
p4800
asbasbasbasbasbasbasbag69
(g85
g71
NtRp4801
(dp4802
g74
(dp4803
sg83
g3512
sg76
(lp4804
g69
(g90
g71
NtRp4805
(dp4806
g74
(dp4807
g94
g95
ssg83
g4801
sg76
(lp4808
S'postprocessing'
p4809
asbag69
(g90
g71
NtRp4810
(dp4811
g74
(dp4812
g101
g102
ssg83
g4801
sg76
(lp4813
S':'
asbag69
(g90
g71
NtRp4814
(dp4815
g74
(dp4816
sg83
g4801
sg76
(lp4817
g69
(g70
g71
NtRp4818
(dp4819
g74
(dp4820
g82
I5
ssg83
g4814
sg76
(lp4821
g69
(g78
g71
NtRp4822
(dp4823
g74
(dp4824
g82
I4
ssg83
Nsg76
(lp4825
sbasbasbasbag69
(g85
g71
NtRp4826
(dp4827
g74
(dp4828
sg83
g3512
sg76
(lp4829
g69
(g90
g71
NtRp4830
(dp4831
g74
(dp4832
g94
g95
ssg83
g4826
sg76
(lp4833
S'session_cookie_expires'
p4834
asbag69
(g90
g71
NtRp4835
(dp4836
g74
(dp4837
g101
g102
ssg83
g4826
sg76
(lp4838
S':'
asbag69
(g90
g71
NtRp4839
(dp4840
g74
(dp4841
sg83
g4826
sg76
(lp4842
g69
(g70
g71
NtRp4843
(dp4844
g74
(dp4845
g82
I5
ssg83
g4839
sg76
(lp4846
S'None'
p4847
asbasbasbag69
(g85
g71
NtRp4848
(dp4849
g74
(dp4850
sg83
g3512
sg76
(lp4851
g69
(g90
g71
NtRp4852
(dp4853
g74
(dp4854
g94
g95
ssg83
g4848
sg76
(lp4855
S'session_data_name'
p4856
asbag69
(g90
g71
NtRp4857
(dp4858
g74
(dp4859
g101
g102
ssg83
g4848
sg76
(lp4860
S':'
asbag69
(g90
g71
NtRp4861
(dp4862
g74
(dp4863
sg83
g4848
sg76
(lp4864
g69
(g70
g71
NtRp4865
(dp4866
g74
(dp4867
g82
I5
ssg83
g4861
sg76
(lp4868
S'session_data_betsy'
p4869
asbasbasbag69
(g85
g71
NtRp4870
(dp4871
g74
(dp4872
sg83
g3512
sg76
(lp4873
g69
(g90
g71
NtRp4874
(dp4875
g74
(dp4876
g94
g95
ssg83
g4870
sg76
(lp4877
S'session_file'
p4878
asbag69
(g90
g71
NtRp4879
(dp4880
g74
(dp4881
g101
g102
ssg83
g4870
sg76
(lp4882
S':'
asbag69
(g90
g71
NtRp4883
(dp4884
g74
(dp4885
sg83
g4870
sg76
(lp4886
g69
(g70
g71
NtRp4887
(dp4888
g74
(dp4889
g82
I5
ssg83
g4883
sg76
(lp4890
S"<open file '/home/xchen/web2py/applications/Betsy/sessions/127.0.0.1-60759fd0-5a1f-4d09-84db-59f8b4a9ee8e', mode 'rb+' at 0x1f52d270>"
p4891
asbasbasbag69
(g85
g71
NtRp4892
(dp4893
g74
(dp4894
sg83
g3512
sg76
(lp4895
g69
(g90
g71
NtRp4896
(dp4897
g74
(dp4898
g94
g95
ssg83
g4892
sg76
(lp4899
S'session_filename'
p4900
asbag69
(g90
g71
NtRp4901
(dp4902
g74
(dp4903
g101
g102
ssg83
g4892
sg76
(lp4904
S':'
asbag69
(g90
g71
NtRp4905
(dp4906
g74
(dp4907
sg83
g4892
sg76
(lp4908
g69
(g70
g71
NtRp4909
(dp4910
g74
(dp4911
g82
I5
ssg83
g4905
sg76
(lp4912
S'/home/xchen/web2py/applications/Betsy/sessions/127.0.0.1-60759fd0-5a1f-4d09-84db-59f8b4a9ee8e'
p4913
asbasbasbag69
(g85
g71
NtRp4914
(dp4915
g74
(dp4916
sg83
g3512
sg76
(lp4917
g69
(g90
g71
NtRp4918
(dp4919
g74
(dp4920
g94
g95
ssg83
g4914
sg76
(lp4921
S'session_id'
p4922
asbag69
(g90
g71
NtRp4923
(dp4924
g74
(dp4925
g101
g102
ssg83
g4914
sg76
(lp4926
S':'
asbag69
(g90
g71
NtRp4927
(dp4928
g74
(dp4929
sg83
g4914
sg76
(lp4930
g69
(g70
g71
NtRp4931
(dp4932
g74
(dp4933
g82
I5
ssg83
g4927
sg76
(lp4934
g500
asbasbasbag69
(g85
g71
NtRp4935
(dp4936
g74
(dp4937
sg83
g3512
sg76
(lp4938
g69
(g90
g71
NtRp4939
(dp4940
g74
(dp4941
g94
g95
ssg83
g4935
sg76
(lp4942
S'session_id_name'
p4943
asbag69
(g90
g71
NtRp4944
(dp4945
g74
(dp4946
g101
g102
ssg83
g4935
sg76
(lp4947
S':'
asbag69
(g90
g71
NtRp4948
(dp4949
g74
(dp4950
sg83
g4935
sg76
(lp4951
g69
(g70
g71
NtRp4952
(dp4953
g74
(dp4954
g82
I5
ssg83
g4948
sg76
(lp4955
g3569
asbasbasbag69
(g85
g71
NtRp4956
(dp4957
g74
(dp4958
sg83
g3512
sg76
(lp4959
g69
(g90
g71
NtRp4960
(dp4961
g74
(dp4962
g94
g95
ssg83
g4956
sg76
(lp4963
S'session_locked'
p4964
asbag69
(g90
g71
NtRp4965
(dp4966
g74
(dp4967
g101
g102
ssg83
g4956
sg76
(lp4968
S':'
asbag69
(g90
g71
NtRp4969
(dp4970
g74
(dp4971
sg83
g4956
sg76
(lp4972
g69
(g70
g71
NtRp4973
(dp4974
g74
(dp4975
g82
I5
ssg83
g4969
sg76
(lp4976
g1607
asbasbasbag69
(g85
g71
NtRp4977
(dp4978
g74
(dp4979
sg83
g3512
sg76
(lp4980
g69
(g90
g71
NtRp4981
(dp4982
g74
(dp4983
g94
g95
ssg83
g4977
sg76
(lp4984
S'session_new'
p4985
asbag69
(g90
g71
NtRp4986
(dp4987
g74
(dp4988
g101
g102
ssg83
g4977
sg76
(lp4989
S':'
asbag69
(g90
g71
NtRp4990
(dp4991
g74
(dp4992
sg83
g4977
sg76
(lp4993
g69
(g70
g71
NtRp4994
(dp4995
g74
(dp4996
g82
I5
ssg83
g4990
sg76
(lp4997
g112
asbasbasbag69
(g85
g71
NtRp4998
(dp4999
g74
(dp5000
sg83
g3512
sg76
(lp5001
g69
(g90
g71
NtRp5002
(dp5003
g74
(dp5004
g94
g95
ssg83
g4998
sg76
(lp5005
S'session_storage_type'
p5006
asbag69
(g90
g71
NtRp5007
(dp5008
g74
(dp5009
g101
g102
ssg83
g4998
sg76
(lp5010
S':'
asbag69
(g90
g71
NtRp5011
(dp5012
g74
(dp5013
sg83
g4998
sg76
(lp5014
g69
(g70
g71
NtRp5015
(dp5016
g74
(dp5017
g82
I5
ssg83
g5011
sg76
(lp5018
g3039
asbasbasbag69
(g85
g71
NtRp5019
(dp5020
g74
(dp5021
sg83
g3512
sg76
(lp5022
g69
(g90
g71
NtRp5023
(dp5024
g74
(dp5025
g94
g95
ssg83
g5019
sg76
(lp5026
S'status'
p5027
asbag69
(g90
g71
NtRp5028
(dp5029
g74
(dp5030
g101
g102
ssg83
g5019
sg76
(lp5031
S':'
asbag69
(g90
g71
NtRp5032
(dp5033
g74
(dp5034
sg83
g5019
sg76
(lp5035
g69
(g70
g71
NtRp5036
(dp5037
g74
(dp5038
g82
I5
ssg83
g5032
sg76
(lp5039
S'200'
p5040
asbasbasbag69
(g85
g71
NtRp5041
(dp5042
g74
(dp5043
sg83
g3512
sg76
(lp5044
g69
(g90
g71
NtRp5045
(dp5046
g74
(dp5047
g94
g95
ssg83
g5041
sg76
(lp5048
S'subtitle'
p5049
asbag69
(g90
g71
NtRp5050
(dp5051
g74
(dp5052
g101
g102
ssg83
g5041
sg76
(lp5053
S':'
asbag69
(g90
g71
NtRp5054
(dp5055
g74
(dp5056
sg83
g5041
sg76
(lp5057
g69
(g70
g71
NtRp5058
(dp5059
g74
(dp5060
g82
I5
ssg83
g5054
sg76
(lp5061
g4003
(S's\r\x00\x00\x00customize me!'
tRp5062
asbasbasbag69
(g85
g71
NtRp5063
(dp5064
g74
(dp5065
sg83
g3512
sg76
(lp5066
g69
(g90
g71
NtRp5067
(dp5068
g74
(dp5069
g94
g95
ssg83
g5063
sg76
(lp5070
S'title'
p5071
asbag69
(g90
g71
NtRp5072
(dp5073
g74
(dp5074
g101
g102
ssg83
g5063
sg76
(lp5075
S':'
asbag69
(g90
g71
NtRp5076
(dp5077
g74
(dp5078
sg83
g5063
sg76
(lp5079
g69
(g70
g71
NtRp5080
(dp5081
g74
(dp5082
g82
I5
ssg83
g5076
sg76
(lp5083
S'Betsy'
p5084
asbasbasbag69
(g85
g71
NtRp5085
(dp5086
g74
(dp5087
sg83
g3512
sg76
(lp5088
g69
(g90
g71
NtRp5089
(dp5090
g74
(dp5091
g94
g95
ssg83
g5085
sg76
(lp5092
S'view'
p5093
asbag69
(g90
g71
NtRp5094
(dp5095
g74
(dp5096
g101
g102
ssg83
g5085
sg76
(lp5097
S':'
asbag69
(g90
g71
NtRp5098
(dp5099
g74
(dp5100
sg83
g5085
sg76
(lp5101
g69
(g70
g71
NtRp5102
(dp5103
g74
(dp5104
g82
I5
ssg83
g5098
sg76
(lp5105
S'default/protocol.html'
p5106
asbasbasbasbasbsS'locals'
p5107
(dp5108
g4
S"'/home/xchen/web2py/applications/Betsy/views/default/protocol.html'"
p5109
sg6
S'\'response.write(\\\'<!DOCTYPE html>\\\\n<!-- paulirish....(\\\'"></script>\\\\n</body>\\\\n</html>\\\\n\\\', escape=False)\''
p5110
sssS'traceback'
p5111
S'Traceback (most recent call last):\n  File "/home/xchen/web2py/gluon/restricted.py", line 211, in restricted\n    ccode = compile2(code, layer)\n  File "/home/xchen/web2py/gluon/restricted.py", line 194, in compile2\n    return compile(code.rstrip().replace(\'\\r\\n\', \'\\n\') + \'\\n\', layer, \'exec\')\n  File "/home/xchen/web2py/applications/Betsy/views/default/protocol.html", line 195\n    response.write(column_name[4]}</h2>\n                                 ^\nSyntaxError: invalid syntax\n'
p5112
s.