(dp1
S'output'
p2
S"<type 'exceptions.SyntaxError'> when calling URL, function or function name required"
p3
sS'layer'
p4
S'/home/xchen/web2py/applications/Betsy/views/default/show_job.html'
p5
sS'code'
p6
S'response.write(\'<!DOCTYPE html>\\n<!-- paulirish.com/2008/conditional-stylesheets-vs-css-hacks-answer-neither/ -->\\n<!--[if lt IE 7]><html class="ie ie6 ie-lte9 ie-lte8 ie-lte7 no-js" lang="\', escape=False)\nresponse.write(T.accepted_language or \'en\')\nresponse.write(\'"> <![endif]-->\\n<!--[if IE 7]><html class="ie ie7 ie-lte9 ie-lte8 ie-lte7 no-js" lang="\', escape=False)\nresponse.write(T.accepted_language or \'en\')\nresponse.write(\'"> <![endif]-->\\n<!--[if IE 8]><html class="ie ie8 ie-lte9 ie-lte8 no-js" lang="\', escape=False)\nresponse.write(T.accepted_language or \'en\')\nresponse.write(\'"> <![endif]-->\\n<!--[if IE 9]><html class="ie9 ie-lte9 no-js" lang="\', escape=False)\nresponse.write(T.accepted_language or \'en\')\nresponse.write(\'"> <![endif]-->\\n<!--[if (gt IE 9)|!(IE)]><!--> <html class="no-js" lang="\', escape=False)\nresponse.write(T.accepted_language or \'en\')\nresponse.write(\'"> <!--<![endif]-->\\n<head>\\n  <meta charset="utf-8" />\\n  <!-- www.phpied.com/conditional-comments-block-downloads/ -->\\n  <!-- Always force latest IE rendering engine\\n       (even in intranet) & Chrome Frame\\n       Remove this if you use the .htaccess -->\\n  <!--[if IE]>\\n      <meta http-equiv="X-UA-Compatible" content="IE=edge\', escape=False)\nresponse.write(not request.is_local and \',chrome=1\' or \'\')\nresponse.write(\'">\\n      <![endif]-->\\n\\n  <title>\', escape=False)\nresponse.write(response.title or request.application)\nresponse.write(\'</title>\\n\\n  <!-- http://dev.w3.org/html5/markup/meta.name.html -->\\n  <meta name="application-name" content="\', escape=False)\nresponse.write(request.application)\nresponse.write(\'" />\\n\\n  <!-- Speaking of Google, don\\\'t forget to set your site up:\\n       http://google.com/webmasters -->\\n  <meta name="google-site-verification" content="" />\\n\\n  <!--  Mobile Viewport Fix\\n        j.mp/mobileviewport & davidbcalhoun.com/2010/viewport-metatag\\n        device-width: Occupy full width of the screen in its current orientation\\n        initial-scale = 1.0 retains dimensions instead of zooming out if page height > device height\\n        user-scalable = yes allows the user to zoom in -->\\n  <meta name="viewport" content="width=device-width, initial-scale=1.0">\\n\\n  <link rel="shortcut icon" href="\', escape=False)\nresponse.write(URL(\'static\',\'images/favicon.ico\'))\nresponse.write(\'" type="image/x-icon">\\n  <link rel="apple-touch-icon" href="\', escape=False)\nresponse.write(URL(\'static\',\'images/favicon.png\'))\nresponse.write(\'">\\n\\n  <!-- All JavaScript at the bottom, except for Modernizr which enables\\n       HTML5 elements & feature detects -->\\n  <script src="\', escape=False)\nresponse.write(URL(\'static\',\'js/modernizr.custom.js\'))\nresponse.write(\'"></script>\\n\\n  <!-- include stylesheets -->\\n  \', escape=False)\nresponse.files.append(URL(\'static\',\'css/web2py.css\'))\nresponse.files.append(URL(\'static\',\'css/bootstrap.min.css\'))\nresponse.files.append(URL(\'static\',\'css/bootstrap-responsive.min.css\'))\nresponse.files.append(URL(\'static\',\'css/web2py_bootstrap.css\'))\nresponse.write(\'\\n\\n  \', escape=False)\nresponse.write(\'<script type="text/javascript"><!--\\n    // These variables are used by the web2py_ajax_init function in web2py_ajax.js (which is loaded below).\\n    var w2p_ajax_confirm_message = "\', escape=False)\nresponse.write(T(\'Are you sure you want to delete this object?\'))\nresponse.write(\'";\\n    var w2p_ajax_date_format = "\', escape=False)\nresponse.write(T(\'%Y-%m-%d\'))\nresponse.write(\'";\\n    var w2p_ajax_datetime_format = "\', escape=False)\nresponse.write(T(\'%Y-%m-%d %H:%M:%S\'))\nresponse.write(\'";\\n    //--></script>\\n\', escape=False)\nresponse.files.insert(0,URL(\'static\',\'js/jquery.js\'))\nresponse.files.insert(1,URL(\'static\',\'css/calendar.css\'))\nresponse.files.insert(2,URL(\'static\',\'js/calendar.js\'))\nresponse.files.insert(3,URL(\'static\',\'js/web2py.js\'))\nresponse.include_meta()\nresponse.include_files()\nresponse.write(\'\\n\', escape=False)\nresponse.write(\'\\n\\n  \', escape=False)\n# using sidebars need to know what sidebar you want to use\nleft_sidebar_enabled = globals().get(\'left_sidebar_enabled\',False)\nright_sidebar_enabled = globals().get(\'right_sidebar_enabled\',False)\nmiddle_columns = {0:\'span12\',1:\'span9\',2:\'span6\'}[\n(left_sidebar_enabled and 1 or 0)+(right_sidebar_enabled and 1 or 0)]\nresponse.write(\'\\n\\n  <!-- uncomment here to load jquery-ui\\n       <link rel="stylesheet" href="http://ajax.googleapis.com/ajax/libs/jqueryui/1.8.16/themes/base/jquery-ui.css" type="text/css" media="all" />\\n       <script src="http://ajax.googleapis.com/ajax/libs/jqueryui/1.8.16/jquery-ui.min.js" type="text/javascript"></script>\\n       uncomment to load jquery-ui //-->\\n  <noscript><link href="\', escape=False)\nresponse.write(URL(\'static\', \'css/web2py_bootstrap_nojs.css\'))\nresponse.write(\'" rel="stylesheet" type="text/css" /></noscript>\\n  \', escape=False)\nresponse.write(\'\\n</head>\\n\\n<body>\\n  <!-- Navbar ================================================== -->\\n  <div class="navbar navbar-inverse navbar-fixed-top">\\n    <div class="flash">\', escape=False)\nresponse.write(response.flash or \'\')\nresponse.write(\'</div>\\n    <div class="navbar-inner">\\n      <div class="container">\\n        <!-- the next tag is necessary for bootstrap menus, do not remove -->\\n        <button type="button" class="btn btn-navbar" data-toggle="collapse" data-target=".nav-collapse">\\n          <span class="icon-bar"></span>\\n          <span class="icon-bar"></span>\\n          <span class="icon-bar"></span>\\n        </button>\\n        <a class="brand" href="http://www.web2py.com/"><b>web<span>2</span>py</b>&trade;&nbsp;</a>\\n        <ul id="navbar" class="nav pull-right">\', escape=False)\nresponse.write(\'auth\' in globals() and auth.navbar(mode="dropdown") or \'\')\nresponse.write(\'</ul>\\n        <div class="nav-collapse">\\n          \', escape=False)\nis_mobile=request.user_agent().is_mobile\nresponse.write(\'\\n          \', escape=False)\nif response.menu:\n    response.write(\'\\n          \', escape=False)\n    response.write(MENU(response.menu, _class=\'mobile-menu nav\' if is_mobile else \'nav\',mobile=is_mobile,li_class=\'dropdown\',ul_class=\'dropdown-menu\'))\n    response.write(\'\\n          \', escape=False)\n    pass\nresponse.write(\'\\n        </div><!--/.nav-collapse -->\\n      </div>\\n    </div>\\n  </div><!--/top navbar -->\\n\\n  <div class="container">\\n    <!-- Masthead ================================================== -->\\n    <header class="mastheader row" id="header">\\n        <div class="span12">\\n            <div class="page-header">\\n                <h1>\\n                    \', escape=False)\nresponse.write(response.title or request.application)\nresponse.write(\'\\n                    <small>\', escape=False)\nresponse.write(response.subtitle or \'\')\nresponse.write(\'</small>\\n                </h1>\\n            </div>\\n        </div>\\n    </header>\\n\\n    <section id="main" class="main row">\\n        \', escape=False)\nif left_sidebar_enabled:\n    response.write(\'\\n        <div class="span3 left-sidebar">\\n            \', escape=False)\n    response.write(\'\\n            <h3>Left Sidebar</h3>\\n            <p></p>\\n            \', escape=False)\n    response.write(\'\\n        </div>\\n        \', escape=False)\n    pass\nresponse.write(\'\\n\\n        <div class="\', escape=False)\nresponse.write(middle_columns)\nresponse.write(\'">\\n            \', escape=False)\nresponse.write(\'\\n            \', escape=False)\nresponse.write(\'\\n<h1>Job number: \', escape=False)\nresponse.write(job.Jobnumber)\nresponse.write(\'</h1>\\n<h2>\', escape=False)\nresponse.write(info)\nresponse.write(\'</h2>\\n\', escape=False)\nfor i in range(len(text)):\n    response.write(\'\\n\', escape=False)\n    if text[i]==newtext[i]:\n        response.write(\'\\n\\t\\t\', escape=False)\n        response.write(text[i])\n        response.write(\'<br />\\n\\t\', escape=False)\n    else:\n        response.write(\'\\n<!--\', escape=False)\n        response.write(A(text[i],_href=file(text[i].strip()),_src=file(text[i].strip())))\n        response.write(\'<br />-->\\n\', escape=False)\n        response.write(A(text[i],_href=URL(\'result_files\',newtext[i])))\n        response.write(\'<br />\\n<!--\', escape=False)\n        response.write(A(text[i],_href=\'http://localhost:8080/home/xchen/chencode/examples/sample_analysis/annotate_probes_BETSYHASH1_7eb4bf59dde97c21d7854021c2a1fe40/signal_file_annot_table.myfile1.a8dd7d225fa076b2.4368616e675f415230303431302e70636c.txt\'))\n        response.write(\'--><br />\\n    \\n    \', escape=False)\n        pass\n    response.write(\'\\n\', escape=False)\n    pass\nresponse.write(\'\\n\', escape=False)\nresponse.write(\'\\n            \', escape=False)\nresponse.write(\'\\n        </div>\\n\\n        \', escape=False)\nif right_sidebar_enabled:\n    response.write(\'\\n        <div class="span3">\\n            \', escape=False)\n    response.write(\'\\n            <h3>Right Sidebar</h3>\\n            <p></p>\\n            \', escape=False)\n    response.write(\'\\n        </div>\\n        \', escape=False)\n    pass\nresponse.write(\'\\n    </section><!--/main-->\\n\\n    <!-- Footer ================================================== -->\\n    <div class="row">\\n        <footer class="footer span12" id="footer">\\n            <div class="footer-content">\\n                \', escape=False)\nresponse.write(\' <!-- this is default footer -->\\n                <div class="copyright pull-left">\', escape=False)\nresponse.write(T(\'Copyright\'))\nresponse.write(\' &#169; \', escape=False)\nresponse.write(request.now.year)\nresponse.write(\'</div>\\n                <div id="poweredBy" class="pull-right">\\n                    \', escape=False)\nresponse.write(T(\'Powered by\'))\nresponse.write(\'\\n                    <a href="http://www.web2py.com/">web2py</a>\\n                </div>\\n                \', escape=False)\nresponse.write(\'\\n            </div>\\n        </footer>\\n    </div>\\n\\n  </div> <!-- /container -->\\n\\n  <!-- The javascript =============================================\\n       (Placed at the end of the document so the pages load faster) -->\\n  <script src="\', escape=False)\nresponse.write(URL(\'static\',\'js/bootstrap.min.js\'))\nresponse.write(\'"></script>\\n  <script src="\', escape=False)\nresponse.write(URL(\'static\',\'js/web2py_bootstrap.js\'))\nresponse.write(\'"></script>\\n  <!--[if lt IE 7 ]>\\n      <script src="\', escape=False)\nresponse.write(URL(\'static\',\'js/dd_belatedpng.js\'))\nresponse.write(\'"></script>\\n      <script> DD_belatedPNG.fix(\\\'img, .png_bg\\\'); //fix any <img> or .png_bg background-images </script>\\n      <![endif]-->\\n  \', escape=False)\nif response.google_analytics_id:\n    response.write(\'<script type="text/javascript"> var _gaq = _gaq || []; _gaq.push([\\\'_setAccount\\\', \\\'\', escape=False)\n    response.write(response.google_analytics_id)\n    response.write("\']); _gaq.push([\'_trackPageview\']); (function() { var ga = document.createElement(\'script\'); ga.type = \'text/javascript\'; ga.async = true; ga.src = (\'https:\' == document.location.protocol ? \'https://ssl\' : \'http://www\') + \'.google-analytics.com/ga.js\'; var s = document.getElementsByTagName(\'script\')[0]; s.parentNode.insertBefore(ga, s); })(); </script> ", escape=False)\n    pass\nresponse.write(\'\\n  <script src="\', escape=False)\nresponse.write(URL(\'static\',\'js/share.js\',vars=dict(static=URL(\'static\',\'images\'))))\nresponse.write(\'"></script>\\n</body>\\n</html>\\n\\n\', escape=False)'
p7
sS'snapshot'
p8
(dp9
S'exception'
p10
(dp11
S'__getslice__'
p12
S"<method-wrapper '__getslice__' of exceptions.SyntaxError object>"
p13
sS'text'
p14
S'None'
p15
sS'__str__'
p16
S"<method-wrapper '__str__' of exceptions.SyntaxError object>"
p17
sS'__reduce__'
p18
S'<built-in method __reduce__ of exceptions.SyntaxError object>'
p19
sS'__dict__'
p20
S'{}'
p21
sS'__sizeof__'
p22
S'<built-in method __sizeof__ of exceptions.SyntaxError object>'
p23
sS'__init__'
p24
S"<method-wrapper '__init__' of exceptions.SyntaxError object>"
p25
sS'__setattr__'
p26
S"<method-wrapper '__setattr__' of exceptions.SyntaxError object>"
p27
sS'__reduce_ex__'
p28
S'<built-in method __reduce_ex__ of exceptions.SyntaxError object>'
p29
sS'__new__'
p30
S'<built-in method __new__ of type object>'
p31
sS'__format__'
p32
S'<built-in method __format__ of exceptions.SyntaxError object>'
p33
sS'__class__'
p34
S"<type 'exceptions.SyntaxError'>"
p35
sS'filename'
p36
S'None'
p37
sS'lineno'
p38
S'None'
p39
sS'msg'
p40
S"'when calling URL, function or function name required'"
p41
sS'__doc__'
p42
S"'Invalid syntax.'"
p43
sS'__getitem__'
p44
S"<method-wrapper '__getitem__' of exceptions.SyntaxError object>"
p45
sS'__setstate__'
p46
S'<built-in method __setstate__ of exceptions.SyntaxError object>'
p47
sS'__getattribute__'
p48
S"<method-wrapper '__getattribute__' of exceptions.SyntaxError object>"
p49
sS'print_file_and_line'
p50
S'None'
p51
sS'args'
p52
S"('when calling URL, function or function name required',)"
p53
sS'__subclasshook__'
p54
S'<built-in method __subclasshook__ of type object>'
p55
sS'offset'
p56
S'None'
p57
sS'__unicode__'
p58
S'<built-in method __unicode__ of exceptions.SyntaxError object>'
p59
sS'__delattr__'
p60
S"<method-wrapper '__delattr__' of exceptions.SyntaxError object>"
p61
sS'__repr__'
p62
S"<method-wrapper '__repr__' of exceptions.SyntaxError object>"
p63
sS'__hash__'
p64
S"<method-wrapper '__hash__' of exceptions.SyntaxError object>"
p65
ssS'evalue'
p66
S'when calling URL, function or function name required'
p67
sS'request'
p68
ccopy_reg
_reconstructor
p69
(cgluon.html
BEAUTIFY
p70
c__builtin__
object
p71
NtRp72
(dp73
S'attributes'
p74
(dp75
sS'components'
p76
(lp77
g69
(cgluon.html
TABLE
p78
g71
NtRp79
(dp80
g74
(dp81
S'level'
p82
I5
ssS'parent'
p83
Nsg76
(lp84
g69
(cgluon.html
TR
p85
g71
NtRp86
(dp87
g74
(dp88
sg83
g79
sg76
(lp89
g69
(cgluon.html
TD
p90
g71
NtRp91
(dp92
g74
(dp93
S'_style'
p94
S'font-weight:bold;vertical-align:top'
p95
ssg83
g86
sg76
(lp96
S'ajax'
p97
asbag69
(g90
g71
NtRp98
(dp99
g74
(dp100
S'_valign'
p101
S'top'
p102
ssg83
g86
sg76
(lp103
S':'
asbag69
(g90
g71
NtRp104
(dp105
g74
(dp106
sg83
g86
sg76
(lp107
g69
(g70
g71
NtRp108
(dp109
g74
(dp110
g82
I5
ssg83
g104
sg76
(lp111
S'False'
p112
asbasbasbag69
(g85
g71
NtRp113
(dp114
g74
(dp115
sg83
g79
sg76
(lp116
g69
(g90
g71
NtRp117
(dp118
g74
(dp119
g94
g95
ssg83
g113
sg76
(lp120
S'application'
p121
asbag69
(g90
g71
NtRp122
(dp123
g74
(dp124
g101
g102
ssg83
g113
sg76
(lp125
S':'
asbag69
(g90
g71
NtRp126
(dp127
g74
(dp128
sg83
g113
sg76
(lp129
g69
(g70
g71
NtRp130
(dp131
g74
(dp132
g82
I5
ssg83
g126
sg76
(lp133
S'Betsy'
p134
asbasbasbag69
(g85
g71
NtRp135
(dp136
g74
(dp137
sg83
g79
sg76
(lp138
g69
(g90
g71
NtRp139
(dp140
g74
(dp141
g94
g95
ssg83
g135
sg76
(lp142
g52
asbag69
(g90
g71
NtRp143
(dp144
g74
(dp145
g101
g102
ssg83
g135
sg76
(lp146
S':'
asbag69
(g90
g71
NtRp147
(dp148
g74
(dp149
sg83
g135
sg76
(lp150
g69
(g70
g71
NtRp151
(dp152
g74
(dp153
g82
I5
ssg83
g147
sg76
(lp154
g69
(g78
g71
NtRp155
(dp156
g74
(dp157
g82
I4
ssg83
Nsg76
(lp158
g69
(g85
g71
NtRp159
(dp160
g74
(dp161
sg83
g155
sg76
(lp162
g69
(g90
g71
NtRp163
(dp164
g74
(dp165
sg83
g159
sg76
(lp166
g69
(g70
g71
NtRp167
(dp168
g74
(dp169
g82
I4
ssg83
g163
sg76
(lp170
S'142'
p171
asbasbasbasbasbasbasbag69
(g85
g71
NtRp172
(dp173
g74
(dp174
sg83
g79
sg76
(lp175
g69
(g90
g71
NtRp176
(dp177
g74
(dp178
g94
g95
ssg83
g172
sg76
(lp179
S'body'
p180
asbag69
(g90
g71
NtRp181
(dp182
g74
(dp183
g101
g102
ssg83
g172
sg76
(lp184
S':'
asbag69
(g90
g71
NtRp185
(dp186
g74
(dp187
sg83
g172
sg76
(lp188
g69
(g70
g71
NtRp189
(dp190
g74
(dp191
g82
I5
ssg83
g185
sg76
(lp192
S'<cStringIO.StringO object at 0xfe70180>'
p193
asbasbasbag69
(g85
g71
NtRp194
(dp195
g74
(dp196
sg83
g79
sg76
(lp197
g69
(g90
g71
NtRp198
(dp199
g74
(dp200
g94
g95
ssg83
g194
sg76
(lp201
S'cid'
p202
asbag69
(g90
g71
NtRp203
(dp204
g74
(dp205
g101
g102
ssg83
g194
sg76
(lp206
S':'
asbag69
(g90
g71
NtRp207
(dp208
g74
(dp209
sg83
g194
sg76
(lp210
g69
(g70
g71
NtRp211
(dp212
g74
(dp213
g82
I5
ssg83
g207
sg76
(lp214
S'None'
p215
asbasbasbag69
(g85
g71
NtRp216
(dp217
g74
(dp218
sg83
g79
sg76
(lp219
g69
(g90
g71
NtRp220
(dp221
g74
(dp222
g94
g95
ssg83
g216
sg76
(lp223
S'client'
p224
asbag69
(g90
g71
NtRp225
(dp226
g74
(dp227
g101
g102
ssg83
g216
sg76
(lp228
S':'
asbag69
(g90
g71
NtRp229
(dp230
g74
(dp231
sg83
g216
sg76
(lp232
g69
(g70
g71
NtRp233
(dp234
g74
(dp235
g82
I5
ssg83
g229
sg76
(lp236
S'127.0.0.1'
p237
asbasbasbag69
(g85
g71
NtRp238
(dp239
g74
(dp240
sg83
g79
sg76
(lp241
g69
(g90
g71
NtRp242
(dp243
g74
(dp244
g94
g95
ssg83
g238
sg76
(lp245
S'controller'
p246
asbag69
(g90
g71
NtRp247
(dp248
g74
(dp249
g101
g102
ssg83
g238
sg76
(lp250
S':'
asbag69
(g90
g71
NtRp251
(dp252
g74
(dp253
sg83
g238
sg76
(lp254
g69
(g70
g71
NtRp255
(dp256
g74
(dp257
g82
I5
ssg83
g251
sg76
(lp258
S'default'
p259
asbasbasbag69
(g85
g71
NtRp260
(dp261
g74
(dp262
sg83
g79
sg76
(lp263
g69
(g90
g71
NtRp264
(dp265
g74
(dp266
g94
g95
ssg83
g260
sg76
(lp267
S'cookies'
p268
asbag69
(g90
g71
NtRp269
(dp270
g74
(dp271
g101
g102
ssg83
g260
sg76
(lp272
S':'
asbag69
(g90
g71
NtRp273
(dp274
g74
(dp275
sg83
g260
sg76
(lp276
g69
(g70
g71
NtRp277
(dp278
g74
(dp279
g82
I5
ssg83
g273
sg76
(lp280
g69
(g78
g71
NtRp281
(dp282
g74
(dp283
g82
I4
ssg83
Nsg76
(lp284
g69
(g85
g71
NtRp285
(dp286
g74
(dp287
sg83
g281
sg76
(lp288
g69
(g90
g71
NtRp289
(dp290
g74
(dp291
g94
g95
ssg83
g285
sg76
(lp292
S'session_id_admin'
p293
asbag69
(g90
g71
NtRp294
(dp295
g74
(dp296
g101
g102
ssg83
g285
sg76
(lp297
S':'
asbag69
(g90
g71
NtRp298
(dp299
g74
(dp300
sg83
g285
sg76
(lp301
g69
(g70
g71
NtRp302
(dp303
g74
(dp304
g82
I4
ssg83
g298
sg76
(lp305
S'127.0.0.1-10826c7c-3bd0-4d3e-9952-926f620d71a2'
p306
ag69
(g78
g71
NtRp307
(dp308
g74
(dp309
g82
I3
ssg83
Nsg76
(lp310
g69
(g85
g71
NtRp311
(dp312
g74
(dp313
sg83
g307
sg76
(lp314
g69
(g90
g71
NtRp315
(dp316
g74
(dp317
g94
g95
ssg83
g311
sg76
(lp318
S'comment'
p319
asbag69
(g90
g71
NtRp320
(dp321
g74
(dp322
g101
g102
ssg83
g311
sg76
(lp323
S':'
asbag69
(g90
g71
NtRp324
(dp325
g74
(dp326
sg83
g311
sg76
(lp327
g69
(g70
g71
NtRp328
(dp329
g74
(dp330
g82
I3
ssg83
g324
sg76
(lp331
S''
asbasbasbag69
(g85
g71
NtRp332
(dp333
g74
(dp334
sg83
g307
sg76
(lp335
g69
(g90
g71
NtRp336
(dp337
g74
(dp338
g94
g95
ssg83
g332
sg76
(lp339
S'domain'
p340
asbag69
(g90
g71
NtRp341
(dp342
g74
(dp343
g101
g102
ssg83
g332
sg76
(lp344
S':'
asbag69
(g90
g71
NtRp345
(dp346
g74
(dp347
sg83
g332
sg76
(lp348
g69
(g70
g71
NtRp349
(dp350
g74
(dp351
g82
I3
ssg83
g345
sg76
(lp352
S''
asbasbasbag69
(g85
g71
NtRp353
(dp354
g74
(dp355
sg83
g307
sg76
(lp356
g69
(g90
g71
NtRp357
(dp358
g74
(dp359
g94
g95
ssg83
g353
sg76
(lp360
S'expires'
p361
asbag69
(g90
g71
NtRp362
(dp363
g74
(dp364
g101
g102
ssg83
g353
sg76
(lp365
S':'
asbag69
(g90
g71
NtRp366
(dp367
g74
(dp368
sg83
g353
sg76
(lp369
g69
(g70
g71
NtRp370
(dp371
g74
(dp372
g82
I3
ssg83
g366
sg76
(lp373
S''
asbasbasbag69
(g85
g71
NtRp374
(dp375
g74
(dp376
sg83
g307
sg76
(lp377
g69
(g90
g71
NtRp378
(dp379
g74
(dp380
g94
g95
ssg83
g374
sg76
(lp381
S'httponly'
p382
asbag69
(g90
g71
NtRp383
(dp384
g74
(dp385
g101
g102
ssg83
g374
sg76
(lp386
S':'
asbag69
(g90
g71
NtRp387
(dp388
g74
(dp389
sg83
g374
sg76
(lp390
g69
(g70
g71
NtRp391
(dp392
g74
(dp393
g82
I3
ssg83
g387
sg76
(lp394
S''
asbasbasbag69
(g85
g71
NtRp395
(dp396
g74
(dp397
sg83
g307
sg76
(lp398
g69
(g90
g71
NtRp399
(dp400
g74
(dp401
g94
g95
ssg83
g395
sg76
(lp402
S'max-age'
p403
asbag69
(g90
g71
NtRp404
(dp405
g74
(dp406
g101
g102
ssg83
g395
sg76
(lp407
S':'
asbag69
(g90
g71
NtRp408
(dp409
g74
(dp410
sg83
g395
sg76
(lp411
g69
(g70
g71
NtRp412
(dp413
g74
(dp414
g82
I3
ssg83
g408
sg76
(lp415
S''
asbasbasbag69
(g85
g71
NtRp416
(dp417
g74
(dp418
sg83
g307
sg76
(lp419
g69
(g90
g71
NtRp420
(dp421
g74
(dp422
g94
g95
ssg83
g416
sg76
(lp423
S'path'
p424
asbag69
(g90
g71
NtRp425
(dp426
g74
(dp427
g101
g102
ssg83
g416
sg76
(lp428
S':'
asbag69
(g90
g71
NtRp429
(dp430
g74
(dp431
sg83
g416
sg76
(lp432
g69
(g70
g71
NtRp433
(dp434
g74
(dp435
g82
I3
ssg83
g429
sg76
(lp436
S''
asbasbasbag69
(g85
g71
NtRp437
(dp438
g74
(dp439
sg83
g307
sg76
(lp440
g69
(g90
g71
NtRp441
(dp442
g74
(dp443
g94
g95
ssg83
g437
sg76
(lp444
S'secure'
p445
asbag69
(g90
g71
NtRp446
(dp447
g74
(dp448
g101
g102
ssg83
g437
sg76
(lp449
S':'
asbag69
(g90
g71
NtRp450
(dp451
g74
(dp452
sg83
g437
sg76
(lp453
g69
(g70
g71
NtRp454
(dp455
g74
(dp456
g82
I3
ssg83
g450
sg76
(lp457
S''
asbasbasbag69
(g85
g71
NtRp458
(dp459
g74
(dp460
sg83
g307
sg76
(lp461
g69
(g90
g71
NtRp462
(dp463
g74
(dp464
g94
g95
ssg83
g458
sg76
(lp465
S'version'
p466
asbag69
(g90
g71
NtRp467
(dp468
g74
(dp469
g101
g102
ssg83
g458
sg76
(lp470
S':'
asbag69
(g90
g71
NtRp471
(dp472
g74
(dp473
sg83
g458
sg76
(lp474
g69
(g70
g71
NtRp475
(dp476
g74
(dp477
g82
I3
ssg83
g471
sg76
(lp478
S''
asbasbasbasbasbasbasbag69
(g85
g71
NtRp479
(dp480
g74
(dp481
sg83
g281
sg76
(lp482
g69
(g90
g71
NtRp483
(dp484
g74
(dp485
g94
g95
ssg83
g479
sg76
(lp486
S'session_id_betsy'
p487
asbag69
(g90
g71
NtRp488
(dp489
g74
(dp490
g101
g102
ssg83
g479
sg76
(lp491
S':'
asbag69
(g90
g71
NtRp492
(dp493
g74
(dp494
sg83
g479
sg76
(lp495
g69
(g70
g71
NtRp496
(dp497
g74
(dp498
g82
I4
ssg83
g492
sg76
(lp499
S'127.0.0.1-70d52105-0f5d-4884-a4e3-dce6830f30e0'
p500
ag69
(g78
g71
NtRp501
(dp502
g74
(dp503
g82
I3
ssg83
Nsg76
(lp504
g69
(g85
g71
NtRp505
(dp506
g74
(dp507
sg83
g501
sg76
(lp508
g69
(g90
g71
NtRp509
(dp510
g74
(dp511
g94
g95
ssg83
g505
sg76
(lp512
g319
asbag69
(g90
g71
NtRp513
(dp514
g74
(dp515
g101
g102
ssg83
g505
sg76
(lp516
S':'
asbag69
(g90
g71
NtRp517
(dp518
g74
(dp519
sg83
g505
sg76
(lp520
g69
(g70
g71
NtRp521
(dp522
g74
(dp523
g82
I3
ssg83
g517
sg76
(lp524
S''
asbasbasbag69
(g85
g71
NtRp525
(dp526
g74
(dp527
sg83
g501
sg76
(lp528
g69
(g90
g71
NtRp529
(dp530
g74
(dp531
g94
g95
ssg83
g525
sg76
(lp532
g340
asbag69
(g90
g71
NtRp533
(dp534
g74
(dp535
g101
g102
ssg83
g525
sg76
(lp536
S':'
asbag69
(g90
g71
NtRp537
(dp538
g74
(dp539
sg83
g525
sg76
(lp540
g69
(g70
g71
NtRp541
(dp542
g74
(dp543
g82
I3
ssg83
g537
sg76
(lp544
S''
asbasbasbag69
(g85
g71
NtRp545
(dp546
g74
(dp547
sg83
g501
sg76
(lp548
g69
(g90
g71
NtRp549
(dp550
g74
(dp551
g94
g95
ssg83
g545
sg76
(lp552
g361
asbag69
(g90
g71
NtRp553
(dp554
g74
(dp555
g101
g102
ssg83
g545
sg76
(lp556
S':'
asbag69
(g90
g71
NtRp557
(dp558
g74
(dp559
sg83
g545
sg76
(lp560
g69
(g70
g71
NtRp561
(dp562
g74
(dp563
g82
I3
ssg83
g557
sg76
(lp564
S''
asbasbasbag69
(g85
g71
NtRp565
(dp566
g74
(dp567
sg83
g501
sg76
(lp568
g69
(g90
g71
NtRp569
(dp570
g74
(dp571
g94
g95
ssg83
g565
sg76
(lp572
g382
asbag69
(g90
g71
NtRp573
(dp574
g74
(dp575
g101
g102
ssg83
g565
sg76
(lp576
S':'
asbag69
(g90
g71
NtRp577
(dp578
g74
(dp579
sg83
g565
sg76
(lp580
g69
(g70
g71
NtRp581
(dp582
g74
(dp583
g82
I3
ssg83
g577
sg76
(lp584
S''
asbasbasbag69
(g85
g71
NtRp585
(dp586
g74
(dp587
sg83
g501
sg76
(lp588
g69
(g90
g71
NtRp589
(dp590
g74
(dp591
g94
g95
ssg83
g585
sg76
(lp592
g403
asbag69
(g90
g71
NtRp593
(dp594
g74
(dp595
g101
g102
ssg83
g585
sg76
(lp596
S':'
asbag69
(g90
g71
NtRp597
(dp598
g74
(dp599
sg83
g585
sg76
(lp600
g69
(g70
g71
NtRp601
(dp602
g74
(dp603
g82
I3
ssg83
g597
sg76
(lp604
S''
asbasbasbag69
(g85
g71
NtRp605
(dp606
g74
(dp607
sg83
g501
sg76
(lp608
g69
(g90
g71
NtRp609
(dp610
g74
(dp611
g94
g95
ssg83
g605
sg76
(lp612
g424
asbag69
(g90
g71
NtRp613
(dp614
g74
(dp615
g101
g102
ssg83
g605
sg76
(lp616
S':'
asbag69
(g90
g71
NtRp617
(dp618
g74
(dp619
sg83
g605
sg76
(lp620
g69
(g70
g71
NtRp621
(dp622
g74
(dp623
g82
I3
ssg83
g617
sg76
(lp624
S''
asbasbasbag69
(g85
g71
NtRp625
(dp626
g74
(dp627
sg83
g501
sg76
(lp628
g69
(g90
g71
NtRp629
(dp630
g74
(dp631
g94
g95
ssg83
g625
sg76
(lp632
g445
asbag69
(g90
g71
NtRp633
(dp634
g74
(dp635
g101
g102
ssg83
g625
sg76
(lp636
S':'
asbag69
(g90
g71
NtRp637
(dp638
g74
(dp639
sg83
g625
sg76
(lp640
g69
(g70
g71
NtRp641
(dp642
g74
(dp643
g82
I3
ssg83
g637
sg76
(lp644
S''
asbasbasbag69
(g85
g71
NtRp645
(dp646
g74
(dp647
sg83
g501
sg76
(lp648
g69
(g90
g71
NtRp649
(dp650
g74
(dp651
g94
g95
ssg83
g645
sg76
(lp652
g466
asbag69
(g90
g71
NtRp653
(dp654
g74
(dp655
g101
g102
ssg83
g645
sg76
(lp656
S':'
asbag69
(g90
g71
NtRp657
(dp658
g74
(dp659
sg83
g645
sg76
(lp660
g69
(g70
g71
NtRp661
(dp662
g74
(dp663
g82
I3
ssg83
g657
sg76
(lp664
S''
asbasbasbasbasbasbasbasbasbasbasbag69
(g85
g71
NtRp665
(dp666
g74
(dp667
sg83
g79
sg76
(lp668
g69
(g90
g71
NtRp669
(dp670
g74
(dp671
g94
g95
ssg83
g665
sg76
(lp672
S'env'
p673
asbag69
(g90
g71
NtRp674
(dp675
g74
(dp676
g101
g102
ssg83
g665
sg76
(lp677
S':'
asbag69
(g90
g71
NtRp678
(dp679
g74
(dp680
sg83
g665
sg76
(lp681
g69
(g70
g71
NtRp682
(dp683
g74
(dp684
g82
I5
ssg83
g678
sg76
(lp685
g69
(g78
g71
NtRp686
(dp687
g74
(dp688
g82
I4
ssg83
Nsg76
(lp689
g69
(g85
g71
NtRp690
(dp691
g74
(dp692
sg83
g686
sg76
(lp693
g69
(g90
g71
NtRp694
(dp695
g74
(dp696
g94
g95
ssg83
g690
sg76
(lp697
S'app_folders'
p698
asbag69
(g90
g71
NtRp699
(dp700
g74
(dp701
g101
g102
ssg83
g690
sg76
(lp702
S':'
asbag69
(g90
g71
NtRp703
(dp704
g74
(dp705
sg83
g690
sg76
(lp706
g69
(g70
g71
NtRp707
(dp708
g74
(dp709
g82
I4
ssg83
g703
sg76
(lp710
S"set(['/home/xchen/web2py/applications/Betsy/', '/home/xchen/web2py/applications/admin/'])"
p711
asbasbasbag69
(g85
g71
NtRp712
(dp713
g74
(dp714
sg83
g686
sg76
(lp715
g69
(g90
g71
NtRp716
(dp717
g74
(dp718
g94
g95
ssg83
g712
sg76
(lp719
S'applications_parent'
p720
asbag69
(g90
g71
NtRp721
(dp722
g74
(dp723
g101
g102
ssg83
g712
sg76
(lp724
S':'
asbag69
(g90
g71
NtRp725
(dp726
g74
(dp727
sg83
g712
sg76
(lp728
g69
(g70
g71
NtRp729
(dp730
g74
(dp731
g82
I4
ssg83
g725
sg76
(lp732
S'/home/xchen/web2py'
p733
asbasbasbag69
(g85
g71
NtRp734
(dp735
g74
(dp736
sg83
g686
sg76
(lp737
g69
(g90
g71
NtRp738
(dp739
g74
(dp740
g94
g95
ssg83
g734
sg76
(lp741
S'cmd_args'
p742
asbag69
(g90
g71
NtRp743
(dp744
g74
(dp745
g101
g102
ssg83
g734
sg76
(lp746
S':'
asbag69
(g90
g71
NtRp747
(dp748
g74
(dp749
sg83
g734
sg76
(lp750
g69
(g70
g71
NtRp751
(dp752
g74
(dp753
g82
I4
ssg83
g747
sg76
(lp754
g69
(g78
g71
NtRp755
(dp756
g74
(dp757
g82
I3
ssg83
Nsg76
(lp758
sbasbasbasbag69
(g85
g71
NtRp759
(dp760
g74
(dp761
sg83
g686
sg76
(lp762
g69
(g90
g71
NtRp763
(dp764
g74
(dp765
g94
g95
ssg83
g759
sg76
(lp766
S'cmd_options'
p767
asbag69
(g90
g71
NtRp768
(dp769
g74
(dp770
g101
g102
ssg83
g759
sg76
(lp771
S':'
asbag69
(g90
g71
NtRp772
(dp773
g74
(dp774
sg83
g759
sg76
(lp775
g69
(g70
g71
NtRp776
(dp777
g74
(dp778
g82
I4
ssg83
g772
sg76
(lp779
S"<Values at 0xf245e18: {'verbose': False, 'ip': '127.0.0.1', 'with_scheduler': False, 'ips': [], 'shutdown_timeout': 5, 'taskbar': False, 'port': 8080, 'maxthreads': None, 'softcron': False, 'server_name': 'unicron.shis.uth.tmc.edu', 'bpython': False, 'nogui': False, 'pid_filename': 'httpserver.pid', 'extcron': False, 'runcron': False, 'run_system_tests': False, 'test': None, 'folder': '/home/xchen/web2py', 'config': '', 'minthreads': None, 'winservice': '', 'shell': None, 'run': '', 'log_filename': 'httpserver.log', 'debuglevel': 30, 'args': [''], 'socket_timeout': 5, 'ssl_ca_certificate': None, 'scheduler': None, 'profiler_filename': None, 'ssl_private_key': '', 'scheduler_groups': None, 'password': 'baby2008', 'request_queue_size': 5, 'ssl_certificate': '', 'cronjob': False, 'numthreads': None, 'quiet': False, 'interfaces': None, 'import_models': False, 'timeout': 10, 'plain': False, 'nobanner': False}>"
p780
asbasbasbag69
(g85
g71
NtRp781
(dp782
g74
(dp783
sg83
g686
sg76
(lp784
g69
(g90
g71
NtRp785
(dp786
g74
(dp787
g94
g95
ssg83
g781
sg76
(lp788
S'db_sessions'
p789
asbag69
(g90
g71
NtRp790
(dp791
g74
(dp792
g101
g102
ssg83
g781
sg76
(lp793
S':'
asbag69
(g90
g71
NtRp794
(dp795
g74
(dp796
sg83
g781
sg76
(lp797
g69
(g70
g71
NtRp798
(dp799
g74
(dp800
g82
I4
ssg83
g794
sg76
(lp801
S'set([])'
p802
asbasbasbag69
(g85
g71
NtRp803
(dp804
g74
(dp805
sg83
g686
sg76
(lp806
g69
(g90
g71
NtRp807
(dp808
g74
(dp809
g94
g95
ssg83
g803
sg76
(lp810
S'debugging'
p811
asbag69
(g90
g71
NtRp812
(dp813
g74
(dp814
g101
g102
ssg83
g803
sg76
(lp815
S':'
asbag69
(g90
g71
NtRp816
(dp817
g74
(dp818
sg83
g803
sg76
(lp819
g69
(g70
g71
NtRp820
(dp821
g74
(dp822
g82
I4
ssg83
g816
sg76
(lp823
g112
asbasbasbag69
(g85
g71
NtRp824
(dp825
g74
(dp826
sg83
g686
sg76
(lp827
g69
(g90
g71
NtRp828
(dp829
g74
(dp830
g94
g95
ssg83
g824
sg76
(lp831
S'gluon_parent'
p832
asbag69
(g90
g71
NtRp833
(dp834
g74
(dp835
g101
g102
ssg83
g824
sg76
(lp836
S':'
asbag69
(g90
g71
NtRp837
(dp838
g74
(dp839
sg83
g824
sg76
(lp840
g69
(g70
g71
NtRp841
(dp842
g74
(dp843
g82
I4
ssg83
g837
sg76
(lp844
S'/home/xchen/web2py'
p845
asbasbasbag69
(g85
g71
NtRp846
(dp847
g74
(dp848
sg83
g686
sg76
(lp849
g69
(g90
g71
NtRp850
(dp851
g74
(dp852
g94
g95
ssg83
g846
sg76
(lp853
S'http_accept'
p854
asbag69
(g90
g71
NtRp855
(dp856
g74
(dp857
g101
g102
ssg83
g846
sg76
(lp858
S':'
asbag69
(g90
g71
NtRp859
(dp860
g74
(dp861
sg83
g846
sg76
(lp862
g69
(g70
g71
NtRp863
(dp864
g74
(dp865
g82
I4
ssg83
g859
sg76
(lp866
S'text/html,application/xhtml+xml,application/xml;q=0.9,*/*;q=0.8'
p867
asbasbasbag69
(g85
g71
NtRp868
(dp869
g74
(dp870
sg83
g686
sg76
(lp871
g69
(g90
g71
NtRp872
(dp873
g74
(dp874
g94
g95
ssg83
g868
sg76
(lp875
S'http_accept_encoding'
p876
asbag69
(g90
g71
NtRp877
(dp878
g74
(dp879
g101
g102
ssg83
g868
sg76
(lp880
S':'
asbag69
(g90
g71
NtRp881
(dp882
g74
(dp883
sg83
g868
sg76
(lp884
g69
(g70
g71
NtRp885
(dp886
g74
(dp887
g82
I4
ssg83
g881
sg76
(lp888
S'gzip, deflate'
p889
asbasbasbag69
(g85
g71
NtRp890
(dp891
g74
(dp892
sg83
g686
sg76
(lp893
g69
(g90
g71
NtRp894
(dp895
g74
(dp896
g94
g95
ssg83
g890
sg76
(lp897
S'http_accept_language'
p898
asbag69
(g90
g71
NtRp899
(dp900
g74
(dp901
g101
g102
ssg83
g890
sg76
(lp902
S':'
asbag69
(g90
g71
NtRp903
(dp904
g74
(dp905
sg83
g890
sg76
(lp906
g69
(g70
g71
NtRp907
(dp908
g74
(dp909
g82
I4
ssg83
g903
sg76
(lp910
S'en-US,en;q=0.5'
p911
asbasbasbag69
(g85
g71
NtRp912
(dp913
g74
(dp914
sg83
g686
sg76
(lp915
g69
(g90
g71
NtRp916
(dp917
g74
(dp918
g94
g95
ssg83
g912
sg76
(lp919
S'http_connection'
p920
asbag69
(g90
g71
NtRp921
(dp922
g74
(dp923
g101
g102
ssg83
g912
sg76
(lp924
S':'
asbag69
(g90
g71
NtRp925
(dp926
g74
(dp927
sg83
g912
sg76
(lp928
g69
(g70
g71
NtRp929
(dp930
g74
(dp931
g82
I4
ssg83
g925
sg76
(lp932
S'keep-alive'
p933
asbasbasbag69
(g85
g71
NtRp934
(dp935
g74
(dp936
sg83
g686
sg76
(lp937
g69
(g90
g71
NtRp938
(dp939
g74
(dp940
g94
g95
ssg83
g934
sg76
(lp941
S'http_cookie'
p942
asbag69
(g90
g71
NtRp943
(dp944
g74
(dp945
g101
g102
ssg83
g934
sg76
(lp946
S':'
asbag69
(g90
g71
NtRp947
(dp948
g74
(dp949
sg83
g934
sg76
(lp950
g69
(g70
g71
NtRp951
(dp952
g74
(dp953
g82
I4
ssg83
g947
sg76
(lp954
S'session_id_betsy=127.0.0.1-70d52105-0f5d-4884-a4e3-dce6830f30e0; session_id_admin=127.0.0.1-10826c7c-3bd0-4d3e-9952-926f620d71a2'
p955
asbasbasbag69
(g85
g71
NtRp956
(dp957
g74
(dp958
sg83
g686
sg76
(lp959
g69
(g90
g71
NtRp960
(dp961
g74
(dp962
g94
g95
ssg83
g956
sg76
(lp963
S'http_host'
p964
asbag69
(g90
g71
NtRp965
(dp966
g74
(dp967
g101
g102
ssg83
g956
sg76
(lp968
S':'
asbag69
(g90
g71
NtRp969
(dp970
g74
(dp971
sg83
g956
sg76
(lp972
g69
(g70
g71
NtRp973
(dp974
g74
(dp975
g82
I4
ssg83
g969
sg76
(lp976
S'localhost:8080'
p977
asbasbasbag69
(g85
g71
NtRp978
(dp979
g74
(dp980
sg83
g686
sg76
(lp981
g69
(g90
g71
NtRp982
(dp983
g74
(dp984
g94
g95
ssg83
g978
sg76
(lp985
S'http_referer'
p986
asbag69
(g90
g71
NtRp987
(dp988
g74
(dp989
g101
g102
ssg83
g978
sg76
(lp990
S':'
asbag69
(g90
g71
NtRp991
(dp992
g74
(dp993
sg83
g978
sg76
(lp994
g69
(g70
g71
NtRp995
(dp996
g74
(dp997
g82
I4
ssg83
g991
sg76
(lp998
S'http://localhost:8080/Betsy/default/show_status'
p999
asbasbasbag69
(g85
g71
NtRp1000
(dp1001
g74
(dp1002
sg83
g686
sg76
(lp1003
g69
(g90
g71
NtRp1004
(dp1005
g74
(dp1006
g94
g95
ssg83
g1000
sg76
(lp1007
S'http_user_agent'
p1008
asbag69
(g90
g71
NtRp1009
(dp1010
g74
(dp1011
g101
g102
ssg83
g1000
sg76
(lp1012
S':'
asbag69
(g90
g71
NtRp1013
(dp1014
g74
(dp1015
sg83
g1000
sg76
(lp1016
g69
(g70
g71
NtRp1017
(dp1018
g74
(dp1019
g82
I4
ssg83
g1013
sg76
(lp1020
S'Mozilla/5.0 (Macintosh; Intel Mac OS X 10.6; rv:18.0) Gecko/20100101 Firefox/18.0'
p1021
asbasbasbag69
(g85
g71
NtRp1022
(dp1023
g74
(dp1024
sg83
g686
sg76
(lp1025
g69
(g90
g71
NtRp1026
(dp1027
g74
(dp1028
g94
g95
ssg83
g1022
sg76
(lp1029
S'is_jython'
p1030
asbag69
(g90
g71
NtRp1031
(dp1032
g74
(dp1033
g101
g102
ssg83
g1022
sg76
(lp1034
S':'
asbag69
(g90
g71
NtRp1035
(dp1036
g74
(dp1037
sg83
g1022
sg76
(lp1038
g69
(g70
g71
NtRp1039
(dp1040
g74
(dp1041
g82
I4
ssg83
g1035
sg76
(lp1042
g112
asbasbasbag69
(g85
g71
NtRp1043
(dp1044
g74
(dp1045
sg83
g686
sg76
(lp1046
g69
(g90
g71
NtRp1047
(dp1048
g74
(dp1049
g94
g95
ssg83
g1043
sg76
(lp1050
S'is_pypy'
p1051
asbag69
(g90
g71
NtRp1052
(dp1053
g74
(dp1054
g101
g102
ssg83
g1043
sg76
(lp1055
S':'
asbag69
(g90
g71
NtRp1056
(dp1057
g74
(dp1058
sg83
g1043
sg76
(lp1059
g69
(g70
g71
NtRp1060
(dp1061
g74
(dp1062
g82
I4
ssg83
g1056
sg76
(lp1063
g112
asbasbasbag69
(g85
g71
NtRp1064
(dp1065
g74
(dp1066
sg83
g686
sg76
(lp1067
g69
(g90
g71
NtRp1068
(dp1069
g74
(dp1070
g94
g95
ssg83
g1064
sg76
(lp1071
S'local_hosts'
p1072
asbag69
(g90
g71
NtRp1073
(dp1074
g74
(dp1075
g101
g102
ssg83
g1064
sg76
(lp1076
S':'
asbag69
(g90
g71
NtRp1077
(dp1078
g74
(dp1079
sg83
g1064
sg76
(lp1080
g69
(g70
g71
NtRp1081
(dp1082
g74
(dp1083
g82
I4
ssg83
g1077
sg76
(lp1084
g69
(g78
g71
NtRp1085
(dp1086
g74
(dp1087
g82
I3
ssg83
Nsg76
(lp1088
g69
(g85
g71
NtRp1089
(dp1090
g74
(dp1091
sg83
g1085
sg76
(lp1092
g69
(g90
g71
NtRp1093
(dp1094
g74
(dp1095
sg83
g1089
sg76
(lp1096
g69
(g70
g71
NtRp1097
(dp1098
g74
(dp1099
g82
I3
ssg83
g1093
sg76
(lp1100
S'127.0.0.1'
p1101
asbasbasbag69
(g85
g71
NtRp1102
(dp1103
g74
(dp1104
sg83
g1085
sg76
(lp1105
g69
(g90
g71
NtRp1106
(dp1107
g74
(dp1108
sg83
g1102
sg76
(lp1109
g69
(g70
g71
NtRp1110
(dp1111
g74
(dp1112
g82
I3
ssg83
g1106
sg76
(lp1113
S'::ffff:127.0.0.1'
p1114
asbasbasbag69
(g85
g71
NtRp1115
(dp1116
g74
(dp1117
sg83
g1085
sg76
(lp1118
g69
(g90
g71
NtRp1119
(dp1120
g74
(dp1121
sg83
g1115
sg76
(lp1122
g69
(g70
g71
NtRp1123
(dp1124
g74
(dp1125
g82
I3
ssg83
g1119
sg76
(lp1126
S'unicron.shis.uth.tmc.edu'
p1127
asbasbasbag69
(g85
g71
NtRp1128
(dp1129
g74
(dp1130
sg83
g1085
sg76
(lp1131
g69
(g90
g71
NtRp1132
(dp1133
g74
(dp1134
sg83
g1128
sg76
(lp1135
g69
(g70
g71
NtRp1136
(dp1137
g74
(dp1138
g82
I3
ssg83
g1132
sg76
(lp1139
S'unicron.shis.uth.tmc.edu'
p1140
asbasbasbag69
(g85
g71
NtRp1141
(dp1142
g74
(dp1143
sg83
g1085
sg76
(lp1144
g69
(g90
g71
NtRp1145
(dp1146
g74
(dp1147
sg83
g1141
sg76
(lp1148
g69
(g70
g71
NtRp1149
(dp1150
g74
(dp1151
g82
I3
ssg83
g1145
sg76
(lp1152
S'127.0.0.1'
p1153
asbasbasbasbasbasbasbag69
(g85
g71
NtRp1154
(dp1155
g74
(dp1156
sg83
g686
sg76
(lp1157
g69
(g90
g71
NtRp1158
(dp1159
g74
(dp1160
g94
g95
ssg83
g1154
sg76
(lp1161
S'path_info'
p1162
asbag69
(g90
g71
NtRp1163
(dp1164
g74
(dp1165
g101
g102
ssg83
g1154
sg76
(lp1166
S':'
asbag69
(g90
g71
NtRp1167
(dp1168
g74
(dp1169
sg83
g1154
sg76
(lp1170
g69
(g70
g71
NtRp1171
(dp1172
g74
(dp1173
g82
I4
ssg83
g1167
sg76
(lp1174
S'/Betsy/default/show_job/142'
p1175
asbasbasbag69
(g85
g71
NtRp1176
(dp1177
g74
(dp1178
sg83
g686
sg76
(lp1179
g69
(g90
g71
NtRp1180
(dp1181
g74
(dp1182
g94
g95
ssg83
g1176
sg76
(lp1183
S'query_string'
p1184
asbag69
(g90
g71
NtRp1185
(dp1186
g74
(dp1187
g101
g102
ssg83
g1176
sg76
(lp1188
S':'
asbag69
(g90
g71
NtRp1189
(dp1190
g74
(dp1191
sg83
g1176
sg76
(lp1192
g69
(g70
g71
NtRp1193
(dp1194
g74
(dp1195
g82
I4
ssg83
g1189
sg76
(lp1196
S''
asbasbasbag69
(g85
g71
NtRp1197
(dp1198
g74
(dp1199
sg83
g686
sg76
(lp1200
g69
(g90
g71
NtRp1201
(dp1202
g74
(dp1203
g94
g95
ssg83
g1197
sg76
(lp1204
S'remote_addr'
p1205
asbag69
(g90
g71
NtRp1206
(dp1207
g74
(dp1208
g101
g102
ssg83
g1197
sg76
(lp1209
S':'
asbag69
(g90
g71
NtRp1210
(dp1211
g74
(dp1212
sg83
g1197
sg76
(lp1213
g69
(g70
g71
NtRp1214
(dp1215
g74
(dp1216
g82
I4
ssg83
g1210
sg76
(lp1217
g237
asbasbasbag69
(g85
g71
NtRp1218
(dp1219
g74
(dp1220
sg83
g686
sg76
(lp1221
g69
(g90
g71
NtRp1222
(dp1223
g74
(dp1224
g94
g95
ssg83
g1218
sg76
(lp1225
S'remote_port'
p1226
asbag69
(g90
g71
NtRp1227
(dp1228
g74
(dp1229
g101
g102
ssg83
g1218
sg76
(lp1230
S':'
asbag69
(g90
g71
NtRp1231
(dp1232
g74
(dp1233
sg83
g1218
sg76
(lp1234
g69
(g70
g71
NtRp1235
(dp1236
g74
(dp1237
g82
I4
ssg83
g1231
sg76
(lp1238
S'57110'
p1239
asbasbasbag69
(g85
g71
NtRp1240
(dp1241
g74
(dp1242
sg83
g686
sg76
(lp1243
g69
(g90
g71
NtRp1244
(dp1245
g74
(dp1246
g94
g95
ssg83
g1240
sg76
(lp1247
S'request_method'
p1248
asbag69
(g90
g71
NtRp1249
(dp1250
g74
(dp1251
g101
g102
ssg83
g1240
sg76
(lp1252
S':'
asbag69
(g90
g71
NtRp1253
(dp1254
g74
(dp1255
sg83
g1240
sg76
(lp1256
g69
(g70
g71
NtRp1257
(dp1258
g74
(dp1259
g82
I4
ssg83
g1253
sg76
(lp1260
S'GET'
p1261
asbasbasbag69
(g85
g71
NtRp1262
(dp1263
g74
(dp1264
sg83
g686
sg76
(lp1265
g69
(g90
g71
NtRp1266
(dp1267
g74
(dp1268
g94
g95
ssg83
g1262
sg76
(lp1269
S'request_uri'
p1270
asbag69
(g90
g71
NtRp1271
(dp1272
g74
(dp1273
g101
g102
ssg83
g1262
sg76
(lp1274
S':'
asbag69
(g90
g71
NtRp1275
(dp1276
g74
(dp1277
sg83
g1262
sg76
(lp1278
g69
(g70
g71
NtRp1279
(dp1280
g74
(dp1281
g82
I4
ssg83
g1275
sg76
(lp1282
g1175
asbasbasbag69
(g85
g71
NtRp1283
(dp1284
g74
(dp1285
sg83
g686
sg76
(lp1286
g69
(g90
g71
NtRp1287
(dp1288
g74
(dp1289
g94
g95
ssg83
g1283
sg76
(lp1290
S'script_name'
p1291
asbag69
(g90
g71
NtRp1292
(dp1293
g74
(dp1294
g101
g102
ssg83
g1283
sg76
(lp1295
S':'
asbag69
(g90
g71
NtRp1296
(dp1297
g74
(dp1298
sg83
g1283
sg76
(lp1299
g69
(g70
g71
NtRp1300
(dp1301
g74
(dp1302
g82
I4
ssg83
g1296
sg76
(lp1303
S''
asbasbasbag69
(g85
g71
NtRp1304
(dp1305
g74
(dp1306
sg83
g686
sg76
(lp1307
g69
(g90
g71
NtRp1308
(dp1309
g74
(dp1310
g94
g95
ssg83
g1304
sg76
(lp1311
S'server_name'
p1312
asbag69
(g90
g71
NtRp1313
(dp1314
g74
(dp1315
g101
g102
ssg83
g1304
sg76
(lp1316
S':'
asbag69
(g90
g71
NtRp1317
(dp1318
g74
(dp1319
sg83
g1304
sg76
(lp1320
g69
(g70
g71
NtRp1321
(dp1322
g74
(dp1323
g82
I4
ssg83
g1317
sg76
(lp1324
g1140
asbasbasbag69
(g85
g71
NtRp1325
(dp1326
g74
(dp1327
sg83
g686
sg76
(lp1328
g69
(g90
g71
NtRp1329
(dp1330
g74
(dp1331
g94
g95
ssg83
g1325
sg76
(lp1332
S'server_port'
p1333
asbag69
(g90
g71
NtRp1334
(dp1335
g74
(dp1336
g101
g102
ssg83
g1325
sg76
(lp1337
S':'
asbag69
(g90
g71
NtRp1338
(dp1339
g74
(dp1340
sg83
g1325
sg76
(lp1341
g69
(g70
g71
NtRp1342
(dp1343
g74
(dp1344
g82
I4
ssg83
g1338
sg76
(lp1345
S'8080'
p1346
asbasbasbag69
(g85
g71
NtRp1347
(dp1348
g74
(dp1349
sg83
g686
sg76
(lp1350
g69
(g90
g71
NtRp1351
(dp1352
g74
(dp1353
g94
g95
ssg83
g1347
sg76
(lp1354
S'server_protocol'
p1355
asbag69
(g90
g71
NtRp1356
(dp1357
g74
(dp1358
g101
g102
ssg83
g1347
sg76
(lp1359
S':'
asbag69
(g90
g71
NtRp1360
(dp1361
g74
(dp1362
sg83
g1347
sg76
(lp1363
g69
(g70
g71
NtRp1364
(dp1365
g74
(dp1366
g82
I4
ssg83
g1360
sg76
(lp1367
S'HTTP/1.1'
p1368
asbasbasbag69
(g85
g71
NtRp1369
(dp1370
g74
(dp1371
sg83
g686
sg76
(lp1372
g69
(g90
g71
NtRp1373
(dp1374
g74
(dp1375
g94
g95
ssg83
g1369
sg76
(lp1376
S'server_software'
p1377
asbag69
(g90
g71
NtRp1378
(dp1379
g74
(dp1380
g101
g102
ssg83
g1369
sg76
(lp1381
S':'
asbag69
(g90
g71
NtRp1382
(dp1383
g74
(dp1384
sg83
g1369
sg76
(lp1385
g69
(g70
g71
NtRp1386
(dp1387
g74
(dp1388
g82
I4
ssg83
g1382
sg76
(lp1389
S'Rocket 1.2.5'
p1390
asbasbasbag69
(g85
g71
NtRp1391
(dp1392
g74
(dp1393
sg83
g686
sg76
(lp1394
g69
(g90
g71
NtRp1395
(dp1396
g74
(dp1397
g94
g95
ssg83
g1391
sg76
(lp1398
S'web2py_path'
p1399
asbag69
(g90
g71
NtRp1400
(dp1401
g74
(dp1402
g101
g102
ssg83
g1391
sg76
(lp1403
S':'
asbag69
(g90
g71
NtRp1404
(dp1405
g74
(dp1406
sg83
g1391
sg76
(lp1407
g69
(g70
g71
NtRp1408
(dp1409
g74
(dp1410
g82
I4
ssg83
g1404
sg76
(lp1411
g733
asbasbasbag69
(g85
g71
NtRp1412
(dp1413
g74
(dp1414
sg83
g686
sg76
(lp1415
g69
(g90
g71
NtRp1416
(dp1417
g74
(dp1418
g94
g95
ssg83
g1412
sg76
(lp1419
S'web2py_version'
p1420
asbag69
(g90
g71
NtRp1421
(dp1422
g74
(dp1423
g101
g102
ssg83
g1412
sg76
(lp1424
S':'
asbag69
(g90
g71
NtRp1425
(dp1426
g74
(dp1427
sg83
g1412
sg76
(lp1428
g69
(g70
g71
NtRp1429
(dp1430
g74
(dp1431
g82
I4
ssg83
g1425
sg76
(lp1432
g69
(g78
g71
NtRp1433
(dp1434
g74
(dp1435
g82
I3
ssg83
Nsg76
(lp1436
g69
(g85
g71
NtRp1437
(dp1438
g74
(dp1439
sg83
g1433
sg76
(lp1440
g69
(g90
g71
NtRp1441
(dp1442
g74
(dp1443
sg83
g1437
sg76
(lp1444
g69
(g70
g71
NtRp1445
(dp1446
g74
(dp1447
g82
I3
ssg83
g1441
sg76
(lp1448
S'2'
asbasbasbag69
(g85
g71
NtRp1449
(dp1450
g74
(dp1451
sg83
g1433
sg76
(lp1452
g69
(g90
g71
NtRp1453
(dp1454
g74
(dp1455
sg83
g1449
sg76
(lp1456
g69
(g70
g71
NtRp1457
(dp1458
g74
(dp1459
g82
I3
ssg83
g1453
sg76
(lp1460
S'2'
asbasbasbag69
(g85
g71
NtRp1461
(dp1462
g74
(dp1463
sg83
g1433
sg76
(lp1464
g69
(g90
g71
NtRp1465
(dp1466
g74
(dp1467
sg83
g1461
sg76
(lp1468
g69
(g70
g71
NtRp1469
(dp1470
g74
(dp1471
g82
I3
ssg83
g1465
sg76
(lp1472
S'1'
asbasbasbag69
(g85
g71
NtRp1473
(dp1474
g74
(dp1475
sg83
g1433
sg76
(lp1476
g69
(g90
g71
NtRp1477
(dp1478
g74
(dp1479
sg83
g1473
sg76
(lp1480
g69
(g70
g71
NtRp1481
(dp1482
g74
(dp1483
g82
I3
ssg83
g1477
sg76
(lp1484
S'datetime.datetime(2012, 10, 21, 16, 57, 4)'
p1485
asbasbasbag69
(g85
g71
NtRp1486
(dp1487
g74
(dp1488
sg83
g1433
sg76
(lp1489
g69
(g90
g71
NtRp1490
(dp1491
g74
(dp1492
sg83
g1486
sg76
(lp1493
g69
(g70
g71
NtRp1494
(dp1495
g74
(dp1496
g82
I3
ssg83
g1490
sg76
(lp1497
S'stable'
p1498
asbasbasbasbasbasbasbag69
(g85
g71
NtRp1499
(dp1500
g74
(dp1501
sg83
g686
sg76
(lp1502
g69
(g90
g71
NtRp1503
(dp1504
g74
(dp1505
g94
g95
ssg83
g1499
sg76
(lp1506
S'wsgi_errors'
p1507
asbag69
(g90
g71
NtRp1508
(dp1509
g74
(dp1510
g101
g102
ssg83
g1499
sg76
(lp1511
S':'
asbag69
(g90
g71
NtRp1512
(dp1513
g74
(dp1514
sg83
g1499
sg76
(lp1515
g69
(g70
g71
NtRp1516
(dp1517
g74
(dp1518
g82
I4
ssg83
g1512
sg76
(lp1519
S"<open file '<stderr>', mode 'w' at 0x2ab697210270>"
p1520
asbasbasbag69
(g85
g71
NtRp1521
(dp1522
g74
(dp1523
sg83
g686
sg76
(lp1524
g69
(g90
g71
NtRp1525
(dp1526
g74
(dp1527
g94
g95
ssg83
g1521
sg76
(lp1528
S'wsgi_file_wrapper'
p1529
asbag69
(g90
g71
NtRp1530
(dp1531
g74
(dp1532
g101
g102
ssg83
g1521
sg76
(lp1533
S':'
asbag69
(g90
g71
NtRp1534
(dp1535
g74
(dp1536
sg83
g1521
sg76
(lp1537
g69
(g70
g71
NtRp1538
(dp1539
g74
(dp1540
g82
I4
ssg83
g1534
sg76
(lp1541
S'<class wsgiref.util.FileWrapper at 0xf1a3a78>'
p1542
asbasbasbag69
(g85
g71
NtRp1543
(dp1544
g74
(dp1545
sg83
g686
sg76
(lp1546
g69
(g90
g71
NtRp1547
(dp1548
g74
(dp1549
g94
g95
ssg83
g1543
sg76
(lp1550
S'wsgi_input'
p1551
asbag69
(g90
g71
NtRp1552
(dp1553
g74
(dp1554
g101
g102
ssg83
g1543
sg76
(lp1555
S':'
asbag69
(g90
g71
NtRp1556
(dp1557
g74
(dp1558
sg83
g1543
sg76
(lp1559
g69
(g70
g71
NtRp1560
(dp1561
g74
(dp1562
g82
I4
ssg83
g1556
sg76
(lp1563
S'<socket._fileobject object at 0xf83d4d0>'
p1564
asbasbasbag69
(g85
g71
NtRp1565
(dp1566
g74
(dp1567
sg83
g686
sg76
(lp1568
g69
(g90
g71
NtRp1569
(dp1570
g74
(dp1571
g94
g95
ssg83
g1565
sg76
(lp1572
S'wsgi_multiprocess'
p1573
asbag69
(g90
g71
NtRp1574
(dp1575
g74
(dp1576
g101
g102
ssg83
g1565
sg76
(lp1577
S':'
asbag69
(g90
g71
NtRp1578
(dp1579
g74
(dp1580
sg83
g1565
sg76
(lp1581
g69
(g70
g71
NtRp1582
(dp1583
g74
(dp1584
g82
I4
ssg83
g1578
sg76
(lp1585
g112
asbasbasbag69
(g85
g71
NtRp1586
(dp1587
g74
(dp1588
sg83
g686
sg76
(lp1589
g69
(g90
g71
NtRp1590
(dp1591
g74
(dp1592
g94
g95
ssg83
g1586
sg76
(lp1593
S'wsgi_multithread'
p1594
asbag69
(g90
g71
NtRp1595
(dp1596
g74
(dp1597
g101
g102
ssg83
g1586
sg76
(lp1598
S':'
asbag69
(g90
g71
NtRp1599
(dp1600
g74
(dp1601
sg83
g1586
sg76
(lp1602
g69
(g70
g71
NtRp1603
(dp1604
g74
(dp1605
g82
I4
ssg83
g1599
sg76
(lp1606
S'True'
p1607
asbasbasbag69
(g85
g71
NtRp1608
(dp1609
g74
(dp1610
sg83
g686
sg76
(lp1611
g69
(g90
g71
NtRp1612
(dp1613
g74
(dp1614
g94
g95
ssg83
g1608
sg76
(lp1615
S'wsgi_run_once'
p1616
asbag69
(g90
g71
NtRp1617
(dp1618
g74
(dp1619
g101
g102
ssg83
g1608
sg76
(lp1620
S':'
asbag69
(g90
g71
NtRp1621
(dp1622
g74
(dp1623
sg83
g1608
sg76
(lp1624
g69
(g70
g71
NtRp1625
(dp1626
g74
(dp1627
g82
I4
ssg83
g1621
sg76
(lp1628
g112
asbasbasbag69
(g85
g71
NtRp1629
(dp1630
g74
(dp1631
sg83
g686
sg76
(lp1632
g69
(g90
g71
NtRp1633
(dp1634
g74
(dp1635
g94
g95
ssg83
g1629
sg76
(lp1636
S'wsgi_url_scheme'
p1637
asbag69
(g90
g71
NtRp1638
(dp1639
g74
(dp1640
g101
g102
ssg83
g1629
sg76
(lp1641
S':'
asbag69
(g90
g71
NtRp1642
(dp1643
g74
(dp1644
sg83
g1629
sg76
(lp1645
g69
(g70
g71
NtRp1646
(dp1647
g74
(dp1648
g82
I4
ssg83
g1642
sg76
(lp1649
S'http'
p1650
asbasbasbag69
(g85
g71
NtRp1651
(dp1652
g74
(dp1653
sg83
g686
sg76
(lp1654
g69
(g90
g71
NtRp1655
(dp1656
g74
(dp1657
g94
g95
ssg83
g1651
sg76
(lp1658
S'wsgi_version'
p1659
asbag69
(g90
g71
NtRp1660
(dp1661
g74
(dp1662
g101
g102
ssg83
g1651
sg76
(lp1663
S':'
asbag69
(g90
g71
NtRp1664
(dp1665
g74
(dp1666
sg83
g1651
sg76
(lp1667
g69
(g70
g71
NtRp1668
(dp1669
g74
(dp1670
g82
I4
ssg83
g1664
sg76
(lp1671
g69
(g78
g71
NtRp1672
(dp1673
g74
(dp1674
g82
I3
ssg83
Nsg76
(lp1675
g69
(g85
g71
NtRp1676
(dp1677
g74
(dp1678
sg83
g1672
sg76
(lp1679
g69
(g90
g71
NtRp1680
(dp1681
g74
(dp1682
sg83
g1676
sg76
(lp1683
g69
(g70
g71
NtRp1684
(dp1685
g74
(dp1686
g82
I3
ssg83
g1680
sg76
(lp1687
S'1'
asbasbasbag69
(g85
g71
NtRp1688
(dp1689
g74
(dp1690
sg83
g1672
sg76
(lp1691
g69
(g90
g71
NtRp1692
(dp1693
g74
(dp1694
sg83
g1688
sg76
(lp1695
g69
(g70
g71
NtRp1696
(dp1697
g74
(dp1698
g82
I3
ssg83
g1692
sg76
(lp1699
S'0'
asbasbasbasbasbasbasbasbasbasbasbag69
(g85
g71
NtRp1700
(dp1701
g74
(dp1702
sg83
g79
sg76
(lp1703
g69
(g90
g71
NtRp1704
(dp1705
g74
(dp1706
g94
g95
ssg83
g1700
sg76
(lp1707
S'extension'
p1708
asbag69
(g90
g71
NtRp1709
(dp1710
g74
(dp1711
g101
g102
ssg83
g1700
sg76
(lp1712
S':'
asbag69
(g90
g71
NtRp1713
(dp1714
g74
(dp1715
sg83
g1700
sg76
(lp1716
g69
(g70
g71
NtRp1717
(dp1718
g74
(dp1719
g82
I5
ssg83
g1713
sg76
(lp1720
S'html'
p1721
asbasbasbag69
(g85
g71
NtRp1722
(dp1723
g74
(dp1724
sg83
g79
sg76
(lp1725
g69
(g90
g71
NtRp1726
(dp1727
g74
(dp1728
g94
g95
ssg83
g1722
sg76
(lp1729
S'folder'
p1730
asbag69
(g90
g71
NtRp1731
(dp1732
g74
(dp1733
g101
g102
ssg83
g1722
sg76
(lp1734
S':'
asbag69
(g90
g71
NtRp1735
(dp1736
g74
(dp1737
sg83
g1722
sg76
(lp1738
g69
(g70
g71
NtRp1739
(dp1740
g74
(dp1741
g82
I5
ssg83
g1735
sg76
(lp1742
S'/home/xchen/web2py/applications/Betsy/'
p1743
asbasbasbag69
(g85
g71
NtRp1744
(dp1745
g74
(dp1746
sg83
g79
sg76
(lp1747
g69
(g90
g71
NtRp1748
(dp1749
g74
(dp1750
g94
g95
ssg83
g1744
sg76
(lp1751
S'function'
p1752
asbag69
(g90
g71
NtRp1753
(dp1754
g74
(dp1755
g101
g102
ssg83
g1744
sg76
(lp1756
S':'
asbag69
(g90
g71
NtRp1757
(dp1758
g74
(dp1759
sg83
g1744
sg76
(lp1760
g69
(g70
g71
NtRp1761
(dp1762
g74
(dp1763
g82
I5
ssg83
g1757
sg76
(lp1764
S'show_job'
p1765
asbasbasbag69
(g85
g71
NtRp1766
(dp1767
g74
(dp1768
sg83
g79
sg76
(lp1769
g69
(g90
g71
NtRp1770
(dp1771
g74
(dp1772
g94
g95
ssg83
g1766
sg76
(lp1773
S'get_vars'
p1774
asbag69
(g90
g71
NtRp1775
(dp1776
g74
(dp1777
g101
g102
ssg83
g1766
sg76
(lp1778
S':'
asbag69
(g90
g71
NtRp1779
(dp1780
g74
(dp1781
sg83
g1766
sg76
(lp1782
g69
(g70
g71
NtRp1783
(dp1784
g74
(dp1785
g82
I5
ssg83
g1779
sg76
(lp1786
g69
(g78
g71
NtRp1787
(dp1788
g74
(dp1789
g82
I4
ssg83
Nsg76
(lp1790
sbasbasbasbag69
(g85
g71
NtRp1791
(dp1792
g74
(dp1793
sg83
g79
sg76
(lp1794
g69
(g90
g71
NtRp1795
(dp1796
g74
(dp1797
g94
g95
ssg83
g1791
sg76
(lp1798
S'global_settings'
p1799
asbag69
(g90
g71
NtRp1800
(dp1801
g74
(dp1802
g101
g102
ssg83
g1791
sg76
(lp1803
S':'
asbag69
(g90
g71
NtRp1804
(dp1805
g74
(dp1806
sg83
g1791
sg76
(lp1807
g69
(g70
g71
NtRp1808
(dp1809
g74
(dp1810
g82
I5
ssg83
g1804
sg76
(lp1811
g69
(g78
g71
NtRp1812
(dp1813
g74
(dp1814
g82
I4
ssg83
Nsg76
(lp1815
g69
(g85
g71
NtRp1816
(dp1817
g74
(dp1818
sg83
g1812
sg76
(lp1819
g69
(g90
g71
NtRp1820
(dp1821
g74
(dp1822
g94
g95
ssg83
g1816
sg76
(lp1823
g698
asbag69
(g90
g71
NtRp1824
(dp1825
g74
(dp1826
g101
g102
ssg83
g1816
sg76
(lp1827
S':'
asbag69
(g90
g71
NtRp1828
(dp1829
g74
(dp1830
sg83
g1816
sg76
(lp1831
g69
(g70
g71
NtRp1832
(dp1833
g74
(dp1834
g82
I4
ssg83
g1828
sg76
(lp1835
S"set(['/home/xchen/web2py/applications/Betsy/', '/home/xchen/web2py/applications/admin/'])"
p1836
asbasbasbag69
(g85
g71
NtRp1837
(dp1838
g74
(dp1839
sg83
g1812
sg76
(lp1840
g69
(g90
g71
NtRp1841
(dp1842
g74
(dp1843
g94
g95
ssg83
g1837
sg76
(lp1844
g720
asbag69
(g90
g71
NtRp1845
(dp1846
g74
(dp1847
g101
g102
ssg83
g1837
sg76
(lp1848
S':'
asbag69
(g90
g71
NtRp1849
(dp1850
g74
(dp1851
sg83
g1837
sg76
(lp1852
g69
(g70
g71
NtRp1853
(dp1854
g74
(dp1855
g82
I4
ssg83
g1849
sg76
(lp1856
g733
asbasbasbag69
(g85
g71
NtRp1857
(dp1858
g74
(dp1859
sg83
g1812
sg76
(lp1860
g69
(g90
g71
NtRp1861
(dp1862
g74
(dp1863
g94
g95
ssg83
g1857
sg76
(lp1864
g742
asbag69
(g90
g71
NtRp1865
(dp1866
g74
(dp1867
g101
g102
ssg83
g1857
sg76
(lp1868
S':'
asbag69
(g90
g71
NtRp1869
(dp1870
g74
(dp1871
sg83
g1857
sg76
(lp1872
g69
(g70
g71
NtRp1873
(dp1874
g74
(dp1875
g82
I4
ssg83
g1869
sg76
(lp1876
g69
(g78
g71
NtRp1877
(dp1878
g74
(dp1879
g82
I3
ssg83
Nsg76
(lp1880
sbasbasbasbag69
(g85
g71
NtRp1881
(dp1882
g74
(dp1883
sg83
g1812
sg76
(lp1884
g69
(g90
g71
NtRp1885
(dp1886
g74
(dp1887
g94
g95
ssg83
g1881
sg76
(lp1888
g767
asbag69
(g90
g71
NtRp1889
(dp1890
g74
(dp1891
g101
g102
ssg83
g1881
sg76
(lp1892
S':'
asbag69
(g90
g71
NtRp1893
(dp1894
g74
(dp1895
sg83
g1881
sg76
(lp1896
g69
(g70
g71
NtRp1897
(dp1898
g74
(dp1899
g82
I4
ssg83
g1893
sg76
(lp1900
S"<Values at 0xf245e18: {'verbose': False, 'ip': '127.0.0.1', 'with_scheduler': False, 'ips': [], 'shutdown_timeout': 5, 'taskbar': False, 'port': 8080, 'maxthreads': None, 'softcron': False, 'server_name': 'unicron.shis.uth.tmc.edu', 'bpython': False, 'nogui': False, 'pid_filename': 'httpserver.pid', 'extcron': False, 'runcron': False, 'run_system_tests': False, 'test': None, 'folder': '/home/xchen/web2py', 'config': '', 'minthreads': None, 'winservice': '', 'shell': None, 'run': '', 'log_filename': 'httpserver.log', 'debuglevel': 30, 'args': [''], 'socket_timeout': 5, 'ssl_ca_certificate': None, 'scheduler': None, 'profiler_filename': None, 'ssl_private_key': '', 'scheduler_groups': None, 'password': 'baby2008', 'request_queue_size': 5, 'ssl_certificate': '', 'cronjob': False, 'numthreads': None, 'quiet': False, 'interfaces': None, 'import_models': False, 'timeout': 10, 'plain': False, 'nobanner': False}>"
p1901
asbasbasbag69
(g85
g71
NtRp1902
(dp1903
g74
(dp1904
sg83
g1812
sg76
(lp1905
g69
(g90
g71
NtRp1906
(dp1907
g74
(dp1908
g94
g95
ssg83
g1902
sg76
(lp1909
g789
asbag69
(g90
g71
NtRp1910
(dp1911
g74
(dp1912
g101
g102
ssg83
g1902
sg76
(lp1913
S':'
asbag69
(g90
g71
NtRp1914
(dp1915
g74
(dp1916
sg83
g1902
sg76
(lp1917
g69
(g70
g71
NtRp1918
(dp1919
g74
(dp1920
g82
I4
ssg83
g1914
sg76
(lp1921
S'set([])'
p1922
asbasbasbag69
(g85
g71
NtRp1923
(dp1924
g74
(dp1925
sg83
g1812
sg76
(lp1926
g69
(g90
g71
NtRp1927
(dp1928
g74
(dp1929
g94
g95
ssg83
g1923
sg76
(lp1930
g811
asbag69
(g90
g71
NtRp1931
(dp1932
g74
(dp1933
g101
g102
ssg83
g1923
sg76
(lp1934
S':'
asbag69
(g90
g71
NtRp1935
(dp1936
g74
(dp1937
sg83
g1923
sg76
(lp1938
g69
(g70
g71
NtRp1939
(dp1940
g74
(dp1941
g82
I4
ssg83
g1935
sg76
(lp1942
g112
asbasbasbag69
(g85
g71
NtRp1943
(dp1944
g74
(dp1945
sg83
g1812
sg76
(lp1946
g69
(g90
g71
NtRp1947
(dp1948
g74
(dp1949
g94
g95
ssg83
g1943
sg76
(lp1950
g832
asbag69
(g90
g71
NtRp1951
(dp1952
g74
(dp1953
g101
g102
ssg83
g1943
sg76
(lp1954
S':'
asbag69
(g90
g71
NtRp1955
(dp1956
g74
(dp1957
sg83
g1943
sg76
(lp1958
g69
(g70
g71
NtRp1959
(dp1960
g74
(dp1961
g82
I4
ssg83
g1955
sg76
(lp1962
g845
asbasbasbag69
(g85
g71
NtRp1963
(dp1964
g74
(dp1965
sg83
g1812
sg76
(lp1966
g69
(g90
g71
NtRp1967
(dp1968
g74
(dp1969
g94
g95
ssg83
g1963
sg76
(lp1970
g1030
asbag69
(g90
g71
NtRp1971
(dp1972
g74
(dp1973
g101
g102
ssg83
g1963
sg76
(lp1974
S':'
asbag69
(g90
g71
NtRp1975
(dp1976
g74
(dp1977
sg83
g1963
sg76
(lp1978
g69
(g70
g71
NtRp1979
(dp1980
g74
(dp1981
g82
I4
ssg83
g1975
sg76
(lp1982
g112
asbasbasbag69
(g85
g71
NtRp1983
(dp1984
g74
(dp1985
sg83
g1812
sg76
(lp1986
g69
(g90
g71
NtRp1987
(dp1988
g74
(dp1989
g94
g95
ssg83
g1983
sg76
(lp1990
g1051
asbag69
(g90
g71
NtRp1991
(dp1992
g74
(dp1993
g101
g102
ssg83
g1983
sg76
(lp1994
S':'
asbag69
(g90
g71
NtRp1995
(dp1996
g74
(dp1997
sg83
g1983
sg76
(lp1998
g69
(g70
g71
NtRp1999
(dp2000
g74
(dp2001
g82
I4
ssg83
g1995
sg76
(lp2002
g112
asbasbasbag69
(g85
g71
NtRp2003
(dp2004
g74
(dp2005
sg83
g1812
sg76
(lp2006
g69
(g90
g71
NtRp2007
(dp2008
g74
(dp2009
g94
g95
ssg83
g2003
sg76
(lp2010
g1072
asbag69
(g90
g71
NtRp2011
(dp2012
g74
(dp2013
g101
g102
ssg83
g2003
sg76
(lp2014
S':'
asbag69
(g90
g71
NtRp2015
(dp2016
g74
(dp2017
sg83
g2003
sg76
(lp2018
g69
(g70
g71
NtRp2019
(dp2020
g74
(dp2021
g82
I4
ssg83
g2015
sg76
(lp2022
g69
(g78
g71
NtRp2023
(dp2024
g74
(dp2025
g82
I3
ssg83
Nsg76
(lp2026
g69
(g85
g71
NtRp2027
(dp2028
g74
(dp2029
sg83
g2023
sg76
(lp2030
g69
(g90
g71
NtRp2031
(dp2032
g74
(dp2033
sg83
g2027
sg76
(lp2034
g69
(g70
g71
NtRp2035
(dp2036
g74
(dp2037
g82
I3
ssg83
g2031
sg76
(lp2038
g1101
asbasbasbag69
(g85
g71
NtRp2039
(dp2040
g74
(dp2041
sg83
g2023
sg76
(lp2042
g69
(g90
g71
NtRp2043
(dp2044
g74
(dp2045
sg83
g2039
sg76
(lp2046
g69
(g70
g71
NtRp2047
(dp2048
g74
(dp2049
g82
I3
ssg83
g2043
sg76
(lp2050
g1114
asbasbasbag69
(g85
g71
NtRp2051
(dp2052
g74
(dp2053
sg83
g2023
sg76
(lp2054
g69
(g90
g71
NtRp2055
(dp2056
g74
(dp2057
sg83
g2051
sg76
(lp2058
g69
(g70
g71
NtRp2059
(dp2060
g74
(dp2061
g82
I3
ssg83
g2055
sg76
(lp2062
g1127
asbasbasbag69
(g85
g71
NtRp2063
(dp2064
g74
(dp2065
sg83
g2023
sg76
(lp2066
g69
(g90
g71
NtRp2067
(dp2068
g74
(dp2069
sg83
g2063
sg76
(lp2070
g69
(g70
g71
NtRp2071
(dp2072
g74
(dp2073
g82
I3
ssg83
g2067
sg76
(lp2074
g1140
asbasbasbag69
(g85
g71
NtRp2075
(dp2076
g74
(dp2077
sg83
g2023
sg76
(lp2078
g69
(g90
g71
NtRp2079
(dp2080
g74
(dp2081
sg83
g2075
sg76
(lp2082
g69
(g70
g71
NtRp2083
(dp2084
g74
(dp2085
g82
I3
ssg83
g2079
sg76
(lp2086
g1153
asbasbasbasbasbasbasbag69
(g85
g71
NtRp2087
(dp2088
g74
(dp2089
sg83
g1812
sg76
(lp2090
g69
(g90
g71
NtRp2091
(dp2092
g74
(dp2093
g94
g95
ssg83
g2087
sg76
(lp2094
g1420
asbag69
(g90
g71
NtRp2095
(dp2096
g74
(dp2097
g101
g102
ssg83
g2087
sg76
(lp2098
S':'
asbag69
(g90
g71
NtRp2099
(dp2100
g74
(dp2101
sg83
g2087
sg76
(lp2102
g69
(g70
g71
NtRp2103
(dp2104
g74
(dp2105
g82
I4
ssg83
g2099
sg76
(lp2106
g69
(g78
g71
NtRp2107
(dp2108
g74
(dp2109
g82
I3
ssg83
Nsg76
(lp2110
g69
(g85
g71
NtRp2111
(dp2112
g74
(dp2113
sg83
g2107
sg76
(lp2114
g69
(g90
g71
NtRp2115
(dp2116
g74
(dp2117
sg83
g2111
sg76
(lp2118
g69
(g70
g71
NtRp2119
(dp2120
g74
(dp2121
g82
I3
ssg83
g2115
sg76
(lp2122
S'2'
asbasbasbag69
(g85
g71
NtRp2123
(dp2124
g74
(dp2125
sg83
g2107
sg76
(lp2126
g69
(g90
g71
NtRp2127
(dp2128
g74
(dp2129
sg83
g2123
sg76
(lp2130
g69
(g70
g71
NtRp2131
(dp2132
g74
(dp2133
g82
I3
ssg83
g2127
sg76
(lp2134
S'2'
asbasbasbag69
(g85
g71
NtRp2135
(dp2136
g74
(dp2137
sg83
g2107
sg76
(lp2138
g69
(g90
g71
NtRp2139
(dp2140
g74
(dp2141
sg83
g2135
sg76
(lp2142
g69
(g70
g71
NtRp2143
(dp2144
g74
(dp2145
g82
I3
ssg83
g2139
sg76
(lp2146
S'1'
asbasbasbag69
(g85
g71
NtRp2147
(dp2148
g74
(dp2149
sg83
g2107
sg76
(lp2150
g69
(g90
g71
NtRp2151
(dp2152
g74
(dp2153
sg83
g2147
sg76
(lp2154
g69
(g70
g71
NtRp2155
(dp2156
g74
(dp2157
g82
I3
ssg83
g2151
sg76
(lp2158
S'datetime.datetime(2012, 10, 21, 16, 57, 4)'
p2159
asbasbasbag69
(g85
g71
NtRp2160
(dp2161
g74
(dp2162
sg83
g2107
sg76
(lp2163
g69
(g90
g71
NtRp2164
(dp2165
g74
(dp2166
sg83
g2160
sg76
(lp2167
g69
(g70
g71
NtRp2168
(dp2169
g74
(dp2170
g82
I3
ssg83
g2164
sg76
(lp2171
g1498
asbasbasbasbasbasbasbasbasbasbasbag69
(g85
g71
NtRp2172
(dp2173
g74
(dp2174
sg83
g79
sg76
(lp2175
g69
(g90
g71
NtRp2176
(dp2177
g74
(dp2178
g94
g95
ssg83
g2172
sg76
(lp2179
S'is_https'
p2180
asbag69
(g90
g71
NtRp2181
(dp2182
g74
(dp2183
g101
g102
ssg83
g2172
sg76
(lp2184
S':'
asbag69
(g90
g71
NtRp2185
(dp2186
g74
(dp2187
sg83
g2172
sg76
(lp2188
g69
(g70
g71
NtRp2189
(dp2190
g74
(dp2191
g82
I5
ssg83
g2185
sg76
(lp2192
g112
asbasbasbag69
(g85
g71
NtRp2193
(dp2194
g74
(dp2195
sg83
g79
sg76
(lp2196
g69
(g90
g71
NtRp2197
(dp2198
g74
(dp2199
g94
g95
ssg83
g2193
sg76
(lp2200
S'is_local'
p2201
asbag69
(g90
g71
NtRp2202
(dp2203
g74
(dp2204
g101
g102
ssg83
g2193
sg76
(lp2205
S':'
asbag69
(g90
g71
NtRp2206
(dp2207
g74
(dp2208
sg83
g2193
sg76
(lp2209
g69
(g70
g71
NtRp2210
(dp2211
g74
(dp2212
g82
I5
ssg83
g2206
sg76
(lp2213
g1607
asbasbasbag69
(g85
g71
NtRp2214
(dp2215
g74
(dp2216
sg83
g79
sg76
(lp2217
g69
(g90
g71
NtRp2218
(dp2219
g74
(dp2220
g94
g95
ssg83
g2214
sg76
(lp2221
S'is_restful'
p2222
asbag69
(g90
g71
NtRp2223
(dp2224
g74
(dp2225
g101
g102
ssg83
g2214
sg76
(lp2226
S':'
asbag69
(g90
g71
NtRp2227
(dp2228
g74
(dp2229
sg83
g2214
sg76
(lp2230
g69
(g70
g71
NtRp2231
(dp2232
g74
(dp2233
g82
I5
ssg83
g2227
sg76
(lp2234
g112
asbasbasbag69
(g85
g71
NtRp2235
(dp2236
g74
(dp2237
sg83
g79
sg76
(lp2238
g69
(g90
g71
NtRp2239
(dp2240
g74
(dp2241
g94
g95
ssg83
g2235
sg76
(lp2242
S'now'
p2243
asbag69
(g90
g71
NtRp2244
(dp2245
g74
(dp2246
g101
g102
ssg83
g2235
sg76
(lp2247
S':'
asbag69
(g90
g71
NtRp2248
(dp2249
g74
(dp2250
sg83
g2235
sg76
(lp2251
g69
(g70
g71
NtRp2252
(dp2253
g74
(dp2254
g82
I5
ssg83
g2248
sg76
(lp2255
S'datetime.datetime(2013, 2, 8, 10, 36, 52, 368420)'
p2256
asbasbasbag69
(g85
g71
NtRp2257
(dp2258
g74
(dp2259
sg83
g79
sg76
(lp2260
g69
(g90
g71
NtRp2261
(dp2262
g74
(dp2263
g94
g95
ssg83
g2257
sg76
(lp2264
S'post_vars'
p2265
asbag69
(g90
g71
NtRp2266
(dp2267
g74
(dp2268
g101
g102
ssg83
g2257
sg76
(lp2269
S':'
asbag69
(g90
g71
NtRp2270
(dp2271
g74
(dp2272
sg83
g2257
sg76
(lp2273
g69
(g70
g71
NtRp2274
(dp2275
g74
(dp2276
g82
I5
ssg83
g2270
sg76
(lp2277
g69
(g78
g71
NtRp2278
(dp2279
g74
(dp2280
g82
I4
ssg83
Nsg76
(lp2281
sbasbasbasbag69
(g85
g71
NtRp2282
(dp2283
g74
(dp2284
sg83
g79
sg76
(lp2285
g69
(g90
g71
NtRp2286
(dp2287
g74
(dp2288
g94
g95
ssg83
g2282
sg76
(lp2289
S'raw_args'
p2290
asbag69
(g90
g71
NtRp2291
(dp2292
g74
(dp2293
g101
g102
ssg83
g2282
sg76
(lp2294
S':'
asbag69
(g90
g71
NtRp2295
(dp2296
g74
(dp2297
sg83
g2282
sg76
(lp2298
g69
(g70
g71
NtRp2299
(dp2300
g74
(dp2301
g82
I5
ssg83
g2295
sg76
(lp2302
S'/142'
p2303
asbasbasbag69
(g85
g71
NtRp2304
(dp2305
g74
(dp2306
sg83
g79
sg76
(lp2307
g69
(g90
g71
NtRp2308
(dp2309
g74
(dp2310
g94
g95
ssg83
g2304
sg76
(lp2311
S'raw_extension'
p2312
asbag69
(g90
g71
NtRp2313
(dp2314
g74
(dp2315
g101
g102
ssg83
g2304
sg76
(lp2316
S':'
asbag69
(g90
g71
NtRp2317
(dp2318
g74
(dp2319
sg83
g2304
sg76
(lp2320
g69
(g70
g71
NtRp2321
(dp2322
g74
(dp2323
g82
I5
ssg83
g2317
sg76
(lp2324
S'None'
p2325
asbasbasbag69
(g85
g71
NtRp2326
(dp2327
g74
(dp2328
sg83
g79
sg76
(lp2329
g69
(g90
g71
NtRp2330
(dp2331
g74
(dp2332
g94
g95
ssg83
g2326
sg76
(lp2333
S'url'
p2334
asbag69
(g90
g71
NtRp2335
(dp2336
g74
(dp2337
g101
g102
ssg83
g2326
sg76
(lp2338
S':'
asbag69
(g90
g71
NtRp2339
(dp2340
g74
(dp2341
sg83
g2326
sg76
(lp2342
g69
(g70
g71
NtRp2343
(dp2344
g74
(dp2345
g82
I5
ssg83
g2339
sg76
(lp2346
g1175
asbasbasbag69
(g85
g71
NtRp2347
(dp2348
g74
(dp2349
sg83
g79
sg76
(lp2350
g69
(g90
g71
NtRp2351
(dp2352
g74
(dp2353
g94
g95
ssg83
g2347
sg76
(lp2354
S'utcnow'
p2355
asbag69
(g90
g71
NtRp2356
(dp2357
g74
(dp2358
g101
g102
ssg83
g2347
sg76
(lp2359
S':'
asbag69
(g90
g71
NtRp2360
(dp2361
g74
(dp2362
sg83
g2347
sg76
(lp2363
g69
(g70
g71
NtRp2364
(dp2365
g74
(dp2366
g82
I5
ssg83
g2360
sg76
(lp2367
S'datetime.datetime(2013, 2, 8, 16, 36, 52, 368426)'
p2368
asbasbasbag69
(g85
g71
NtRp2369
(dp2370
g74
(dp2371
sg83
g79
sg76
(lp2372
g69
(g90
g71
NtRp2373
(dp2374
g74
(dp2375
g94
g95
ssg83
g2369
sg76
(lp2376
S'uuid'
p2377
asbag69
(g90
g71
NtRp2378
(dp2379
g74
(dp2380
g101
g102
ssg83
g2369
sg76
(lp2381
S':'
asbag69
(g90
g71
NtRp2382
(dp2383
g74
(dp2384
sg83
g2369
sg76
(lp2385
g69
(g70
g71
NtRp2386
(dp2387
g74
(dp2388
g82
I5
ssg83
g2382
sg76
(lp2389
S'Betsy/127.0.0.1.2013-02-08.10-36-52.044ae62c-2055-4056-bd49-7c87fea470f9'
p2390
asbasbasbag69
(g85
g71
NtRp2391
(dp2392
g74
(dp2393
sg83
g79
sg76
(lp2394
g69
(g90
g71
NtRp2395
(dp2396
g74
(dp2397
g94
g95
ssg83
g2391
sg76
(lp2398
S'vars'
p2399
asbag69
(g90
g71
NtRp2400
(dp2401
g74
(dp2402
g101
g102
ssg83
g2391
sg76
(lp2403
S':'
asbag69
(g90
g71
NtRp2404
(dp2405
g74
(dp2406
sg83
g2391
sg76
(lp2407
g69
(g70
g71
NtRp2408
(dp2409
g74
(dp2410
g82
I5
ssg83
g2404
sg76
(lp2411
g69
(g78
g71
NtRp2412
(dp2413
g74
(dp2414
g82
I4
ssg83
Nsg76
(lp2415
sbasbasbasbag69
(g85
g71
NtRp2416
(dp2417
g74
(dp2418
sg83
g79
sg76
(lp2419
g69
(g90
g71
NtRp2420
(dp2421
g74
(dp2422
g94
g95
ssg83
g2416
sg76
(lp2423
S'wsgi'
p2424
asbag69
(g90
g71
NtRp2425
(dp2426
g74
(dp2427
g101
g102
ssg83
g2416
sg76
(lp2428
S':'
asbag69
(g90
g71
NtRp2429
(dp2430
g74
(dp2431
sg83
g2416
sg76
(lp2432
g69
(g70
g71
NtRp2433
(dp2434
g74
(dp2435
g82
I5
ssg83
g2429
sg76
(lp2436
g69
(g78
g71
NtRp2437
(dp2438
g74
(dp2439
g82
I4
ssg83
Nsg76
(lp2440
g69
(g85
g71
NtRp2441
(dp2442
g74
(dp2443
sg83
g2437
sg76
(lp2444
g69
(g90
g71
NtRp2445
(dp2446
g74
(dp2447
g94
g95
ssg83
g2441
sg76
(lp2448
S'environ'
p2449
asbag69
(g90
g71
NtRp2450
(dp2451
g74
(dp2452
g101
g102
ssg83
g2441
sg76
(lp2453
S':'
asbag69
(g90
g71
NtRp2454
(dp2455
g74
(dp2456
sg83
g2441
sg76
(lp2457
g69
(g70
g71
NtRp2458
(dp2459
g74
(dp2460
g82
I4
ssg83
g2454
sg76
(lp2461
g69
(g78
g71
NtRp2462
(dp2463
g74
(dp2464
g82
I3
ssg83
Nsg76
(lp2465
g69
(g85
g71
NtRp2466
(dp2467
g74
(dp2468
sg83
g2462
sg76
(lp2469
g69
(g90
g71
NtRp2470
(dp2471
g74
(dp2472
g94
g95
ssg83
g2466
sg76
(lp2473
S'HTTP_ACCEPT'
p2474
asbag69
(g90
g71
NtRp2475
(dp2476
g74
(dp2477
g101
g102
ssg83
g2466
sg76
(lp2478
S':'
asbag69
(g90
g71
NtRp2479
(dp2480
g74
(dp2481
sg83
g2466
sg76
(lp2482
g69
(g70
g71
NtRp2483
(dp2484
g74
(dp2485
g82
I3
ssg83
g2479
sg76
(lp2486
g867
asbasbasbag69
(g85
g71
NtRp2487
(dp2488
g74
(dp2489
sg83
g2462
sg76
(lp2490
g69
(g90
g71
NtRp2491
(dp2492
g74
(dp2493
g94
g95
ssg83
g2487
sg76
(lp2494
S'HTTP_ACCEPT_ENCODING'
p2495
asbag69
(g90
g71
NtRp2496
(dp2497
g74
(dp2498
g101
g102
ssg83
g2487
sg76
(lp2499
S':'
asbag69
(g90
g71
NtRp2500
(dp2501
g74
(dp2502
sg83
g2487
sg76
(lp2503
g69
(g70
g71
NtRp2504
(dp2505
g74
(dp2506
g82
I3
ssg83
g2500
sg76
(lp2507
g889
asbasbasbag69
(g85
g71
NtRp2508
(dp2509
g74
(dp2510
sg83
g2462
sg76
(lp2511
g69
(g90
g71
NtRp2512
(dp2513
g74
(dp2514
g94
g95
ssg83
g2508
sg76
(lp2515
S'HTTP_ACCEPT_LANGUAGE'
p2516
asbag69
(g90
g71
NtRp2517
(dp2518
g74
(dp2519
g101
g102
ssg83
g2508
sg76
(lp2520
S':'
asbag69
(g90
g71
NtRp2521
(dp2522
g74
(dp2523
sg83
g2508
sg76
(lp2524
g69
(g70
g71
NtRp2525
(dp2526
g74
(dp2527
g82
I3
ssg83
g2521
sg76
(lp2528
g911
asbasbasbag69
(g85
g71
NtRp2529
(dp2530
g74
(dp2531
sg83
g2462
sg76
(lp2532
g69
(g90
g71
NtRp2533
(dp2534
g74
(dp2535
g94
g95
ssg83
g2529
sg76
(lp2536
S'HTTP_CONNECTION'
p2537
asbag69
(g90
g71
NtRp2538
(dp2539
g74
(dp2540
g101
g102
ssg83
g2529
sg76
(lp2541
S':'
asbag69
(g90
g71
NtRp2542
(dp2543
g74
(dp2544
sg83
g2529
sg76
(lp2545
g69
(g70
g71
NtRp2546
(dp2547
g74
(dp2548
g82
I3
ssg83
g2542
sg76
(lp2549
g933
asbasbasbag69
(g85
g71
NtRp2550
(dp2551
g74
(dp2552
sg83
g2462
sg76
(lp2553
g69
(g90
g71
NtRp2554
(dp2555
g74
(dp2556
g94
g95
ssg83
g2550
sg76
(lp2557
S'HTTP_COOKIE'
p2558
asbag69
(g90
g71
NtRp2559
(dp2560
g74
(dp2561
g101
g102
ssg83
g2550
sg76
(lp2562
S':'
asbag69
(g90
g71
NtRp2563
(dp2564
g74
(dp2565
sg83
g2550
sg76
(lp2566
g69
(g70
g71
NtRp2567
(dp2568
g74
(dp2569
g82
I3
ssg83
g2563
sg76
(lp2570
g955
asbasbasbag69
(g85
g71
NtRp2571
(dp2572
g74
(dp2573
sg83
g2462
sg76
(lp2574
g69
(g90
g71
NtRp2575
(dp2576
g74
(dp2577
g94
g95
ssg83
g2571
sg76
(lp2578
S'HTTP_HOST'
p2579
asbag69
(g90
g71
NtRp2580
(dp2581
g74
(dp2582
g101
g102
ssg83
g2571
sg76
(lp2583
S':'
asbag69
(g90
g71
NtRp2584
(dp2585
g74
(dp2586
sg83
g2571
sg76
(lp2587
g69
(g70
g71
NtRp2588
(dp2589
g74
(dp2590
g82
I3
ssg83
g2584
sg76
(lp2591
g977
asbasbasbag69
(g85
g71
NtRp2592
(dp2593
g74
(dp2594
sg83
g2462
sg76
(lp2595
g69
(g90
g71
NtRp2596
(dp2597
g74
(dp2598
g94
g95
ssg83
g2592
sg76
(lp2599
S'HTTP_REFERER'
p2600
asbag69
(g90
g71
NtRp2601
(dp2602
g74
(dp2603
g101
g102
ssg83
g2592
sg76
(lp2604
S':'
asbag69
(g90
g71
NtRp2605
(dp2606
g74
(dp2607
sg83
g2592
sg76
(lp2608
g69
(g70
g71
NtRp2609
(dp2610
g74
(dp2611
g82
I3
ssg83
g2605
sg76
(lp2612
g999
asbasbasbag69
(g85
g71
NtRp2613
(dp2614
g74
(dp2615
sg83
g2462
sg76
(lp2616
g69
(g90
g71
NtRp2617
(dp2618
g74
(dp2619
g94
g95
ssg83
g2613
sg76
(lp2620
S'HTTP_USER_AGENT'
p2621
asbag69
(g90
g71
NtRp2622
(dp2623
g74
(dp2624
g101
g102
ssg83
g2613
sg76
(lp2625
S':'
asbag69
(g90
g71
NtRp2626
(dp2627
g74
(dp2628
sg83
g2613
sg76
(lp2629
g69
(g70
g71
NtRp2630
(dp2631
g74
(dp2632
g82
I3
ssg83
g2626
sg76
(lp2633
g1021
asbasbasbag69
(g85
g71
NtRp2634
(dp2635
g74
(dp2636
sg83
g2462
sg76
(lp2637
g69
(g90
g71
NtRp2638
(dp2639
g74
(dp2640
g94
g95
ssg83
g2634
sg76
(lp2641
S'PATH_INFO'
p2642
asbag69
(g90
g71
NtRp2643
(dp2644
g74
(dp2645
g101
g102
ssg83
g2634
sg76
(lp2646
S':'
asbag69
(g90
g71
NtRp2647
(dp2648
g74
(dp2649
sg83
g2634
sg76
(lp2650
g69
(g70
g71
NtRp2651
(dp2652
g74
(dp2653
g82
I3
ssg83
g2647
sg76
(lp2654
g1175
asbasbasbag69
(g85
g71
NtRp2655
(dp2656
g74
(dp2657
sg83
g2462
sg76
(lp2658
g69
(g90
g71
NtRp2659
(dp2660
g74
(dp2661
g94
g95
ssg83
g2655
sg76
(lp2662
S'QUERY_STRING'
p2663
asbag69
(g90
g71
NtRp2664
(dp2665
g74
(dp2666
g101
g102
ssg83
g2655
sg76
(lp2667
S':'
asbag69
(g90
g71
NtRp2668
(dp2669
g74
(dp2670
sg83
g2655
sg76
(lp2671
g69
(g70
g71
NtRp2672
(dp2673
g74
(dp2674
g82
I3
ssg83
g2668
sg76
(lp2675
S''
asbasbasbag69
(g85
g71
NtRp2676
(dp2677
g74
(dp2678
sg83
g2462
sg76
(lp2679
g69
(g90
g71
NtRp2680
(dp2681
g74
(dp2682
g94
g95
ssg83
g2676
sg76
(lp2683
S'REMOTE_ADDR'
p2684
asbag69
(g90
g71
NtRp2685
(dp2686
g74
(dp2687
g101
g102
ssg83
g2676
sg76
(lp2688
S':'
asbag69
(g90
g71
NtRp2689
(dp2690
g74
(dp2691
sg83
g2676
sg76
(lp2692
g69
(g70
g71
NtRp2693
(dp2694
g74
(dp2695
g82
I3
ssg83
g2689
sg76
(lp2696
g237
asbasbasbag69
(g85
g71
NtRp2697
(dp2698
g74
(dp2699
sg83
g2462
sg76
(lp2700
g69
(g90
g71
NtRp2701
(dp2702
g74
(dp2703
g94
g95
ssg83
g2697
sg76
(lp2704
S'REMOTE_PORT'
p2705
asbag69
(g90
g71
NtRp2706
(dp2707
g74
(dp2708
g101
g102
ssg83
g2697
sg76
(lp2709
S':'
asbag69
(g90
g71
NtRp2710
(dp2711
g74
(dp2712
sg83
g2697
sg76
(lp2713
g69
(g70
g71
NtRp2714
(dp2715
g74
(dp2716
g82
I3
ssg83
g2710
sg76
(lp2717
g1239
asbasbasbag69
(g85
g71
NtRp2718
(dp2719
g74
(dp2720
sg83
g2462
sg76
(lp2721
g69
(g90
g71
NtRp2722
(dp2723
g74
(dp2724
g94
g95
ssg83
g2718
sg76
(lp2725
S'REQUEST_METHOD'
p2726
asbag69
(g90
g71
NtRp2727
(dp2728
g74
(dp2729
g101
g102
ssg83
g2718
sg76
(lp2730
S':'
asbag69
(g90
g71
NtRp2731
(dp2732
g74
(dp2733
sg83
g2718
sg76
(lp2734
g69
(g70
g71
NtRp2735
(dp2736
g74
(dp2737
g82
I3
ssg83
g2731
sg76
(lp2738
g1261
asbasbasbag69
(g85
g71
NtRp2739
(dp2740
g74
(dp2741
sg83
g2462
sg76
(lp2742
g69
(g90
g71
NtRp2743
(dp2744
g74
(dp2745
g94
g95
ssg83
g2739
sg76
(lp2746
S'REQUEST_URI'
p2747
asbag69
(g90
g71
NtRp2748
(dp2749
g74
(dp2750
g101
g102
ssg83
g2739
sg76
(lp2751
S':'
asbag69
(g90
g71
NtRp2752
(dp2753
g74
(dp2754
sg83
g2739
sg76
(lp2755
g69
(g70
g71
NtRp2756
(dp2757
g74
(dp2758
g82
I3
ssg83
g2752
sg76
(lp2759
g1175
asbasbasbag69
(g85
g71
NtRp2760
(dp2761
g74
(dp2762
sg83
g2462
sg76
(lp2763
g69
(g90
g71
NtRp2764
(dp2765
g74
(dp2766
g94
g95
ssg83
g2760
sg76
(lp2767
S'SCRIPT_NAME'
p2768
asbag69
(g90
g71
NtRp2769
(dp2770
g74
(dp2771
g101
g102
ssg83
g2760
sg76
(lp2772
S':'
asbag69
(g90
g71
NtRp2773
(dp2774
g74
(dp2775
sg83
g2760
sg76
(lp2776
g69
(g70
g71
NtRp2777
(dp2778
g74
(dp2779
g82
I3
ssg83
g2773
sg76
(lp2780
S''
asbasbasbag69
(g85
g71
NtRp2781
(dp2782
g74
(dp2783
sg83
g2462
sg76
(lp2784
g69
(g90
g71
NtRp2785
(dp2786
g74
(dp2787
g94
g95
ssg83
g2781
sg76
(lp2788
S'SERVER_NAME'
p2789
asbag69
(g90
g71
NtRp2790
(dp2791
g74
(dp2792
g101
g102
ssg83
g2781
sg76
(lp2793
S':'
asbag69
(g90
g71
NtRp2794
(dp2795
g74
(dp2796
sg83
g2781
sg76
(lp2797
g69
(g70
g71
NtRp2798
(dp2799
g74
(dp2800
g82
I3
ssg83
g2794
sg76
(lp2801
g1140
asbasbasbag69
(g85
g71
NtRp2802
(dp2803
g74
(dp2804
sg83
g2462
sg76
(lp2805
g69
(g90
g71
NtRp2806
(dp2807
g74
(dp2808
g94
g95
ssg83
g2802
sg76
(lp2809
S'SERVER_PORT'
p2810
asbag69
(g90
g71
NtRp2811
(dp2812
g74
(dp2813
g101
g102
ssg83
g2802
sg76
(lp2814
S':'
asbag69
(g90
g71
NtRp2815
(dp2816
g74
(dp2817
sg83
g2802
sg76
(lp2818
g69
(g70
g71
NtRp2819
(dp2820
g74
(dp2821
g82
I3
ssg83
g2815
sg76
(lp2822
g1346
asbasbasbag69
(g85
g71
NtRp2823
(dp2824
g74
(dp2825
sg83
g2462
sg76
(lp2826
g69
(g90
g71
NtRp2827
(dp2828
g74
(dp2829
g94
g95
ssg83
g2823
sg76
(lp2830
S'SERVER_PROTOCOL'
p2831
asbag69
(g90
g71
NtRp2832
(dp2833
g74
(dp2834
g101
g102
ssg83
g2823
sg76
(lp2835
S':'
asbag69
(g90
g71
NtRp2836
(dp2837
g74
(dp2838
sg83
g2823
sg76
(lp2839
g69
(g70
g71
NtRp2840
(dp2841
g74
(dp2842
g82
I3
ssg83
g2836
sg76
(lp2843
g1368
asbasbasbag69
(g85
g71
NtRp2844
(dp2845
g74
(dp2846
sg83
g2462
sg76
(lp2847
g69
(g90
g71
NtRp2848
(dp2849
g74
(dp2850
g94
g95
ssg83
g2844
sg76
(lp2851
S'SERVER_SOFTWARE'
p2852
asbag69
(g90
g71
NtRp2853
(dp2854
g74
(dp2855
g101
g102
ssg83
g2844
sg76
(lp2856
S':'
asbag69
(g90
g71
NtRp2857
(dp2858
g74
(dp2859
sg83
g2844
sg76
(lp2860
g69
(g70
g71
NtRp2861
(dp2862
g74
(dp2863
g82
I3
ssg83
g2857
sg76
(lp2864
g1390
asbasbasbag69
(g85
g71
NtRp2865
(dp2866
g74
(dp2867
sg83
g2462
sg76
(lp2868
g69
(g90
g71
NtRp2869
(dp2870
g74
(dp2871
g94
g95
ssg83
g2865
sg76
(lp2872
S'wsgi.errors'
p2873
asbag69
(g90
g71
NtRp2874
(dp2875
g74
(dp2876
g101
g102
ssg83
g2865
sg76
(lp2877
S':'
asbag69
(g90
g71
NtRp2878
(dp2879
g74
(dp2880
sg83
g2865
sg76
(lp2881
g69
(g70
g71
NtRp2882
(dp2883
g74
(dp2884
g82
I3
ssg83
g2878
sg76
(lp2885
S"<open file '<stderr>', mode 'w' at 0x2ab697210270>"
p2886
asbasbasbag69
(g85
g71
NtRp2887
(dp2888
g74
(dp2889
sg83
g2462
sg76
(lp2890
g69
(g90
g71
NtRp2891
(dp2892
g74
(dp2893
g94
g95
ssg83
g2887
sg76
(lp2894
S'wsgi.file_wrapper'
p2895
asbag69
(g90
g71
NtRp2896
(dp2897
g74
(dp2898
g101
g102
ssg83
g2887
sg76
(lp2899
S':'
asbag69
(g90
g71
NtRp2900
(dp2901
g74
(dp2902
sg83
g2887
sg76
(lp2903
g69
(g70
g71
NtRp2904
(dp2905
g74
(dp2906
g82
I3
ssg83
g2900
sg76
(lp2907
S'<class wsgiref.util.FileWrapper at 0xf1a3a78>'
p2908
asbasbasbag69
(g85
g71
NtRp2909
(dp2910
g74
(dp2911
sg83
g2462
sg76
(lp2912
g69
(g90
g71
NtRp2913
(dp2914
g74
(dp2915
g94
g95
ssg83
g2909
sg76
(lp2916
S'wsgi.input'
p2917
asbag69
(g90
g71
NtRp2918
(dp2919
g74
(dp2920
g101
g102
ssg83
g2909
sg76
(lp2921
S':'
asbag69
(g90
g71
NtRp2922
(dp2923
g74
(dp2924
sg83
g2909
sg76
(lp2925
g69
(g70
g71
NtRp2926
(dp2927
g74
(dp2928
g82
I3
ssg83
g2922
sg76
(lp2929
S'<cStringIO.StringO object at 0xfe70180>'
p2930
asbasbasbag69
(g85
g71
NtRp2931
(dp2932
g74
(dp2933
sg83
g2462
sg76
(lp2934
g69
(g90
g71
NtRp2935
(dp2936
g74
(dp2937
g94
g95
ssg83
g2931
sg76
(lp2938
S'wsgi.multiprocess'
p2939
asbag69
(g90
g71
NtRp2940
(dp2941
g74
(dp2942
g101
g102
ssg83
g2931
sg76
(lp2943
S':'
asbag69
(g90
g71
NtRp2944
(dp2945
g74
(dp2946
sg83
g2931
sg76
(lp2947
g69
(g70
g71
NtRp2948
(dp2949
g74
(dp2950
g82
I3
ssg83
g2944
sg76
(lp2951
g112
asbasbasbag69
(g85
g71
NtRp2952
(dp2953
g74
(dp2954
sg83
g2462
sg76
(lp2955
g69
(g90
g71
NtRp2956
(dp2957
g74
(dp2958
g94
g95
ssg83
g2952
sg76
(lp2959
S'wsgi.multithread'
p2960
asbag69
(g90
g71
NtRp2961
(dp2962
g74
(dp2963
g101
g102
ssg83
g2952
sg76
(lp2964
S':'
asbag69
(g90
g71
NtRp2965
(dp2966
g74
(dp2967
sg83
g2952
sg76
(lp2968
g69
(g70
g71
NtRp2969
(dp2970
g74
(dp2971
g82
I3
ssg83
g2965
sg76
(lp2972
g1607
asbasbasbag69
(g85
g71
NtRp2973
(dp2974
g74
(dp2975
sg83
g2462
sg76
(lp2976
g69
(g90
g71
NtRp2977
(dp2978
g74
(dp2979
g94
g95
ssg83
g2973
sg76
(lp2980
S'wsgi.run_once'
p2981
asbag69
(g90
g71
NtRp2982
(dp2983
g74
(dp2984
g101
g102
ssg83
g2973
sg76
(lp2985
S':'
asbag69
(g90
g71
NtRp2986
(dp2987
g74
(dp2988
sg83
g2973
sg76
(lp2989
g69
(g70
g71
NtRp2990
(dp2991
g74
(dp2992
g82
I3
ssg83
g2986
sg76
(lp2993
g112
asbasbasbag69
(g85
g71
NtRp2994
(dp2995
g74
(dp2996
sg83
g2462
sg76
(lp2997
g69
(g90
g71
NtRp2998
(dp2999
g74
(dp3000
g94
g95
ssg83
g2994
sg76
(lp3001
S'wsgi.url_scheme'
p3002
asbag69
(g90
g71
NtRp3003
(dp3004
g74
(dp3005
g101
g102
ssg83
g2994
sg76
(lp3006
S':'
asbag69
(g90
g71
NtRp3007
(dp3008
g74
(dp3009
sg83
g2994
sg76
(lp3010
g69
(g70
g71
NtRp3011
(dp3012
g74
(dp3013
g82
I3
ssg83
g3007
sg76
(lp3014
g1650
asbasbasbag69
(g85
g71
NtRp3015
(dp3016
g74
(dp3017
sg83
g2462
sg76
(lp3018
g69
(g90
g71
NtRp3019
(dp3020
g74
(dp3021
g94
g95
ssg83
g3015
sg76
(lp3022
S'wsgi.version'
p3023
asbag69
(g90
g71
NtRp3024
(dp3025
g74
(dp3026
g101
g102
ssg83
g3015
sg76
(lp3027
S':'
asbag69
(g90
g71
NtRp3028
(dp3029
g74
(dp3030
sg83
g3015
sg76
(lp3031
g69
(g70
g71
NtRp3032
(dp3033
g74
(dp3034
g82
I3
ssg83
g3028
sg76
(lp3035
S'1'
asbasbasbasbasbasbasbasbasbasbasbasbasbsS'frames'
p3036
(lp3037
(dp3038
S'file'
p3039
S'/home/xchen/web2py/gluon/restricted.py'
p3040
sS'dump'
p3041
(dp3042
S'environment'
p3043
S"{'A': <class 'gluon.html.A'>, 'Auth': <class 'gluon.tools.Auth'>, 'B': <class 'gluon.html.B'>, 'BEAUTIFY': <class 'gluon.html.BEAUTIFY'>, 'BODY': <class 'gluon.html.BODY'>, 'BR': <class 'gluon.html.BR'>, 'BUTTON': <class 'gluon.html.BUTTON'>, 'CAT': <class 'gluon.html.CAT'>, 'CENTER': <class 'gluon.html.CENTER'>, 'CLEANUP': <class 'gluon.validators.CLEANUP'>, ...}"
p3044
sS'ccode'
p3045
S'<code object <module> at 0xf6315b0, file "/home/...tions/Betsy/views/default/show_job.html", line 1>'
p3046
ssS'lnum'
p3047
I212
sS'lines'
p3048
(dp3049
I207
S'    try:'
p3050
sI208
S'        if isinstance(code, types.CodeType):'
p3051
sI209
S'            ccode = code'
p3052
sI210
S'        else:'
p3053
sI211
S'            ccode = compile2(code, layer)'
p3054
sI212
S'        exec ccode in environment'
p3055
sI213
S'    except HTTP:'
p3056
sI214
S'        raise'
p3057
sI215
S'    except RestrictedError:'
p3058
sI216
S'        # do not encapsulate (obfuscate) the original RestrictedError'
p3059
ssS'call'
p3060
S'(code=\'response.write(\\\'<!DOCTYPE html>\\\\n<!-- paulirish...."></script>\\\\n</body>\\\\n</html>\\\\n\\\\n\\\', escape=False)\', environment={\'A\': <class \'gluon.html.A\'>, \'Auth\': <class \'gluon.tools.Auth\'>, \'B\': <class \'gluon.html.B\'>, \'BEAUTIFY\': <class \'gluon.html.BEAUTIFY\'>, \'BODY\': <class \'gluon.html.BODY\'>, \'BR\': <class \'gluon.html.BR\'>, \'BUTTON\': <class \'gluon.html.BUTTON\'>, \'CAT\': <class \'gluon.html.CAT\'>, \'CENTER\': <class \'gluon.html.CENTER\'>, \'CLEANUP\': <class \'gluon.validators.CLEANUP\'>, ...}, layer=\'/home/xchen/web2py/applications/Betsy/views/default/show_job.html\')'
p3061
sS'func'
p3062
S'restricted'
p3063
sa(dp3064
g3039
S'/home/xchen/web2py/applications/Betsy/views/default/show_job.html'
p3065
sg3041
(dp3066
sg3047
I93
sg3048
(dp3067
I96
S"        response.write('--><br />\\n    \\n    ', escape=False)"
p3068
sI97
S'        pass'
p3069
sI98
S"    response.write('\\n', escape=False)"
p3070
sI99
S'    pass'
p3071
sI100
S"response.write('\\n', escape=False)"
p3072
sI101
S"response.write('\\n            ', escape=False)"
p3073
sI102
S"response.write('\\n        </div>\\n\\n        ', escape=False)"
p3074
sI103
S'if right_sidebar_enabled:'
p3075
sI84
S"    response.write('\\n', escape=False)"
p3076
sI85
S'    if text[i]==newtext[i]:'
p3077
sI86
S"        response.write('\\n\\t\\t', escape=False)"
p3078
sI87
S'        response.write(text[i])'
p3079
sI88
S"        response.write('<br />\\n\\t', escape=False)"
p3080
sI89
S'    else:'
p3081
sI90
S"        response.write('\\n<!--', escape=False)"
p3082
sI91
S'        response.write(A(text[i],_href=file(text[i].strip()),_src=file(text[i].strip())))'
p3083
sI92
S"        response.write('<br />-->\\n', escape=False)"
p3084
sI93
S"        response.write(A(text[i],_href=URL('result_files',newtext[i])))"
p3085
sI94
S"        response.write('<br />\\n<!--', escape=False)"
p3086
sI95
S"        response.write(A(text[i],_href='http://localhost:8080/home/xchen/chencode/examples/sample_analysis/annotate_probes_BETSYHASH1_7eb4bf59dde97c21d7854021c2a1fe40/signal_file_annot_table.myfile1.a8dd7d225fa076b2.4368616e675f415230303431302e70636c.txt'))"
p3087
ssg3060
S'()'
p3088
sg3062
S'<module>'
p3089
sa(dp3090
g3039
S'/home/xchen/web2py/gluon/html.py'
p3091
sg3041
(dp3092
sg3047
I275
sg3048
(dp3093
I270
S'        if not isinstance(f, str):'
p3094
sI271
S"            if hasattr(f, '__name__'):"
p3095
sI272
S'                function = f.__name__'
p3096
sI273
S'            else:'
p3097
sI274
S'                raise SyntaxError('
p3098
sI275
S"                    'when calling URL, function or function name required')"
p3099
sI276
S"        elif '/' in f:"
p3100
sI277
S'            if f.startswith("/"):'
p3101
sI278
S'                f = f[1:]'
p3102
sI279
S"            items = f.split('/')"
p3103
ssg3060
S"(a=None, c='result_files', f=['annotate_probes_BETSYHASH1_dea561ee030db64d6c74ced8f5ca9f00', 'signal_file_annot_table.myfile1.b7774bd7ac89fca6.4368616e675f415230303431302e70636c.txt'], r=<Storage {'function': 'show_job', 'body': <cStri...applications/Betsy/', 'post_vars': <Storage {}>}>, args=[], vars={}, anchor='', extension=None, env=<Storage {'debugging': False, 'http_user_agent':...[]), 'query_string': '', 'wsgi_run_once': False}>, hmac_key=None, hash_vars=True, salt=None, user_signature=None, scheme=None, host=None, port=None, encode_embedded_slash=False, url_encode=True)"
p3104
sg3062
S'URL'
p3105
sasS'pyver'
p3106
S'Python 2.7.3: /usr/local/bin/python'
p3107
sS'session'
p3108
g69
(g70
g71
NtRp3109
(dp3110
g74
(dp3111
sg76
(lp3112
g69
(g78
g71
NtRp3113
(dp3114
g74
(dp3115
g82
I5
ssg83
Nsg76
(lp3116
g69
(g85
g71
NtRp3117
(dp3118
g74
(dp3119
sg83
g3113
sg76
(lp3120
g69
(g90
g71
NtRp3121
(dp3122
g74
(dp3123
g94
g95
ssg83
g3117
sg76
(lp3124
S'auth'
p3125
asbag69
(g90
g71
NtRp3126
(dp3127
g74
(dp3128
g101
g102
ssg83
g3117
sg76
(lp3129
S':'
asbag69
(g90
g71
NtRp3130
(dp3131
g74
(dp3132
sg83
g3117
sg76
(lp3133
g69
(g70
g71
NtRp3134
(dp3135
g74
(dp3136
g82
I5
ssg83
g3130
sg76
(lp3137
g69
(g78
g71
NtRp3138
(dp3139
g74
(dp3140
g82
I4
ssg83
Nsg76
(lp3141
g69
(g85
g71
NtRp3142
(dp3143
g74
(dp3144
sg83
g3138
sg76
(lp3145
g69
(g90
g71
NtRp3146
(dp3147
g74
(dp3148
g94
g95
ssg83
g3142
sg76
(lp3149
S'expiration'
p3150
asbag69
(g90
g71
NtRp3151
(dp3152
g74
(dp3153
g101
g102
ssg83
g3142
sg76
(lp3154
S':'
asbag69
(g90
g71
NtRp3155
(dp3156
g74
(dp3157
sg83
g3142
sg76
(lp3158
g69
(g70
g71
NtRp3159
(dp3160
g74
(dp3161
g82
I4
ssg83
g3155
sg76
(lp3162
S'2592000'
p3163
asbasbasbag69
(g85
g71
NtRp3164
(dp3165
g74
(dp3166
sg83
g3138
sg76
(lp3167
g69
(g90
g71
NtRp3168
(dp3169
g74
(dp3170
g94
g95
ssg83
g3164
sg76
(lp3171
S'hmac_key'
p3172
asbag69
(g90
g71
NtRp3173
(dp3174
g74
(dp3175
g101
g102
ssg83
g3164
sg76
(lp3176
S':'
asbag69
(g90
g71
NtRp3177
(dp3178
g74
(dp3179
sg83
g3164
sg76
(lp3180
g69
(g70
g71
NtRp3181
(dp3182
g74
(dp3183
g82
I4
ssg83
g3177
sg76
(lp3184
S'739afc94-a36b-429c-8715-edcd03ea4351'
p3185
asbasbasbag69
(g85
g71
NtRp3186
(dp3187
g74
(dp3188
sg83
g3138
sg76
(lp3189
g69
(g90
g71
NtRp3190
(dp3191
g74
(dp3192
g94
g95
ssg83
g3186
sg76
(lp3193
S'last_visit'
p3194
asbag69
(g90
g71
NtRp3195
(dp3196
g74
(dp3197
g101
g102
ssg83
g3186
sg76
(lp3198
S':'
asbag69
(g90
g71
NtRp3199
(dp3200
g74
(dp3201
sg83
g3186
sg76
(lp3202
g69
(g70
g71
NtRp3203
(dp3204
g74
(dp3205
g82
I4
ssg83
g3199
sg76
(lp3206
S'datetime.datetime(2013, 2, 4, 10, 24, 37, 237452)'
p3207
asbasbasbag69
(g85
g71
NtRp3208
(dp3209
g74
(dp3210
sg83
g3138
sg76
(lp3211
g69
(g90
g71
NtRp3212
(dp3213
g74
(dp3214
g94
g95
ssg83
g3208
sg76
(lp3215
S'remember'
p3216
asbag69
(g90
g71
NtRp3217
(dp3218
g74
(dp3219
g101
g102
ssg83
g3208
sg76
(lp3220
S':'
asbag69
(g90
g71
NtRp3221
(dp3222
g74
(dp3223
sg83
g3208
sg76
(lp3224
g69
(g70
g71
NtRp3225
(dp3226
g74
(dp3227
g82
I4
ssg83
g3221
sg76
(lp3228
g1607
asbasbasbag69
(g85
g71
NtRp3229
(dp3230
g74
(dp3231
sg83
g3138
sg76
(lp3232
g69
(g90
g71
NtRp3233
(dp3234
g74
(dp3235
g94
g95
ssg83
g3229
sg76
(lp3236
S'user'
p3237
asbag69
(g90
g71
NtRp3238
(dp3239
g74
(dp3240
g101
g102
ssg83
g3229
sg76
(lp3241
S':'
asbag69
(g90
g71
NtRp3242
(dp3243
g74
(dp3244
sg83
g3229
sg76
(lp3245
g69
(g70
g71
NtRp3246
(dp3247
g74
(dp3248
g82
I4
ssg83
g3242
sg76
(lp3249
g69
(g78
g71
NtRp3250
(dp3251
g74
(dp3252
g82
I3
ssg83
Nsg76
(lp3253
g69
(g85
g71
NtRp3254
(dp3255
g74
(dp3256
sg83
g3250
sg76
(lp3257
g69
(g90
g71
NtRp3258
(dp3259
g74
(dp3260
g94
g95
ssg83
g3254
sg76
(lp3261
S'email'
p3262
asbag69
(g90
g71
NtRp3263
(dp3264
g74
(dp3265
g101
g102
ssg83
g3254
sg76
(lp3266
S':'
asbag69
(g90
g71
NtRp3267
(dp3268
g74
(dp3269
sg83
g3254
sg76
(lp3270
g69
(g70
g71
NtRp3271
(dp3272
g74
(dp3273
g82
I3
ssg83
g3267
sg76
(lp3274
S'xiaoling.chen@uth.tmc.edu'
p3275
asbasbasbag69
(g85
g71
NtRp3276
(dp3277
g74
(dp3278
sg83
g3250
sg76
(lp3279
g69
(g90
g71
NtRp3280
(dp3281
g74
(dp3282
g94
g95
ssg83
g3276
sg76
(lp3283
S'first_name'
p3284
asbag69
(g90
g71
NtRp3285
(dp3286
g74
(dp3287
g101
g102
ssg83
g3276
sg76
(lp3288
S':'
asbag69
(g90
g71
NtRp3289
(dp3290
g74
(dp3291
sg83
g3276
sg76
(lp3292
g69
(g70
g71
NtRp3293
(dp3294
g74
(dp3295
g82
I3
ssg83
g3289
sg76
(lp3296
S'Xiaoling'
p3297
asbasbasbag69
(g85
g71
NtRp3298
(dp3299
g74
(dp3300
sg83
g3250
sg76
(lp3301
g69
(g90
g71
NtRp3302
(dp3303
g74
(dp3304
g94
g95
ssg83
g3298
sg76
(lp3305
S'id'
p3306
asbag69
(g90
g71
NtRp3307
(dp3308
g74
(dp3309
g101
g102
ssg83
g3298
sg76
(lp3310
S':'
asbag69
(g90
g71
NtRp3311
(dp3312
g74
(dp3313
sg83
g3298
sg76
(lp3314
g69
(g70
g71
NtRp3315
(dp3316
g74
(dp3317
g82
I3
ssg83
g3311
sg76
(lp3318
S'1'
asbasbasbag69
(g85
g71
NtRp3319
(dp3320
g74
(dp3321
sg83
g3250
sg76
(lp3322
g69
(g90
g71
NtRp3323
(dp3324
g74
(dp3325
g94
g95
ssg83
g3319
sg76
(lp3326
S'last_name'
p3327
asbag69
(g90
g71
NtRp3328
(dp3329
g74
(dp3330
g101
g102
ssg83
g3319
sg76
(lp3331
S':'
asbag69
(g90
g71
NtRp3332
(dp3333
g74
(dp3334
sg83
g3319
sg76
(lp3335
g69
(g70
g71
NtRp3336
(dp3337
g74
(dp3338
g82
I3
ssg83
g3332
sg76
(lp3339
S'Chen'
p3340
asbasbasbag69
(g85
g71
NtRp3341
(dp3342
g74
(dp3343
sg83
g3250
sg76
(lp3344
g69
(g90
g71
NtRp3345
(dp3346
g74
(dp3347
g94
g95
ssg83
g3341
sg76
(lp3348
S'registration_id'
p3349
asbag69
(g90
g71
NtRp3350
(dp3351
g74
(dp3352
g101
g102
ssg83
g3341
sg76
(lp3353
S':'
asbag69
(g90
g71
NtRp3354
(dp3355
g74
(dp3356
sg83
g3341
sg76
(lp3357
g69
(g70
g71
NtRp3358
(dp3359
g74
(dp3360
g82
I3
ssg83
g3354
sg76
(lp3361
S''
asbasbasbag69
(g85
g71
NtRp3362
(dp3363
g74
(dp3364
sg83
g3250
sg76
(lp3365
g69
(g90
g71
NtRp3366
(dp3367
g74
(dp3368
g94
g95
ssg83
g3362
sg76
(lp3369
S'registration_key'
p3370
asbag69
(g90
g71
NtRp3371
(dp3372
g74
(dp3373
g101
g102
ssg83
g3362
sg76
(lp3374
S':'
asbag69
(g90
g71
NtRp3375
(dp3376
g74
(dp3377
sg83
g3362
sg76
(lp3378
g69
(g70
g71
NtRp3379
(dp3380
g74
(dp3381
g82
I3
ssg83
g3375
sg76
(lp3382
S''
asbasbasbag69
(g85
g71
NtRp3383
(dp3384
g74
(dp3385
sg83
g3250
sg76
(lp3386
g69
(g90
g71
NtRp3387
(dp3388
g74
(dp3389
g94
g95
ssg83
g3383
sg76
(lp3390
S'reset_password_key'
p3391
asbag69
(g90
g71
NtRp3392
(dp3393
g74
(dp3394
g101
g102
ssg83
g3383
sg76
(lp3395
S':'
asbag69
(g90
g71
NtRp3396
(dp3397
g74
(dp3398
sg83
g3383
sg76
(lp3399
g69
(g70
g71
NtRp3400
(dp3401
g74
(dp3402
g82
I3
ssg83
g3396
sg76
(lp3403
S''
asbasbasbasbasbasbasbag69
(g85
g71
NtRp3404
(dp3405
g74
(dp3406
sg83
g3138
sg76
(lp3407
g69
(g90
g71
NtRp3408
(dp3409
g74
(dp3410
g94
g95
ssg83
g3404
sg76
(lp3411
S'user_groups'
p3412
asbag69
(g90
g71
NtRp3413
(dp3414
g74
(dp3415
g101
g102
ssg83
g3404
sg76
(lp3416
S':'
asbag69
(g90
g71
NtRp3417
(dp3418
g74
(dp3419
sg83
g3404
sg76
(lp3420
g69
(g70
g71
NtRp3421
(dp3422
g74
(dp3423
g82
I4
ssg83
g3417
sg76
(lp3424
g69
(g78
g71
NtRp3425
(dp3426
g74
(dp3427
g82
I3
ssg83
Nsg76
(lp3428
g69
(g85
g71
NtRp3429
(dp3430
g74
(dp3431
sg83
g3425
sg76
(lp3432
g69
(g90
g71
NtRp3433
(dp3434
g74
(dp3435
g94
g95
ssg83
g3429
sg76
(lp3436
S'1'
asbag69
(g90
g71
NtRp3437
(dp3438
g74
(dp3439
g101
g102
ssg83
g3429
sg76
(lp3440
S':'
asbag69
(g90
g71
NtRp3441
(dp3442
g74
(dp3443
sg83
g3429
sg76
(lp3444
g69
(g70
g71
NtRp3445
(dp3446
g74
(dp3447
g82
I3
ssg83
g3441
sg76
(lp3448
S'user_1'
p3449
asbasbasbasbasbasbasbasbasbasbasbag69
(g85
g71
NtRp3450
(dp3451
g74
(dp3452
sg83
g3113
sg76
(lp3453
g69
(g90
g71
NtRp3454
(dp3455
g74
(dp3456
g94
g95
ssg83
g3450
sg76
(lp3457
S'cmd'
p3458
asbag69
(g90
g71
NtRp3459
(dp3460
g74
(dp3461
g101
g102
ssg83
g3450
sg76
(lp3462
S':'
asbag69
(g90
g71
NtRp3463
(dp3464
g74
(dp3465
sg83
g3450
sg76
(lp3466
g69
(g70
g71
NtRp3467
(dp3468
g74
(dp3469
g82
I5
ssg83
g3463
sg76
(lp3470
g69
(g78
g71
NtRp3471
(dp3472
g74
(dp3473
g82
I4
ssg83
Nsg76
(lp3474
g69
(g85
g71
NtRp3475
(dp3476
g74
(dp3477
sg83
g3471
sg76
(lp3478
g69
(g90
g71
NtRp3479
(dp3480
g74
(dp3481
sg83
g3475
sg76
(lp3482
g69
(g70
g71
NtRp3483
(dp3484
g74
(dp3485
g82
I4
ssg83
g3479
sg76
(lp3486
S'python'
p3487
asbasbasbag69
(g85
g71
NtRp3488
(dp3489
g74
(dp3490
sg83
g3471
sg76
(lp3491
g69
(g90
g71
NtRp3492
(dp3493
g74
(dp3494
sg83
g3488
sg76
(lp3495
g69
(g70
g71
NtRp3496
(dp3497
g74
(dp3498
g82
I4
ssg83
g3492
sg76
(lp3499
S'/home/xchen/chencode/tmp/try_parallel/queue.py'
p3500
asbasbasbag69
(g85
g71
NtRp3501
(dp3502
g74
(dp3503
sg83
g3471
sg76
(lp3504
g69
(g90
g71
NtRp3505
(dp3506
g74
(dp3507
sg83
g3501
sg76
(lp3508
g69
(g70
g71
NtRp3509
(dp3510
g74
(dp3511
g82
I4
ssg83
g3505
sg76
(lp3512
S'python /home/xchen/chencode/Betsy/scripts/run_protocol.py --protocol normalize_file --input input_signal_file:/home/xchen/chencode/upload/no_table.myfile1.a8dd7d225fa076b2.4368616e675f415230303431302e70636c.pcl --parameters has_missing_value:zero_fill --parameters preprocess:unknown_preprocess'
p3513
asbasbasbasbasbasbasbag69
(g85
g71
NtRp3514
(dp3515
g74
(dp3516
sg83
g3113
sg76
(lp3517
g69
(g90
g71
NtRp3518
(dp3519
g74
(dp3520
g94
g95
ssg83
g3514
sg76
(lp3521
S'command'
p3522
asbag69
(g90
g71
NtRp3523
(dp3524
g74
(dp3525
g101
g102
ssg83
g3514
sg76
(lp3526
S':'
asbag69
(g90
g71
NtRp3527
(dp3528
g74
(dp3529
sg83
g3514
sg76
(lp3530
g69
(g70
g71
NtRp3531
(dp3532
g74
(dp3533
g82
I5
ssg83
g3527
sg76
(lp3534
S'--input input_signal_file:myfile1 --parameters has_missing_value:zero_fill'
p3535
asbasbasbag69
(g85
g71
NtRp3536
(dp3537
g74
(dp3538
sg83
g3113
sg76
(lp3539
g69
(g90
g71
NtRp3540
(dp3541
g74
(dp3542
g94
g95
ssg83
g3536
sg76
(lp3543
S'flash'
p3544
asbag69
(g90
g71
NtRp3545
(dp3546
g74
(dp3547
g101
g102
ssg83
g3536
sg76
(lp3548
S':'
asbag69
(g90
g71
NtRp3549
(dp3550
g74
(dp3551
sg83
g3536
sg76
(lp3552
g69
(g70
g71
NtRp3553
(dp3554
g74
(dp3555
g82
I5
ssg83
g3549
sg76
(lp3556
S'None'
p3557
asbasbasbag69
(g85
g71
NtRp3558
(dp3559
g74
(dp3560
sg83
g3113
sg76
(lp3561
g69
(g90
g71
NtRp3562
(dp3563
g74
(dp3564
g94
g95
ssg83
g3558
sg76
(lp3565
S'last_orderby'
p3566
asbag69
(g90
g71
NtRp3567
(dp3568
g74
(dp3569
g101
g102
ssg83
g3558
sg76
(lp3570
S':'
asbag69
(g90
g71
NtRp3571
(dp3572
g74
(dp3573
sg83
g3558
sg76
(lp3574
g69
(g70
g71
NtRp3575
(dp3576
g74
(dp3577
g82
I5
ssg83
g3571
sg76
(lp3578
S'None'
p3579
asbasbasbag69
(g85
g71
NtRp3580
(dp3581
g74
(dp3582
sg83
g3113
sg76
(lp3583
g69
(g90
g71
NtRp3584
(dp3585
g74
(dp3586
g94
g95
ssg83
g3580
sg76
(lp3587
S'last_query'
p3588
asbag69
(g90
g71
NtRp3589
(dp3590
g74
(dp3591
g101
g102
ssg83
g3580
sg76
(lp3592
S':'
asbag69
(g90
g71
NtRp3593
(dp3594
g74
(dp3595
sg83
g3580
sg76
(lp3596
g69
(g70
g71
NtRp3597
(dp3598
g74
(dp3599
g82
I5
ssg83
g3593
sg76
(lp3600
S'db.status.id>0'
p3601
asbasbasbag69
(g85
g71
NtRp3602
(dp3603
g74
(dp3604
sg83
g3113
sg76
(lp3605
g69
(g90
g71
NtRp3606
(dp3607
g74
(dp3608
g94
g95
ssg83
g3602
sg76
(lp3609
S'myfile1'
p3610
asbag69
(g90
g71
NtRp3611
(dp3612
g74
(dp3613
g101
g102
ssg83
g3602
sg76
(lp3614
S':'
asbag69
(g90
g71
NtRp3615
(dp3616
g74
(dp3617
sg83
g3602
sg76
(lp3618
g69
(g70
g71
NtRp3619
(dp3620
g74
(dp3621
g82
I5
ssg83
g3615
sg76
(lp3622
S'no_table.myfile1.b7774bd7ac89fca6.4368616e675f415230303431302e70636c.pcl'
p3623
asbasbasbag69
(g85
g71
NtRp3624
(dp3625
g74
(dp3626
sg83
g3113
sg76
(lp3627
g69
(g90
g71
NtRp3628
(dp3629
g74
(dp3630
g94
g95
ssg83
g3624
sg76
(lp3631
S'myfile2'
p3632
asbag69
(g90
g71
NtRp3633
(dp3634
g74
(dp3635
g101
g102
ssg83
g3624
sg76
(lp3636
S':'
asbag69
(g90
g71
NtRp3637
(dp3638
g74
(dp3639
sg83
g3624
sg76
(lp3640
g69
(g70
g71
NtRp3641
(dp3642
g74
(dp3643
g82
I5
ssg83
g3637
sg76
(lp3644
S''
asbasbasbag69
(g85
g71
NtRp3645
(dp3646
g74
(dp3647
sg83
g3113
sg76
(lp3648
g69
(g90
g71
NtRp3649
(dp3650
g74
(dp3651
g94
g95
ssg83
g3645
sg76
(lp3652
S'myfile3'
p3653
asbag69
(g90
g71
NtRp3654
(dp3655
g74
(dp3656
g101
g102
ssg83
g3645
sg76
(lp3657
S':'
asbag69
(g90
g71
NtRp3658
(dp3659
g74
(dp3660
sg83
g3645
sg76
(lp3661
g69
(g70
g71
NtRp3662
(dp3663
g74
(dp3664
g82
I5
ssg83
g3658
sg76
(lp3665
S''
asbasbasbag69
(g85
g71
NtRp3666
(dp3667
g74
(dp3668
sg83
g3113
sg76
(lp3669
g69
(g90
g71
NtRp3670
(dp3671
g74
(dp3672
g94
g95
ssg83
g3666
sg76
(lp3673
S'myfile4'
p3674
asbag69
(g90
g71
NtRp3675
(dp3676
g74
(dp3677
g101
g102
ssg83
g3666
sg76
(lp3678
S':'
asbag69
(g90
g71
NtRp3679
(dp3680
g74
(dp3681
sg83
g3666
sg76
(lp3682
g69
(g70
g71
NtRp3683
(dp3684
g74
(dp3685
g82
I5
ssg83
g3679
sg76
(lp3686
S''
asbasbasbag69
(g85
g71
NtRp3687
(dp3688
g74
(dp3689
sg83
g3113
sg76
(lp3690
g69
(g90
g71
NtRp3691
(dp3692
g74
(dp3693
g94
g95
ssg83
g3687
sg76
(lp3694
S'myfile5'
p3695
asbag69
(g90
g71
NtRp3696
(dp3697
g74
(dp3698
g101
g102
ssg83
g3687
sg76
(lp3699
S':'
asbag69
(g90
g71
NtRp3700
(dp3701
g74
(dp3702
sg83
g3687
sg76
(lp3703
g69
(g70
g71
NtRp3704
(dp3705
g74
(dp3706
g82
I5
ssg83
g3700
sg76
(lp3707
S''
asbasbasbag69
(g85
g71
NtRp3708
(dp3709
g74
(dp3710
sg83
g3113
sg76
(lp3711
g69
(g90
g71
NtRp3712
(dp3713
g74
(dp3714
g94
g95
ssg83
g3708
sg76
(lp3715
S'myfile6'
p3716
asbag69
(g90
g71
NtRp3717
(dp3718
g74
(dp3719
g101
g102
ssg83
g3708
sg76
(lp3720
S':'
asbag69
(g90
g71
NtRp3721
(dp3722
g74
(dp3723
sg83
g3708
sg76
(lp3724
g69
(g70
g71
NtRp3725
(dp3726
g74
(dp3727
g82
I5
ssg83
g3721
sg76
(lp3728
S''
asbasbasbag69
(g85
g71
NtRp3729
(dp3730
g74
(dp3731
sg83
g3113
sg76
(lp3732
g69
(g90
g71
NtRp3733
(dp3734
g74
(dp3735
g94
g95
ssg83
g3729
sg76
(lp3736
S'output'
p3737
asbag69
(g90
g71
NtRp3738
(dp3739
g74
(dp3740
g101
g102
ssg83
g3729
sg76
(lp3741
S':'
asbag69
(g90
g71
NtRp3742
(dp3743
g74
(dp3744
sg83
g3729
sg76
(lp3745
g69
(g70
g71
NtRp3746
(dp3747
g74
(dp3748
g82
I5
ssg83
g3742
sg76
(lp3749
g69
(g78
g71
NtRp3750
(dp3751
g74
(dp3752
g82
I4
ssg83
Nsg76
(lp3753
sbasbasbasbag69
(g85
g71
NtRp3754
(dp3755
g74
(dp3756
sg83
g3113
sg76
(lp3757
g69
(g90
g71
NtRp3758
(dp3759
g74
(dp3760
g94
g95
ssg83
g3754
sg76
(lp3761
S'protocol'
p3762
asbag69
(g90
g71
NtRp3763
(dp3764
g74
(dp3765
g101
g102
ssg83
g3754
sg76
(lp3766
S':'
asbag69
(g90
g71
NtRp3767
(dp3768
g74
(dp3769
sg83
g3754
sg76
(lp3770
g69
(g70
g71
NtRp3771
(dp3772
g74
(dp3773
g82
I5
ssg83
g3767
sg76
(lp3774
S'normalize_file'
p3775
asbasbasbasbasbsS'etype'
p3776
S"<type 'exceptions.SyntaxError'>"
p3777
sS'date'
p3778
S'Fri Feb  8 10:36:52 2013'
p3779
sS'response'
p3780
g69
(g70
g71
NtRp3781
(dp3782
g74
(dp3783
sg76
(lp3784
g69
(g78
g71
NtRp3785
(dp3786
g74
(dp3787
g82
I5
ssg83
Nsg76
(lp3788
g69
(g85
g71
NtRp3789
(dp3790
g74
(dp3791
sg83
g3785
sg76
(lp3792
g69
(g90
g71
NtRp3793
(dp3794
g74
(dp3795
g94
g95
ssg83
g3789
sg76
(lp3796
g180
asbag69
(g90
g71
NtRp3797
(dp3798
g74
(dp3799
g101
g102
ssg83
g3789
sg76
(lp3800
S':'
asbag69
(g90
g71
NtRp3801
(dp3802
g74
(dp3803
sg83
g3789
sg76
(lp3804
g69
(g70
g71
NtRp3805
(dp3806
g74
(dp3807
g82
I5
ssg83
g3801
sg76
(lp3808
S'<cStringIO.StringO object at 0xfe703b0>'
p3809
asbasbasbag69
(g85
g71
NtRp3810
(dp3811
g74
(dp3812
sg83
g3785
sg76
(lp3813
g69
(g90
g71
NtRp3814
(dp3815
g74
(dp3816
g94
g95
ssg83
g3810
sg76
(lp3817
g268
asbag69
(g90
g71
NtRp3818
(dp3819
g74
(dp3820
g101
g102
ssg83
g3810
sg76
(lp3821
S':'
asbag69
(g90
g71
NtRp3822
(dp3823
g74
(dp3824
sg83
g3810
sg76
(lp3825
g69
(g70
g71
NtRp3826
(dp3827
g74
(dp3828
g82
I5
ssg83
g3822
sg76
(lp3829
g69
(g78
g71
NtRp3830
(dp3831
g74
(dp3832
g82
I4
ssg83
Nsg76
(lp3833
g69
(g85
g71
NtRp3834
(dp3835
g74
(dp3836
sg83
g3830
sg76
(lp3837
g69
(g90
g71
NtRp3838
(dp3839
g74
(dp3840
g94
g95
ssg83
g3834
sg76
(lp3841
S'session_id_betsy'
p3842
asbag69
(g90
g71
NtRp3843
(dp3844
g74
(dp3845
g101
g102
ssg83
g3834
sg76
(lp3846
S':'
asbag69
(g90
g71
NtRp3847
(dp3848
g74
(dp3849
sg83
g3834
sg76
(lp3850
g69
(g70
g71
NtRp3851
(dp3852
g74
(dp3853
g82
I4
ssg83
g3847
sg76
(lp3854
g500
ag69
(g78
g71
NtRp3855
(dp3856
g74
(dp3857
g82
I3
ssg83
Nsg76
(lp3858
g69
(g85
g71
NtRp3859
(dp3860
g74
(dp3861
sg83
g3855
sg76
(lp3862
g69
(g90
g71
NtRp3863
(dp3864
g74
(dp3865
g94
g95
ssg83
g3859
sg76
(lp3866
g319
asbag69
(g90
g71
NtRp3867
(dp3868
g74
(dp3869
g101
g102
ssg83
g3859
sg76
(lp3870
S':'
asbag69
(g90
g71
NtRp3871
(dp3872
g74
(dp3873
sg83
g3859
sg76
(lp3874
g69
(g70
g71
NtRp3875
(dp3876
g74
(dp3877
g82
I3
ssg83
g3871
sg76
(lp3878
S''
asbasbasbag69
(g85
g71
NtRp3879
(dp3880
g74
(dp3881
sg83
g3855
sg76
(lp3882
g69
(g90
g71
NtRp3883
(dp3884
g74
(dp3885
g94
g95
ssg83
g3879
sg76
(lp3886
g340
asbag69
(g90
g71
NtRp3887
(dp3888
g74
(dp3889
g101
g102
ssg83
g3879
sg76
(lp3890
S':'
asbag69
(g90
g71
NtRp3891
(dp3892
g74
(dp3893
sg83
g3879
sg76
(lp3894
g69
(g70
g71
NtRp3895
(dp3896
g74
(dp3897
g82
I3
ssg83
g3891
sg76
(lp3898
S''
asbasbasbag69
(g85
g71
NtRp3899
(dp3900
g74
(dp3901
sg83
g3855
sg76
(lp3902
g69
(g90
g71
NtRp3903
(dp3904
g74
(dp3905
g94
g95
ssg83
g3899
sg76
(lp3906
g361
asbag69
(g90
g71
NtRp3907
(dp3908
g74
(dp3909
g101
g102
ssg83
g3899
sg76
(lp3910
S':'
asbag69
(g90
g71
NtRp3911
(dp3912
g74
(dp3913
sg83
g3899
sg76
(lp3914
g69
(g70
g71
NtRp3915
(dp3916
g74
(dp3917
g82
I3
ssg83
g3911
sg76
(lp3918
S'2592000'
p3919
asbasbasbag69
(g85
g71
NtRp3920
(dp3921
g74
(dp3922
sg83
g3855
sg76
(lp3923
g69
(g90
g71
NtRp3924
(dp3925
g74
(dp3926
g94
g95
ssg83
g3920
sg76
(lp3927
g382
asbag69
(g90
g71
NtRp3928
(dp3929
g74
(dp3930
g101
g102
ssg83
g3920
sg76
(lp3931
S':'
asbag69
(g90
g71
NtRp3932
(dp3933
g74
(dp3934
sg83
g3920
sg76
(lp3935
g69
(g70
g71
NtRp3936
(dp3937
g74
(dp3938
g82
I3
ssg83
g3932
sg76
(lp3939
S''
asbasbasbag69
(g85
g71
NtRp3940
(dp3941
g74
(dp3942
sg83
g3855
sg76
(lp3943
g69
(g90
g71
NtRp3944
(dp3945
g74
(dp3946
g94
g95
ssg83
g3940
sg76
(lp3947
g403
asbag69
(g90
g71
NtRp3948
(dp3949
g74
(dp3950
g101
g102
ssg83
g3940
sg76
(lp3951
S':'
asbag69
(g90
g71
NtRp3952
(dp3953
g74
(dp3954
sg83
g3940
sg76
(lp3955
g69
(g70
g71
NtRp3956
(dp3957
g74
(dp3958
g82
I3
ssg83
g3952
sg76
(lp3959
S''
asbasbasbag69
(g85
g71
NtRp3960
(dp3961
g74
(dp3962
sg83
g3855
sg76
(lp3963
g69
(g90
g71
NtRp3964
(dp3965
g74
(dp3966
g94
g95
ssg83
g3960
sg76
(lp3967
g424
asbag69
(g90
g71
NtRp3968
(dp3969
g74
(dp3970
g101
g102
ssg83
g3960
sg76
(lp3971
S':'
asbag69
(g90
g71
NtRp3972
(dp3973
g74
(dp3974
sg83
g3960
sg76
(lp3975
g69
(g70
g71
NtRp3976
(dp3977
g74
(dp3978
g82
I3
ssg83
g3972
sg76
(lp3979
S'/'
asbasbasbag69
(g85
g71
NtRp3980
(dp3981
g74
(dp3982
sg83
g3855
sg76
(lp3983
g69
(g90
g71
NtRp3984
(dp3985
g74
(dp3986
g94
g95
ssg83
g3980
sg76
(lp3987
g445
asbag69
(g90
g71
NtRp3988
(dp3989
g74
(dp3990
g101
g102
ssg83
g3980
sg76
(lp3991
S':'
asbag69
(g90
g71
NtRp3992
(dp3993
g74
(dp3994
sg83
g3980
sg76
(lp3995
g69
(g70
g71
NtRp3996
(dp3997
g74
(dp3998
g82
I3
ssg83
g3992
sg76
(lp3999
S''
asbasbasbag69
(g85
g71
NtRp4000
(dp4001
g74
(dp4002
sg83
g3855
sg76
(lp4003
g69
(g90
g71
NtRp4004
(dp4005
g74
(dp4006
g94
g95
ssg83
g4000
sg76
(lp4007
g466
asbag69
(g90
g71
NtRp4008
(dp4009
g74
(dp4010
g101
g102
ssg83
g4000
sg76
(lp4011
S':'
asbag69
(g90
g71
NtRp4012
(dp4013
g74
(dp4014
sg83
g4000
sg76
(lp4015
g69
(g70
g71
NtRp4016
(dp4017
g74
(dp4018
g82
I3
ssg83
g4012
sg76
(lp4019
S''
asbasbasbasbasbasbasbasbasbasbasbag69
(g85
g71
NtRp4020
(dp4021
g74
(dp4022
sg83
g3785
sg76
(lp4023
g69
(g90
g71
NtRp4024
(dp4025
g74
(dp4026
g94
g95
ssg83
g4020
sg76
(lp4027
S'delimiters'
p4028
asbag69
(g90
g71
NtRp4029
(dp4030
g74
(dp4031
g101
g102
ssg83
g4020
sg76
(lp4032
S':'
asbag69
(g90
g71
NtRp4033
(dp4034
g74
(dp4035
sg83
g4020
sg76
(lp4036
g69
(g70
g71
NtRp4037
(dp4038
g74
(dp4039
g82
I5
ssg83
g4033
sg76
(lp4040
g69
(g78
g71
NtRp4041
(dp4042
g74
(dp4043
g82
I4
ssg83
Nsg76
(lp4044
g69
(g85
g71
NtRp4045
(dp4046
g74
(dp4047
sg83
g4041
sg76
(lp4048
g69
(g90
g71
NtRp4049
(dp4050
g74
(dp4051
sg83
g4045
sg76
(lp4052
g69
(g70
g71
NtRp4053
(dp4054
g74
(dp4055
g82
I4
ssg83
g4049
sg76
(lp4056
S'{{'
p4057
asbasbasbag69
(g85
g71
NtRp4058
(dp4059
g74
(dp4060
sg83
g4041
sg76
(lp4061
g69
(g90
g71
NtRp4062
(dp4063
g74
(dp4064
sg83
g4058
sg76
(lp4065
g69
(g70
g71
NtRp4066
(dp4067
g74
(dp4068
g82
I4
ssg83
g4062
sg76
(lp4069
S'}}'
p4070
asbasbasbasbasbasbasbag69
(g85
g71
NtRp4071
(dp4072
g74
(dp4073
sg83
g3785
sg76
(lp4074
g69
(g90
g71
NtRp4075
(dp4076
g74
(dp4077
g94
g95
ssg83
g4071
sg76
(lp4078
S'files'
p4079
asbag69
(g90
g71
NtRp4080
(dp4081
g74
(dp4082
g101
g102
ssg83
g4071
sg76
(lp4083
S':'
asbag69
(g90
g71
NtRp4084
(dp4085
g74
(dp4086
sg83
g4071
sg76
(lp4087
g69
(g70
g71
NtRp4088
(dp4089
g74
(dp4090
g82
I5
ssg83
g4084
sg76
(lp4091
g69
(g78
g71
NtRp4092
(dp4093
g74
(dp4094
g82
I4
ssg83
Nsg76
(lp4095
g69
(g85
g71
NtRp4096
(dp4097
g74
(dp4098
sg83
g4092
sg76
(lp4099
g69
(g90
g71
NtRp4100
(dp4101
g74
(dp4102
sg83
g4096
sg76
(lp4103
g69
(g70
g71
NtRp4104
(dp4105
g74
(dp4106
g82
I4
ssg83
g4100
sg76
(lp4107
S'/Betsy/static/js/jquery.js'
p4108
asbasbasbag69
(g85
g71
NtRp4109
(dp4110
g74
(dp4111
sg83
g4092
sg76
(lp4112
g69
(g90
g71
NtRp4113
(dp4114
g74
(dp4115
sg83
g4109
sg76
(lp4116
g69
(g70
g71
NtRp4117
(dp4118
g74
(dp4119
g82
I4
ssg83
g4113
sg76
(lp4120
S'/Betsy/static/css/calendar.css'
p4121
asbasbasbag69
(g85
g71
NtRp4122
(dp4123
g74
(dp4124
sg83
g4092
sg76
(lp4125
g69
(g90
g71
NtRp4126
(dp4127
g74
(dp4128
sg83
g4122
sg76
(lp4129
g69
(g70
g71
NtRp4130
(dp4131
g74
(dp4132
g82
I4
ssg83
g4126
sg76
(lp4133
S'/Betsy/static/js/calendar.js'
p4134
asbasbasbag69
(g85
g71
NtRp4135
(dp4136
g74
(dp4137
sg83
g4092
sg76
(lp4138
g69
(g90
g71
NtRp4139
(dp4140
g74
(dp4141
sg83
g4135
sg76
(lp4142
g69
(g70
g71
NtRp4143
(dp4144
g74
(dp4145
g82
I4
ssg83
g4139
sg76
(lp4146
S'/Betsy/static/js/web2py.js'
p4147
asbasbasbag69
(g85
g71
NtRp4148
(dp4149
g74
(dp4150
sg83
g4092
sg76
(lp4151
g69
(g90
g71
NtRp4152
(dp4153
g74
(dp4154
sg83
g4148
sg76
(lp4155
g69
(g70
g71
NtRp4156
(dp4157
g74
(dp4158
g82
I4
ssg83
g4152
sg76
(lp4159
S'/Betsy/static/css/web2py.css'
p4160
asbasbasbag69
(g85
g71
NtRp4161
(dp4162
g74
(dp4163
sg83
g4092
sg76
(lp4164
g69
(g90
g71
NtRp4165
(dp4166
g74
(dp4167
sg83
g4161
sg76
(lp4168
g69
(g70
g71
NtRp4169
(dp4170
g74
(dp4171
g82
I4
ssg83
g4165
sg76
(lp4172
S'/Betsy/static/css/bootstrap.min.css'
p4173
asbasbasbag69
(g85
g71
NtRp4174
(dp4175
g74
(dp4176
sg83
g4092
sg76
(lp4177
g69
(g90
g71
NtRp4178
(dp4179
g74
(dp4180
sg83
g4174
sg76
(lp4181
g69
(g70
g71
NtRp4182
(dp4183
g74
(dp4184
g82
I4
ssg83
g4178
sg76
(lp4185
S'/Betsy/static/css/bootstrap-responsive.min.css'
p4186
asbasbasbag69
(g85
g71
NtRp4187
(dp4188
g74
(dp4189
sg83
g4092
sg76
(lp4190
g69
(g90
g71
NtRp4191
(dp4192
g74
(dp4193
sg83
g4187
sg76
(lp4194
g69
(g70
g71
NtRp4195
(dp4196
g74
(dp4197
g82
I4
ssg83
g4191
sg76
(lp4198
S'/Betsy/static/css/web2py_bootstrap.css'
p4199
asbasbasbasbasbasbasbag69
(g85
g71
NtRp4200
(dp4201
g74
(dp4202
sg83
g3785
sg76
(lp4203
g69
(g90
g71
NtRp4204
(dp4205
g74
(dp4206
g94
g95
ssg83
g4200
sg76
(lp4207
S'flash'
p4208
asbag69
(g90
g71
NtRp4209
(dp4210
g74
(dp4211
g101
g102
ssg83
g4200
sg76
(lp4212
S':'
asbag69
(g90
g71
NtRp4213
(dp4214
g74
(dp4215
sg83
g4200
sg76
(lp4216
g69
(g70
g71
NtRp4217
(dp4218
g74
(dp4219
g82
I5
ssg83
g4213
sg76
(lp4220
S''
asbasbasbag69
(g85
g71
NtRp4221
(dp4222
g74
(dp4223
sg83
g3785
sg76
(lp4224
g69
(g90
g71
NtRp4225
(dp4226
g74
(dp4227
g94
g95
ssg83
g4221
sg76
(lp4228
S'generic_patterns'
p4229
asbag69
(g90
g71
NtRp4230
(dp4231
g74
(dp4232
g101
g102
ssg83
g4221
sg76
(lp4233
S':'
asbag69
(g90
g71
NtRp4234
(dp4235
g74
(dp4236
sg83
g4221
sg76
(lp4237
g69
(g70
g71
NtRp4238
(dp4239
g74
(dp4240
g82
I5
ssg83
g4234
sg76
(lp4241
g69
(g78
g71
NtRp4242
(dp4243
g74
(dp4244
g82
I4
ssg83
Nsg76
(lp4245
g69
(g85
g71
NtRp4246
(dp4247
g74
(dp4248
sg83
g4242
sg76
(lp4249
g69
(g90
g71
NtRp4250
(dp4251
g74
(dp4252
sg83
g4246
sg76
(lp4253
g69
(g70
g71
NtRp4254
(dp4255
g74
(dp4256
g82
I4
ssg83
g4250
sg76
(lp4257
S'*'
asbasbasbasbasbasbasbag69
(g85
g71
NtRp4258
(dp4259
g74
(dp4260
sg83
g3785
sg76
(lp4261
g69
(g90
g71
NtRp4262
(dp4263
g74
(dp4264
g94
g95
ssg83
g4258
sg76
(lp4265
S'google_analytics_id'
p4266
asbag69
(g90
g71
NtRp4267
(dp4268
g74
(dp4269
g101
g102
ssg83
g4258
sg76
(lp4270
S':'
asbag69
(g90
g71
NtRp4271
(dp4272
g74
(dp4273
sg83
g4258
sg76
(lp4274
g69
(g70
g71
NtRp4275
(dp4276
g74
(dp4277
g82
I5
ssg83
g4271
sg76
(lp4278
S'None'
p4279
asbasbasbag69
(g85
g71
NtRp4280
(dp4281
g74
(dp4282
sg83
g3785
sg76
(lp4283
g69
(g90
g71
NtRp4284
(dp4285
g74
(dp4286
g94
g95
ssg83
g4280
sg76
(lp4287
S'headers'
p4288
asbag69
(g90
g71
NtRp4289
(dp4290
g74
(dp4291
g101
g102
ssg83
g4280
sg76
(lp4292
S':'
asbag69
(g90
g71
NtRp4293
(dp4294
g74
(dp4295
sg83
g4280
sg76
(lp4296
g69
(g70
g71
NtRp4297
(dp4298
g74
(dp4299
g82
I5
ssg83
g4293
sg76
(lp4300
g69
(g78
g71
NtRp4301
(dp4302
g74
(dp4303
g82
I4
ssg83
Nsg76
(lp4304
g69
(g85
g71
NtRp4305
(dp4306
g74
(dp4307
sg83
g4301
sg76
(lp4308
g69
(g90
g71
NtRp4309
(dp4310
g74
(dp4311
g94
g95
ssg83
g4305
sg76
(lp4312
S'X-Powered-By'
p4313
asbag69
(g90
g71
NtRp4314
(dp4315
g74
(dp4316
g101
g102
ssg83
g4305
sg76
(lp4317
S':'
asbag69
(g90
g71
NtRp4318
(dp4319
g74
(dp4320
sg83
g4305
sg76
(lp4321
g69
(g70
g71
NtRp4322
(dp4323
g74
(dp4324
g82
I4
ssg83
g4318
sg76
(lp4325
S'web2py'
p4326
asbasbasbasbasbasbasbag69
(g85
g71
NtRp4327
(dp4328
g74
(dp4329
sg83
g3785
sg76
(lp4330
g69
(g90
g71
NtRp4331
(dp4332
g74
(dp4333
g94
g95
ssg83
g4327
sg76
(lp4334
S'menu'
p4335
asbag69
(g90
g71
NtRp4336
(dp4337
g74
(dp4338
g101
g102
ssg83
g4327
sg76
(lp4339
S':'
asbag69
(g90
g71
NtRp4340
(dp4341
g74
(dp4342
sg83
g4327
sg76
(lp4343
g69
(g70
g71
NtRp4344
(dp4345
g74
(dp4346
g82
I5
ssg83
g4340
sg76
(lp4347
g69
(g78
g71
NtRp4348
(dp4349
g74
(dp4350
g82
I4
ssg83
Nsg76
(lp4351
g69
(g85
g71
NtRp4352
(dp4353
g74
(dp4354
sg83
g4348
sg76
(lp4355
g69
(g90
g71
NtRp4356
(dp4357
g74
(dp4358
sg83
g4352
sg76
(lp4359
g69
(g70
g71
NtRp4360
(dp4361
g74
(dp4362
g82
I4
ssg83
g4356
sg76
(lp4363
g69
(g78
g71
NtRp4364
(dp4365
g74
(dp4366
g82
I3
ssg83
Nsg76
(lp4367
g69
(g85
g71
NtRp4368
(dp4369
g74
(dp4370
sg83
g4364
sg76
(lp4371
g69
(g90
g71
NtRp4372
(dp4373
g74
(dp4374
sg83
g4368
sg76
(lp4375
g69
(g70
g71
NtRp4376
(dp4377
g74
(dp4378
g82
I3
ssg83
g4372
sg76
(lp4379
cgluon.languages
lazyT_unpickle
p4380
(S's\x04\x00\x00\x00Home'
tRp4381
asbasbasbag69
(g85
g71
NtRp4382
(dp4383
g74
(dp4384
sg83
g4364
sg76
(lp4385
g69
(g90
g71
NtRp4386
(dp4387
g74
(dp4388
sg83
g4382
sg76
(lp4389
g69
(g70
g71
NtRp4390
(dp4391
g74
(dp4392
g82
I3
ssg83
g4386
sg76
(lp4393
g112
asbasbasbag69
(g85
g71
NtRp4394
(dp4395
g74
(dp4396
sg83
g4364
sg76
(lp4397
g69
(g90
g71
NtRp4398
(dp4399
g74
(dp4400
sg83
g4394
sg76
(lp4401
g69
(g70
g71
NtRp4402
(dp4403
g74
(dp4404
g82
I3
ssg83
g4398
sg76
(lp4405
S'/Betsy/default/index'
p4406
asbasbasbag69
(g85
g71
NtRp4407
(dp4408
g74
(dp4409
sg83
g4364
sg76
(lp4410
g69
(g90
g71
NtRp4411
(dp4412
g74
(dp4413
sg83
g4407
sg76
(lp4414
g69
(g70
g71
NtRp4415
(dp4416
g74
(dp4417
g82
I3
ssg83
g4411
sg76
(lp4418
g69
(g78
g71
NtRp4419
(dp4420
g74
(dp4421
g82
I2
ssg83
Nsg76
(lp4422
sbasbasbasbasbasbasbasbag69
(g85
g71
NtRp4423
(dp4424
g74
(dp4425
sg83
g4348
sg76
(lp4426
g69
(g90
g71
NtRp4427
(dp4428
g74
(dp4429
sg83
g4423
sg76
(lp4430
g69
(g70
g71
NtRp4431
(dp4432
g74
(dp4433
g82
I4
ssg83
g4427
sg76
(lp4434
g69
(g78
g71
NtRp4435
(dp4436
g74
(dp4437
g82
I3
ssg83
Nsg76
(lp4438
g69
(g85
g71
NtRp4439
(dp4440
g74
(dp4441
sg83
g4435
sg76
(lp4442
g69
(g90
g71
NtRp4443
(dp4444
g74
(dp4445
sg83
g4439
sg76
(lp4446
g69
(g70
g71
NtRp4447
(dp4448
g74
(dp4449
g82
I3
ssg83
g4443
sg76
(lp4450
g69
(cgluon.html
SPAN
p4451
g71
NtRp4452
(dp4453
g74
(dp4454
S'_class'
p4455
S'highlighted'
p4456
ssg83
g69
(cgluon.html
A
p4457
g71
NtRp4458
(dp4459
g74
(dp4460
S'_href'
p4461
S'http://web2py.com'
p4462
ssg83
g69
(cgluon.html
LI
p4463
g71
NtRp4464
(dp4465
g74
(dp4466
g4455
S'dropdown'
p4467
ssg83
g69
(cgluon.html
UL
p4468
g71
NtRp4469
(dp4470
g74
(dp4471
S'li_class'
p4472
g4467
sS'mobile'
p4473
I00
sg4455
S'nav'
p4474
sS'ul_class'
p4475
S'dropdown-menu'
p4476
sS'li_active'
p4477
S'web2py-menu-active'
p4478
ssg83
Nsg76
(lp4479
g69
(g4463
g71
NtRp4480
(dp4481
g74
(dp4482
sg83
g4469
sg76
(lp4483
g69
(g4457
g71
NtRp4484
(dp4485
g74
(dp4486
g4461
g4406
ssg83
g4480
sg76
(lp4487
g4381
asbasbag4464
asbsg76
(lp4488
g4458
ag69
(g4468
g71
NtRp4489
(dp4490
g74
(dp4491
g4455
g4476
ssg83
g4464
sg76
(lp4492
g69
(g4463
g71
NtRp4493
(dp4494
g74
(dp4495
sg83
g4489
sg76
(lp4496
g69
(g4457
g71
NtRp4497
(dp4498
g74
(dp4499
g4461
S'/admin/default/site'
p4500
ssg83
g4493
sg76
(lp4501
g4380
(S's\x08\x00\x00\x00My Sites'
tRp4502
asbasbag69
(g4463
g71
NtRp4503
(dp4504
g74
(dp4505
g4455
g4467
ssg83
g4489
sg76
(lp4506
g69
(g4457
g71
NtRp4507
(dp4508
g74
(dp4509
g4461
S'/admin/default/design/Betsy'
p4510
ssg83
g4503
sg76
(lp4511
g4380
(S's\x08\x00\x00\x00This App'
tRp4512
asbag69
(g4468
g71
NtRp4513
(dp4514
g74
(dp4515
g4455
g4476
ssg83
g4503
sg76
(lp4516
g69
(g4463
g71
NtRp4517
(dp4518
g74
(dp4519
sg83
g4513
sg76
(lp4520
g69
(g4457
g71
NtRp4521
(dp4522
g74
(dp4523
g4461
S'/admin/default/edit/Betsy/controllers/default.py'
p4524
ssg83
g4517
sg76
(lp4525
g4380
(S's\n\x00\x00\x00Controller'
tRp4526
asbasbag69
(g4463
g71
NtRp4527
(dp4528
g74
(dp4529
sg83
g4513
sg76
(lp4530
g69
(g4457
g71
NtRp4531
(dp4532
g74
(dp4533
g4461
S'/admin/default/edit/Betsy/views/default/show_job.html'
p4534
ssg83
g4527
sg76
(lp4535
g4380
(S's\x04\x00\x00\x00View'
tRp4536
asbasbag69
(g4463
g71
NtRp4537
(dp4538
g74
(dp4539
sg83
g4513
sg76
(lp4540
g69
(g4457
g71
NtRp4541
(dp4542
g74
(dp4543
g4461
S'/admin/default/edit/Betsy/views/layout.html'
p4544
ssg83
g4537
sg76
(lp4545
g4380
(S's\x06\x00\x00\x00Layout'
tRp4546
asbasbag69
(g4463
g71
NtRp4547
(dp4548
g74
(dp4549
sg83
g4513
sg76
(lp4550
g69
(g4457
g71
NtRp4551
(dp4552
g74
(dp4553
g4461
S'/admin/default/edit/Betsy/static/css/web2py.css'
p4554
ssg83
g4547
sg76
(lp4555
g4380
(S's\n\x00\x00\x00Stylesheet'
tRp4556
asbasbag69
(g4463
g71
NtRp4557
(dp4558
g74
(dp4559
sg83
g4513
sg76
(lp4560
g69
(g4457
g71
NtRp4561
(dp4562
g74
(dp4563
g4461
S'/admin/default/edit/Betsy/models/db.py'
p4564
ssg83
g4557
sg76
(lp4565
g4380
(S's\x08\x00\x00\x00DB Model'
tRp4566
asbasbag69
(g4463
g71
NtRp4567
(dp4568
g74
(dp4569
sg83
g4513
sg76
(lp4570
g69
(g4457
g71
NtRp4571
(dp4572
g74
(dp4573
g4461
S'/admin/default/edit/Betsy/models/menu.py'
p4574
ssg83
g4567
sg76
(lp4575
g4380
(S's\n\x00\x00\x00Menu Model'
tRp4576
asbasbag69
(g4463
g71
NtRp4577
(dp4578
g74
(dp4579
sg83
g4513
sg76
(lp4580
g69
(g4457
g71
NtRp4581
(dp4582
g74
(dp4583
g4461
S'/Betsy/appadmin/index'
p4584
ssg83
g4577
sg76
(lp4585
g4380
(S's\x08\x00\x00\x00Database'
tRp4586
asbasbag69
(g4463
g71
NtRp4587
(dp4588
g74
(dp4589
sg83
g4513
sg76
(lp4590
g69
(g4457
g71
NtRp4591
(dp4592
g74
(dp4593
g4461
S'/admin/default/errors/Betsy'
p4594
ssg83
g4587
sg76
(lp4595
g4380
(S's\x06\x00\x00\x00Errors'
tRp4596
asbasbag69
(g4463
g71
NtRp4597
(dp4598
g74
(dp4599
sg83
g4513
sg76
(lp4600
g69
(g4457
g71
NtRp4601
(dp4602
g74
(dp4603
g4461
S'/admin/default/about/Betsy'
p4604
ssg83
g4597
sg76
(lp4605
g4380
(S's\x05\x00\x00\x00About'
tRp4606
asbasbasbasbag69
(g4463
g71
NtRp4607
(dp4608
g74
(dp4609
g4455
g4467
ssg83
g4489
sg76
(lp4610
g69
(g4457
g71
NtRp4611
(dp4612
g74
(dp4613
g4461
S'http://www.web2py.com'
p4614
ssg83
g4607
sg76
(lp4615
S'web2py.com'
p4616
asbag69
(g4468
g71
NtRp4617
(dp4618
g74
(dp4619
g4455
g4476
ssg83
g4607
sg76
(lp4620
g69
(g4463
g71
NtRp4621
(dp4622
g74
(dp4623
sg83
g4617
sg76
(lp4624
g69
(g4457
g71
NtRp4625
(dp4626
g74
(dp4627
g4461
S'http://www.web2py.com/examples/default/download'
p4628
ssg83
g4621
sg76
(lp4629
g4380
(S's\x08\x00\x00\x00Download'
tRp4630
asbasbag69
(g4463
g71
NtRp4631
(dp4632
g74
(dp4633
sg83
g4617
sg76
(lp4634
g69
(g4457
g71
NtRp4635
(dp4636
g74
(dp4637
g4461
S'http://www.web2py.com/examples/default/support'
p4638
ssg83
g4631
sg76
(lp4639
g4380
(S's\x07\x00\x00\x00Support'
tRp4640
asbasbag69
(g4463
g71
NtRp4641
(dp4642
g74
(dp4643
sg83
g4617
sg76
(lp4644
g69
(g4457
g71
NtRp4645
(dp4646
g74
(dp4647
g4461
S'http://web2py.com/demo_admin'
p4648
ssg83
g4641
sg76
(lp4649
g4380
(S's\x04\x00\x00\x00Demo'
tRp4650
asbasbag69
(g4463
g71
NtRp4651
(dp4652
g74
(dp4653
sg83
g4617
sg76
(lp4654
g69
(g4457
g71
NtRp4655
(dp4656
g74
(dp4657
g4461
S'http://web2py.com/examples/default/examples'
p4658
ssg83
g4651
sg76
(lp4659
g4380
(S's\x0e\x00\x00\x00Quick Examples'
tRp4660
asbasbag69
(g4463
g71
NtRp4661
(dp4662
g74
(dp4663
sg83
g4617
sg76
(lp4664
g69
(g4457
g71
NtRp4665
(dp4666
g74
(dp4667
g4461
S'http://web2py.com/AlterEgo'
p4668
ssg83
g4661
sg76
(lp4669
g4380
(S's\x03\x00\x00\x00FAQ'
tRp4670
asbasbag69
(g4463
g71
NtRp4671
(dp4672
g74
(dp4673
sg83
g4617
sg76
(lp4674
g69
(g4457
g71
NtRp4675
(dp4676
g74
(dp4677
g4461
S'http://www.web2py.com/examples/default/videos/'
p4678
ssg83
g4671
sg76
(lp4679
g4380
(S's\x06\x00\x00\x00Videos'
tRp4680
asbasbag69
(g4463
g71
NtRp4681
(dp4682
g74
(dp4683
sg83
g4617
sg76
(lp4684
g69
(g4457
g71
NtRp4685
(dp4686
g74
(dp4687
g4461
S'http://web2py.com/appliances'
p4688
ssg83
g4681
sg76
(lp4689
g4380
(S's\x11\x00\x00\x00Free Applications'
tRp4690
asbasbag69
(g4463
g71
NtRp4691
(dp4692
g74
(dp4693
sg83
g4617
sg76
(lp4694
g69
(g4457
g71
NtRp4695
(dp4696
g74
(dp4697
g4461
S'http://web2py.com/plugins'
p4698
ssg83
g4691
sg76
(lp4699
g4380
(S's\x07\x00\x00\x00Plugins'
tRp4700
asbasbag69
(g4463
g71
NtRp4701
(dp4702
g74
(dp4703
sg83
g4617
sg76
(lp4704
g69
(g4457
g71
NtRp4705
(dp4706
g74
(dp4707
g4461
S'http://web2py.com/layouts'
p4708
ssg83
g4701
sg76
(lp4709
g4380
(S's\x07\x00\x00\x00Layouts'
tRp4710
asbasbag69
(g4463
g71
NtRp4711
(dp4712
g74
(dp4713
sg83
g4617
sg76
(lp4714
g69
(g4457
g71
NtRp4715
(dp4716
g74
(dp4717
g4461
S'http://web2pyslices.com/'
p4718
ssg83
g4711
sg76
(lp4719
g4380
(S's\x07\x00\x00\x00Recipes'
tRp4720
asbasbag69
(g4463
g71
NtRp4721
(dp4722
g74
(dp4723
sg83
g4617
sg76
(lp4724
g69
(g4457
g71
NtRp4725
(dp4726
g74
(dp4727
g4461
S'http://web2py.com/semantic'
p4728
ssg83
g4721
sg76
(lp4729
g4380
(S's\x08\x00\x00\x00Semantic'
tRp4730
asbasbasbasbag69
(g4463
g71
NtRp4731
(dp4732
g74
(dp4733
g4455
g4467
ssg83
g4489
sg76
(lp4734
g69
(g4457
g71
NtRp4735
(dp4736
g74
(dp4737
g4461
S'http://www.web2py.com/book'
p4738
ssg83
g4731
sg76
(lp4739
g4380
(S's\r\x00\x00\x00Documentation'
tRp4740
asbag69
(g4468
g71
NtRp4741
(dp4742
g74
(dp4743
g4455
g4476
ssg83
g4731
sg76
(lp4744
g69
(g4463
g71
NtRp4745
(dp4746
g74
(dp4747
sg83
g4741
sg76
(lp4748
g69
(g4457
g71
NtRp4749
(dp4750
g74
(dp4751
g4461
S'http://www.web2py.com/book/default/chapter/00'
p4752
ssg83
g4745
sg76
(lp4753
g4380
(S's\x07\x00\x00\x00Preface'
tRp4754
asbasbag69
(g4463
g71
NtRp4755
(dp4756
g74
(dp4757
sg83
g4741
sg76
(lp4758
g69
(g4457
g71
NtRp4759
(dp4760
g74
(dp4761
g4461
S'http://www.web2py.com/book/default/chapter/01'
p4762
ssg83
g4755
sg76
(lp4763
g4380
(S's\x0c\x00\x00\x00Introduction'
tRp4764
asbasbag69
(g4463
g71
NtRp4765
(dp4766
g74
(dp4767
sg83
g4741
sg76
(lp4768
g69
(g4457
g71
NtRp4769
(dp4770
g74
(dp4771
g4461
S'http://www.web2py.com/book/default/chapter/02'
p4772
ssg83
g4765
sg76
(lp4773
g4380
(S's\x06\x00\x00\x00Python'
tRp4774
asbasbag69
(g4463
g71
NtRp4775
(dp4776
g74
(dp4777
sg83
g4741
sg76
(lp4778
g69
(g4457
g71
NtRp4779
(dp4780
g74
(dp4781
g4461
S'http://www.web2py.com/book/default/chapter/03'
p4782
ssg83
g4775
sg76
(lp4783
g4380
(S's\x08\x00\x00\x00Overview'
tRp4784
asbasbag69
(g4463
g71
NtRp4785
(dp4786
g74
(dp4787
sg83
g4741
sg76
(lp4788
g69
(g4457
g71
NtRp4789
(dp4790
g74
(dp4791
g4461
S'http://www.web2py.com/book/default/chapter/04'
p4792
ssg83
g4785
sg76
(lp4793
g4380
(S's\x08\x00\x00\x00The Core'
tRp4794
asbasbag69
(g4463
g71
NtRp4795
(dp4796
g74
(dp4797
sg83
g4741
sg76
(lp4798
g69
(g4457
g71
NtRp4799
(dp4800
g74
(dp4801
g4461
S'http://www.web2py.com/book/default/chapter/05'
p4802
ssg83
g4795
sg76
(lp4803
g4380
(S's\t\x00\x00\x00The Views'
tRp4804
asbasbag69
(g4463
g71
NtRp4805
(dp4806
g74
(dp4807
sg83
g4741
sg76
(lp4808
g69
(g4457
g71
NtRp4809
(dp4810
g74
(dp4811
g4461
S'http://www.web2py.com/book/default/chapter/06'
p4812
ssg83
g4805
sg76
(lp4813
g4380
(S's\x08\x00\x00\x00Database'
tRp4814
asbasbag69
(g4463
g71
NtRp4815
(dp4816
g74
(dp4817
sg83
g4741
sg76
(lp4818
g69
(g4457
g71
NtRp4819
(dp4820
g74
(dp4821
g4461
S'http://www.web2py.com/book/default/chapter/07'
p4822
ssg83
g4815
sg76
(lp4823
g4380
(S's\x14\x00\x00\x00Forms and Validators'
tRp4824
asbasbag69
(g4463
g71
NtRp4825
(dp4826
g74
(dp4827
sg83
g4741
sg76
(lp4828
g69
(g4457
g71
NtRp4829
(dp4830
g74
(dp4831
g4461
S'http://www.web2py.com/book/default/chapter/08'
p4832
ssg83
g4825
sg76
(lp4833
g4380
(S's\r\x00\x00\x00Email and SMS'
tRp4834
asbasbag69
(g4463
g71
NtRp4835
(dp4836
g74
(dp4837
sg83
g4741
sg76
(lp4838
g69
(g4457
g71
NtRp4839
(dp4840
g74
(dp4841
g4461
S'http://www.web2py.com/book/default/chapter/09'
p4842
ssg83
g4835
sg76
(lp4843
g4380
(S's\x0e\x00\x00\x00Access Control'
tRp4844
asbasbag69
(g4463
g71
NtRp4845
(dp4846
g74
(dp4847
sg83
g4741
sg76
(lp4848
g69
(g4457
g71
NtRp4849
(dp4850
g74
(dp4851
g4461
S'http://www.web2py.com/book/default/chapter/10'
p4852
ssg83
g4845
sg76
(lp4853
g4380
(S's\x08\x00\x00\x00Services'
tRp4854
asbasbag69
(g4463
g71
NtRp4855
(dp4856
g74
(dp4857
sg83
g4741
sg76
(lp4858
g69
(g4457
g71
NtRp4859
(dp4860
g74
(dp4861
g4461
S'http://www.web2py.com/book/default/chapter/11'
p4862
ssg83
g4855
sg76
(lp4863
g4380
(S's\x0c\x00\x00\x00Ajax Recipes'
tRp4864
asbasbag69
(g4463
g71
NtRp4865
(dp4866
g74
(dp4867
sg83
g4741
sg76
(lp4868
g69
(g4457
g71
NtRp4869
(dp4870
g74
(dp4871
g4461
S'http://www.web2py.com/book/default/chapter/12'
p4872
ssg83
g4865
sg76
(lp4873
g4380
(S's\x16\x00\x00\x00Components and Plugins'
tRp4874
asbasbag69
(g4463
g71
NtRp4875
(dp4876
g74
(dp4877
sg83
g4741
sg76
(lp4878
g69
(g4457
g71
NtRp4879
(dp4880
g74
(dp4881
g4461
S'http://www.web2py.com/book/default/chapter/13'
p4882
ssg83
g4875
sg76
(lp4883
g4380
(S's\x12\x00\x00\x00Deployment Recipes'
tRp4884
asbasbag69
(g4463
g71
NtRp4885
(dp4886
g74
(dp4887
sg83
g4741
sg76
(lp4888
g69
(g4457
g71
NtRp4889
(dp4890
g74
(dp4891
g4461
S'http://www.web2py.com/book/default/chapter/14'
p4892
ssg83
g4885
sg76
(lp4893
g4380
(S's\r\x00\x00\x00Other Recipes'
tRp4894
asbasbag69
(g4463
g71
NtRp4895
(dp4896
g74
(dp4897
sg83
g4741
sg76
(lp4898
g69
(g4457
g71
NtRp4899
(dp4900
g74
(dp4901
g4461
S'http://stores.lulu.com/web2py'
p4902
ssg83
g4895
sg76
(lp4903
g4380
(S's\r\x00\x00\x00Buy this book'
tRp4904
asbasbasbasbag69
(g4463
g71
NtRp4905
(dp4906
g74
(dp4907
g4455
g4467
ssg83
g4489
sg76
(lp4908
g69
(g4457
g71
NtRp4909
(dp4910
g74
(dp4911
S'_onclick'
p4912
S'javascript:void(0);return false;'
p4913
sg4461
S'#'
ssg83
g4905
sg76
(lp4914
g4380
(S's\t\x00\x00\x00Community'
tRp4915
asbag69
(g4468
g71
NtRp4916
(dp4917
g74
(dp4918
g4455
g4476
ssg83
g4905
sg76
(lp4919
g69
(g4463
g71
NtRp4920
(dp4921
g74
(dp4922
sg83
g4916
sg76
(lp4923
g69
(g4457
g71
NtRp4924
(dp4925
g74
(dp4926
g4461
S'http://www.web2py.com/examples/default/usergroups'
p4927
ssg83
g4920
sg76
(lp4928
g4380
(S's\x06\x00\x00\x00Groups'
tRp4929
asbasbag69
(g4463
g71
NtRp4930
(dp4931
g74
(dp4932
sg83
g4916
sg76
(lp4933
g69
(g4457
g71
NtRp4934
(dp4935
g74
(dp4936
g4461
S'http://twitter.com/web2py'
p4937
ssg83
g4930
sg76
(lp4938
g4380
(S's\x07\x00\x00\x00Twitter'
tRp4939
asbasbag69
(g4463
g71
NtRp4940
(dp4941
g74
(dp4942
sg83
g4916
sg76
(lp4943
g69
(g4457
g71
NtRp4944
(dp4945
g74
(dp4946
g4461
S'http://webchat.freenode.net/?channels=web2py'
p4947
ssg83
g4940
sg76
(lp4948
g4380
(S's\t\x00\x00\x00Live Chat'
tRp4949
asbasbasbasbag69
(g4463
g71
NtRp4950
(dp4951
g74
(dp4952
g4455
g4467
ssg83
g4489
sg76
(lp4953
g69
(g4457
g71
NtRp4954
(dp4955
g74
(dp4956
g4912
g4913
sg4461
S'#'
ssg83
g4950
sg76
(lp4957
g4380
(S's\x07\x00\x00\x00Plugins'
tRp4958
asbag69
(g4468
g71
NtRp4959
(dp4960
g74
(dp4961
g4455
g4476
ssg83
g4950
sg76
(lp4962
g69
(g4463
g71
NtRp4963
(dp4964
g74
(dp4965
sg83
g4959
sg76
(lp4966
g69
(g4457
g71
NtRp4967
(dp4968
g74
(dp4969
g4461
S'http://web2py.com/examples/default/download'
p4970
ssg83
g4963
sg76
(lp4971
S'plugin_wiki'
p4972
asbasbag69
(g4463
g71
NtRp4973
(dp4974
g74
(dp4975
sg83
g4959
sg76
(lp4976
g69
(g4457
g71
NtRp4977
(dp4978
g74
(dp4979
g4461
g4698
ssg83
g4973
sg76
(lp4980
g4380
(S's\r\x00\x00\x00Other Plugins'
tRp4981
asbasbag69
(g4463
g71
NtRp4982
(dp4983
g74
(dp4984
sg83
g4959
sg76
(lp4985
g69
(g4457
g71
NtRp4986
(dp4987
g74
(dp4988
g4461
g4708
ssg83
g4982
sg76
(lp4989
g4380
(S's\x0e\x00\x00\x00Layout Plugins'
tRp4990
asbasbasbasbasbasbsg76
(lp4991
g4452
asbsg76
(lp4992
g4326
asbasbasbasbag69
(g85
g71
NtRp4993
(dp4994
g74
(dp4995
sg83
g4435
sg76
(lp4996
g69
(g90
g71
NtRp4997
(dp4998
g74
(dp4999
sg83
g4993
sg76
(lp5000
g69
(g70
g71
NtRp5001
(dp5002
g74
(dp5003
g82
I3
ssg83
g4997
sg76
(lp5004
g112
asbasbasbag69
(g85
g71
NtRp5005
(dp5006
g74
(dp5007
sg83
g4435
sg76
(lp5008
g69
(g90
g71
NtRp5009
(dp5010
g74
(dp5011
sg83
g5005
sg76
(lp5012
g69
(g70
g71
NtRp5013
(dp5014
g74
(dp5015
g82
I3
ssg83
g5009
sg76
(lp5016
g4462
asbasbasbag69
(g85
g71
NtRp5017
(dp5018
g74
(dp5019
sg83
g4435
sg76
(lp5020
g69
(g90
g71
NtRp5021
(dp5022
g74
(dp5023
sg83
g5017
sg76
(lp5024
g69
(g70
g71
NtRp5025
(dp5026
g74
(dp5027
g82
I3
ssg83
g5021
sg76
(lp5028
g69
(g78
g71
NtRp5029
(dp5030
g74
(dp5031
g82
I2
ssg83
Nsg76
(lp5032
g69
(g85
g71
NtRp5033
(dp5034
g74
(dp5035
sg83
g5029
sg76
(lp5036
g69
(g90
g71
NtRp5037
(dp5038
g74
(dp5039
sg83
g5033
sg76
(lp5040
g69
(g70
g71
NtRp5041
(dp5042
g74
(dp5043
g82
I2
ssg83
g5037
sg76
(lp5044
g69
(g78
g71
NtRp5045
(dp5046
g74
(dp5047
g82
I1
ssg83
Nsg76
(lp5048
g69
(g85
g71
NtRp5049
(dp5050
g74
(dp5051
sg83
g5045
sg76
(lp5052
g69
(g90
g71
NtRp5053
(dp5054
g74
(dp5055
sg83
g5049
sg76
(lp5056
g69
(g70
g71
NtRp5057
(dp5058
g74
(dp5059
g82
I1
ssg83
g5053
sg76
(lp5060
g4502
asbasbasbag69
(g85
g71
NtRp5061
(dp5062
g74
(dp5063
sg83
g5045
sg76
(lp5064
g69
(g90
g71
NtRp5065
(dp5066
g74
(dp5067
sg83
g5061
sg76
(lp5068
g69
(g70
g71
NtRp5069
(dp5070
g74
(dp5071
g82
I1
ssg83
g5065
sg76
(lp5072
I00
asbasbasbag69
(g85
g71
NtRp5073
(dp5074
g74
(dp5075
sg83
g5045
sg76
(lp5076
g69
(g90
g71
NtRp5077
(dp5078
g74
(dp5079
sg83
g5073
sg76
(lp5080
g69
(g70
g71
NtRp5081
(dp5082
g74
(dp5083
g82
I1
ssg83
g5077
sg76
(lp5084
g4500
asbasbasbasbasbasbasbag69
(g85
g71
NtRp5085
(dp5086
g74
(dp5087
sg83
g5029
sg76
(lp5088
g69
(g90
g71
NtRp5089
(dp5090
g74
(dp5091
sg83
g5085
sg76
(lp5092
g69
(g70
g71
NtRp5093
(dp5094
g74
(dp5095
g82
I2
ssg83
g5089
sg76
(lp5096
g69
(g78
g71
NtRp5097
(dp5098
g74
(dp5099
g82
I1
ssg83
Nsg76
(lp5100
g69
(g85
g71
NtRp5101
(dp5102
g74
(dp5103
sg83
g5097
sg76
(lp5104
g69
(g90
g71
NtRp5105
(dp5106
g74
(dp5107
sg83
g5101
sg76
(lp5108
g69
(g70
g71
NtRp5109
(dp5110
g74
(dp5111
g82
I1
ssg83
g5105
sg76
(lp5112
g4512
asbasbasbag69
(g85
g71
NtRp5113
(dp5114
g74
(dp5115
sg83
g5097
sg76
(lp5116
g69
(g90
g71
NtRp5117
(dp5118
g74
(dp5119
sg83
g5113
sg76
(lp5120
g69
(g70
g71
NtRp5121
(dp5122
g74
(dp5123
g82
I1
ssg83
g5117
sg76
(lp5124
I00
asbasbasbag69
(g85
g71
NtRp5125
(dp5126
g74
(dp5127
sg83
g5097
sg76
(lp5128
g69
(g90
g71
NtRp5129
(dp5130
g74
(dp5131
sg83
g5125
sg76
(lp5132
g69
(g70
g71
NtRp5133
(dp5134
g74
(dp5135
g82
I1
ssg83
g5129
sg76
(lp5136
g4510
asbasbasbag69
(g85
g71
NtRp5137
(dp5138
g74
(dp5139
sg83
g5097
sg76
(lp5140
g69
(g90
g71
NtRp5141
(dp5142
g74
(dp5143
sg83
g5137
sg76
(lp5144
g69
(g70
g71
NtRp5145
(dp5146
g74
(dp5147
g82
I1
ssg83
g5141
sg76
(lp5148
(lp5149
(g4526
I00
g4524
tp5150
a(g4536
I00
g4534
tp5151
a(g4546
I00
g4544
tp5152
a(g4556
I00
g4554
tp5153
a(g4566
I00
g4564
tp5154
a(g4576
I00
g4574
tp5155
a(g4586
I00
g4584
tp5156
a(g4596
I00
g4594
tp5157
a(g4606
I00
g4604
tp5158
aasbasbasbasbasbasbasbag69
(g85
g71
NtRp5159
(dp5160
g74
(dp5161
sg83
g5029
sg76
(lp5162
g69
(g90
g71
NtRp5163
(dp5164
g74
(dp5165
sg83
g5159
sg76
(lp5166
g69
(g70
g71
NtRp5167
(dp5168
g74
(dp5169
g82
I2
ssg83
g5163
sg76
(lp5170
g69
(g78
g71
NtRp5171
(dp5172
g74
(dp5173
g82
I1
ssg83
Nsg76
(lp5174
g69
(g85
g71
NtRp5175
(dp5176
g74
(dp5177
sg83
g5171
sg76
(lp5178
g69
(g90
g71
NtRp5179
(dp5180
g74
(dp5181
sg83
g5175
sg76
(lp5182
g69
(g70
g71
NtRp5183
(dp5184
g74
(dp5185
g82
I1
ssg83
g5179
sg76
(lp5186
g4616
asbasbasbag69
(g85
g71
NtRp5187
(dp5188
g74
(dp5189
sg83
g5171
sg76
(lp5190
g69
(g90
g71
NtRp5191
(dp5192
g74
(dp5193
sg83
g5187
sg76
(lp5194
g69
(g70
g71
NtRp5195
(dp5196
g74
(dp5197
g82
I1
ssg83
g5191
sg76
(lp5198
I00
asbasbasbag69
(g85
g71
NtRp5199
(dp5200
g74
(dp5201
sg83
g5171
sg76
(lp5202
g69
(g90
g71
NtRp5203
(dp5204
g74
(dp5205
sg83
g5199
sg76
(lp5206
g69
(g70
g71
NtRp5207
(dp5208
g74
(dp5209
g82
I1
ssg83
g5203
sg76
(lp5210
g4614
asbasbasbag69
(g85
g71
NtRp5211
(dp5212
g74
(dp5213
sg83
g5171
sg76
(lp5214
g69
(g90
g71
NtRp5215
(dp5216
g74
(dp5217
sg83
g5211
sg76
(lp5218
g69
(g70
g71
NtRp5219
(dp5220
g74
(dp5221
g82
I1
ssg83
g5215
sg76
(lp5222
(lp5223
(g4630
I00
g4628
tp5224
a(g4640
I00
g4638
tp5225
a(g4650
I00
g4648
tp5226
a(g4660
I00
g4658
tp5227
a(g4670
I00
g4668
tp5228
a(g4680
I00
g4678
tp5229
a(g4690
I00
g4688
tp5230
a(g4700
I00
g4698
tp5231
a(g4710
I00
g4708
tp5232
a(g4720
I00
g4718
tp5233
a(g4730
I00
g4728
tp5234
aasbasbasbasbasbasbasbag69
(g85
g71
NtRp5235
(dp5236
g74
(dp5237
sg83
g5029
sg76
(lp5238
g69
(g90
g71
NtRp5239
(dp5240
g74
(dp5241
sg83
g5235
sg76
(lp5242
g69
(g70
g71
NtRp5243
(dp5244
g74
(dp5245
g82
I2
ssg83
g5239
sg76
(lp5246
g69
(g78
g71
NtRp5247
(dp5248
g74
(dp5249
g82
I1
ssg83
Nsg76
(lp5250
g69
(g85
g71
NtRp5251
(dp5252
g74
(dp5253
sg83
g5247
sg76
(lp5254
g69
(g90
g71
NtRp5255
(dp5256
g74
(dp5257
sg83
g5251
sg76
(lp5258
g69
(g70
g71
NtRp5259
(dp5260
g74
(dp5261
g82
I1
ssg83
g5255
sg76
(lp5262
g4740
asbasbasbag69
(g85
g71
NtRp5263
(dp5264
g74
(dp5265
sg83
g5247
sg76
(lp5266
g69
(g90
g71
NtRp5267
(dp5268
g74
(dp5269
sg83
g5263
sg76
(lp5270
g69
(g70
g71
NtRp5271
(dp5272
g74
(dp5273
g82
I1
ssg83
g5267
sg76
(lp5274
I00
asbasbasbag69
(g85
g71
NtRp5275
(dp5276
g74
(dp5277
sg83
g5247
sg76
(lp5278
g69
(g90
g71
NtRp5279
(dp5280
g74
(dp5281
sg83
g5275
sg76
(lp5282
g69
(g70
g71
NtRp5283
(dp5284
g74
(dp5285
g82
I1
ssg83
g5279
sg76
(lp5286
g4738
asbasbasbag69
(g85
g71
NtRp5287
(dp5288
g74
(dp5289
sg83
g5247
sg76
(lp5290
g69
(g90
g71
NtRp5291
(dp5292
g74
(dp5293
sg83
g5287
sg76
(lp5294
g69
(g70
g71
NtRp5295
(dp5296
g74
(dp5297
g82
I1
ssg83
g5291
sg76
(lp5298
(lp5299
(g4754
I00
g4752
tp5300
a(g4764
I00
g4762
tp5301
a(g4774
I00
g4772
tp5302
a(g4784
I00
g4782
tp5303
a(g4794
I00
g4792
tp5304
a(g4804
I00
g4802
tp5305
a(g4814
I00
g4812
tp5306
a(g4824
I00
g4822
tp5307
a(g4834
I00
g4832
tp5308
a(g4844
I00
g4842
tp5309
a(g4854
I00
g4852
tp5310
a(g4864
I00
g4862
tp5311
a(g4874
I00
g4872
tp5312
a(g4884
I00
g4882
tp5313
a(g4894
I00
g4892
tp5314
a(g4904
I00
g4902
tp5315
aasbasbasbasbasbasbasbag69
(g85
g71
NtRp5316
(dp5317
g74
(dp5318
sg83
g5029
sg76
(lp5319
g69
(g90
g71
NtRp5320
(dp5321
g74
(dp5322
sg83
g5316
sg76
(lp5323
g69
(g70
g71
NtRp5324
(dp5325
g74
(dp5326
g82
I2
ssg83
g5320
sg76
(lp5327
g69
(g78
g71
NtRp5328
(dp5329
g74
(dp5330
g82
I1
ssg83
Nsg76
(lp5331
g69
(g85
g71
NtRp5332
(dp5333
g74
(dp5334
sg83
g5328
sg76
(lp5335
g69
(g90
g71
NtRp5336
(dp5337
g74
(dp5338
sg83
g5332
sg76
(lp5339
g69
(g70
g71
NtRp5340
(dp5341
g74
(dp5342
g82
I1
ssg83
g5336
sg76
(lp5343
g4915
asbasbasbag69
(g85
g71
NtRp5344
(dp5345
g74
(dp5346
sg83
g5328
sg76
(lp5347
g69
(g90
g71
NtRp5348
(dp5349
g74
(dp5350
sg83
g5344
sg76
(lp5351
g69
(g70
g71
NtRp5352
(dp5353
g74
(dp5354
g82
I1
ssg83
g5348
sg76
(lp5355
I00
asbasbasbag69
(g85
g71
NtRp5356
(dp5357
g74
(dp5358
sg83
g5328
sg76
(lp5359
g69
(g90
g71
NtRp5360
(dp5361
g74
(dp5362
sg83
g5356
sg76
(lp5363
g69
(g70
g71
NtRp5364
(dp5365
g74
(dp5366
g82
I1
ssg83
g5360
sg76
(lp5367
Nasbasbasbag69
(g85
g71
NtRp5368
(dp5369
g74
(dp5370
sg83
g5328
sg76
(lp5371
g69
(g90
g71
NtRp5372
(dp5373
g74
(dp5374
sg83
g5368
sg76
(lp5375
g69
(g70
g71
NtRp5376
(dp5377
g74
(dp5378
g82
I1
ssg83
g5372
sg76
(lp5379
(lp5380
(g4929
I00
g4927
tp5381
a(g4939
I00
g4937
tp5382
a(g4949
I00
g4947
tp5383
aasbasbasbasbasbasbasbag69
(g85
g71
NtRp5384
(dp5385
g74
(dp5386
sg83
g5029
sg76
(lp5387
g69
(g90
g71
NtRp5388
(dp5389
g74
(dp5390
sg83
g5384
sg76
(lp5391
g69
(g70
g71
NtRp5392
(dp5393
g74
(dp5394
g82
I2
ssg83
g5388
sg76
(lp5395
g69
(g78
g71
NtRp5396
(dp5397
g74
(dp5398
g82
I1
ssg83
Nsg76
(lp5399
g69
(g85
g71
NtRp5400
(dp5401
g74
(dp5402
sg83
g5396
sg76
(lp5403
g69
(g90
g71
NtRp5404
(dp5405
g74
(dp5406
sg83
g5400
sg76
(lp5407
g69
(g70
g71
NtRp5408
(dp5409
g74
(dp5410
g82
I1
ssg83
g5404
sg76
(lp5411
g4958
asbasbasbag69
(g85
g71
NtRp5412
(dp5413
g74
(dp5414
sg83
g5396
sg76
(lp5415
g69
(g90
g71
NtRp5416
(dp5417
g74
(dp5418
sg83
g5412
sg76
(lp5419
g69
(g70
g71
NtRp5420
(dp5421
g74
(dp5422
g82
I1
ssg83
g5416
sg76
(lp5423
I00
asbasbasbag69
(g85
g71
NtRp5424
(dp5425
g74
(dp5426
sg83
g5396
sg76
(lp5427
g69
(g90
g71
NtRp5428
(dp5429
g74
(dp5430
sg83
g5424
sg76
(lp5431
g69
(g70
g71
NtRp5432
(dp5433
g74
(dp5434
g82
I1
ssg83
g5428
sg76
(lp5435
Nasbasbasbag69
(g85
g71
NtRp5436
(dp5437
g74
(dp5438
sg83
g5396
sg76
(lp5439
g69
(g90
g71
NtRp5440
(dp5441
g74
(dp5442
sg83
g5436
sg76
(lp5443
g69
(g70
g71
NtRp5444
(dp5445
g74
(dp5446
g82
I1
ssg83
g5440
sg76
(lp5447
(lp5448
(g4972
I00
g4970
tp5449
a(g4981
I00
g4698
tp5450
a(g4990
I00
g4708
tp5451
aasbasbasbasbasbasbasbasbasbasbasbasbasbasbasbasbasbasbasbag69
(g85
g71
NtRp5452
(dp5453
g74
(dp5454
sg83
g3785
sg76
(lp5455
g69
(g90
g71
NtRp5456
(dp5457
g74
(dp5458
g94
g95
ssg83
g5452
sg76
(lp5459
S'meta'
p5460
asbag69
(g90
g71
NtRp5461
(dp5462
g74
(dp5463
g101
g102
ssg83
g5452
sg76
(lp5464
S':'
asbag69
(g90
g71
NtRp5465
(dp5466
g74
(dp5467
sg83
g5452
sg76
(lp5468
g69
(g70
g71
NtRp5469
(dp5470
g74
(dp5471
g82
I5
ssg83
g5465
sg76
(lp5472
g69
(g78
g71
NtRp5473
(dp5474
g74
(dp5475
g82
I4
ssg83
Nsg76
(lp5476
g69
(g85
g71
NtRp5477
(dp5478
g74
(dp5479
sg83
g5473
sg76
(lp5480
g69
(g90
g71
NtRp5481
(dp5482
g74
(dp5483
g94
g95
ssg83
g5477
sg76
(lp5484
S'author'
p5485
asbag69
(g90
g71
NtRp5486
(dp5487
g74
(dp5488
g101
g102
ssg83
g5477
sg76
(lp5489
S':'
asbag69
(g90
g71
NtRp5490
(dp5491
g74
(dp5492
sg83
g5477
sg76
(lp5493
g69
(g70
g71
NtRp5494
(dp5495
g74
(dp5496
g82
I4
ssg83
g5490
sg76
(lp5497
S'Your Name <you@example.com>'
p5498
asbasbasbag69
(g85
g71
NtRp5499
(dp5500
g74
(dp5501
sg83
g5473
sg76
(lp5502
g69
(g90
g71
NtRp5503
(dp5504
g74
(dp5505
g94
g95
ssg83
g5499
sg76
(lp5506
S'description'
p5507
asbag69
(g90
g71
NtRp5508
(dp5509
g74
(dp5510
g101
g102
ssg83
g5499
sg76
(lp5511
S':'
asbag69
(g90
g71
NtRp5512
(dp5513
g74
(dp5514
sg83
g5499
sg76
(lp5515
g69
(g70
g71
NtRp5516
(dp5517
g74
(dp5518
g82
I4
ssg83
g5512
sg76
(lp5519
S'a cool new app'
p5520
asbasbasbag69
(g85
g71
NtRp5521
(dp5522
g74
(dp5523
sg83
g5473
sg76
(lp5524
g69
(g90
g71
NtRp5525
(dp5526
g74
(dp5527
g94
g95
ssg83
g5521
sg76
(lp5528
S'generator'
p5529
asbag69
(g90
g71
NtRp5530
(dp5531
g74
(dp5532
g101
g102
ssg83
g5521
sg76
(lp5533
S':'
asbag69
(g90
g71
NtRp5534
(dp5535
g74
(dp5536
sg83
g5521
sg76
(lp5537
g69
(g70
g71
NtRp5538
(dp5539
g74
(dp5540
g82
I4
ssg83
g5534
sg76
(lp5541
S'Web2py Web Framework'
p5542
asbasbasbag69
(g85
g71
NtRp5543
(dp5544
g74
(dp5545
sg83
g5473
sg76
(lp5546
g69
(g90
g71
NtRp5547
(dp5548
g74
(dp5549
g94
g95
ssg83
g5543
sg76
(lp5550
S'keywords'
p5551
asbag69
(g90
g71
NtRp5552
(dp5553
g74
(dp5554
g101
g102
ssg83
g5543
sg76
(lp5555
S':'
asbag69
(g90
g71
NtRp5556
(dp5557
g74
(dp5558
sg83
g5543
sg76
(lp5559
g69
(g70
g71
NtRp5560
(dp5561
g74
(dp5562
g82
I4
ssg83
g5556
sg76
(lp5563
S'web2py, python, framework'
p5564
asbasbasbasbasbasbasbag69
(g85
g71
NtRp5565
(dp5566
g74
(dp5567
sg83
g3785
sg76
(lp5568
g69
(g90
g71
NtRp5569
(dp5570
g74
(dp5571
g94
g95
ssg83
g5565
sg76
(lp5572
S'models_to_run'
p5573
asbag69
(g90
g71
NtRp5574
(dp5575
g74
(dp5576
g101
g102
ssg83
g5565
sg76
(lp5577
S':'
asbag69
(g90
g71
NtRp5578
(dp5579
g74
(dp5580
sg83
g5565
sg76
(lp5581
g69
(g70
g71
NtRp5582
(dp5583
g74
(dp5584
g82
I5
ssg83
g5578
sg76
(lp5585
g69
(g78
g71
NtRp5586
(dp5587
g74
(dp5588
g82
I4
ssg83
Nsg76
(lp5589
g69
(g85
g71
NtRp5590
(dp5591
g74
(dp5592
sg83
g5586
sg76
(lp5593
g69
(g90
g71
NtRp5594
(dp5595
g74
(dp5596
sg83
g5590
sg76
(lp5597
g69
(g70
g71
NtRp5598
(dp5599
g74
(dp5600
g82
I4
ssg83
g5594
sg76
(lp5601
S'^\\w+\\.py$'
p5602
asbasbasbag69
(g85
g71
NtRp5603
(dp5604
g74
(dp5605
sg83
g5586
sg76
(lp5606
g69
(g90
g71
NtRp5607
(dp5608
g74
(dp5609
sg83
g5603
sg76
(lp5610
g69
(g70
g71
NtRp5611
(dp5612
g74
(dp5613
g82
I4
ssg83
g5607
sg76
(lp5614
S'^default/\\w+\\.py$'
p5615
asbasbasbag69
(g85
g71
NtRp5616
(dp5617
g74
(dp5618
sg83
g5586
sg76
(lp5619
g69
(g90
g71
NtRp5620
(dp5621
g74
(dp5622
sg83
g5616
sg76
(lp5623
g69
(g70
g71
NtRp5624
(dp5625
g74
(dp5626
g82
I4
ssg83
g5620
sg76
(lp5627
S'^default/show_job/\\w+\\.py$'
p5628
asbasbasbasbasbasbasbag69
(g85
g71
NtRp5629
(dp5630
g74
(dp5631
sg83
g3785
sg76
(lp5632
g69
(g90
g71
NtRp5633
(dp5634
g74
(dp5635
g94
g95
ssg83
g5629
sg76
(lp5636
S'postprocessing'
p5637
asbag69
(g90
g71
NtRp5638
(dp5639
g74
(dp5640
g101
g102
ssg83
g5629
sg76
(lp5641
S':'
asbag69
(g90
g71
NtRp5642
(dp5643
g74
(dp5644
sg83
g5629
sg76
(lp5645
g69
(g70
g71
NtRp5646
(dp5647
g74
(dp5648
g82
I5
ssg83
g5642
sg76
(lp5649
g69
(g78
g71
NtRp5650
(dp5651
g74
(dp5652
g82
I4
ssg83
Nsg76
(lp5653
sbasbasbasbag69
(g85
g71
NtRp5654
(dp5655
g74
(dp5656
sg83
g3785
sg76
(lp5657
g69
(g90
g71
NtRp5658
(dp5659
g74
(dp5660
g94
g95
ssg83
g5654
sg76
(lp5661
S'session_cookie_expires'
p5662
asbag69
(g90
g71
NtRp5663
(dp5664
g74
(dp5665
g101
g102
ssg83
g5654
sg76
(lp5666
S':'
asbag69
(g90
g71
NtRp5667
(dp5668
g74
(dp5669
sg83
g5654
sg76
(lp5670
g69
(g70
g71
NtRp5671
(dp5672
g74
(dp5673
g82
I5
ssg83
g5667
sg76
(lp5674
S'None'
p5675
asbasbasbag69
(g85
g71
NtRp5676
(dp5677
g74
(dp5678
sg83
g3785
sg76
(lp5679
g69
(g90
g71
NtRp5680
(dp5681
g74
(dp5682
g94
g95
ssg83
g5676
sg76
(lp5683
S'session_data_name'
p5684
asbag69
(g90
g71
NtRp5685
(dp5686
g74
(dp5687
g101
g102
ssg83
g5676
sg76
(lp5688
S':'
asbag69
(g90
g71
NtRp5689
(dp5690
g74
(dp5691
sg83
g5676
sg76
(lp5692
g69
(g70
g71
NtRp5693
(dp5694
g74
(dp5695
g82
I5
ssg83
g5689
sg76
(lp5696
S'session_data_betsy'
p5697
asbasbasbag69
(g85
g71
NtRp5698
(dp5699
g74
(dp5700
sg83
g3785
sg76
(lp5701
g69
(g90
g71
NtRp5702
(dp5703
g74
(dp5704
g94
g95
ssg83
g5698
sg76
(lp5705
S'session_file'
p5706
asbag69
(g90
g71
NtRp5707
(dp5708
g74
(dp5709
g101
g102
ssg83
g5698
sg76
(lp5710
S':'
asbag69
(g90
g71
NtRp5711
(dp5712
g74
(dp5713
sg83
g5698
sg76
(lp5714
g69
(g70
g71
NtRp5715
(dp5716
g74
(dp5717
g82
I5
ssg83
g5711
sg76
(lp5718
S"<open file '/home/xchen/web2py/applications/Betsy/sessions/127.0.0.1-70d52105-0f5d-4884-a4e3-dce6830f30e0', mode 'rb+' at 0xf960300>"
p5719
asbasbasbag69
(g85
g71
NtRp5720
(dp5721
g74
(dp5722
sg83
g3785
sg76
(lp5723
g69
(g90
g71
NtRp5724
(dp5725
g74
(dp5726
g94
g95
ssg83
g5720
sg76
(lp5727
S'session_filename'
p5728
asbag69
(g90
g71
NtRp5729
(dp5730
g74
(dp5731
g101
g102
ssg83
g5720
sg76
(lp5732
S':'
asbag69
(g90
g71
NtRp5733
(dp5734
g74
(dp5735
sg83
g5720
sg76
(lp5736
g69
(g70
g71
NtRp5737
(dp5738
g74
(dp5739
g82
I5
ssg83
g5733
sg76
(lp5740
S'/home/xchen/web2py/applications/Betsy/sessions/127.0.0.1-70d52105-0f5d-4884-a4e3-dce6830f30e0'
p5741
asbasbasbag69
(g85
g71
NtRp5742
(dp5743
g74
(dp5744
sg83
g3785
sg76
(lp5745
g69
(g90
g71
NtRp5746
(dp5747
g74
(dp5748
g94
g95
ssg83
g5742
sg76
(lp5749
S'session_id'
p5750
asbag69
(g90
g71
NtRp5751
(dp5752
g74
(dp5753
g101
g102
ssg83
g5742
sg76
(lp5754
S':'
asbag69
(g90
g71
NtRp5755
(dp5756
g74
(dp5757
sg83
g5742
sg76
(lp5758
g69
(g70
g71
NtRp5759
(dp5760
g74
(dp5761
g82
I5
ssg83
g5755
sg76
(lp5762
g500
asbasbasbag69
(g85
g71
NtRp5763
(dp5764
g74
(dp5765
sg83
g3785
sg76
(lp5766
g69
(g90
g71
NtRp5767
(dp5768
g74
(dp5769
g94
g95
ssg83
g5763
sg76
(lp5770
S'session_id_name'
p5771
asbag69
(g90
g71
NtRp5772
(dp5773
g74
(dp5774
g101
g102
ssg83
g5763
sg76
(lp5775
S':'
asbag69
(g90
g71
NtRp5776
(dp5777
g74
(dp5778
sg83
g5763
sg76
(lp5779
g69
(g70
g71
NtRp5780
(dp5781
g74
(dp5782
g82
I5
ssg83
g5776
sg76
(lp5783
g3842
asbasbasbag69
(g85
g71
NtRp5784
(dp5785
g74
(dp5786
sg83
g3785
sg76
(lp5787
g69
(g90
g71
NtRp5788
(dp5789
g74
(dp5790
g94
g95
ssg83
g5784
sg76
(lp5791
S'session_locked'
p5792
asbag69
(g90
g71
NtRp5793
(dp5794
g74
(dp5795
g101
g102
ssg83
g5784
sg76
(lp5796
S':'
asbag69
(g90
g71
NtRp5797
(dp5798
g74
(dp5799
sg83
g5784
sg76
(lp5800
g69
(g70
g71
NtRp5801
(dp5802
g74
(dp5803
g82
I5
ssg83
g5797
sg76
(lp5804
g1607
asbasbasbag69
(g85
g71
NtRp5805
(dp5806
g74
(dp5807
sg83
g3785
sg76
(lp5808
g69
(g90
g71
NtRp5809
(dp5810
g74
(dp5811
g94
g95
ssg83
g5805
sg76
(lp5812
S'session_new'
p5813
asbag69
(g90
g71
NtRp5814
(dp5815
g74
(dp5816
g101
g102
ssg83
g5805
sg76
(lp5817
S':'
asbag69
(g90
g71
NtRp5818
(dp5819
g74
(dp5820
sg83
g5805
sg76
(lp5821
g69
(g70
g71
NtRp5822
(dp5823
g74
(dp5824
g82
I5
ssg83
g5818
sg76
(lp5825
g112
asbasbasbag69
(g85
g71
NtRp5826
(dp5827
g74
(dp5828
sg83
g3785
sg76
(lp5829
g69
(g90
g71
NtRp5830
(dp5831
g74
(dp5832
g94
g95
ssg83
g5826
sg76
(lp5833
S'session_storage_type'
p5834
asbag69
(g90
g71
NtRp5835
(dp5836
g74
(dp5837
g101
g102
ssg83
g5826
sg76
(lp5838
S':'
asbag69
(g90
g71
NtRp5839
(dp5840
g74
(dp5841
sg83
g5826
sg76
(lp5842
g69
(g70
g71
NtRp5843
(dp5844
g74
(dp5845
g82
I5
ssg83
g5839
sg76
(lp5846
g3039
asbasbasbag69
(g85
g71
NtRp5847
(dp5848
g74
(dp5849
sg83
g3785
sg76
(lp5850
g69
(g90
g71
NtRp5851
(dp5852
g74
(dp5853
g94
g95
ssg83
g5847
sg76
(lp5854
S'status'
p5855
asbag69
(g90
g71
NtRp5856
(dp5857
g74
(dp5858
g101
g102
ssg83
g5847
sg76
(lp5859
S':'
asbag69
(g90
g71
NtRp5860
(dp5861
g74
(dp5862
sg83
g5847
sg76
(lp5863
g69
(g70
g71
NtRp5864
(dp5865
g74
(dp5866
g82
I5
ssg83
g5860
sg76
(lp5867
S'200'
p5868
asbasbasbag69
(g85
g71
NtRp5869
(dp5870
g74
(dp5871
sg83
g3785
sg76
(lp5872
g69
(g90
g71
NtRp5873
(dp5874
g74
(dp5875
g94
g95
ssg83
g5869
sg76
(lp5876
S'subtitle'
p5877
asbag69
(g90
g71
NtRp5878
(dp5879
g74
(dp5880
g101
g102
ssg83
g5869
sg76
(lp5881
S':'
asbag69
(g90
g71
NtRp5882
(dp5883
g74
(dp5884
sg83
g5869
sg76
(lp5885
g69
(g70
g71
NtRp5886
(dp5887
g74
(dp5888
g82
I5
ssg83
g5882
sg76
(lp5889
g4380
(S's\r\x00\x00\x00customize me!'
tRp5890
asbasbasbag69
(g85
g71
NtRp5891
(dp5892
g74
(dp5893
sg83
g3785
sg76
(lp5894
g69
(g90
g71
NtRp5895
(dp5896
g74
(dp5897
g94
g95
ssg83
g5891
sg76
(lp5898
S'title'
p5899
asbag69
(g90
g71
NtRp5900
(dp5901
g74
(dp5902
g101
g102
ssg83
g5891
sg76
(lp5903
S':'
asbag69
(g90
g71
NtRp5904
(dp5905
g74
(dp5906
sg83
g5891
sg76
(lp5907
g69
(g70
g71
NtRp5908
(dp5909
g74
(dp5910
g82
I5
ssg83
g5904
sg76
(lp5911
S'Betsy'
p5912
asbasbasbag69
(g85
g71
NtRp5913
(dp5914
g74
(dp5915
sg83
g3785
sg76
(lp5916
g69
(g90
g71
NtRp5917
(dp5918
g74
(dp5919
g94
g95
ssg83
g5913
sg76
(lp5920
S'view'
p5921
asbag69
(g90
g71
NtRp5922
(dp5923
g74
(dp5924
g101
g102
ssg83
g5913
sg76
(lp5925
S':'
asbag69
(g90
g71
NtRp5926
(dp5927
g74
(dp5928
sg83
g5913
sg76
(lp5929
g69
(g70
g71
NtRp5930
(dp5931
g74
(dp5932
g82
I5
ssg83
g5926
sg76
(lp5933
S'default/show_job.html'
p5934
asbasbasbasbasbsS'locals'
p5935
(dp5936
g2399
g21
sS'hash_vars'
p5937
g1607
sS'port'
p5938
S'None'
p5939
sS'current'
p5940
S'<thread._local object>'
p5941
sg121
S"'Betsy'"
p5942
sS'user_signature'
p5943
S'None'
p5944
sg673
S"<Storage {'debugging': False, 'http_user_agent':...[]), 'query_string': '', 'wsgi_run_once': False}>"
p5945
sS'url_encode'
p5946
g1607
sS'scheme'
p5947
S'None'
p5948
sg1752
S"'show_job'"
p5949
sS'encode_embedded_slash'
p5950
g112
sg52
S'[]'
p5951
sS'url_out'
p5952
S'<function url_out>'
p5953
sg246
S"'result_files'"
p5954
sS'a'
S'None'
p5955
sS'c'
S"'result_files'"
p5956
sg1708
S'None'
p5957
sS'f'
S"['annotate_probes_BETSYHASH1_dea561ee030db64d6c74ced8f5ca9f00', 'signal_file_annot_table.myfile1.b7774bd7ac89fca6.4368616e675f415230303431302e70636c.txt']"
p5958
sS'host'
p5959
S'None'
p5960
sS'hmac_key'
p5961
S'None'
p5962
sS'r'
S"<Storage {'function': 'show_job', 'body': <cStri...applications/Betsy/', 'post_vars': <Storage {}>}>"
p5963
sS'salt'
p5964
S'None'
p5965
sS'anchor'
p5966
S"''"
p5967
sssS'traceback'
p5968
S'Traceback (most recent call last):\n  File "/home/xchen/web2py/gluon/restricted.py", line 212, in restricted\n    exec ccode in environment\n  File "/home/xchen/web2py/applications/Betsy/views/default/show_job.html", line 93, in <module>\n  File "/home/xchen/web2py/gluon/html.py", line 275, in URL\n    \'when calling URL, function or function name required\')\nSyntaxError: when calling URL, function or function name required\n'
p5969
s.