(dp1
S'output'
p2
S"<type 'exceptions.AttributeError'> 'Row' object has no attribute 'status'"
p3
sS'layer'
p4
S'/home/xchen/web2py/applications/Betsy/controllers/default.py'
p5
sS'code'
p6
S'# -*- coding: utf-8 -*-\n# this file is released under public domain and you can use without limitations\n\n#########################################################################\n## This is a samples controller\n## - index is the default action of any application\n## - user is required for authentication and authorization\n## - download is for downloading files uploaded in the db (does streaming)\n## - call exposes all registered services (none by default)\n#########################################################################\n\nupload_path = \'/home/xchen/chencode/upload/\'\n@auth.requires_login()\ndef first():\n    form = SQLFORM.factory(Field(\'command\',requires=IS_NOT_EMPTY()),\n        Field(\'myfile1\', \'upload\',\n        uploadfolder=upload_path),\n        Field(\'myfile2\', \'upload\',\n        uploadfolder=upload_path),\n        Field(\'myfile3\', \'upload\',\n        uploadfolder=upload_path),\n        Field(\'myfile4\', \'upload\',\n        uploadfolder=upload_path),\n        Field(\'myfile5\', \'upload\',\n        uploadfolder=upload_path),\n        Field(\'myfile6\', \'upload\',\n        uploadfolder=upload_path),\n        )\n    form_queue = FORM(INPUT(_type=\'submit\',_value=\'show jobs status\'))\n    if form.process().accepted:\n        session.command=form.vars.command\n        session.myfile1 = form.vars.myfile1\n        session.myfile2 = form.vars.myfile2\n        session.myfile3 = form.vars.myfile3\n        session.myfile4 = form.vars.myfile4\n        session.myfile5 = form.vars.myfile5\n        session.myfile6 = form.vars.myfile6\n        redirect(URL(\'second\'))\n    if form_queue.process().accepted:\n        redirect(URL(\'show_status\'))\n    return dict(form=form,form_queue=form_queue)\n    \n    \ndef show_status():\n    import subprocess\n    all_cmd = [\'python\',\'/home/xchen/chencode/tmp/try_parallel/queue.py\',\'--list\']    \n    process = subprocess.Popen(all_cmd, shell=False,\n                               stdout=subprocess.PIPE,\n                               stderr=subprocess.STDOUT)\n    process.wait()\n    log_information = process.stdout.read().split(\'\\n\')[1:]\n    log_information = [i for i in log_information if i]\n    for log_line in log_information:\n        lines = log_line.split(\'\\t\')\n        db.status.update_or_insert(db.status.Jobnumber==lines[0],Jobnumber=lines[0],\n                Jobname=lines[1], Status=lines[2], Started=lines[3],\n                Ended=lines[4],Submitted=lines[5],Command=lines[6])\n    form=db().select(db.status.ALL)\n    return dict(form=form)\n    \ndef show_job():\n    "show a job page"\n    this_job = db.status(request.args(0)) or redirect(URL(\'first\'))\n    db.status.id.default=this_job.id\n    info = \'Job is \' + this_job.status\n    return dict(job=this_job,info=info)\n \n\ndef second():\n    if session.command:\n        import subprocess\n        import os\n        command = session.command.replace(\'myfile1\',os.path.join(upload_path,session.myfile1))\n        command = command.replace(\'myfile2\',os.path.join(upload_path,session.myfile2))\n        command = command.replace(\'myfile3\',os.path.join(upload_path,session.myfile3))\n        command = command.replace(\'myfile4\',os.path.join(upload_path,session.myfile4))\n        command = command.replace(\'myfile5\',os.path.join(upload_path,session.myfile5))\n        command = command.replace(\'myfile6\',os.path.join(upload_path,session.myfile6))\n        command_list=command.split()\n        cmd = [\'python\',os.path.join(\'/home/xchen/chencode/Betsy/scripts\',command_list[0])]+command_list[1:]\n        all_cmd = [\'python\',\'/home/xchen/chencode/tmp/try_parallel/queue.py\' ,\' \' .join(cmd)]\n        session.cmd=all_cmd\n        process = subprocess.Popen(all_cmd, shell=False,\n                               stdout=subprocess.PIPE,\n                               stderr=subprocess.STDOUT)\n        process.wait()       \n        information = process.stdout.read()                \n        redirect(URL(\'show_status\'))\n    return dict()\n    \n    \ndef index():\n    """\n    example action using the internationalization operator T and flash\n    rendered by views/default/index.html or views/generic.html\n\n    if you need a simple wiki simple replace the two lines below with:\n    return auth.wiki()\n    """\n    #response.flash = T("Welcome to web2py!")\n    #return dict(message=T(\'Hello World\'))\n\n\ndef user():\n    """\n    exposes:\n    http://..../[app]/default/user/login\n    http://..../[app]/default/user/logout\n    http://..../[app]/default/user/register\n    http://..../[app]/default/user/profile\n    http://..../[app]/default/user/retrieve_password\n    http://..../[app]/default/user/change_password\n    use @auth.requires_login()\n        @auth.requires_membership(\'group name\')\n        @auth.requires_permission(\'read\',\'table name\',record_id)\n    to decorate functions that need access control\n    """\n    return dict(form=auth())\n\n\ndef download():\n    """\n    allows downloading of uploaded files\n    http://..../[app]/default/download/[filename]\n    """\n    return response.download(request, db)\n\n\ndef call():\n    """\n    exposes services. for example:\n    http://..../[app]/default/call/jsonrpc\n    decorate with @services.jsonrpc the functions to expose\n    supports xml, json, xmlrpc, jsonrpc, amfrpc, rss, csv\n    """\n    return service()\n\n\n@auth.requires_signature()\ndef data():\n    """\n    http://..../[app]/default/data/tables\n    http://..../[app]/default/data/create/[table]\n    http://..../[app]/default/data/read/[table]/[id]\n    http://..../[app]/default/data/update/[table]/[id]\n    http://..../[app]/default/data/delete/[table]/[id]\n    http://..../[app]/default/data/select/[table]\n    http://..../[app]/default/data/search/[table]\n    but URLs must be signed, i.e. linked with\n      A(\'table\',_href=URL(\'data/tables\',user_signature=True))\n    or with the signed load operator\n      LOAD(\'default\',\'data.load\',args=\'tables\',ajax=True,user_signature=True)\n    """\n    return dict(form=crud())\n\nresponse._vars=response._caller(show_job)\n'
p7
sS'snapshot'
p8
(dp9
S'exception'
p10
(dp11
S'__hash__'
p12
S"<method-wrapper '__hash__' of exceptions.AttributeError object>"
p13
sS'__setattr__'
p14
S"<method-wrapper '__setattr__' of exceptions.AttributeError object>"
p15
sS'__reduce_ex__'
p16
S'<built-in method __reduce_ex__ of exceptions.AttributeError object>'
p17
sS'__getslice__'
p18
S"<method-wrapper '__getslice__' of exceptions.AttributeError object>"
p19
sS'__getitem__'
p20
S"<method-wrapper '__getitem__' of exceptions.AttributeError object>"
p21
sS'__setstate__'
p22
S'<built-in method __setstate__ of exceptions.AttributeError object>'
p23
sS'args'
p24
S'("\'Row\' object has no attribute \'status\'",)'
p25
sS'__reduce__'
p26
S'<built-in method __reduce__ of exceptions.AttributeError object>'
p27
sS'__str__'
p28
S"<method-wrapper '__str__' of exceptions.AttributeError object>"
p29
sS'__format__'
p30
S'<built-in method __format__ of exceptions.AttributeError object>'
p31
sS'__getattribute__'
p32
S"<method-wrapper '__getattribute__' of exceptions.AttributeError object>"
p33
sS'__class__'
p34
S"<type 'exceptions.AttributeError'>"
p35
sS'__unicode__'
p36
S'<built-in method __unicode__ of exceptions.AttributeError object>'
p37
sS'__delattr__'
p38
S"<method-wrapper '__delattr__' of exceptions.AttributeError object>"
p39
sS'__subclasshook__'
p40
S'<built-in method __subclasshook__ of type object>'
p41
sS'__repr__'
p42
S"<method-wrapper '__repr__' of exceptions.AttributeError object>"
p43
sS'__dict__'
p44
S'{}'
p45
sS'__sizeof__'
p46
S'<built-in method __sizeof__ of exceptions.AttributeError object>'
p47
sS'__doc__'
p48
S"'Attribute not found.'"
p49
sS'__init__'
p50
S"<method-wrapper '__init__' of exceptions.AttributeError object>"
p51
sS'__new__'
p52
S'<built-in method __new__ of type object>'
p53
ssS'evalue'
p54
S"'Row' object has no attribute 'status'"
p55
sS'request'
p56
ccopy_reg
_reconstructor
p57
(cgluon.html
BEAUTIFY
p58
c__builtin__
object
p59
NtRp60
(dp61
S'attributes'
p62
(dp63
sS'components'
p64
(lp65
g57
(cgluon.html
TABLE
p66
g59
NtRp67
(dp68
g62
(dp69
S'level'
p70
I5
ssS'parent'
p71
Nsg64
(lp72
g57
(cgluon.html
TR
p73
g59
NtRp74
(dp75
g62
(dp76
sg71
g67
sg64
(lp77
g57
(cgluon.html
TD
p78
g59
NtRp79
(dp80
g62
(dp81
S'_style'
p82
S'font-weight:bold;vertical-align:top'
p83
ssg71
g74
sg64
(lp84
S'ajax'
p85
asbag57
(g78
g59
NtRp86
(dp87
g62
(dp88
S'_valign'
p89
S'top'
p90
ssg71
g74
sg64
(lp91
S':'
asbag57
(g78
g59
NtRp92
(dp93
g62
(dp94
sg71
g74
sg64
(lp95
g57
(g58
g59
NtRp96
(dp97
g62
(dp98
g70
I5
ssg71
g92
sg64
(lp99
S'False'
p100
asbasbasbag57
(g73
g59
NtRp101
(dp102
g62
(dp103
sg71
g67
sg64
(lp104
g57
(g78
g59
NtRp105
(dp106
g62
(dp107
g82
g83
ssg71
g101
sg64
(lp108
S'application'
p109
asbag57
(g78
g59
NtRp110
(dp111
g62
(dp112
g89
g90
ssg71
g101
sg64
(lp113
S':'
asbag57
(g78
g59
NtRp114
(dp115
g62
(dp116
sg71
g101
sg64
(lp117
g57
(g58
g59
NtRp118
(dp119
g62
(dp120
g70
I5
ssg71
g114
sg64
(lp121
S'Betsy'
p122
asbasbasbag57
(g73
g59
NtRp123
(dp124
g62
(dp125
sg71
g67
sg64
(lp126
g57
(g78
g59
NtRp127
(dp128
g62
(dp129
g82
g83
ssg71
g123
sg64
(lp130
g24
asbag57
(g78
g59
NtRp131
(dp132
g62
(dp133
g89
g90
ssg71
g123
sg64
(lp134
S':'
asbag57
(g78
g59
NtRp135
(dp136
g62
(dp137
sg71
g123
sg64
(lp138
g57
(g58
g59
NtRp139
(dp140
g62
(dp141
g70
I5
ssg71
g135
sg64
(lp142
g57
(g66
g59
NtRp143
(dp144
g62
(dp145
g70
I4
ssg71
Nsg64
(lp146
g57
(g73
g59
NtRp147
(dp148
g62
(dp149
sg71
g143
sg64
(lp150
g57
(g78
g59
NtRp151
(dp152
g62
(dp153
sg71
g147
sg64
(lp154
g57
(g58
g59
NtRp155
(dp156
g62
(dp157
g70
I4
ssg71
g151
sg64
(lp158
S'102'
p159
asbasbasbasbasbasbasbag57
(g73
g59
NtRp160
(dp161
g62
(dp162
sg71
g67
sg64
(lp163
g57
(g78
g59
NtRp164
(dp165
g62
(dp166
g82
g83
ssg71
g160
sg64
(lp167
S'body'
p168
asbag57
(g78
g59
NtRp169
(dp170
g62
(dp171
g89
g90
ssg71
g160
sg64
(lp172
S':'
asbag57
(g78
g59
NtRp173
(dp174
g62
(dp175
sg71
g160
sg64
(lp176
g57
(g58
g59
NtRp177
(dp178
g62
(dp179
g70
I5
ssg71
g173
sg64
(lp180
S'<cStringIO.StringO object at 0xf8185a8>'
p181
asbasbasbag57
(g73
g59
NtRp182
(dp183
g62
(dp184
sg71
g67
sg64
(lp185
g57
(g78
g59
NtRp186
(dp187
g62
(dp188
g82
g83
ssg71
g182
sg64
(lp189
S'cid'
p190
asbag57
(g78
g59
NtRp191
(dp192
g62
(dp193
g89
g90
ssg71
g182
sg64
(lp194
S':'
asbag57
(g78
g59
NtRp195
(dp196
g62
(dp197
sg71
g182
sg64
(lp198
g57
(g58
g59
NtRp199
(dp200
g62
(dp201
g70
I5
ssg71
g195
sg64
(lp202
S'None'
p203
asbasbasbag57
(g73
g59
NtRp204
(dp205
g62
(dp206
sg71
g67
sg64
(lp207
g57
(g78
g59
NtRp208
(dp209
g62
(dp210
g82
g83
ssg71
g204
sg64
(lp211
S'client'
p212
asbag57
(g78
g59
NtRp213
(dp214
g62
(dp215
g89
g90
ssg71
g204
sg64
(lp216
S':'
asbag57
(g78
g59
NtRp217
(dp218
g62
(dp219
sg71
g204
sg64
(lp220
g57
(g58
g59
NtRp221
(dp222
g62
(dp223
g70
I5
ssg71
g217
sg64
(lp224
S'127.0.0.1'
p225
asbasbasbag57
(g73
g59
NtRp226
(dp227
g62
(dp228
sg71
g67
sg64
(lp229
g57
(g78
g59
NtRp230
(dp231
g62
(dp232
g82
g83
ssg71
g226
sg64
(lp233
S'controller'
p234
asbag57
(g78
g59
NtRp235
(dp236
g62
(dp237
g89
g90
ssg71
g226
sg64
(lp238
S':'
asbag57
(g78
g59
NtRp239
(dp240
g62
(dp241
sg71
g226
sg64
(lp242
g57
(g58
g59
NtRp243
(dp244
g62
(dp245
g70
I5
ssg71
g239
sg64
(lp246
S'default'
p247
asbasbasbag57
(g73
g59
NtRp248
(dp249
g62
(dp250
sg71
g67
sg64
(lp251
g57
(g78
g59
NtRp252
(dp253
g62
(dp254
g82
g83
ssg71
g248
sg64
(lp255
S'cookies'
p256
asbag57
(g78
g59
NtRp257
(dp258
g62
(dp259
g89
g90
ssg71
g248
sg64
(lp260
S':'
asbag57
(g78
g59
NtRp261
(dp262
g62
(dp263
sg71
g248
sg64
(lp264
g57
(g58
g59
NtRp265
(dp266
g62
(dp267
g70
I5
ssg71
g261
sg64
(lp268
g57
(g66
g59
NtRp269
(dp270
g62
(dp271
g70
I4
ssg71
Nsg64
(lp272
g57
(g73
g59
NtRp273
(dp274
g62
(dp275
sg71
g269
sg64
(lp276
g57
(g78
g59
NtRp277
(dp278
g62
(dp279
g82
g83
ssg71
g273
sg64
(lp280
S'session_id_admin'
p281
asbag57
(g78
g59
NtRp282
(dp283
g62
(dp284
g89
g90
ssg71
g273
sg64
(lp285
S':'
asbag57
(g78
g59
NtRp286
(dp287
g62
(dp288
sg71
g273
sg64
(lp289
g57
(g58
g59
NtRp290
(dp291
g62
(dp292
g70
I4
ssg71
g286
sg64
(lp293
S'127.0.0.1-aa34f79e-e22c-4689-ac7e-2281748f4e62'
p294
ag57
(g66
g59
NtRp295
(dp296
g62
(dp297
g70
I3
ssg71
Nsg64
(lp298
g57
(g73
g59
NtRp299
(dp300
g62
(dp301
sg71
g295
sg64
(lp302
g57
(g78
g59
NtRp303
(dp304
g62
(dp305
g82
g83
ssg71
g299
sg64
(lp306
S'comment'
p307
asbag57
(g78
g59
NtRp308
(dp309
g62
(dp310
g89
g90
ssg71
g299
sg64
(lp311
S':'
asbag57
(g78
g59
NtRp312
(dp313
g62
(dp314
sg71
g299
sg64
(lp315
g57
(g58
g59
NtRp316
(dp317
g62
(dp318
g70
I3
ssg71
g312
sg64
(lp319
S''
asbasbasbag57
(g73
g59
NtRp320
(dp321
g62
(dp322
sg71
g295
sg64
(lp323
g57
(g78
g59
NtRp324
(dp325
g62
(dp326
g82
g83
ssg71
g320
sg64
(lp327
S'domain'
p328
asbag57
(g78
g59
NtRp329
(dp330
g62
(dp331
g89
g90
ssg71
g320
sg64
(lp332
S':'
asbag57
(g78
g59
NtRp333
(dp334
g62
(dp335
sg71
g320
sg64
(lp336
g57
(g58
g59
NtRp337
(dp338
g62
(dp339
g70
I3
ssg71
g333
sg64
(lp340
S''
asbasbasbag57
(g73
g59
NtRp341
(dp342
g62
(dp343
sg71
g295
sg64
(lp344
g57
(g78
g59
NtRp345
(dp346
g62
(dp347
g82
g83
ssg71
g341
sg64
(lp348
S'expires'
p349
asbag57
(g78
g59
NtRp350
(dp351
g62
(dp352
g89
g90
ssg71
g341
sg64
(lp353
S':'
asbag57
(g78
g59
NtRp354
(dp355
g62
(dp356
sg71
g341
sg64
(lp357
g57
(g58
g59
NtRp358
(dp359
g62
(dp360
g70
I3
ssg71
g354
sg64
(lp361
S''
asbasbasbag57
(g73
g59
NtRp362
(dp363
g62
(dp364
sg71
g295
sg64
(lp365
g57
(g78
g59
NtRp366
(dp367
g62
(dp368
g82
g83
ssg71
g362
sg64
(lp369
S'httponly'
p370
asbag57
(g78
g59
NtRp371
(dp372
g62
(dp373
g89
g90
ssg71
g362
sg64
(lp374
S':'
asbag57
(g78
g59
NtRp375
(dp376
g62
(dp377
sg71
g362
sg64
(lp378
g57
(g58
g59
NtRp379
(dp380
g62
(dp381
g70
I3
ssg71
g375
sg64
(lp382
S''
asbasbasbag57
(g73
g59
NtRp383
(dp384
g62
(dp385
sg71
g295
sg64
(lp386
g57
(g78
g59
NtRp387
(dp388
g62
(dp389
g82
g83
ssg71
g383
sg64
(lp390
S'max-age'
p391
asbag57
(g78
g59
NtRp392
(dp393
g62
(dp394
g89
g90
ssg71
g383
sg64
(lp395
S':'
asbag57
(g78
g59
NtRp396
(dp397
g62
(dp398
sg71
g383
sg64
(lp399
g57
(g58
g59
NtRp400
(dp401
g62
(dp402
g70
I3
ssg71
g396
sg64
(lp403
S''
asbasbasbag57
(g73
g59
NtRp404
(dp405
g62
(dp406
sg71
g295
sg64
(lp407
g57
(g78
g59
NtRp408
(dp409
g62
(dp410
g82
g83
ssg71
g404
sg64
(lp411
S'path'
p412
asbag57
(g78
g59
NtRp413
(dp414
g62
(dp415
g89
g90
ssg71
g404
sg64
(lp416
S':'
asbag57
(g78
g59
NtRp417
(dp418
g62
(dp419
sg71
g404
sg64
(lp420
g57
(g58
g59
NtRp421
(dp422
g62
(dp423
g70
I3
ssg71
g417
sg64
(lp424
S''
asbasbasbag57
(g73
g59
NtRp425
(dp426
g62
(dp427
sg71
g295
sg64
(lp428
g57
(g78
g59
NtRp429
(dp430
g62
(dp431
g82
g83
ssg71
g425
sg64
(lp432
S'secure'
p433
asbag57
(g78
g59
NtRp434
(dp435
g62
(dp436
g89
g90
ssg71
g425
sg64
(lp437
S':'
asbag57
(g78
g59
NtRp438
(dp439
g62
(dp440
sg71
g425
sg64
(lp441
g57
(g58
g59
NtRp442
(dp443
g62
(dp444
g70
I3
ssg71
g438
sg64
(lp445
S''
asbasbasbag57
(g73
g59
NtRp446
(dp447
g62
(dp448
sg71
g295
sg64
(lp449
g57
(g78
g59
NtRp450
(dp451
g62
(dp452
g82
g83
ssg71
g446
sg64
(lp453
S'version'
p454
asbag57
(g78
g59
NtRp455
(dp456
g62
(dp457
g89
g90
ssg71
g446
sg64
(lp458
S':'
asbag57
(g78
g59
NtRp459
(dp460
g62
(dp461
sg71
g446
sg64
(lp462
g57
(g58
g59
NtRp463
(dp464
g62
(dp465
g70
I3
ssg71
g459
sg64
(lp466
S''
asbasbasbasbasbasbasbag57
(g73
g59
NtRp467
(dp468
g62
(dp469
sg71
g269
sg64
(lp470
g57
(g78
g59
NtRp471
(dp472
g62
(dp473
g82
g83
ssg71
g467
sg64
(lp474
S'session_id_betsy'
p475
asbag57
(g78
g59
NtRp476
(dp477
g62
(dp478
g89
g90
ssg71
g467
sg64
(lp479
S':'
asbag57
(g78
g59
NtRp480
(dp481
g62
(dp482
sg71
g467
sg64
(lp483
g57
(g58
g59
NtRp484
(dp485
g62
(dp486
g70
I4
ssg71
g480
sg64
(lp487
S'127.0.0.1-70d52105-0f5d-4884-a4e3-dce6830f30e0'
p488
ag57
(g66
g59
NtRp489
(dp490
g62
(dp491
g70
I3
ssg71
Nsg64
(lp492
g57
(g73
g59
NtRp493
(dp494
g62
(dp495
sg71
g489
sg64
(lp496
g57
(g78
g59
NtRp497
(dp498
g62
(dp499
g82
g83
ssg71
g493
sg64
(lp500
g307
asbag57
(g78
g59
NtRp501
(dp502
g62
(dp503
g89
g90
ssg71
g493
sg64
(lp504
S':'
asbag57
(g78
g59
NtRp505
(dp506
g62
(dp507
sg71
g493
sg64
(lp508
g57
(g58
g59
NtRp509
(dp510
g62
(dp511
g70
I3
ssg71
g505
sg64
(lp512
S''
asbasbasbag57
(g73
g59
NtRp513
(dp514
g62
(dp515
sg71
g489
sg64
(lp516
g57
(g78
g59
NtRp517
(dp518
g62
(dp519
g82
g83
ssg71
g513
sg64
(lp520
g328
asbag57
(g78
g59
NtRp521
(dp522
g62
(dp523
g89
g90
ssg71
g513
sg64
(lp524
S':'
asbag57
(g78
g59
NtRp525
(dp526
g62
(dp527
sg71
g513
sg64
(lp528
g57
(g58
g59
NtRp529
(dp530
g62
(dp531
g70
I3
ssg71
g525
sg64
(lp532
S''
asbasbasbag57
(g73
g59
NtRp533
(dp534
g62
(dp535
sg71
g489
sg64
(lp536
g57
(g78
g59
NtRp537
(dp538
g62
(dp539
g82
g83
ssg71
g533
sg64
(lp540
g349
asbag57
(g78
g59
NtRp541
(dp542
g62
(dp543
g89
g90
ssg71
g533
sg64
(lp544
S':'
asbag57
(g78
g59
NtRp545
(dp546
g62
(dp547
sg71
g533
sg64
(lp548
g57
(g58
g59
NtRp549
(dp550
g62
(dp551
g70
I3
ssg71
g545
sg64
(lp552
S''
asbasbasbag57
(g73
g59
NtRp553
(dp554
g62
(dp555
sg71
g489
sg64
(lp556
g57
(g78
g59
NtRp557
(dp558
g62
(dp559
g82
g83
ssg71
g553
sg64
(lp560
g370
asbag57
(g78
g59
NtRp561
(dp562
g62
(dp563
g89
g90
ssg71
g553
sg64
(lp564
S':'
asbag57
(g78
g59
NtRp565
(dp566
g62
(dp567
sg71
g553
sg64
(lp568
g57
(g58
g59
NtRp569
(dp570
g62
(dp571
g70
I3
ssg71
g565
sg64
(lp572
S''
asbasbasbag57
(g73
g59
NtRp573
(dp574
g62
(dp575
sg71
g489
sg64
(lp576
g57
(g78
g59
NtRp577
(dp578
g62
(dp579
g82
g83
ssg71
g573
sg64
(lp580
g391
asbag57
(g78
g59
NtRp581
(dp582
g62
(dp583
g89
g90
ssg71
g573
sg64
(lp584
S':'
asbag57
(g78
g59
NtRp585
(dp586
g62
(dp587
sg71
g573
sg64
(lp588
g57
(g58
g59
NtRp589
(dp590
g62
(dp591
g70
I3
ssg71
g585
sg64
(lp592
S''
asbasbasbag57
(g73
g59
NtRp593
(dp594
g62
(dp595
sg71
g489
sg64
(lp596
g57
(g78
g59
NtRp597
(dp598
g62
(dp599
g82
g83
ssg71
g593
sg64
(lp600
g412
asbag57
(g78
g59
NtRp601
(dp602
g62
(dp603
g89
g90
ssg71
g593
sg64
(lp604
S':'
asbag57
(g78
g59
NtRp605
(dp606
g62
(dp607
sg71
g593
sg64
(lp608
g57
(g58
g59
NtRp609
(dp610
g62
(dp611
g70
I3
ssg71
g605
sg64
(lp612
S''
asbasbasbag57
(g73
g59
NtRp613
(dp614
g62
(dp615
sg71
g489
sg64
(lp616
g57
(g78
g59
NtRp617
(dp618
g62
(dp619
g82
g83
ssg71
g613
sg64
(lp620
g433
asbag57
(g78
g59
NtRp621
(dp622
g62
(dp623
g89
g90
ssg71
g613
sg64
(lp624
S':'
asbag57
(g78
g59
NtRp625
(dp626
g62
(dp627
sg71
g613
sg64
(lp628
g57
(g58
g59
NtRp629
(dp630
g62
(dp631
g70
I3
ssg71
g625
sg64
(lp632
S''
asbasbasbag57
(g73
g59
NtRp633
(dp634
g62
(dp635
sg71
g489
sg64
(lp636
g57
(g78
g59
NtRp637
(dp638
g62
(dp639
g82
g83
ssg71
g633
sg64
(lp640
g454
asbag57
(g78
g59
NtRp641
(dp642
g62
(dp643
g89
g90
ssg71
g633
sg64
(lp644
S':'
asbag57
(g78
g59
NtRp645
(dp646
g62
(dp647
sg71
g633
sg64
(lp648
g57
(g58
g59
NtRp649
(dp650
g62
(dp651
g70
I3
ssg71
g645
sg64
(lp652
S''
asbasbasbasbasbasbasbag57
(g73
g59
NtRp653
(dp654
g62
(dp655
sg71
g269
sg64
(lp656
g57
(g78
g59
NtRp657
(dp658
g62
(dp659
g82
g83
ssg71
g653
sg64
(lp660
S'session_id_mywiki'
p661
asbag57
(g78
g59
NtRp662
(dp663
g62
(dp664
g89
g90
ssg71
g653
sg64
(lp665
S':'
asbag57
(g78
g59
NtRp666
(dp667
g62
(dp668
sg71
g653
sg64
(lp669
g57
(g58
g59
NtRp670
(dp671
g62
(dp672
g70
I4
ssg71
g666
sg64
(lp673
S'127.0.0.1-eb050b35-b093-40d3-af40-302009bb3316'
p674
ag57
(g66
g59
NtRp675
(dp676
g62
(dp677
g70
I3
ssg71
Nsg64
(lp678
g57
(g73
g59
NtRp679
(dp680
g62
(dp681
sg71
g675
sg64
(lp682
g57
(g78
g59
NtRp683
(dp684
g62
(dp685
g82
g83
ssg71
g679
sg64
(lp686
g307
asbag57
(g78
g59
NtRp687
(dp688
g62
(dp689
g89
g90
ssg71
g679
sg64
(lp690
S':'
asbag57
(g78
g59
NtRp691
(dp692
g62
(dp693
sg71
g679
sg64
(lp694
g57
(g58
g59
NtRp695
(dp696
g62
(dp697
g70
I3
ssg71
g691
sg64
(lp698
S''
asbasbasbag57
(g73
g59
NtRp699
(dp700
g62
(dp701
sg71
g675
sg64
(lp702
g57
(g78
g59
NtRp703
(dp704
g62
(dp705
g82
g83
ssg71
g699
sg64
(lp706
g328
asbag57
(g78
g59
NtRp707
(dp708
g62
(dp709
g89
g90
ssg71
g699
sg64
(lp710
S':'
asbag57
(g78
g59
NtRp711
(dp712
g62
(dp713
sg71
g699
sg64
(lp714
g57
(g58
g59
NtRp715
(dp716
g62
(dp717
g70
I3
ssg71
g711
sg64
(lp718
S''
asbasbasbag57
(g73
g59
NtRp719
(dp720
g62
(dp721
sg71
g675
sg64
(lp722
g57
(g78
g59
NtRp723
(dp724
g62
(dp725
g82
g83
ssg71
g719
sg64
(lp726
g349
asbag57
(g78
g59
NtRp727
(dp728
g62
(dp729
g89
g90
ssg71
g719
sg64
(lp730
S':'
asbag57
(g78
g59
NtRp731
(dp732
g62
(dp733
sg71
g719
sg64
(lp734
g57
(g58
g59
NtRp735
(dp736
g62
(dp737
g70
I3
ssg71
g731
sg64
(lp738
S''
asbasbasbag57
(g73
g59
NtRp739
(dp740
g62
(dp741
sg71
g675
sg64
(lp742
g57
(g78
g59
NtRp743
(dp744
g62
(dp745
g82
g83
ssg71
g739
sg64
(lp746
g370
asbag57
(g78
g59
NtRp747
(dp748
g62
(dp749
g89
g90
ssg71
g739
sg64
(lp750
S':'
asbag57
(g78
g59
NtRp751
(dp752
g62
(dp753
sg71
g739
sg64
(lp754
g57
(g58
g59
NtRp755
(dp756
g62
(dp757
g70
I3
ssg71
g751
sg64
(lp758
S''
asbasbasbag57
(g73
g59
NtRp759
(dp760
g62
(dp761
sg71
g675
sg64
(lp762
g57
(g78
g59
NtRp763
(dp764
g62
(dp765
g82
g83
ssg71
g759
sg64
(lp766
g391
asbag57
(g78
g59
NtRp767
(dp768
g62
(dp769
g89
g90
ssg71
g759
sg64
(lp770
S':'
asbag57
(g78
g59
NtRp771
(dp772
g62
(dp773
sg71
g759
sg64
(lp774
g57
(g58
g59
NtRp775
(dp776
g62
(dp777
g70
I3
ssg71
g771
sg64
(lp778
S''
asbasbasbag57
(g73
g59
NtRp779
(dp780
g62
(dp781
sg71
g675
sg64
(lp782
g57
(g78
g59
NtRp783
(dp784
g62
(dp785
g82
g83
ssg71
g779
sg64
(lp786
g412
asbag57
(g78
g59
NtRp787
(dp788
g62
(dp789
g89
g90
ssg71
g779
sg64
(lp790
S':'
asbag57
(g78
g59
NtRp791
(dp792
g62
(dp793
sg71
g779
sg64
(lp794
g57
(g58
g59
NtRp795
(dp796
g62
(dp797
g70
I3
ssg71
g791
sg64
(lp798
S''
asbasbasbag57
(g73
g59
NtRp799
(dp800
g62
(dp801
sg71
g675
sg64
(lp802
g57
(g78
g59
NtRp803
(dp804
g62
(dp805
g82
g83
ssg71
g799
sg64
(lp806
g433
asbag57
(g78
g59
NtRp807
(dp808
g62
(dp809
g89
g90
ssg71
g799
sg64
(lp810
S':'
asbag57
(g78
g59
NtRp811
(dp812
g62
(dp813
sg71
g799
sg64
(lp814
g57
(g58
g59
NtRp815
(dp816
g62
(dp817
g70
I3
ssg71
g811
sg64
(lp818
S''
asbasbasbag57
(g73
g59
NtRp819
(dp820
g62
(dp821
sg71
g675
sg64
(lp822
g57
(g78
g59
NtRp823
(dp824
g62
(dp825
g82
g83
ssg71
g819
sg64
(lp826
g454
asbag57
(g78
g59
NtRp827
(dp828
g62
(dp829
g89
g90
ssg71
g819
sg64
(lp830
S':'
asbag57
(g78
g59
NtRp831
(dp832
g62
(dp833
sg71
g819
sg64
(lp834
g57
(g58
g59
NtRp835
(dp836
g62
(dp837
g70
I3
ssg71
g831
sg64
(lp838
S''
asbasbasbasbasbasbasbag57
(g73
g59
NtRp839
(dp840
g62
(dp841
sg71
g269
sg64
(lp842
g57
(g78
g59
NtRp843
(dp844
g62
(dp845
g82
g83
ssg71
g839
sg64
(lp846
S'session_id_welcome'
p847
asbag57
(g78
g59
NtRp848
(dp849
g62
(dp850
g89
g90
ssg71
g839
sg64
(lp851
S':'
asbag57
(g78
g59
NtRp852
(dp853
g62
(dp854
sg71
g839
sg64
(lp855
g57
(g58
g59
NtRp856
(dp857
g62
(dp858
g70
I4
ssg71
g852
sg64
(lp859
S'127.0.0.1-1dd7755d-fc1f-4ff0-9e31-2bc19f972205'
p860
ag57
(g66
g59
NtRp861
(dp862
g62
(dp863
g70
I3
ssg71
Nsg64
(lp864
g57
(g73
g59
NtRp865
(dp866
g62
(dp867
sg71
g861
sg64
(lp868
g57
(g78
g59
NtRp869
(dp870
g62
(dp871
g82
g83
ssg71
g865
sg64
(lp872
g307
asbag57
(g78
g59
NtRp873
(dp874
g62
(dp875
g89
g90
ssg71
g865
sg64
(lp876
S':'
asbag57
(g78
g59
NtRp877
(dp878
g62
(dp879
sg71
g865
sg64
(lp880
g57
(g58
g59
NtRp881
(dp882
g62
(dp883
g70
I3
ssg71
g877
sg64
(lp884
S''
asbasbasbag57
(g73
g59
NtRp885
(dp886
g62
(dp887
sg71
g861
sg64
(lp888
g57
(g78
g59
NtRp889
(dp890
g62
(dp891
g82
g83
ssg71
g885
sg64
(lp892
g328
asbag57
(g78
g59
NtRp893
(dp894
g62
(dp895
g89
g90
ssg71
g885
sg64
(lp896
S':'
asbag57
(g78
g59
NtRp897
(dp898
g62
(dp899
sg71
g885
sg64
(lp900
g57
(g58
g59
NtRp901
(dp902
g62
(dp903
g70
I3
ssg71
g897
sg64
(lp904
S''
asbasbasbag57
(g73
g59
NtRp905
(dp906
g62
(dp907
sg71
g861
sg64
(lp908
g57
(g78
g59
NtRp909
(dp910
g62
(dp911
g82
g83
ssg71
g905
sg64
(lp912
g349
asbag57
(g78
g59
NtRp913
(dp914
g62
(dp915
g89
g90
ssg71
g905
sg64
(lp916
S':'
asbag57
(g78
g59
NtRp917
(dp918
g62
(dp919
sg71
g905
sg64
(lp920
g57
(g58
g59
NtRp921
(dp922
g62
(dp923
g70
I3
ssg71
g917
sg64
(lp924
S''
asbasbasbag57
(g73
g59
NtRp925
(dp926
g62
(dp927
sg71
g861
sg64
(lp928
g57
(g78
g59
NtRp929
(dp930
g62
(dp931
g82
g83
ssg71
g925
sg64
(lp932
g370
asbag57
(g78
g59
NtRp933
(dp934
g62
(dp935
g89
g90
ssg71
g925
sg64
(lp936
S':'
asbag57
(g78
g59
NtRp937
(dp938
g62
(dp939
sg71
g925
sg64
(lp940
g57
(g58
g59
NtRp941
(dp942
g62
(dp943
g70
I3
ssg71
g937
sg64
(lp944
S''
asbasbasbag57
(g73
g59
NtRp945
(dp946
g62
(dp947
sg71
g861
sg64
(lp948
g57
(g78
g59
NtRp949
(dp950
g62
(dp951
g82
g83
ssg71
g945
sg64
(lp952
g391
asbag57
(g78
g59
NtRp953
(dp954
g62
(dp955
g89
g90
ssg71
g945
sg64
(lp956
S':'
asbag57
(g78
g59
NtRp957
(dp958
g62
(dp959
sg71
g945
sg64
(lp960
g57
(g58
g59
NtRp961
(dp962
g62
(dp963
g70
I3
ssg71
g957
sg64
(lp964
S''
asbasbasbag57
(g73
g59
NtRp965
(dp966
g62
(dp967
sg71
g861
sg64
(lp968
g57
(g78
g59
NtRp969
(dp970
g62
(dp971
g82
g83
ssg71
g965
sg64
(lp972
g412
asbag57
(g78
g59
NtRp973
(dp974
g62
(dp975
g89
g90
ssg71
g965
sg64
(lp976
S':'
asbag57
(g78
g59
NtRp977
(dp978
g62
(dp979
sg71
g965
sg64
(lp980
g57
(g58
g59
NtRp981
(dp982
g62
(dp983
g70
I3
ssg71
g977
sg64
(lp984
S''
asbasbasbag57
(g73
g59
NtRp985
(dp986
g62
(dp987
sg71
g861
sg64
(lp988
g57
(g78
g59
NtRp989
(dp990
g62
(dp991
g82
g83
ssg71
g985
sg64
(lp992
g433
asbag57
(g78
g59
NtRp993
(dp994
g62
(dp995
g89
g90
ssg71
g985
sg64
(lp996
S':'
asbag57
(g78
g59
NtRp997
(dp998
g62
(dp999
sg71
g985
sg64
(lp1000
g57
(g58
g59
NtRp1001
(dp1002
g62
(dp1003
g70
I3
ssg71
g997
sg64
(lp1004
S''
asbasbasbag57
(g73
g59
NtRp1005
(dp1006
g62
(dp1007
sg71
g861
sg64
(lp1008
g57
(g78
g59
NtRp1009
(dp1010
g62
(dp1011
g82
g83
ssg71
g1005
sg64
(lp1012
g454
asbag57
(g78
g59
NtRp1013
(dp1014
g62
(dp1015
g89
g90
ssg71
g1005
sg64
(lp1016
S':'
asbag57
(g78
g59
NtRp1017
(dp1018
g62
(dp1019
sg71
g1005
sg64
(lp1020
g57
(g58
g59
NtRp1021
(dp1022
g62
(dp1023
g70
I3
ssg71
g1017
sg64
(lp1024
S''
asbasbasbasbasbasbasbasbasbasbasbag57
(g73
g59
NtRp1025
(dp1026
g62
(dp1027
sg71
g67
sg64
(lp1028
g57
(g78
g59
NtRp1029
(dp1030
g62
(dp1031
g82
g83
ssg71
g1025
sg64
(lp1032
S'env'
p1033
asbag57
(g78
g59
NtRp1034
(dp1035
g62
(dp1036
g89
g90
ssg71
g1025
sg64
(lp1037
S':'
asbag57
(g78
g59
NtRp1038
(dp1039
g62
(dp1040
sg71
g1025
sg64
(lp1041
g57
(g58
g59
NtRp1042
(dp1043
g62
(dp1044
g70
I5
ssg71
g1038
sg64
(lp1045
g57
(g66
g59
NtRp1046
(dp1047
g62
(dp1048
g70
I4
ssg71
Nsg64
(lp1049
g57
(g73
g59
NtRp1050
(dp1051
g62
(dp1052
sg71
g1046
sg64
(lp1053
g57
(g78
g59
NtRp1054
(dp1055
g62
(dp1056
g82
g83
ssg71
g1050
sg64
(lp1057
S'app_folders'
p1058
asbag57
(g78
g59
NtRp1059
(dp1060
g62
(dp1061
g89
g90
ssg71
g1050
sg64
(lp1062
S':'
asbag57
(g78
g59
NtRp1063
(dp1064
g62
(dp1065
sg71
g1050
sg64
(lp1066
g57
(g58
g59
NtRp1067
(dp1068
g62
(dp1069
g70
I4
ssg71
g1063
sg64
(lp1070
S"set(['/home/xchen/web2py/applications/Betsy/', '/home/xchen/web2py/applications/admin/'])"
p1071
asbasbasbag57
(g73
g59
NtRp1072
(dp1073
g62
(dp1074
sg71
g1046
sg64
(lp1075
g57
(g78
g59
NtRp1076
(dp1077
g62
(dp1078
g82
g83
ssg71
g1072
sg64
(lp1079
S'applications_parent'
p1080
asbag57
(g78
g59
NtRp1081
(dp1082
g62
(dp1083
g89
g90
ssg71
g1072
sg64
(lp1084
S':'
asbag57
(g78
g59
NtRp1085
(dp1086
g62
(dp1087
sg71
g1072
sg64
(lp1088
g57
(g58
g59
NtRp1089
(dp1090
g62
(dp1091
g70
I4
ssg71
g1085
sg64
(lp1092
S'/home/xchen/web2py'
p1093
asbasbasbag57
(g73
g59
NtRp1094
(dp1095
g62
(dp1096
sg71
g1046
sg64
(lp1097
g57
(g78
g59
NtRp1098
(dp1099
g62
(dp1100
g82
g83
ssg71
g1094
sg64
(lp1101
S'cmd_args'
p1102
asbag57
(g78
g59
NtRp1103
(dp1104
g62
(dp1105
g89
g90
ssg71
g1094
sg64
(lp1106
S':'
asbag57
(g78
g59
NtRp1107
(dp1108
g62
(dp1109
sg71
g1094
sg64
(lp1110
g57
(g58
g59
NtRp1111
(dp1112
g62
(dp1113
g70
I4
ssg71
g1107
sg64
(lp1114
g57
(g66
g59
NtRp1115
(dp1116
g62
(dp1117
g70
I3
ssg71
Nsg64
(lp1118
sbasbasbasbag57
(g73
g59
NtRp1119
(dp1120
g62
(dp1121
sg71
g1046
sg64
(lp1122
g57
(g78
g59
NtRp1123
(dp1124
g62
(dp1125
g82
g83
ssg71
g1119
sg64
(lp1126
S'cmd_options'
p1127
asbag57
(g78
g59
NtRp1128
(dp1129
g62
(dp1130
g89
g90
ssg71
g1119
sg64
(lp1131
S':'
asbag57
(g78
g59
NtRp1132
(dp1133
g62
(dp1134
sg71
g1119
sg64
(lp1135
g57
(g58
g59
NtRp1136
(dp1137
g62
(dp1138
g70
I4
ssg71
g1132
sg64
(lp1139
S"<Values at 0xf7cee18: {'verbose': False, 'ip': '127.0.0.1', 'with_scheduler': False, 'ips': [], 'shutdown_timeout': 5, 'taskbar': False, 'port': 8080, 'maxthreads': None, 'softcron': False, 'server_name': 'unicron.shis.uth.tmc.edu', 'bpython': False, 'nogui': False, 'pid_filename': 'httpserver.pid', 'extcron': False, 'runcron': False, 'run_system_tests': False, 'test': None, 'folder': '/home/xchen/web2py', 'config': '', 'minthreads': None, 'winservice': '', 'shell': None, 'run': '', 'log_filename': 'httpserver.log', 'debuglevel': 30, 'args': [''], 'socket_timeout': 5, 'ssl_ca_certificate': None, 'scheduler': None, 'profiler_filename': None, 'ssl_private_key': '', 'scheduler_groups': None, 'password': 'baby2008', 'request_queue_size': 5, 'ssl_certificate': '', 'cronjob': False, 'numthreads': None, 'quiet': False, 'interfaces': None, 'import_models': False, 'timeout': 10, 'plain': False, 'nobanner': False}>"
p1140
asbasbasbag57
(g73
g59
NtRp1141
(dp1142
g62
(dp1143
sg71
g1046
sg64
(lp1144
g57
(g78
g59
NtRp1145
(dp1146
g62
(dp1147
g82
g83
ssg71
g1141
sg64
(lp1148
S'db_sessions'
p1149
asbag57
(g78
g59
NtRp1150
(dp1151
g62
(dp1152
g89
g90
ssg71
g1141
sg64
(lp1153
S':'
asbag57
(g78
g59
NtRp1154
(dp1155
g62
(dp1156
sg71
g1141
sg64
(lp1157
g57
(g58
g59
NtRp1158
(dp1159
g62
(dp1160
g70
I4
ssg71
g1154
sg64
(lp1161
S'set([])'
p1162
asbasbasbag57
(g73
g59
NtRp1163
(dp1164
g62
(dp1165
sg71
g1046
sg64
(lp1166
g57
(g78
g59
NtRp1167
(dp1168
g62
(dp1169
g82
g83
ssg71
g1163
sg64
(lp1170
S'debugging'
p1171
asbag57
(g78
g59
NtRp1172
(dp1173
g62
(dp1174
g89
g90
ssg71
g1163
sg64
(lp1175
S':'
asbag57
(g78
g59
NtRp1176
(dp1177
g62
(dp1178
sg71
g1163
sg64
(lp1179
g57
(g58
g59
NtRp1180
(dp1181
g62
(dp1182
g70
I4
ssg71
g1176
sg64
(lp1183
g100
asbasbasbag57
(g73
g59
NtRp1184
(dp1185
g62
(dp1186
sg71
g1046
sg64
(lp1187
g57
(g78
g59
NtRp1188
(dp1189
g62
(dp1190
g82
g83
ssg71
g1184
sg64
(lp1191
S'gluon_parent'
p1192
asbag57
(g78
g59
NtRp1193
(dp1194
g62
(dp1195
g89
g90
ssg71
g1184
sg64
(lp1196
S':'
asbag57
(g78
g59
NtRp1197
(dp1198
g62
(dp1199
sg71
g1184
sg64
(lp1200
g57
(g58
g59
NtRp1201
(dp1202
g62
(dp1203
g70
I4
ssg71
g1197
sg64
(lp1204
S'/home/xchen/web2py'
p1205
asbasbasbag57
(g73
g59
NtRp1206
(dp1207
g62
(dp1208
sg71
g1046
sg64
(lp1209
g57
(g78
g59
NtRp1210
(dp1211
g62
(dp1212
g82
g83
ssg71
g1206
sg64
(lp1213
S'http_accept'
p1214
asbag57
(g78
g59
NtRp1215
(dp1216
g62
(dp1217
g89
g90
ssg71
g1206
sg64
(lp1218
S':'
asbag57
(g78
g59
NtRp1219
(dp1220
g62
(dp1221
sg71
g1206
sg64
(lp1222
g57
(g58
g59
NtRp1223
(dp1224
g62
(dp1225
g70
I4
ssg71
g1219
sg64
(lp1226
S'text/html,application/xhtml+xml,application/xml;q=0.9,*/*;q=0.8'
p1227
asbasbasbag57
(g73
g59
NtRp1228
(dp1229
g62
(dp1230
sg71
g1046
sg64
(lp1231
g57
(g78
g59
NtRp1232
(dp1233
g62
(dp1234
g82
g83
ssg71
g1228
sg64
(lp1235
S'http_accept_encoding'
p1236
asbag57
(g78
g59
NtRp1237
(dp1238
g62
(dp1239
g89
g90
ssg71
g1228
sg64
(lp1240
S':'
asbag57
(g78
g59
NtRp1241
(dp1242
g62
(dp1243
sg71
g1228
sg64
(lp1244
g57
(g58
g59
NtRp1245
(dp1246
g62
(dp1247
g70
I4
ssg71
g1241
sg64
(lp1248
S'gzip, deflate'
p1249
asbasbasbag57
(g73
g59
NtRp1250
(dp1251
g62
(dp1252
sg71
g1046
sg64
(lp1253
g57
(g78
g59
NtRp1254
(dp1255
g62
(dp1256
g82
g83
ssg71
g1250
sg64
(lp1257
S'http_accept_language'
p1258
asbag57
(g78
g59
NtRp1259
(dp1260
g62
(dp1261
g89
g90
ssg71
g1250
sg64
(lp1262
S':'
asbag57
(g78
g59
NtRp1263
(dp1264
g62
(dp1265
sg71
g1250
sg64
(lp1266
g57
(g58
g59
NtRp1267
(dp1268
g62
(dp1269
g70
I4
ssg71
g1263
sg64
(lp1270
S'en-US,en;q=0.5'
p1271
asbasbasbag57
(g73
g59
NtRp1272
(dp1273
g62
(dp1274
sg71
g1046
sg64
(lp1275
g57
(g78
g59
NtRp1276
(dp1277
g62
(dp1278
g82
g83
ssg71
g1272
sg64
(lp1279
S'http_cache_control'
p1280
asbag57
(g78
g59
NtRp1281
(dp1282
g62
(dp1283
g89
g90
ssg71
g1272
sg64
(lp1284
S':'
asbag57
(g78
g59
NtRp1285
(dp1286
g62
(dp1287
sg71
g1272
sg64
(lp1288
g57
(g58
g59
NtRp1289
(dp1290
g62
(dp1291
g70
I4
ssg71
g1285
sg64
(lp1292
S'max-age=0'
p1293
asbasbasbag57
(g73
g59
NtRp1294
(dp1295
g62
(dp1296
sg71
g1046
sg64
(lp1297
g57
(g78
g59
NtRp1298
(dp1299
g62
(dp1300
g82
g83
ssg71
g1294
sg64
(lp1301
S'http_connection'
p1302
asbag57
(g78
g59
NtRp1303
(dp1304
g62
(dp1305
g89
g90
ssg71
g1294
sg64
(lp1306
S':'
asbag57
(g78
g59
NtRp1307
(dp1308
g62
(dp1309
sg71
g1294
sg64
(lp1310
g57
(g58
g59
NtRp1311
(dp1312
g62
(dp1313
g70
I4
ssg71
g1307
sg64
(lp1314
S'keep-alive'
p1315
asbasbasbag57
(g73
g59
NtRp1316
(dp1317
g62
(dp1318
sg71
g1046
sg64
(lp1319
g57
(g78
g59
NtRp1320
(dp1321
g62
(dp1322
g82
g83
ssg71
g1316
sg64
(lp1323
S'http_cookie'
p1324
asbag57
(g78
g59
NtRp1325
(dp1326
g62
(dp1327
g89
g90
ssg71
g1316
sg64
(lp1328
S':'
asbag57
(g78
g59
NtRp1329
(dp1330
g62
(dp1331
sg71
g1316
sg64
(lp1332
g57
(g58
g59
NtRp1333
(dp1334
g62
(dp1335
g70
I4
ssg71
g1329
sg64
(lp1336
S'session_id_betsy=127.0.0.1-70d52105-0f5d-4884-a4e3-dce6830f30e0; session_id_welcome=127.0.0.1-1dd7755d-fc1f-4ff0-9e31-2bc19f972205; session_id_admin=127.0.0.1-aa34f79e-e22c-4689-ac7e-2281748f4e62; session_id_mywiki=127.0.0.1-eb050b35-b093-40d3-af40-302009bb3316'
p1337
asbasbasbag57
(g73
g59
NtRp1338
(dp1339
g62
(dp1340
sg71
g1046
sg64
(lp1341
g57
(g78
g59
NtRp1342
(dp1343
g62
(dp1344
g82
g83
ssg71
g1338
sg64
(lp1345
S'http_host'
p1346
asbag57
(g78
g59
NtRp1347
(dp1348
g62
(dp1349
g89
g90
ssg71
g1338
sg64
(lp1350
S':'
asbag57
(g78
g59
NtRp1351
(dp1352
g62
(dp1353
sg71
g1338
sg64
(lp1354
g57
(g58
g59
NtRp1355
(dp1356
g62
(dp1357
g70
I4
ssg71
g1351
sg64
(lp1358
S'localhost:8080'
p1359
asbasbasbag57
(g73
g59
NtRp1360
(dp1361
g62
(dp1362
sg71
g1046
sg64
(lp1363
g57
(g78
g59
NtRp1364
(dp1365
g62
(dp1366
g82
g83
ssg71
g1360
sg64
(lp1367
S'http_referer'
p1368
asbag57
(g78
g59
NtRp1369
(dp1370
g62
(dp1371
g89
g90
ssg71
g1360
sg64
(lp1372
S':'
asbag57
(g78
g59
NtRp1373
(dp1374
g62
(dp1375
sg71
g1360
sg64
(lp1376
g57
(g58
g59
NtRp1377
(dp1378
g62
(dp1379
g70
I4
ssg71
g1373
sg64
(lp1380
S'http://localhost:8080/Betsy/default/show_status'
p1381
asbasbasbag57
(g73
g59
NtRp1382
(dp1383
g62
(dp1384
sg71
g1046
sg64
(lp1385
g57
(g78
g59
NtRp1386
(dp1387
g62
(dp1388
g82
g83
ssg71
g1382
sg64
(lp1389
S'http_user_agent'
p1390
asbag57
(g78
g59
NtRp1391
(dp1392
g62
(dp1393
g89
g90
ssg71
g1382
sg64
(lp1394
S':'
asbag57
(g78
g59
NtRp1395
(dp1396
g62
(dp1397
sg71
g1382
sg64
(lp1398
g57
(g58
g59
NtRp1399
(dp1400
g62
(dp1401
g70
I4
ssg71
g1395
sg64
(lp1402
S'Mozilla/5.0 (Macintosh; Intel Mac OS X 10.6; rv:18.0) Gecko/20100101 Firefox/18.0'
p1403
asbasbasbag57
(g73
g59
NtRp1404
(dp1405
g62
(dp1406
sg71
g1046
sg64
(lp1407
g57
(g78
g59
NtRp1408
(dp1409
g62
(dp1410
g82
g83
ssg71
g1404
sg64
(lp1411
S'is_jython'
p1412
asbag57
(g78
g59
NtRp1413
(dp1414
g62
(dp1415
g89
g90
ssg71
g1404
sg64
(lp1416
S':'
asbag57
(g78
g59
NtRp1417
(dp1418
g62
(dp1419
sg71
g1404
sg64
(lp1420
g57
(g58
g59
NtRp1421
(dp1422
g62
(dp1423
g70
I4
ssg71
g1417
sg64
(lp1424
g100
asbasbasbag57
(g73
g59
NtRp1425
(dp1426
g62
(dp1427
sg71
g1046
sg64
(lp1428
g57
(g78
g59
NtRp1429
(dp1430
g62
(dp1431
g82
g83
ssg71
g1425
sg64
(lp1432
S'is_pypy'
p1433
asbag57
(g78
g59
NtRp1434
(dp1435
g62
(dp1436
g89
g90
ssg71
g1425
sg64
(lp1437
S':'
asbag57
(g78
g59
NtRp1438
(dp1439
g62
(dp1440
sg71
g1425
sg64
(lp1441
g57
(g58
g59
NtRp1442
(dp1443
g62
(dp1444
g70
I4
ssg71
g1438
sg64
(lp1445
g100
asbasbasbag57
(g73
g59
NtRp1446
(dp1447
g62
(dp1448
sg71
g1046
sg64
(lp1449
g57
(g78
g59
NtRp1450
(dp1451
g62
(dp1452
g82
g83
ssg71
g1446
sg64
(lp1453
S'local_hosts'
p1454
asbag57
(g78
g59
NtRp1455
(dp1456
g62
(dp1457
g89
g90
ssg71
g1446
sg64
(lp1458
S':'
asbag57
(g78
g59
NtRp1459
(dp1460
g62
(dp1461
sg71
g1446
sg64
(lp1462
g57
(g58
g59
NtRp1463
(dp1464
g62
(dp1465
g70
I4
ssg71
g1459
sg64
(lp1466
g57
(g66
g59
NtRp1467
(dp1468
g62
(dp1469
g70
I3
ssg71
Nsg64
(lp1470
g57
(g73
g59
NtRp1471
(dp1472
g62
(dp1473
sg71
g1467
sg64
(lp1474
g57
(g78
g59
NtRp1475
(dp1476
g62
(dp1477
sg71
g1471
sg64
(lp1478
g57
(g58
g59
NtRp1479
(dp1480
g62
(dp1481
g70
I3
ssg71
g1475
sg64
(lp1482
S'127.0.0.1'
p1483
asbasbasbag57
(g73
g59
NtRp1484
(dp1485
g62
(dp1486
sg71
g1467
sg64
(lp1487
g57
(g78
g59
NtRp1488
(dp1489
g62
(dp1490
sg71
g1484
sg64
(lp1491
g57
(g58
g59
NtRp1492
(dp1493
g62
(dp1494
g70
I3
ssg71
g1488
sg64
(lp1495
S'::ffff:127.0.0.1'
p1496
asbasbasbag57
(g73
g59
NtRp1497
(dp1498
g62
(dp1499
sg71
g1467
sg64
(lp1500
g57
(g78
g59
NtRp1501
(dp1502
g62
(dp1503
sg71
g1497
sg64
(lp1504
g57
(g58
g59
NtRp1505
(dp1506
g62
(dp1507
g70
I3
ssg71
g1501
sg64
(lp1508
S'unicron.shis.uth.tmc.edu'
p1509
asbasbasbag57
(g73
g59
NtRp1510
(dp1511
g62
(dp1512
sg71
g1467
sg64
(lp1513
g57
(g78
g59
NtRp1514
(dp1515
g62
(dp1516
sg71
g1510
sg64
(lp1517
g57
(g58
g59
NtRp1518
(dp1519
g62
(dp1520
g70
I3
ssg71
g1514
sg64
(lp1521
S'unicron.shis.uth.tmc.edu'
p1522
asbasbasbag57
(g73
g59
NtRp1523
(dp1524
g62
(dp1525
sg71
g1467
sg64
(lp1526
g57
(g78
g59
NtRp1527
(dp1528
g62
(dp1529
sg71
g1523
sg64
(lp1530
g57
(g58
g59
NtRp1531
(dp1532
g62
(dp1533
g70
I3
ssg71
g1527
sg64
(lp1534
S'127.0.0.1'
p1535
asbasbasbasbasbasbasbag57
(g73
g59
NtRp1536
(dp1537
g62
(dp1538
sg71
g1046
sg64
(lp1539
g57
(g78
g59
NtRp1540
(dp1541
g62
(dp1542
g82
g83
ssg71
g1536
sg64
(lp1543
S'path_info'
p1544
asbag57
(g78
g59
NtRp1545
(dp1546
g62
(dp1547
g89
g90
ssg71
g1536
sg64
(lp1548
S':'
asbag57
(g78
g59
NtRp1549
(dp1550
g62
(dp1551
sg71
g1536
sg64
(lp1552
g57
(g58
g59
NtRp1553
(dp1554
g62
(dp1555
g70
I4
ssg71
g1549
sg64
(lp1556
S'/Betsy/default/show_job/102'
p1557
asbasbasbag57
(g73
g59
NtRp1558
(dp1559
g62
(dp1560
sg71
g1046
sg64
(lp1561
g57
(g78
g59
NtRp1562
(dp1563
g62
(dp1564
g82
g83
ssg71
g1558
sg64
(lp1565
S'query_string'
p1566
asbag57
(g78
g59
NtRp1567
(dp1568
g62
(dp1569
g89
g90
ssg71
g1558
sg64
(lp1570
S':'
asbag57
(g78
g59
NtRp1571
(dp1572
g62
(dp1573
sg71
g1558
sg64
(lp1574
g57
(g58
g59
NtRp1575
(dp1576
g62
(dp1577
g70
I4
ssg71
g1571
sg64
(lp1578
S''
asbasbasbag57
(g73
g59
NtRp1579
(dp1580
g62
(dp1581
sg71
g1046
sg64
(lp1582
g57
(g78
g59
NtRp1583
(dp1584
g62
(dp1585
g82
g83
ssg71
g1579
sg64
(lp1586
S'remote_addr'
p1587
asbag57
(g78
g59
NtRp1588
(dp1589
g62
(dp1590
g89
g90
ssg71
g1579
sg64
(lp1591
S':'
asbag57
(g78
g59
NtRp1592
(dp1593
g62
(dp1594
sg71
g1579
sg64
(lp1595
g57
(g58
g59
NtRp1596
(dp1597
g62
(dp1598
g70
I4
ssg71
g1592
sg64
(lp1599
g225
asbasbasbag57
(g73
g59
NtRp1600
(dp1601
g62
(dp1602
sg71
g1046
sg64
(lp1603
g57
(g78
g59
NtRp1604
(dp1605
g62
(dp1606
g82
g83
ssg71
g1600
sg64
(lp1607
S'remote_port'
p1608
asbag57
(g78
g59
NtRp1609
(dp1610
g62
(dp1611
g89
g90
ssg71
g1600
sg64
(lp1612
S':'
asbag57
(g78
g59
NtRp1613
(dp1614
g62
(dp1615
sg71
g1600
sg64
(lp1616
g57
(g58
g59
NtRp1617
(dp1618
g62
(dp1619
g70
I4
ssg71
g1613
sg64
(lp1620
S'54522'
p1621
asbasbasbag57
(g73
g59
NtRp1622
(dp1623
g62
(dp1624
sg71
g1046
sg64
(lp1625
g57
(g78
g59
NtRp1626
(dp1627
g62
(dp1628
g82
g83
ssg71
g1622
sg64
(lp1629
S'request_method'
p1630
asbag57
(g78
g59
NtRp1631
(dp1632
g62
(dp1633
g89
g90
ssg71
g1622
sg64
(lp1634
S':'
asbag57
(g78
g59
NtRp1635
(dp1636
g62
(dp1637
sg71
g1622
sg64
(lp1638
g57
(g58
g59
NtRp1639
(dp1640
g62
(dp1641
g70
I4
ssg71
g1635
sg64
(lp1642
S'GET'
p1643
asbasbasbag57
(g73
g59
NtRp1644
(dp1645
g62
(dp1646
sg71
g1046
sg64
(lp1647
g57
(g78
g59
NtRp1648
(dp1649
g62
(dp1650
g82
g83
ssg71
g1644
sg64
(lp1651
S'request_uri'
p1652
asbag57
(g78
g59
NtRp1653
(dp1654
g62
(dp1655
g89
g90
ssg71
g1644
sg64
(lp1656
S':'
asbag57
(g78
g59
NtRp1657
(dp1658
g62
(dp1659
sg71
g1644
sg64
(lp1660
g57
(g58
g59
NtRp1661
(dp1662
g62
(dp1663
g70
I4
ssg71
g1657
sg64
(lp1664
g1557
asbasbasbag57
(g73
g59
NtRp1665
(dp1666
g62
(dp1667
sg71
g1046
sg64
(lp1668
g57
(g78
g59
NtRp1669
(dp1670
g62
(dp1671
g82
g83
ssg71
g1665
sg64
(lp1672
S'script_name'
p1673
asbag57
(g78
g59
NtRp1674
(dp1675
g62
(dp1676
g89
g90
ssg71
g1665
sg64
(lp1677
S':'
asbag57
(g78
g59
NtRp1678
(dp1679
g62
(dp1680
sg71
g1665
sg64
(lp1681
g57
(g58
g59
NtRp1682
(dp1683
g62
(dp1684
g70
I4
ssg71
g1678
sg64
(lp1685
S''
asbasbasbag57
(g73
g59
NtRp1686
(dp1687
g62
(dp1688
sg71
g1046
sg64
(lp1689
g57
(g78
g59
NtRp1690
(dp1691
g62
(dp1692
g82
g83
ssg71
g1686
sg64
(lp1693
S'server_name'
p1694
asbag57
(g78
g59
NtRp1695
(dp1696
g62
(dp1697
g89
g90
ssg71
g1686
sg64
(lp1698
S':'
asbag57
(g78
g59
NtRp1699
(dp1700
g62
(dp1701
sg71
g1686
sg64
(lp1702
g57
(g58
g59
NtRp1703
(dp1704
g62
(dp1705
g70
I4
ssg71
g1699
sg64
(lp1706
g1522
asbasbasbag57
(g73
g59
NtRp1707
(dp1708
g62
(dp1709
sg71
g1046
sg64
(lp1710
g57
(g78
g59
NtRp1711
(dp1712
g62
(dp1713
g82
g83
ssg71
g1707
sg64
(lp1714
S'server_port'
p1715
asbag57
(g78
g59
NtRp1716
(dp1717
g62
(dp1718
g89
g90
ssg71
g1707
sg64
(lp1719
S':'
asbag57
(g78
g59
NtRp1720
(dp1721
g62
(dp1722
sg71
g1707
sg64
(lp1723
g57
(g58
g59
NtRp1724
(dp1725
g62
(dp1726
g70
I4
ssg71
g1720
sg64
(lp1727
S'8080'
p1728
asbasbasbag57
(g73
g59
NtRp1729
(dp1730
g62
(dp1731
sg71
g1046
sg64
(lp1732
g57
(g78
g59
NtRp1733
(dp1734
g62
(dp1735
g82
g83
ssg71
g1729
sg64
(lp1736
S'server_protocol'
p1737
asbag57
(g78
g59
NtRp1738
(dp1739
g62
(dp1740
g89
g90
ssg71
g1729
sg64
(lp1741
S':'
asbag57
(g78
g59
NtRp1742
(dp1743
g62
(dp1744
sg71
g1729
sg64
(lp1745
g57
(g58
g59
NtRp1746
(dp1747
g62
(dp1748
g70
I4
ssg71
g1742
sg64
(lp1749
S'HTTP/1.1'
p1750
asbasbasbag57
(g73
g59
NtRp1751
(dp1752
g62
(dp1753
sg71
g1046
sg64
(lp1754
g57
(g78
g59
NtRp1755
(dp1756
g62
(dp1757
g82
g83
ssg71
g1751
sg64
(lp1758
S'server_software'
p1759
asbag57
(g78
g59
NtRp1760
(dp1761
g62
(dp1762
g89
g90
ssg71
g1751
sg64
(lp1763
S':'
asbag57
(g78
g59
NtRp1764
(dp1765
g62
(dp1766
sg71
g1751
sg64
(lp1767
g57
(g58
g59
NtRp1768
(dp1769
g62
(dp1770
g70
I4
ssg71
g1764
sg64
(lp1771
S'Rocket 1.2.5'
p1772
asbasbasbag57
(g73
g59
NtRp1773
(dp1774
g62
(dp1775
sg71
g1046
sg64
(lp1776
g57
(g78
g59
NtRp1777
(dp1778
g62
(dp1779
g82
g83
ssg71
g1773
sg64
(lp1780
S'web2py_path'
p1781
asbag57
(g78
g59
NtRp1782
(dp1783
g62
(dp1784
g89
g90
ssg71
g1773
sg64
(lp1785
S':'
asbag57
(g78
g59
NtRp1786
(dp1787
g62
(dp1788
sg71
g1773
sg64
(lp1789
g57
(g58
g59
NtRp1790
(dp1791
g62
(dp1792
g70
I4
ssg71
g1786
sg64
(lp1793
g1093
asbasbasbag57
(g73
g59
NtRp1794
(dp1795
g62
(dp1796
sg71
g1046
sg64
(lp1797
g57
(g78
g59
NtRp1798
(dp1799
g62
(dp1800
g82
g83
ssg71
g1794
sg64
(lp1801
S'web2py_version'
p1802
asbag57
(g78
g59
NtRp1803
(dp1804
g62
(dp1805
g89
g90
ssg71
g1794
sg64
(lp1806
S':'
asbag57
(g78
g59
NtRp1807
(dp1808
g62
(dp1809
sg71
g1794
sg64
(lp1810
g57
(g58
g59
NtRp1811
(dp1812
g62
(dp1813
g70
I4
ssg71
g1807
sg64
(lp1814
g57
(g66
g59
NtRp1815
(dp1816
g62
(dp1817
g70
I3
ssg71
Nsg64
(lp1818
g57
(g73
g59
NtRp1819
(dp1820
g62
(dp1821
sg71
g1815
sg64
(lp1822
g57
(g78
g59
NtRp1823
(dp1824
g62
(dp1825
sg71
g1819
sg64
(lp1826
g57
(g58
g59
NtRp1827
(dp1828
g62
(dp1829
g70
I3
ssg71
g1823
sg64
(lp1830
S'2'
asbasbasbag57
(g73
g59
NtRp1831
(dp1832
g62
(dp1833
sg71
g1815
sg64
(lp1834
g57
(g78
g59
NtRp1835
(dp1836
g62
(dp1837
sg71
g1831
sg64
(lp1838
g57
(g58
g59
NtRp1839
(dp1840
g62
(dp1841
g70
I3
ssg71
g1835
sg64
(lp1842
S'2'
asbasbasbag57
(g73
g59
NtRp1843
(dp1844
g62
(dp1845
sg71
g1815
sg64
(lp1846
g57
(g78
g59
NtRp1847
(dp1848
g62
(dp1849
sg71
g1843
sg64
(lp1850
g57
(g58
g59
NtRp1851
(dp1852
g62
(dp1853
g70
I3
ssg71
g1847
sg64
(lp1854
S'1'
asbasbasbag57
(g73
g59
NtRp1855
(dp1856
g62
(dp1857
sg71
g1815
sg64
(lp1858
g57
(g78
g59
NtRp1859
(dp1860
g62
(dp1861
sg71
g1855
sg64
(lp1862
g57
(g58
g59
NtRp1863
(dp1864
g62
(dp1865
g70
I3
ssg71
g1859
sg64
(lp1866
S'datetime.datetime(2012, 10, 21, 16, 57, 4)'
p1867
asbasbasbag57
(g73
g59
NtRp1868
(dp1869
g62
(dp1870
sg71
g1815
sg64
(lp1871
g57
(g78
g59
NtRp1872
(dp1873
g62
(dp1874
sg71
g1868
sg64
(lp1875
g57
(g58
g59
NtRp1876
(dp1877
g62
(dp1878
g70
I3
ssg71
g1872
sg64
(lp1879
S'stable'
p1880
asbasbasbasbasbasbasbag57
(g73
g59
NtRp1881
(dp1882
g62
(dp1883
sg71
g1046
sg64
(lp1884
g57
(g78
g59
NtRp1885
(dp1886
g62
(dp1887
g82
g83
ssg71
g1881
sg64
(lp1888
S'wsgi_errors'
p1889
asbag57
(g78
g59
NtRp1890
(dp1891
g62
(dp1892
g89
g90
ssg71
g1881
sg64
(lp1893
S':'
asbag57
(g78
g59
NtRp1894
(dp1895
g62
(dp1896
sg71
g1881
sg64
(lp1897
g57
(g58
g59
NtRp1898
(dp1899
g62
(dp1900
g70
I4
ssg71
g1894
sg64
(lp1901
S"<open file '<stderr>', mode 'w' at 0x2ad33452e270>"
p1902
asbasbasbag57
(g73
g59
NtRp1903
(dp1904
g62
(dp1905
sg71
g1046
sg64
(lp1906
g57
(g78
g59
NtRp1907
(dp1908
g62
(dp1909
g82
g83
ssg71
g1903
sg64
(lp1910
S'wsgi_file_wrapper'
p1911
asbag57
(g78
g59
NtRp1912
(dp1913
g62
(dp1914
g89
g90
ssg71
g1903
sg64
(lp1915
S':'
asbag57
(g78
g59
NtRp1916
(dp1917
g62
(dp1918
sg71
g1903
sg64
(lp1919
g57
(g58
g59
NtRp1920
(dp1921
g62
(dp1922
g70
I4
ssg71
g1916
sg64
(lp1923
S'<class wsgiref.util.FileWrapper at 0xf72ea78>'
p1924
asbasbasbag57
(g73
g59
NtRp1925
(dp1926
g62
(dp1927
sg71
g1046
sg64
(lp1928
g57
(g78
g59
NtRp1929
(dp1930
g62
(dp1931
g82
g83
ssg71
g1925
sg64
(lp1932
S'wsgi_input'
p1933
asbag57
(g78
g59
NtRp1934
(dp1935
g62
(dp1936
g89
g90
ssg71
g1925
sg64
(lp1937
S':'
asbag57
(g78
g59
NtRp1938
(dp1939
g62
(dp1940
sg71
g1925
sg64
(lp1941
g57
(g58
g59
NtRp1942
(dp1943
g62
(dp1944
g70
I4
ssg71
g1938
sg64
(lp1945
S'<socket._fileobject object at 0x108e0ad0>'
p1946
asbasbasbag57
(g73
g59
NtRp1947
(dp1948
g62
(dp1949
sg71
g1046
sg64
(lp1950
g57
(g78
g59
NtRp1951
(dp1952
g62
(dp1953
g82
g83
ssg71
g1947
sg64
(lp1954
S'wsgi_multiprocess'
p1955
asbag57
(g78
g59
NtRp1956
(dp1957
g62
(dp1958
g89
g90
ssg71
g1947
sg64
(lp1959
S':'
asbag57
(g78
g59
NtRp1960
(dp1961
g62
(dp1962
sg71
g1947
sg64
(lp1963
g57
(g58
g59
NtRp1964
(dp1965
g62
(dp1966
g70
I4
ssg71
g1960
sg64
(lp1967
g100
asbasbasbag57
(g73
g59
NtRp1968
(dp1969
g62
(dp1970
sg71
g1046
sg64
(lp1971
g57
(g78
g59
NtRp1972
(dp1973
g62
(dp1974
g82
g83
ssg71
g1968
sg64
(lp1975
S'wsgi_multithread'
p1976
asbag57
(g78
g59
NtRp1977
(dp1978
g62
(dp1979
g89
g90
ssg71
g1968
sg64
(lp1980
S':'
asbag57
(g78
g59
NtRp1981
(dp1982
g62
(dp1983
sg71
g1968
sg64
(lp1984
g57
(g58
g59
NtRp1985
(dp1986
g62
(dp1987
g70
I4
ssg71
g1981
sg64
(lp1988
S'True'
p1989
asbasbasbag57
(g73
g59
NtRp1990
(dp1991
g62
(dp1992
sg71
g1046
sg64
(lp1993
g57
(g78
g59
NtRp1994
(dp1995
g62
(dp1996
g82
g83
ssg71
g1990
sg64
(lp1997
S'wsgi_run_once'
p1998
asbag57
(g78
g59
NtRp1999
(dp2000
g62
(dp2001
g89
g90
ssg71
g1990
sg64
(lp2002
S':'
asbag57
(g78
g59
NtRp2003
(dp2004
g62
(dp2005
sg71
g1990
sg64
(lp2006
g57
(g58
g59
NtRp2007
(dp2008
g62
(dp2009
g70
I4
ssg71
g2003
sg64
(lp2010
g100
asbasbasbag57
(g73
g59
NtRp2011
(dp2012
g62
(dp2013
sg71
g1046
sg64
(lp2014
g57
(g78
g59
NtRp2015
(dp2016
g62
(dp2017
g82
g83
ssg71
g2011
sg64
(lp2018
S'wsgi_url_scheme'
p2019
asbag57
(g78
g59
NtRp2020
(dp2021
g62
(dp2022
g89
g90
ssg71
g2011
sg64
(lp2023
S':'
asbag57
(g78
g59
NtRp2024
(dp2025
g62
(dp2026
sg71
g2011
sg64
(lp2027
g57
(g58
g59
NtRp2028
(dp2029
g62
(dp2030
g70
I4
ssg71
g2024
sg64
(lp2031
S'http'
p2032
asbasbasbag57
(g73
g59
NtRp2033
(dp2034
g62
(dp2035
sg71
g1046
sg64
(lp2036
g57
(g78
g59
NtRp2037
(dp2038
g62
(dp2039
g82
g83
ssg71
g2033
sg64
(lp2040
S'wsgi_version'
p2041
asbag57
(g78
g59
NtRp2042
(dp2043
g62
(dp2044
g89
g90
ssg71
g2033
sg64
(lp2045
S':'
asbag57
(g78
g59
NtRp2046
(dp2047
g62
(dp2048
sg71
g2033
sg64
(lp2049
g57
(g58
g59
NtRp2050
(dp2051
g62
(dp2052
g70
I4
ssg71
g2046
sg64
(lp2053
g57
(g66
g59
NtRp2054
(dp2055
g62
(dp2056
g70
I3
ssg71
Nsg64
(lp2057
g57
(g73
g59
NtRp2058
(dp2059
g62
(dp2060
sg71
g2054
sg64
(lp2061
g57
(g78
g59
NtRp2062
(dp2063
g62
(dp2064
sg71
g2058
sg64
(lp2065
g57
(g58
g59
NtRp2066
(dp2067
g62
(dp2068
g70
I3
ssg71
g2062
sg64
(lp2069
S'1'
asbasbasbag57
(g73
g59
NtRp2070
(dp2071
g62
(dp2072
sg71
g2054
sg64
(lp2073
g57
(g78
g59
NtRp2074
(dp2075
g62
(dp2076
sg71
g2070
sg64
(lp2077
g57
(g58
g59
NtRp2078
(dp2079
g62
(dp2080
g70
I3
ssg71
g2074
sg64
(lp2081
S'0'
asbasbasbasbasbasbasbasbasbasbasbag57
(g73
g59
NtRp2082
(dp2083
g62
(dp2084
sg71
g67
sg64
(lp2085
g57
(g78
g59
NtRp2086
(dp2087
g62
(dp2088
g82
g83
ssg71
g2082
sg64
(lp2089
S'extension'
p2090
asbag57
(g78
g59
NtRp2091
(dp2092
g62
(dp2093
g89
g90
ssg71
g2082
sg64
(lp2094
S':'
asbag57
(g78
g59
NtRp2095
(dp2096
g62
(dp2097
sg71
g2082
sg64
(lp2098
g57
(g58
g59
NtRp2099
(dp2100
g62
(dp2101
g70
I5
ssg71
g2095
sg64
(lp2102
S'html'
p2103
asbasbasbag57
(g73
g59
NtRp2104
(dp2105
g62
(dp2106
sg71
g67
sg64
(lp2107
g57
(g78
g59
NtRp2108
(dp2109
g62
(dp2110
g82
g83
ssg71
g2104
sg64
(lp2111
S'folder'
p2112
asbag57
(g78
g59
NtRp2113
(dp2114
g62
(dp2115
g89
g90
ssg71
g2104
sg64
(lp2116
S':'
asbag57
(g78
g59
NtRp2117
(dp2118
g62
(dp2119
sg71
g2104
sg64
(lp2120
g57
(g58
g59
NtRp2121
(dp2122
g62
(dp2123
g70
I5
ssg71
g2117
sg64
(lp2124
S'/home/xchen/web2py/applications/Betsy/'
p2125
asbasbasbag57
(g73
g59
NtRp2126
(dp2127
g62
(dp2128
sg71
g67
sg64
(lp2129
g57
(g78
g59
NtRp2130
(dp2131
g62
(dp2132
g82
g83
ssg71
g2126
sg64
(lp2133
S'function'
p2134
asbag57
(g78
g59
NtRp2135
(dp2136
g62
(dp2137
g89
g90
ssg71
g2126
sg64
(lp2138
S':'
asbag57
(g78
g59
NtRp2139
(dp2140
g62
(dp2141
sg71
g2126
sg64
(lp2142
g57
(g58
g59
NtRp2143
(dp2144
g62
(dp2145
g70
I5
ssg71
g2139
sg64
(lp2146
S'show_job'
p2147
asbasbasbag57
(g73
g59
NtRp2148
(dp2149
g62
(dp2150
sg71
g67
sg64
(lp2151
g57
(g78
g59
NtRp2152
(dp2153
g62
(dp2154
g82
g83
ssg71
g2148
sg64
(lp2155
S'get_vars'
p2156
asbag57
(g78
g59
NtRp2157
(dp2158
g62
(dp2159
g89
g90
ssg71
g2148
sg64
(lp2160
S':'
asbag57
(g78
g59
NtRp2161
(dp2162
g62
(dp2163
sg71
g2148
sg64
(lp2164
g57
(g58
g59
NtRp2165
(dp2166
g62
(dp2167
g70
I5
ssg71
g2161
sg64
(lp2168
g57
(g66
g59
NtRp2169
(dp2170
g62
(dp2171
g70
I4
ssg71
Nsg64
(lp2172
sbasbasbasbag57
(g73
g59
NtRp2173
(dp2174
g62
(dp2175
sg71
g67
sg64
(lp2176
g57
(g78
g59
NtRp2177
(dp2178
g62
(dp2179
g82
g83
ssg71
g2173
sg64
(lp2180
S'global_settings'
p2181
asbag57
(g78
g59
NtRp2182
(dp2183
g62
(dp2184
g89
g90
ssg71
g2173
sg64
(lp2185
S':'
asbag57
(g78
g59
NtRp2186
(dp2187
g62
(dp2188
sg71
g2173
sg64
(lp2189
g57
(g58
g59
NtRp2190
(dp2191
g62
(dp2192
g70
I5
ssg71
g2186
sg64
(lp2193
g57
(g66
g59
NtRp2194
(dp2195
g62
(dp2196
g70
I4
ssg71
Nsg64
(lp2197
g57
(g73
g59
NtRp2198
(dp2199
g62
(dp2200
sg71
g2194
sg64
(lp2201
g57
(g78
g59
NtRp2202
(dp2203
g62
(dp2204
g82
g83
ssg71
g2198
sg64
(lp2205
g1058
asbag57
(g78
g59
NtRp2206
(dp2207
g62
(dp2208
g89
g90
ssg71
g2198
sg64
(lp2209
S':'
asbag57
(g78
g59
NtRp2210
(dp2211
g62
(dp2212
sg71
g2198
sg64
(lp2213
g57
(g58
g59
NtRp2214
(dp2215
g62
(dp2216
g70
I4
ssg71
g2210
sg64
(lp2217
S"set(['/home/xchen/web2py/applications/Betsy/', '/home/xchen/web2py/applications/admin/'])"
p2218
asbasbasbag57
(g73
g59
NtRp2219
(dp2220
g62
(dp2221
sg71
g2194
sg64
(lp2222
g57
(g78
g59
NtRp2223
(dp2224
g62
(dp2225
g82
g83
ssg71
g2219
sg64
(lp2226
g1080
asbag57
(g78
g59
NtRp2227
(dp2228
g62
(dp2229
g89
g90
ssg71
g2219
sg64
(lp2230
S':'
asbag57
(g78
g59
NtRp2231
(dp2232
g62
(dp2233
sg71
g2219
sg64
(lp2234
g57
(g58
g59
NtRp2235
(dp2236
g62
(dp2237
g70
I4
ssg71
g2231
sg64
(lp2238
g1093
asbasbasbag57
(g73
g59
NtRp2239
(dp2240
g62
(dp2241
sg71
g2194
sg64
(lp2242
g57
(g78
g59
NtRp2243
(dp2244
g62
(dp2245
g82
g83
ssg71
g2239
sg64
(lp2246
g1102
asbag57
(g78
g59
NtRp2247
(dp2248
g62
(dp2249
g89
g90
ssg71
g2239
sg64
(lp2250
S':'
asbag57
(g78
g59
NtRp2251
(dp2252
g62
(dp2253
sg71
g2239
sg64
(lp2254
g57
(g58
g59
NtRp2255
(dp2256
g62
(dp2257
g70
I4
ssg71
g2251
sg64
(lp2258
g57
(g66
g59
NtRp2259
(dp2260
g62
(dp2261
g70
I3
ssg71
Nsg64
(lp2262
sbasbasbasbag57
(g73
g59
NtRp2263
(dp2264
g62
(dp2265
sg71
g2194
sg64
(lp2266
g57
(g78
g59
NtRp2267
(dp2268
g62
(dp2269
g82
g83
ssg71
g2263
sg64
(lp2270
g1127
asbag57
(g78
g59
NtRp2271
(dp2272
g62
(dp2273
g89
g90
ssg71
g2263
sg64
(lp2274
S':'
asbag57
(g78
g59
NtRp2275
(dp2276
g62
(dp2277
sg71
g2263
sg64
(lp2278
g57
(g58
g59
NtRp2279
(dp2280
g62
(dp2281
g70
I4
ssg71
g2275
sg64
(lp2282
S"<Values at 0xf7cee18: {'verbose': False, 'ip': '127.0.0.1', 'with_scheduler': False, 'ips': [], 'shutdown_timeout': 5, 'taskbar': False, 'port': 8080, 'maxthreads': None, 'softcron': False, 'server_name': 'unicron.shis.uth.tmc.edu', 'bpython': False, 'nogui': False, 'pid_filename': 'httpserver.pid', 'extcron': False, 'runcron': False, 'run_system_tests': False, 'test': None, 'folder': '/home/xchen/web2py', 'config': '', 'minthreads': None, 'winservice': '', 'shell': None, 'run': '', 'log_filename': 'httpserver.log', 'debuglevel': 30, 'args': [''], 'socket_timeout': 5, 'ssl_ca_certificate': None, 'scheduler': None, 'profiler_filename': None, 'ssl_private_key': '', 'scheduler_groups': None, 'password': 'baby2008', 'request_queue_size': 5, 'ssl_certificate': '', 'cronjob': False, 'numthreads': None, 'quiet': False, 'interfaces': None, 'import_models': False, 'timeout': 10, 'plain': False, 'nobanner': False}>"
p2283
asbasbasbag57
(g73
g59
NtRp2284
(dp2285
g62
(dp2286
sg71
g2194
sg64
(lp2287
g57
(g78
g59
NtRp2288
(dp2289
g62
(dp2290
g82
g83
ssg71
g2284
sg64
(lp2291
g1149
asbag57
(g78
g59
NtRp2292
(dp2293
g62
(dp2294
g89
g90
ssg71
g2284
sg64
(lp2295
S':'
asbag57
(g78
g59
NtRp2296
(dp2297
g62
(dp2298
sg71
g2284
sg64
(lp2299
g57
(g58
g59
NtRp2300
(dp2301
g62
(dp2302
g70
I4
ssg71
g2296
sg64
(lp2303
S'set([])'
p2304
asbasbasbag57
(g73
g59
NtRp2305
(dp2306
g62
(dp2307
sg71
g2194
sg64
(lp2308
g57
(g78
g59
NtRp2309
(dp2310
g62
(dp2311
g82
g83
ssg71
g2305
sg64
(lp2312
g1171
asbag57
(g78
g59
NtRp2313
(dp2314
g62
(dp2315
g89
g90
ssg71
g2305
sg64
(lp2316
S':'
asbag57
(g78
g59
NtRp2317
(dp2318
g62
(dp2319
sg71
g2305
sg64
(lp2320
g57
(g58
g59
NtRp2321
(dp2322
g62
(dp2323
g70
I4
ssg71
g2317
sg64
(lp2324
g100
asbasbasbag57
(g73
g59
NtRp2325
(dp2326
g62
(dp2327
sg71
g2194
sg64
(lp2328
g57
(g78
g59
NtRp2329
(dp2330
g62
(dp2331
g82
g83
ssg71
g2325
sg64
(lp2332
g1192
asbag57
(g78
g59
NtRp2333
(dp2334
g62
(dp2335
g89
g90
ssg71
g2325
sg64
(lp2336
S':'
asbag57
(g78
g59
NtRp2337
(dp2338
g62
(dp2339
sg71
g2325
sg64
(lp2340
g57
(g58
g59
NtRp2341
(dp2342
g62
(dp2343
g70
I4
ssg71
g2337
sg64
(lp2344
g1205
asbasbasbag57
(g73
g59
NtRp2345
(dp2346
g62
(dp2347
sg71
g2194
sg64
(lp2348
g57
(g78
g59
NtRp2349
(dp2350
g62
(dp2351
g82
g83
ssg71
g2345
sg64
(lp2352
g1412
asbag57
(g78
g59
NtRp2353
(dp2354
g62
(dp2355
g89
g90
ssg71
g2345
sg64
(lp2356
S':'
asbag57
(g78
g59
NtRp2357
(dp2358
g62
(dp2359
sg71
g2345
sg64
(lp2360
g57
(g58
g59
NtRp2361
(dp2362
g62
(dp2363
g70
I4
ssg71
g2357
sg64
(lp2364
g100
asbasbasbag57
(g73
g59
NtRp2365
(dp2366
g62
(dp2367
sg71
g2194
sg64
(lp2368
g57
(g78
g59
NtRp2369
(dp2370
g62
(dp2371
g82
g83
ssg71
g2365
sg64
(lp2372
g1433
asbag57
(g78
g59
NtRp2373
(dp2374
g62
(dp2375
g89
g90
ssg71
g2365
sg64
(lp2376
S':'
asbag57
(g78
g59
NtRp2377
(dp2378
g62
(dp2379
sg71
g2365
sg64
(lp2380
g57
(g58
g59
NtRp2381
(dp2382
g62
(dp2383
g70
I4
ssg71
g2377
sg64
(lp2384
g100
asbasbasbag57
(g73
g59
NtRp2385
(dp2386
g62
(dp2387
sg71
g2194
sg64
(lp2388
g57
(g78
g59
NtRp2389
(dp2390
g62
(dp2391
g82
g83
ssg71
g2385
sg64
(lp2392
g1454
asbag57
(g78
g59
NtRp2393
(dp2394
g62
(dp2395
g89
g90
ssg71
g2385
sg64
(lp2396
S':'
asbag57
(g78
g59
NtRp2397
(dp2398
g62
(dp2399
sg71
g2385
sg64
(lp2400
g57
(g58
g59
NtRp2401
(dp2402
g62
(dp2403
g70
I4
ssg71
g2397
sg64
(lp2404
g57
(g66
g59
NtRp2405
(dp2406
g62
(dp2407
g70
I3
ssg71
Nsg64
(lp2408
g57
(g73
g59
NtRp2409
(dp2410
g62
(dp2411
sg71
g2405
sg64
(lp2412
g57
(g78
g59
NtRp2413
(dp2414
g62
(dp2415
sg71
g2409
sg64
(lp2416
g57
(g58
g59
NtRp2417
(dp2418
g62
(dp2419
g70
I3
ssg71
g2413
sg64
(lp2420
g1483
asbasbasbag57
(g73
g59
NtRp2421
(dp2422
g62
(dp2423
sg71
g2405
sg64
(lp2424
g57
(g78
g59
NtRp2425
(dp2426
g62
(dp2427
sg71
g2421
sg64
(lp2428
g57
(g58
g59
NtRp2429
(dp2430
g62
(dp2431
g70
I3
ssg71
g2425
sg64
(lp2432
g1496
asbasbasbag57
(g73
g59
NtRp2433
(dp2434
g62
(dp2435
sg71
g2405
sg64
(lp2436
g57
(g78
g59
NtRp2437
(dp2438
g62
(dp2439
sg71
g2433
sg64
(lp2440
g57
(g58
g59
NtRp2441
(dp2442
g62
(dp2443
g70
I3
ssg71
g2437
sg64
(lp2444
g1509
asbasbasbag57
(g73
g59
NtRp2445
(dp2446
g62
(dp2447
sg71
g2405
sg64
(lp2448
g57
(g78
g59
NtRp2449
(dp2450
g62
(dp2451
sg71
g2445
sg64
(lp2452
g57
(g58
g59
NtRp2453
(dp2454
g62
(dp2455
g70
I3
ssg71
g2449
sg64
(lp2456
g1522
asbasbasbag57
(g73
g59
NtRp2457
(dp2458
g62
(dp2459
sg71
g2405
sg64
(lp2460
g57
(g78
g59
NtRp2461
(dp2462
g62
(dp2463
sg71
g2457
sg64
(lp2464
g57
(g58
g59
NtRp2465
(dp2466
g62
(dp2467
g70
I3
ssg71
g2461
sg64
(lp2468
g1535
asbasbasbasbasbasbasbag57
(g73
g59
NtRp2469
(dp2470
g62
(dp2471
sg71
g2194
sg64
(lp2472
g57
(g78
g59
NtRp2473
(dp2474
g62
(dp2475
g82
g83
ssg71
g2469
sg64
(lp2476
g1802
asbag57
(g78
g59
NtRp2477
(dp2478
g62
(dp2479
g89
g90
ssg71
g2469
sg64
(lp2480
S':'
asbag57
(g78
g59
NtRp2481
(dp2482
g62
(dp2483
sg71
g2469
sg64
(lp2484
g57
(g58
g59
NtRp2485
(dp2486
g62
(dp2487
g70
I4
ssg71
g2481
sg64
(lp2488
g57
(g66
g59
NtRp2489
(dp2490
g62
(dp2491
g70
I3
ssg71
Nsg64
(lp2492
g57
(g73
g59
NtRp2493
(dp2494
g62
(dp2495
sg71
g2489
sg64
(lp2496
g57
(g78
g59
NtRp2497
(dp2498
g62
(dp2499
sg71
g2493
sg64
(lp2500
g57
(g58
g59
NtRp2501
(dp2502
g62
(dp2503
g70
I3
ssg71
g2497
sg64
(lp2504
S'2'
asbasbasbag57
(g73
g59
NtRp2505
(dp2506
g62
(dp2507
sg71
g2489
sg64
(lp2508
g57
(g78
g59
NtRp2509
(dp2510
g62
(dp2511
sg71
g2505
sg64
(lp2512
g57
(g58
g59
NtRp2513
(dp2514
g62
(dp2515
g70
I3
ssg71
g2509
sg64
(lp2516
S'2'
asbasbasbag57
(g73
g59
NtRp2517
(dp2518
g62
(dp2519
sg71
g2489
sg64
(lp2520
g57
(g78
g59
NtRp2521
(dp2522
g62
(dp2523
sg71
g2517
sg64
(lp2524
g57
(g58
g59
NtRp2525
(dp2526
g62
(dp2527
g70
I3
ssg71
g2521
sg64
(lp2528
S'1'
asbasbasbag57
(g73
g59
NtRp2529
(dp2530
g62
(dp2531
sg71
g2489
sg64
(lp2532
g57
(g78
g59
NtRp2533
(dp2534
g62
(dp2535
sg71
g2529
sg64
(lp2536
g57
(g58
g59
NtRp2537
(dp2538
g62
(dp2539
g70
I3
ssg71
g2533
sg64
(lp2540
S'datetime.datetime(2012, 10, 21, 16, 57, 4)'
p2541
asbasbasbag57
(g73
g59
NtRp2542
(dp2543
g62
(dp2544
sg71
g2489
sg64
(lp2545
g57
(g78
g59
NtRp2546
(dp2547
g62
(dp2548
sg71
g2542
sg64
(lp2549
g57
(g58
g59
NtRp2550
(dp2551
g62
(dp2552
g70
I3
ssg71
g2546
sg64
(lp2553
g1880
asbasbasbasbasbasbasbasbasbasbasbag57
(g73
g59
NtRp2554
(dp2555
g62
(dp2556
sg71
g67
sg64
(lp2557
g57
(g78
g59
NtRp2558
(dp2559
g62
(dp2560
g82
g83
ssg71
g2554
sg64
(lp2561
S'is_https'
p2562
asbag57
(g78
g59
NtRp2563
(dp2564
g62
(dp2565
g89
g90
ssg71
g2554
sg64
(lp2566
S':'
asbag57
(g78
g59
NtRp2567
(dp2568
g62
(dp2569
sg71
g2554
sg64
(lp2570
g57
(g58
g59
NtRp2571
(dp2572
g62
(dp2573
g70
I5
ssg71
g2567
sg64
(lp2574
g100
asbasbasbag57
(g73
g59
NtRp2575
(dp2576
g62
(dp2577
sg71
g67
sg64
(lp2578
g57
(g78
g59
NtRp2579
(dp2580
g62
(dp2581
g82
g83
ssg71
g2575
sg64
(lp2582
S'is_local'
p2583
asbag57
(g78
g59
NtRp2584
(dp2585
g62
(dp2586
g89
g90
ssg71
g2575
sg64
(lp2587
S':'
asbag57
(g78
g59
NtRp2588
(dp2589
g62
(dp2590
sg71
g2575
sg64
(lp2591
g57
(g58
g59
NtRp2592
(dp2593
g62
(dp2594
g70
I5
ssg71
g2588
sg64
(lp2595
g1989
asbasbasbag57
(g73
g59
NtRp2596
(dp2597
g62
(dp2598
sg71
g67
sg64
(lp2599
g57
(g78
g59
NtRp2600
(dp2601
g62
(dp2602
g82
g83
ssg71
g2596
sg64
(lp2603
S'is_restful'
p2604
asbag57
(g78
g59
NtRp2605
(dp2606
g62
(dp2607
g89
g90
ssg71
g2596
sg64
(lp2608
S':'
asbag57
(g78
g59
NtRp2609
(dp2610
g62
(dp2611
sg71
g2596
sg64
(lp2612
g57
(g58
g59
NtRp2613
(dp2614
g62
(dp2615
g70
I5
ssg71
g2609
sg64
(lp2616
g100
asbasbasbag57
(g73
g59
NtRp2617
(dp2618
g62
(dp2619
sg71
g67
sg64
(lp2620
g57
(g78
g59
NtRp2621
(dp2622
g62
(dp2623
g82
g83
ssg71
g2617
sg64
(lp2624
S'now'
p2625
asbag57
(g78
g59
NtRp2626
(dp2627
g62
(dp2628
g89
g90
ssg71
g2617
sg64
(lp2629
S':'
asbag57
(g78
g59
NtRp2630
(dp2631
g62
(dp2632
sg71
g2617
sg64
(lp2633
g57
(g58
g59
NtRp2634
(dp2635
g62
(dp2636
g70
I5
ssg71
g2630
sg64
(lp2637
S'datetime.datetime(2013, 2, 6, 14, 6, 55, 84587)'
p2638
asbasbasbag57
(g73
g59
NtRp2639
(dp2640
g62
(dp2641
sg71
g67
sg64
(lp2642
g57
(g78
g59
NtRp2643
(dp2644
g62
(dp2645
g82
g83
ssg71
g2639
sg64
(lp2646
S'post_vars'
p2647
asbag57
(g78
g59
NtRp2648
(dp2649
g62
(dp2650
g89
g90
ssg71
g2639
sg64
(lp2651
S':'
asbag57
(g78
g59
NtRp2652
(dp2653
g62
(dp2654
sg71
g2639
sg64
(lp2655
g57
(g58
g59
NtRp2656
(dp2657
g62
(dp2658
g70
I5
ssg71
g2652
sg64
(lp2659
g57
(g66
g59
NtRp2660
(dp2661
g62
(dp2662
g70
I4
ssg71
Nsg64
(lp2663
sbasbasbasbag57
(g73
g59
NtRp2664
(dp2665
g62
(dp2666
sg71
g67
sg64
(lp2667
g57
(g78
g59
NtRp2668
(dp2669
g62
(dp2670
g82
g83
ssg71
g2664
sg64
(lp2671
S'raw_args'
p2672
asbag57
(g78
g59
NtRp2673
(dp2674
g62
(dp2675
g89
g90
ssg71
g2664
sg64
(lp2676
S':'
asbag57
(g78
g59
NtRp2677
(dp2678
g62
(dp2679
sg71
g2664
sg64
(lp2680
g57
(g58
g59
NtRp2681
(dp2682
g62
(dp2683
g70
I5
ssg71
g2677
sg64
(lp2684
S'/102'
p2685
asbasbasbag57
(g73
g59
NtRp2686
(dp2687
g62
(dp2688
sg71
g67
sg64
(lp2689
g57
(g78
g59
NtRp2690
(dp2691
g62
(dp2692
g82
g83
ssg71
g2686
sg64
(lp2693
S'raw_extension'
p2694
asbag57
(g78
g59
NtRp2695
(dp2696
g62
(dp2697
g89
g90
ssg71
g2686
sg64
(lp2698
S':'
asbag57
(g78
g59
NtRp2699
(dp2700
g62
(dp2701
sg71
g2686
sg64
(lp2702
g57
(g58
g59
NtRp2703
(dp2704
g62
(dp2705
g70
I5
ssg71
g2699
sg64
(lp2706
S'None'
p2707
asbasbasbag57
(g73
g59
NtRp2708
(dp2709
g62
(dp2710
sg71
g67
sg64
(lp2711
g57
(g78
g59
NtRp2712
(dp2713
g62
(dp2714
g82
g83
ssg71
g2708
sg64
(lp2715
S'url'
p2716
asbag57
(g78
g59
NtRp2717
(dp2718
g62
(dp2719
g89
g90
ssg71
g2708
sg64
(lp2720
S':'
asbag57
(g78
g59
NtRp2721
(dp2722
g62
(dp2723
sg71
g2708
sg64
(lp2724
g57
(g58
g59
NtRp2725
(dp2726
g62
(dp2727
g70
I5
ssg71
g2721
sg64
(lp2728
g1557
asbasbasbag57
(g73
g59
NtRp2729
(dp2730
g62
(dp2731
sg71
g67
sg64
(lp2732
g57
(g78
g59
NtRp2733
(dp2734
g62
(dp2735
g82
g83
ssg71
g2729
sg64
(lp2736
S'utcnow'
p2737
asbag57
(g78
g59
NtRp2738
(dp2739
g62
(dp2740
g89
g90
ssg71
g2729
sg64
(lp2741
S':'
asbag57
(g78
g59
NtRp2742
(dp2743
g62
(dp2744
sg71
g2729
sg64
(lp2745
g57
(g58
g59
NtRp2746
(dp2747
g62
(dp2748
g70
I5
ssg71
g2742
sg64
(lp2749
S'datetime.datetime(2013, 2, 6, 20, 6, 55, 84599)'
p2750
asbasbasbag57
(g73
g59
NtRp2751
(dp2752
g62
(dp2753
sg71
g67
sg64
(lp2754
g57
(g78
g59
NtRp2755
(dp2756
g62
(dp2757
g82
g83
ssg71
g2751
sg64
(lp2758
S'uuid'
p2759
asbag57
(g78
g59
NtRp2760
(dp2761
g62
(dp2762
g89
g90
ssg71
g2751
sg64
(lp2763
S':'
asbag57
(g78
g59
NtRp2764
(dp2765
g62
(dp2766
sg71
g2751
sg64
(lp2767
g57
(g58
g59
NtRp2768
(dp2769
g62
(dp2770
g70
I5
ssg71
g2764
sg64
(lp2771
S'Betsy/127.0.0.1.2013-02-06.14-06-55.99159a45-82a2-4b1f-ba13-5785025798df'
p2772
asbasbasbag57
(g73
g59
NtRp2773
(dp2774
g62
(dp2775
sg71
g67
sg64
(lp2776
g57
(g78
g59
NtRp2777
(dp2778
g62
(dp2779
g82
g83
ssg71
g2773
sg64
(lp2780
S'vars'
p2781
asbag57
(g78
g59
NtRp2782
(dp2783
g62
(dp2784
g89
g90
ssg71
g2773
sg64
(lp2785
S':'
asbag57
(g78
g59
NtRp2786
(dp2787
g62
(dp2788
sg71
g2773
sg64
(lp2789
g57
(g58
g59
NtRp2790
(dp2791
g62
(dp2792
g70
I5
ssg71
g2786
sg64
(lp2793
g57
(g66
g59
NtRp2794
(dp2795
g62
(dp2796
g70
I4
ssg71
Nsg64
(lp2797
sbasbasbasbag57
(g73
g59
NtRp2798
(dp2799
g62
(dp2800
sg71
g67
sg64
(lp2801
g57
(g78
g59
NtRp2802
(dp2803
g62
(dp2804
g82
g83
ssg71
g2798
sg64
(lp2805
S'wsgi'
p2806
asbag57
(g78
g59
NtRp2807
(dp2808
g62
(dp2809
g89
g90
ssg71
g2798
sg64
(lp2810
S':'
asbag57
(g78
g59
NtRp2811
(dp2812
g62
(dp2813
sg71
g2798
sg64
(lp2814
g57
(g58
g59
NtRp2815
(dp2816
g62
(dp2817
g70
I5
ssg71
g2811
sg64
(lp2818
g57
(g66
g59
NtRp2819
(dp2820
g62
(dp2821
g70
I4
ssg71
Nsg64
(lp2822
g57
(g73
g59
NtRp2823
(dp2824
g62
(dp2825
sg71
g2819
sg64
(lp2826
g57
(g78
g59
NtRp2827
(dp2828
g62
(dp2829
g82
g83
ssg71
g2823
sg64
(lp2830
S'environ'
p2831
asbag57
(g78
g59
NtRp2832
(dp2833
g62
(dp2834
g89
g90
ssg71
g2823
sg64
(lp2835
S':'
asbag57
(g78
g59
NtRp2836
(dp2837
g62
(dp2838
sg71
g2823
sg64
(lp2839
g57
(g58
g59
NtRp2840
(dp2841
g62
(dp2842
g70
I4
ssg71
g2836
sg64
(lp2843
g57
(g66
g59
NtRp2844
(dp2845
g62
(dp2846
g70
I3
ssg71
Nsg64
(lp2847
g57
(g73
g59
NtRp2848
(dp2849
g62
(dp2850
sg71
g2844
sg64
(lp2851
g57
(g78
g59
NtRp2852
(dp2853
g62
(dp2854
g82
g83
ssg71
g2848
sg64
(lp2855
S'HTTP_ACCEPT'
p2856
asbag57
(g78
g59
NtRp2857
(dp2858
g62
(dp2859
g89
g90
ssg71
g2848
sg64
(lp2860
S':'
asbag57
(g78
g59
NtRp2861
(dp2862
g62
(dp2863
sg71
g2848
sg64
(lp2864
g57
(g58
g59
NtRp2865
(dp2866
g62
(dp2867
g70
I3
ssg71
g2861
sg64
(lp2868
g1227
asbasbasbag57
(g73
g59
NtRp2869
(dp2870
g62
(dp2871
sg71
g2844
sg64
(lp2872
g57
(g78
g59
NtRp2873
(dp2874
g62
(dp2875
g82
g83
ssg71
g2869
sg64
(lp2876
S'HTTP_ACCEPT_ENCODING'
p2877
asbag57
(g78
g59
NtRp2878
(dp2879
g62
(dp2880
g89
g90
ssg71
g2869
sg64
(lp2881
S':'
asbag57
(g78
g59
NtRp2882
(dp2883
g62
(dp2884
sg71
g2869
sg64
(lp2885
g57
(g58
g59
NtRp2886
(dp2887
g62
(dp2888
g70
I3
ssg71
g2882
sg64
(lp2889
g1249
asbasbasbag57
(g73
g59
NtRp2890
(dp2891
g62
(dp2892
sg71
g2844
sg64
(lp2893
g57
(g78
g59
NtRp2894
(dp2895
g62
(dp2896
g82
g83
ssg71
g2890
sg64
(lp2897
S'HTTP_ACCEPT_LANGUAGE'
p2898
asbag57
(g78
g59
NtRp2899
(dp2900
g62
(dp2901
g89
g90
ssg71
g2890
sg64
(lp2902
S':'
asbag57
(g78
g59
NtRp2903
(dp2904
g62
(dp2905
sg71
g2890
sg64
(lp2906
g57
(g58
g59
NtRp2907
(dp2908
g62
(dp2909
g70
I3
ssg71
g2903
sg64
(lp2910
g1271
asbasbasbag57
(g73
g59
NtRp2911
(dp2912
g62
(dp2913
sg71
g2844
sg64
(lp2914
g57
(g78
g59
NtRp2915
(dp2916
g62
(dp2917
g82
g83
ssg71
g2911
sg64
(lp2918
S'HTTP_CACHE_CONTROL'
p2919
asbag57
(g78
g59
NtRp2920
(dp2921
g62
(dp2922
g89
g90
ssg71
g2911
sg64
(lp2923
S':'
asbag57
(g78
g59
NtRp2924
(dp2925
g62
(dp2926
sg71
g2911
sg64
(lp2927
g57
(g58
g59
NtRp2928
(dp2929
g62
(dp2930
g70
I3
ssg71
g2924
sg64
(lp2931
g1293
asbasbasbag57
(g73
g59
NtRp2932
(dp2933
g62
(dp2934
sg71
g2844
sg64
(lp2935
g57
(g78
g59
NtRp2936
(dp2937
g62
(dp2938
g82
g83
ssg71
g2932
sg64
(lp2939
S'HTTP_CONNECTION'
p2940
asbag57
(g78
g59
NtRp2941
(dp2942
g62
(dp2943
g89
g90
ssg71
g2932
sg64
(lp2944
S':'
asbag57
(g78
g59
NtRp2945
(dp2946
g62
(dp2947
sg71
g2932
sg64
(lp2948
g57
(g58
g59
NtRp2949
(dp2950
g62
(dp2951
g70
I3
ssg71
g2945
sg64
(lp2952
g1315
asbasbasbag57
(g73
g59
NtRp2953
(dp2954
g62
(dp2955
sg71
g2844
sg64
(lp2956
g57
(g78
g59
NtRp2957
(dp2958
g62
(dp2959
g82
g83
ssg71
g2953
sg64
(lp2960
S'HTTP_COOKIE'
p2961
asbag57
(g78
g59
NtRp2962
(dp2963
g62
(dp2964
g89
g90
ssg71
g2953
sg64
(lp2965
S':'
asbag57
(g78
g59
NtRp2966
(dp2967
g62
(dp2968
sg71
g2953
sg64
(lp2969
g57
(g58
g59
NtRp2970
(dp2971
g62
(dp2972
g70
I3
ssg71
g2966
sg64
(lp2973
g1337
asbasbasbag57
(g73
g59
NtRp2974
(dp2975
g62
(dp2976
sg71
g2844
sg64
(lp2977
g57
(g78
g59
NtRp2978
(dp2979
g62
(dp2980
g82
g83
ssg71
g2974
sg64
(lp2981
S'HTTP_HOST'
p2982
asbag57
(g78
g59
NtRp2983
(dp2984
g62
(dp2985
g89
g90
ssg71
g2974
sg64
(lp2986
S':'
asbag57
(g78
g59
NtRp2987
(dp2988
g62
(dp2989
sg71
g2974
sg64
(lp2990
g57
(g58
g59
NtRp2991
(dp2992
g62
(dp2993
g70
I3
ssg71
g2987
sg64
(lp2994
g1359
asbasbasbag57
(g73
g59
NtRp2995
(dp2996
g62
(dp2997
sg71
g2844
sg64
(lp2998
g57
(g78
g59
NtRp2999
(dp3000
g62
(dp3001
g82
g83
ssg71
g2995
sg64
(lp3002
S'HTTP_REFERER'
p3003
asbag57
(g78
g59
NtRp3004
(dp3005
g62
(dp3006
g89
g90
ssg71
g2995
sg64
(lp3007
S':'
asbag57
(g78
g59
NtRp3008
(dp3009
g62
(dp3010
sg71
g2995
sg64
(lp3011
g57
(g58
g59
NtRp3012
(dp3013
g62
(dp3014
g70
I3
ssg71
g3008
sg64
(lp3015
g1381
asbasbasbag57
(g73
g59
NtRp3016
(dp3017
g62
(dp3018
sg71
g2844
sg64
(lp3019
g57
(g78
g59
NtRp3020
(dp3021
g62
(dp3022
g82
g83
ssg71
g3016
sg64
(lp3023
S'HTTP_USER_AGENT'
p3024
asbag57
(g78
g59
NtRp3025
(dp3026
g62
(dp3027
g89
g90
ssg71
g3016
sg64
(lp3028
S':'
asbag57
(g78
g59
NtRp3029
(dp3030
g62
(dp3031
sg71
g3016
sg64
(lp3032
g57
(g58
g59
NtRp3033
(dp3034
g62
(dp3035
g70
I3
ssg71
g3029
sg64
(lp3036
g1403
asbasbasbag57
(g73
g59
NtRp3037
(dp3038
g62
(dp3039
sg71
g2844
sg64
(lp3040
g57
(g78
g59
NtRp3041
(dp3042
g62
(dp3043
g82
g83
ssg71
g3037
sg64
(lp3044
S'PATH_INFO'
p3045
asbag57
(g78
g59
NtRp3046
(dp3047
g62
(dp3048
g89
g90
ssg71
g3037
sg64
(lp3049
S':'
asbag57
(g78
g59
NtRp3050
(dp3051
g62
(dp3052
sg71
g3037
sg64
(lp3053
g57
(g58
g59
NtRp3054
(dp3055
g62
(dp3056
g70
I3
ssg71
g3050
sg64
(lp3057
g1557
asbasbasbag57
(g73
g59
NtRp3058
(dp3059
g62
(dp3060
sg71
g2844
sg64
(lp3061
g57
(g78
g59
NtRp3062
(dp3063
g62
(dp3064
g82
g83
ssg71
g3058
sg64
(lp3065
S'QUERY_STRING'
p3066
asbag57
(g78
g59
NtRp3067
(dp3068
g62
(dp3069
g89
g90
ssg71
g3058
sg64
(lp3070
S':'
asbag57
(g78
g59
NtRp3071
(dp3072
g62
(dp3073
sg71
g3058
sg64
(lp3074
g57
(g58
g59
NtRp3075
(dp3076
g62
(dp3077
g70
I3
ssg71
g3071
sg64
(lp3078
S''
asbasbasbag57
(g73
g59
NtRp3079
(dp3080
g62
(dp3081
sg71
g2844
sg64
(lp3082
g57
(g78
g59
NtRp3083
(dp3084
g62
(dp3085
g82
g83
ssg71
g3079
sg64
(lp3086
S'REMOTE_ADDR'
p3087
asbag57
(g78
g59
NtRp3088
(dp3089
g62
(dp3090
g89
g90
ssg71
g3079
sg64
(lp3091
S':'
asbag57
(g78
g59
NtRp3092
(dp3093
g62
(dp3094
sg71
g3079
sg64
(lp3095
g57
(g58
g59
NtRp3096
(dp3097
g62
(dp3098
g70
I3
ssg71
g3092
sg64
(lp3099
g225
asbasbasbag57
(g73
g59
NtRp3100
(dp3101
g62
(dp3102
sg71
g2844
sg64
(lp3103
g57
(g78
g59
NtRp3104
(dp3105
g62
(dp3106
g82
g83
ssg71
g3100
sg64
(lp3107
S'REMOTE_PORT'
p3108
asbag57
(g78
g59
NtRp3109
(dp3110
g62
(dp3111
g89
g90
ssg71
g3100
sg64
(lp3112
S':'
asbag57
(g78
g59
NtRp3113
(dp3114
g62
(dp3115
sg71
g3100
sg64
(lp3116
g57
(g58
g59
NtRp3117
(dp3118
g62
(dp3119
g70
I3
ssg71
g3113
sg64
(lp3120
g1621
asbasbasbag57
(g73
g59
NtRp3121
(dp3122
g62
(dp3123
sg71
g2844
sg64
(lp3124
g57
(g78
g59
NtRp3125
(dp3126
g62
(dp3127
g82
g83
ssg71
g3121
sg64
(lp3128
S'REQUEST_METHOD'
p3129
asbag57
(g78
g59
NtRp3130
(dp3131
g62
(dp3132
g89
g90
ssg71
g3121
sg64
(lp3133
S':'
asbag57
(g78
g59
NtRp3134
(dp3135
g62
(dp3136
sg71
g3121
sg64
(lp3137
g57
(g58
g59
NtRp3138
(dp3139
g62
(dp3140
g70
I3
ssg71
g3134
sg64
(lp3141
g1643
asbasbasbag57
(g73
g59
NtRp3142
(dp3143
g62
(dp3144
sg71
g2844
sg64
(lp3145
g57
(g78
g59
NtRp3146
(dp3147
g62
(dp3148
g82
g83
ssg71
g3142
sg64
(lp3149
S'REQUEST_URI'
p3150
asbag57
(g78
g59
NtRp3151
(dp3152
g62
(dp3153
g89
g90
ssg71
g3142
sg64
(lp3154
S':'
asbag57
(g78
g59
NtRp3155
(dp3156
g62
(dp3157
sg71
g3142
sg64
(lp3158
g57
(g58
g59
NtRp3159
(dp3160
g62
(dp3161
g70
I3
ssg71
g3155
sg64
(lp3162
g1557
asbasbasbag57
(g73
g59
NtRp3163
(dp3164
g62
(dp3165
sg71
g2844
sg64
(lp3166
g57
(g78
g59
NtRp3167
(dp3168
g62
(dp3169
g82
g83
ssg71
g3163
sg64
(lp3170
S'SCRIPT_NAME'
p3171
asbag57
(g78
g59
NtRp3172
(dp3173
g62
(dp3174
g89
g90
ssg71
g3163
sg64
(lp3175
S':'
asbag57
(g78
g59
NtRp3176
(dp3177
g62
(dp3178
sg71
g3163
sg64
(lp3179
g57
(g58
g59
NtRp3180
(dp3181
g62
(dp3182
g70
I3
ssg71
g3176
sg64
(lp3183
S''
asbasbasbag57
(g73
g59
NtRp3184
(dp3185
g62
(dp3186
sg71
g2844
sg64
(lp3187
g57
(g78
g59
NtRp3188
(dp3189
g62
(dp3190
g82
g83
ssg71
g3184
sg64
(lp3191
S'SERVER_NAME'
p3192
asbag57
(g78
g59
NtRp3193
(dp3194
g62
(dp3195
g89
g90
ssg71
g3184
sg64
(lp3196
S':'
asbag57
(g78
g59
NtRp3197
(dp3198
g62
(dp3199
sg71
g3184
sg64
(lp3200
g57
(g58
g59
NtRp3201
(dp3202
g62
(dp3203
g70
I3
ssg71
g3197
sg64
(lp3204
g1522
asbasbasbag57
(g73
g59
NtRp3205
(dp3206
g62
(dp3207
sg71
g2844
sg64
(lp3208
g57
(g78
g59
NtRp3209
(dp3210
g62
(dp3211
g82
g83
ssg71
g3205
sg64
(lp3212
S'SERVER_PORT'
p3213
asbag57
(g78
g59
NtRp3214
(dp3215
g62
(dp3216
g89
g90
ssg71
g3205
sg64
(lp3217
S':'
asbag57
(g78
g59
NtRp3218
(dp3219
g62
(dp3220
sg71
g3205
sg64
(lp3221
g57
(g58
g59
NtRp3222
(dp3223
g62
(dp3224
g70
I3
ssg71
g3218
sg64
(lp3225
g1728
asbasbasbag57
(g73
g59
NtRp3226
(dp3227
g62
(dp3228
sg71
g2844
sg64
(lp3229
g57
(g78
g59
NtRp3230
(dp3231
g62
(dp3232
g82
g83
ssg71
g3226
sg64
(lp3233
S'SERVER_PROTOCOL'
p3234
asbag57
(g78
g59
NtRp3235
(dp3236
g62
(dp3237
g89
g90
ssg71
g3226
sg64
(lp3238
S':'
asbag57
(g78
g59
NtRp3239
(dp3240
g62
(dp3241
sg71
g3226
sg64
(lp3242
g57
(g58
g59
NtRp3243
(dp3244
g62
(dp3245
g70
I3
ssg71
g3239
sg64
(lp3246
g1750
asbasbasbag57
(g73
g59
NtRp3247
(dp3248
g62
(dp3249
sg71
g2844
sg64
(lp3250
g57
(g78
g59
NtRp3251
(dp3252
g62
(dp3253
g82
g83
ssg71
g3247
sg64
(lp3254
S'SERVER_SOFTWARE'
p3255
asbag57
(g78
g59
NtRp3256
(dp3257
g62
(dp3258
g89
g90
ssg71
g3247
sg64
(lp3259
S':'
asbag57
(g78
g59
NtRp3260
(dp3261
g62
(dp3262
sg71
g3247
sg64
(lp3263
g57
(g58
g59
NtRp3264
(dp3265
g62
(dp3266
g70
I3
ssg71
g3260
sg64
(lp3267
g1772
asbasbasbag57
(g73
g59
NtRp3268
(dp3269
g62
(dp3270
sg71
g2844
sg64
(lp3271
g57
(g78
g59
NtRp3272
(dp3273
g62
(dp3274
g82
g83
ssg71
g3268
sg64
(lp3275
S'wsgi.errors'
p3276
asbag57
(g78
g59
NtRp3277
(dp3278
g62
(dp3279
g89
g90
ssg71
g3268
sg64
(lp3280
S':'
asbag57
(g78
g59
NtRp3281
(dp3282
g62
(dp3283
sg71
g3268
sg64
(lp3284
g57
(g58
g59
NtRp3285
(dp3286
g62
(dp3287
g70
I3
ssg71
g3281
sg64
(lp3288
S"<open file '<stderr>', mode 'w' at 0x2ad33452e270>"
p3289
asbasbasbag57
(g73
g59
NtRp3290
(dp3291
g62
(dp3292
sg71
g2844
sg64
(lp3293
g57
(g78
g59
NtRp3294
(dp3295
g62
(dp3296
g82
g83
ssg71
g3290
sg64
(lp3297
S'wsgi.file_wrapper'
p3298
asbag57
(g78
g59
NtRp3299
(dp3300
g62
(dp3301
g89
g90
ssg71
g3290
sg64
(lp3302
S':'
asbag57
(g78
g59
NtRp3303
(dp3304
g62
(dp3305
sg71
g3290
sg64
(lp3306
g57
(g58
g59
NtRp3307
(dp3308
g62
(dp3309
g70
I3
ssg71
g3303
sg64
(lp3310
S'<class wsgiref.util.FileWrapper at 0xf72ea78>'
p3311
asbasbasbag57
(g73
g59
NtRp3312
(dp3313
g62
(dp3314
sg71
g2844
sg64
(lp3315
g57
(g78
g59
NtRp3316
(dp3317
g62
(dp3318
g82
g83
ssg71
g3312
sg64
(lp3319
S'wsgi.input'
p3320
asbag57
(g78
g59
NtRp3321
(dp3322
g62
(dp3323
g89
g90
ssg71
g3312
sg64
(lp3324
S':'
asbag57
(g78
g59
NtRp3325
(dp3326
g62
(dp3327
sg71
g3312
sg64
(lp3328
g57
(g58
g59
NtRp3329
(dp3330
g62
(dp3331
g70
I3
ssg71
g3325
sg64
(lp3332
S'<cStringIO.StringO object at 0xf8185a8>'
p3333
asbasbasbag57
(g73
g59
NtRp3334
(dp3335
g62
(dp3336
sg71
g2844
sg64
(lp3337
g57
(g78
g59
NtRp3338
(dp3339
g62
(dp3340
g82
g83
ssg71
g3334
sg64
(lp3341
S'wsgi.multiprocess'
p3342
asbag57
(g78
g59
NtRp3343
(dp3344
g62
(dp3345
g89
g90
ssg71
g3334
sg64
(lp3346
S':'
asbag57
(g78
g59
NtRp3347
(dp3348
g62
(dp3349
sg71
g3334
sg64
(lp3350
g57
(g58
g59
NtRp3351
(dp3352
g62
(dp3353
g70
I3
ssg71
g3347
sg64
(lp3354
g100
asbasbasbag57
(g73
g59
NtRp3355
(dp3356
g62
(dp3357
sg71
g2844
sg64
(lp3358
g57
(g78
g59
NtRp3359
(dp3360
g62
(dp3361
g82
g83
ssg71
g3355
sg64
(lp3362
S'wsgi.multithread'
p3363
asbag57
(g78
g59
NtRp3364
(dp3365
g62
(dp3366
g89
g90
ssg71
g3355
sg64
(lp3367
S':'
asbag57
(g78
g59
NtRp3368
(dp3369
g62
(dp3370
sg71
g3355
sg64
(lp3371
g57
(g58
g59
NtRp3372
(dp3373
g62
(dp3374
g70
I3
ssg71
g3368
sg64
(lp3375
g1989
asbasbasbag57
(g73
g59
NtRp3376
(dp3377
g62
(dp3378
sg71
g2844
sg64
(lp3379
g57
(g78
g59
NtRp3380
(dp3381
g62
(dp3382
g82
g83
ssg71
g3376
sg64
(lp3383
S'wsgi.run_once'
p3384
asbag57
(g78
g59
NtRp3385
(dp3386
g62
(dp3387
g89
g90
ssg71
g3376
sg64
(lp3388
S':'
asbag57
(g78
g59
NtRp3389
(dp3390
g62
(dp3391
sg71
g3376
sg64
(lp3392
g57
(g58
g59
NtRp3393
(dp3394
g62
(dp3395
g70
I3
ssg71
g3389
sg64
(lp3396
g100
asbasbasbag57
(g73
g59
NtRp3397
(dp3398
g62
(dp3399
sg71
g2844
sg64
(lp3400
g57
(g78
g59
NtRp3401
(dp3402
g62
(dp3403
g82
g83
ssg71
g3397
sg64
(lp3404
S'wsgi.url_scheme'
p3405
asbag57
(g78
g59
NtRp3406
(dp3407
g62
(dp3408
g89
g90
ssg71
g3397
sg64
(lp3409
S':'
asbag57
(g78
g59
NtRp3410
(dp3411
g62
(dp3412
sg71
g3397
sg64
(lp3413
g57
(g58
g59
NtRp3414
(dp3415
g62
(dp3416
g70
I3
ssg71
g3410
sg64
(lp3417
g2032
asbasbasbag57
(g73
g59
NtRp3418
(dp3419
g62
(dp3420
sg71
g2844
sg64
(lp3421
g57
(g78
g59
NtRp3422
(dp3423
g62
(dp3424
g82
g83
ssg71
g3418
sg64
(lp3425
S'wsgi.version'
p3426
asbag57
(g78
g59
NtRp3427
(dp3428
g62
(dp3429
g89
g90
ssg71
g3418
sg64
(lp3430
S':'
asbag57
(g78
g59
NtRp3431
(dp3432
g62
(dp3433
sg71
g3418
sg64
(lp3434
g57
(g58
g59
NtRp3435
(dp3436
g62
(dp3437
g70
I3
ssg71
g3431
sg64
(lp3438
S'1'
asbasbasbasbasbasbasbasbasbasbasbasbasbsS'frames'
p3439
(lp3440
(dp3441
S'file'
p3442
S'/home/xchen/web2py/gluon/restricted.py'
p3443
sS'dump'
p3444
(dp3445
S'environment'
p3446
S"{'A': <class 'gluon.html.A'>, 'Auth': <class 'gluon.tools.Auth'>, 'B': <class 'gluon.html.B'>, 'BEAUTIFY': <class 'gluon.html.BEAUTIFY'>, 'BODY': <class 'gluon.html.BODY'>, 'BR': <class 'gluon.html.BR'>, 'BUTTON': <class 'gluon.html.BUTTON'>, 'CAT': <class 'gluon.html.CAT'>, 'CENTER': <class 'gluon.html.CENTER'>, 'CLEANUP': <class 'gluon.validators.CLEANUP'>, ...}"
p3447
sS'ccode'
p3448
S'<code object <module> at 0x108e0c30, file "/home...lications/Betsy/controllers/default.py", line 12>'
p3449
ssS'lnum'
p3450
I212
sS'lines'
p3451
(dp3452
I207
S'    try:'
p3453
sI208
S'        if isinstance(code, types.CodeType):'
p3454
sI209
S'            ccode = code'
p3455
sI210
S'        else:'
p3456
sI211
S'            ccode = compile2(code, layer)'
p3457
sI212
S'        exec ccode in environment'
p3458
sI213
S'    except HTTP:'
p3459
sI214
S'        raise'
p3460
sI215
S'    except RestrictedError:'
p3461
sI216
S'        # do not encapsulate (obfuscate) the original RestrictedError'
p3462
ssS'call'
p3463
S"(code='# -*- coding: utf-8 -*-\\n# this file is released ...ud())\\n\\nresponse._vars=response._caller(show_job)\\n', environment={'A': <class 'gluon.html.A'>, 'Auth': <class 'gluon.tools.Auth'>, 'B': <class 'gluon.html.B'>, 'BEAUTIFY': <class 'gluon.html.BEAUTIFY'>, 'BODY': <class 'gluon.html.BODY'>, 'BR': <class 'gluon.html.BR'>, 'BUTTON': <class 'gluon.html.BUTTON'>, 'CAT': <class 'gluon.html.CAT'>, 'CENTER': <class 'gluon.html.CENTER'>, 'CLEANUP': <class 'gluon.validators.CLEANUP'>, ...}, layer='/home/xchen/web2py/applications/Betsy/controllers/default.py')"
p3464
sS'func'
p3465
S'restricted'
p3466
sa(dp3467
g3442
S'/home/xchen/web2py/applications/Betsy/controllers/default.py'
p3468
sg3444
(dp3469
sg3450
I156
sg3451
(dp3470
I145
S'    http://..../[app]/default/data/update/[table]/[id]'
p3471
sI146
S'    http://..../[app]/default/data/delete/[table]/[id]'
p3472
sI147
S'    http://..../[app]/default/data/select/[table]'
p3473
sI148
S'    http://..../[app]/default/data/search/[table]'
p3474
sI149
S'    but URLs must be signed, i.e. linked with'
p3475
sI150
S"      A('table',_href=URL('data/tables',user_signature=True))"
p3476
sI151
S'    or with the signed load operator'
p3477
sI152
S"      LOAD('default','data.load',args='tables',ajax=True,user_signature=True)"
p3478
sI153
S'    """'
p3479
sI154
S'    return dict(form=crud())'
p3480
ssg3463
S'()'
p3481
sg3465
S'<module>'
p3482
sa(dp3483
g3442
S'/home/xchen/web2py/gluon/globals.py'
p3484
sg3444
(dp3485
S'self'
p3486
S'undefined'
p3487
sS'f'
S'<function show_job>'
p3488
ssg3450
I188
sg3451
(dp3489
I192
S''
sI183
S'        self.menu = []             # used by the default view layout'
p3490
sI184
S'        self.files = []            # used by web2py_ajax.html'
p3491
sI185
S'        self.generic_patterns = []  # patterns to allow generic views'
p3492
sI186
S"        self.delimiters = ('{{', '}}')"
p3493
sI187
S'        self._vars = None'
p3494
sI188
S'        self._caller = lambda f: f()'
p3495
sI189
S'        self._view_environment = None'
p3496
sI190
S'        self._custom_commit = None'
p3497
sI191
S'        self._custom_rollback = None'
p3498
ssg3463
S'(f=<function show_job>)'
p3499
sg3465
S'<lambda>'
p3500
sa(dp3501
g3442
S'/home/xchen/web2py/applications/Betsy/controllers/default.py'
p3502
sg3444
(dp3503
S'info'
p3504
g3487
sS'this_job'
p3505
S"<Row {'Status': 'completed', 'Submitted': '02/05...bname': 'FVHB7G', 'id': 102, 'Jobnumber': '328'}>"
p3506
sS'this_job.status'
p3507
g3487
ssg3450
I65
sg3451
(dp3508
I64
S'    db.status.id.default=this_job.id'
p3509
sI65
S"    info = 'Job is ' + this_job.status"
p3510
sI66
S'    return dict(job=this_job,info=info)'
p3511
sI67
S''
sI68
S''
sI69
S'def second():'
p3512
sI60
S''
sI61
S'def show_job():'
p3513
sI62
S'    "show a job page"'
p3514
sI63
S"    this_job = db.status(request.args(0)) or redirect(URL('first'))"
p3515
ssg3463
S'()'
p3516
sg3465
S'show_job'
p3517
sasS'pyver'
p3518
S'Python 2.7.3: /usr/local/bin/python'
p3519
sS'session'
p3520
g57
(g58
g59
NtRp3521
(dp3522
g62
(dp3523
sg64
(lp3524
g57
(g66
g59
NtRp3525
(dp3526
g62
(dp3527
g70
I5
ssg71
Nsg64
(lp3528
g57
(g73
g59
NtRp3529
(dp3530
g62
(dp3531
sg71
g3525
sg64
(lp3532
g57
(g78
g59
NtRp3533
(dp3534
g62
(dp3535
g82
g83
ssg71
g3529
sg64
(lp3536
S'auth'
p3537
asbag57
(g78
g59
NtRp3538
(dp3539
g62
(dp3540
g89
g90
ssg71
g3529
sg64
(lp3541
S':'
asbag57
(g78
g59
NtRp3542
(dp3543
g62
(dp3544
sg71
g3529
sg64
(lp3545
g57
(g58
g59
NtRp3546
(dp3547
g62
(dp3548
g70
I5
ssg71
g3542
sg64
(lp3549
g57
(g66
g59
NtRp3550
(dp3551
g62
(dp3552
g70
I4
ssg71
Nsg64
(lp3553
g57
(g73
g59
NtRp3554
(dp3555
g62
(dp3556
sg71
g3550
sg64
(lp3557
g57
(g78
g59
NtRp3558
(dp3559
g62
(dp3560
g82
g83
ssg71
g3554
sg64
(lp3561
S'expiration'
p3562
asbag57
(g78
g59
NtRp3563
(dp3564
g62
(dp3565
g89
g90
ssg71
g3554
sg64
(lp3566
S':'
asbag57
(g78
g59
NtRp3567
(dp3568
g62
(dp3569
sg71
g3554
sg64
(lp3570
g57
(g58
g59
NtRp3571
(dp3572
g62
(dp3573
g70
I4
ssg71
g3567
sg64
(lp3574
S'2592000'
p3575
asbasbasbag57
(g73
g59
NtRp3576
(dp3577
g62
(dp3578
sg71
g3550
sg64
(lp3579
g57
(g78
g59
NtRp3580
(dp3581
g62
(dp3582
g82
g83
ssg71
g3576
sg64
(lp3583
S'hmac_key'
p3584
asbag57
(g78
g59
NtRp3585
(dp3586
g62
(dp3587
g89
g90
ssg71
g3576
sg64
(lp3588
S':'
asbag57
(g78
g59
NtRp3589
(dp3590
g62
(dp3591
sg71
g3576
sg64
(lp3592
g57
(g58
g59
NtRp3593
(dp3594
g62
(dp3595
g70
I4
ssg71
g3589
sg64
(lp3596
S'739afc94-a36b-429c-8715-edcd03ea4351'
p3597
asbasbasbag57
(g73
g59
NtRp3598
(dp3599
g62
(dp3600
sg71
g3550
sg64
(lp3601
g57
(g78
g59
NtRp3602
(dp3603
g62
(dp3604
g82
g83
ssg71
g3598
sg64
(lp3605
S'last_visit'
p3606
asbag57
(g78
g59
NtRp3607
(dp3608
g62
(dp3609
g89
g90
ssg71
g3598
sg64
(lp3610
S':'
asbag57
(g78
g59
NtRp3611
(dp3612
g62
(dp3613
sg71
g3598
sg64
(lp3614
g57
(g58
g59
NtRp3615
(dp3616
g62
(dp3617
g70
I4
ssg71
g3611
sg64
(lp3618
S'datetime.datetime(2013, 2, 4, 10, 24, 37, 237452)'
p3619
asbasbasbag57
(g73
g59
NtRp3620
(dp3621
g62
(dp3622
sg71
g3550
sg64
(lp3623
g57
(g78
g59
NtRp3624
(dp3625
g62
(dp3626
g82
g83
ssg71
g3620
sg64
(lp3627
S'remember'
p3628
asbag57
(g78
g59
NtRp3629
(dp3630
g62
(dp3631
g89
g90
ssg71
g3620
sg64
(lp3632
S':'
asbag57
(g78
g59
NtRp3633
(dp3634
g62
(dp3635
sg71
g3620
sg64
(lp3636
g57
(g58
g59
NtRp3637
(dp3638
g62
(dp3639
g70
I4
ssg71
g3633
sg64
(lp3640
g1989
asbasbasbag57
(g73
g59
NtRp3641
(dp3642
g62
(dp3643
sg71
g3550
sg64
(lp3644
g57
(g78
g59
NtRp3645
(dp3646
g62
(dp3647
g82
g83
ssg71
g3641
sg64
(lp3648
S'user'
p3649
asbag57
(g78
g59
NtRp3650
(dp3651
g62
(dp3652
g89
g90
ssg71
g3641
sg64
(lp3653
S':'
asbag57
(g78
g59
NtRp3654
(dp3655
g62
(dp3656
sg71
g3641
sg64
(lp3657
g57
(g58
g59
NtRp3658
(dp3659
g62
(dp3660
g70
I4
ssg71
g3654
sg64
(lp3661
g57
(g66
g59
NtRp3662
(dp3663
g62
(dp3664
g70
I3
ssg71
Nsg64
(lp3665
g57
(g73
g59
NtRp3666
(dp3667
g62
(dp3668
sg71
g3662
sg64
(lp3669
g57
(g78
g59
NtRp3670
(dp3671
g62
(dp3672
g82
g83
ssg71
g3666
sg64
(lp3673
S'email'
p3674
asbag57
(g78
g59
NtRp3675
(dp3676
g62
(dp3677
g89
g90
ssg71
g3666
sg64
(lp3678
S':'
asbag57
(g78
g59
NtRp3679
(dp3680
g62
(dp3681
sg71
g3666
sg64
(lp3682
g57
(g58
g59
NtRp3683
(dp3684
g62
(dp3685
g70
I3
ssg71
g3679
sg64
(lp3686
S'xiaoling.chen@uth.tmc.edu'
p3687
asbasbasbag57
(g73
g59
NtRp3688
(dp3689
g62
(dp3690
sg71
g3662
sg64
(lp3691
g57
(g78
g59
NtRp3692
(dp3693
g62
(dp3694
g82
g83
ssg71
g3688
sg64
(lp3695
S'first_name'
p3696
asbag57
(g78
g59
NtRp3697
(dp3698
g62
(dp3699
g89
g90
ssg71
g3688
sg64
(lp3700
S':'
asbag57
(g78
g59
NtRp3701
(dp3702
g62
(dp3703
sg71
g3688
sg64
(lp3704
g57
(g58
g59
NtRp3705
(dp3706
g62
(dp3707
g70
I3
ssg71
g3701
sg64
(lp3708
S'Xiaoling'
p3709
asbasbasbag57
(g73
g59
NtRp3710
(dp3711
g62
(dp3712
sg71
g3662
sg64
(lp3713
g57
(g78
g59
NtRp3714
(dp3715
g62
(dp3716
g82
g83
ssg71
g3710
sg64
(lp3717
S'id'
p3718
asbag57
(g78
g59
NtRp3719
(dp3720
g62
(dp3721
g89
g90
ssg71
g3710
sg64
(lp3722
S':'
asbag57
(g78
g59
NtRp3723
(dp3724
g62
(dp3725
sg71
g3710
sg64
(lp3726
g57
(g58
g59
NtRp3727
(dp3728
g62
(dp3729
g70
I3
ssg71
g3723
sg64
(lp3730
S'1'
asbasbasbag57
(g73
g59
NtRp3731
(dp3732
g62
(dp3733
sg71
g3662
sg64
(lp3734
g57
(g78
g59
NtRp3735
(dp3736
g62
(dp3737
g82
g83
ssg71
g3731
sg64
(lp3738
S'last_name'
p3739
asbag57
(g78
g59
NtRp3740
(dp3741
g62
(dp3742
g89
g90
ssg71
g3731
sg64
(lp3743
S':'
asbag57
(g78
g59
NtRp3744
(dp3745
g62
(dp3746
sg71
g3731
sg64
(lp3747
g57
(g58
g59
NtRp3748
(dp3749
g62
(dp3750
g70
I3
ssg71
g3744
sg64
(lp3751
S'Chen'
p3752
asbasbasbag57
(g73
g59
NtRp3753
(dp3754
g62
(dp3755
sg71
g3662
sg64
(lp3756
g57
(g78
g59
NtRp3757
(dp3758
g62
(dp3759
g82
g83
ssg71
g3753
sg64
(lp3760
S'registration_id'
p3761
asbag57
(g78
g59
NtRp3762
(dp3763
g62
(dp3764
g89
g90
ssg71
g3753
sg64
(lp3765
S':'
asbag57
(g78
g59
NtRp3766
(dp3767
g62
(dp3768
sg71
g3753
sg64
(lp3769
g57
(g58
g59
NtRp3770
(dp3771
g62
(dp3772
g70
I3
ssg71
g3766
sg64
(lp3773
S''
asbasbasbag57
(g73
g59
NtRp3774
(dp3775
g62
(dp3776
sg71
g3662
sg64
(lp3777
g57
(g78
g59
NtRp3778
(dp3779
g62
(dp3780
g82
g83
ssg71
g3774
sg64
(lp3781
S'registration_key'
p3782
asbag57
(g78
g59
NtRp3783
(dp3784
g62
(dp3785
g89
g90
ssg71
g3774
sg64
(lp3786
S':'
asbag57
(g78
g59
NtRp3787
(dp3788
g62
(dp3789
sg71
g3774
sg64
(lp3790
g57
(g58
g59
NtRp3791
(dp3792
g62
(dp3793
g70
I3
ssg71
g3787
sg64
(lp3794
S''
asbasbasbag57
(g73
g59
NtRp3795
(dp3796
g62
(dp3797
sg71
g3662
sg64
(lp3798
g57
(g78
g59
NtRp3799
(dp3800
g62
(dp3801
g82
g83
ssg71
g3795
sg64
(lp3802
S'reset_password_key'
p3803
asbag57
(g78
g59
NtRp3804
(dp3805
g62
(dp3806
g89
g90
ssg71
g3795
sg64
(lp3807
S':'
asbag57
(g78
g59
NtRp3808
(dp3809
g62
(dp3810
sg71
g3795
sg64
(lp3811
g57
(g58
g59
NtRp3812
(dp3813
g62
(dp3814
g70
I3
ssg71
g3808
sg64
(lp3815
S''
asbasbasbasbasbasbasbag57
(g73
g59
NtRp3816
(dp3817
g62
(dp3818
sg71
g3550
sg64
(lp3819
g57
(g78
g59
NtRp3820
(dp3821
g62
(dp3822
g82
g83
ssg71
g3816
sg64
(lp3823
S'user_groups'
p3824
asbag57
(g78
g59
NtRp3825
(dp3826
g62
(dp3827
g89
g90
ssg71
g3816
sg64
(lp3828
S':'
asbag57
(g78
g59
NtRp3829
(dp3830
g62
(dp3831
sg71
g3816
sg64
(lp3832
g57
(g58
g59
NtRp3833
(dp3834
g62
(dp3835
g70
I4
ssg71
g3829
sg64
(lp3836
g57
(g66
g59
NtRp3837
(dp3838
g62
(dp3839
g70
I3
ssg71
Nsg64
(lp3840
g57
(g73
g59
NtRp3841
(dp3842
g62
(dp3843
sg71
g3837
sg64
(lp3844
g57
(g78
g59
NtRp3845
(dp3846
g62
(dp3847
g82
g83
ssg71
g3841
sg64
(lp3848
S'1'
asbag57
(g78
g59
NtRp3849
(dp3850
g62
(dp3851
g89
g90
ssg71
g3841
sg64
(lp3852
S':'
asbag57
(g78
g59
NtRp3853
(dp3854
g62
(dp3855
sg71
g3841
sg64
(lp3856
g57
(g58
g59
NtRp3857
(dp3858
g62
(dp3859
g70
I3
ssg71
g3853
sg64
(lp3860
S'user_1'
p3861
asbasbasbasbasbasbasbasbasbasbasbag57
(g73
g59
NtRp3862
(dp3863
g62
(dp3864
sg71
g3525
sg64
(lp3865
g57
(g78
g59
NtRp3866
(dp3867
g62
(dp3868
g82
g83
ssg71
g3862
sg64
(lp3869
S'cmd'
p3870
asbag57
(g78
g59
NtRp3871
(dp3872
g62
(dp3873
g89
g90
ssg71
g3862
sg64
(lp3874
S':'
asbag57
(g78
g59
NtRp3875
(dp3876
g62
(dp3877
sg71
g3862
sg64
(lp3878
g57
(g58
g59
NtRp3879
(dp3880
g62
(dp3881
g70
I5
ssg71
g3875
sg64
(lp3882
g57
(g66
g59
NtRp3883
(dp3884
g62
(dp3885
g70
I4
ssg71
Nsg64
(lp3886
g57
(g73
g59
NtRp3887
(dp3888
g62
(dp3889
sg71
g3883
sg64
(lp3890
g57
(g78
g59
NtRp3891
(dp3892
g62
(dp3893
sg71
g3887
sg64
(lp3894
g57
(g58
g59
NtRp3895
(dp3896
g62
(dp3897
g70
I4
ssg71
g3891
sg64
(lp3898
S'python'
p3899
asbasbasbag57
(g73
g59
NtRp3900
(dp3901
g62
(dp3902
sg71
g3883
sg64
(lp3903
g57
(g78
g59
NtRp3904
(dp3905
g62
(dp3906
sg71
g3900
sg64
(lp3907
g57
(g58
g59
NtRp3908
(dp3909
g62
(dp3910
g70
I4
ssg71
g3904
sg64
(lp3911
S'/home/xchen/chencode/tmp/try_parallel/queue.py'
p3912
asbasbasbag57
(g73
g59
NtRp3913
(dp3914
g62
(dp3915
sg71
g3883
sg64
(lp3916
g57
(g78
g59
NtRp3917
(dp3918
g62
(dp3919
sg71
g3913
sg64
(lp3920
g57
(g58
g59
NtRp3921
(dp3922
g62
(dp3923
g70
I4
ssg71
g3917
sg64
(lp3924
S'python /home/xchen/chencode/Betsy/scripts/run_protocol.py --protocol normalize_file --input input_signal_file:/home/xchen/chencode/upload/no_table.myfile1.867ac2647674d743.7369676e616c5f756e6c6f67747261696e2e70636c.pcl --parameters has_missing_value:zero_fill --parameters preprocess:unknown_preprocess'
p3925
asbasbasbasbasbasbasbag57
(g73
g59
NtRp3926
(dp3927
g62
(dp3928
sg71
g3525
sg64
(lp3929
g57
(g78
g59
NtRp3930
(dp3931
g62
(dp3932
g82
g83
ssg71
g3926
sg64
(lp3933
S'command'
p3934
asbag57
(g78
g59
NtRp3935
(dp3936
g62
(dp3937
g89
g90
ssg71
g3926
sg64
(lp3938
S':'
asbag57
(g78
g59
NtRp3939
(dp3940
g62
(dp3941
sg71
g3926
sg64
(lp3942
g57
(g58
g59
NtRp3943
(dp3944
g62
(dp3945
g70
I5
ssg71
g3939
sg64
(lp3946
S'run_protocol.py  --protocol normalize_file --input input_signal_file:myfile1   --parameters has_missing_value:zero_fill --parameters preprocess:unknown_preprocess'
p3947
asbasbasbag57
(g73
g59
NtRp3948
(dp3949
g62
(dp3950
sg71
g3525
sg64
(lp3951
g57
(g78
g59
NtRp3952
(dp3953
g62
(dp3954
g82
g83
ssg71
g3948
sg64
(lp3955
S'flash'
p3956
asbag57
(g78
g59
NtRp3957
(dp3958
g62
(dp3959
g89
g90
ssg71
g3948
sg64
(lp3960
S':'
asbag57
(g78
g59
NtRp3961
(dp3962
g62
(dp3963
sg71
g3948
sg64
(lp3964
g57
(g58
g59
NtRp3965
(dp3966
g62
(dp3967
g70
I5
ssg71
g3961
sg64
(lp3968
S'None'
p3969
asbasbasbag57
(g73
g59
NtRp3970
(dp3971
g62
(dp3972
sg71
g3525
sg64
(lp3973
g57
(g78
g59
NtRp3974
(dp3975
g62
(dp3976
g82
g83
ssg71
g3970
sg64
(lp3977
S'last_orderby'
p3978
asbag57
(g78
g59
NtRp3979
(dp3980
g62
(dp3981
g89
g90
ssg71
g3970
sg64
(lp3982
S':'
asbag57
(g78
g59
NtRp3983
(dp3984
g62
(dp3985
sg71
g3970
sg64
(lp3986
g57
(g58
g59
NtRp3987
(dp3988
g62
(dp3989
g70
I5
ssg71
g3983
sg64
(lp3990
S'None'
p3991
asbasbasbag57
(g73
g59
NtRp3992
(dp3993
g62
(dp3994
sg71
g3525
sg64
(lp3995
g57
(g78
g59
NtRp3996
(dp3997
g62
(dp3998
g82
g83
ssg71
g3992
sg64
(lp3999
S'last_query'
p4000
asbag57
(g78
g59
NtRp4001
(dp4002
g62
(dp4003
g89
g90
ssg71
g3992
sg64
(lp4004
S':'
asbag57
(g78
g59
NtRp4005
(dp4006
g62
(dp4007
sg71
g3992
sg64
(lp4008
g57
(g58
g59
NtRp4009
(dp4010
g62
(dp4011
g70
I5
ssg71
g4005
sg64
(lp4012
S'db.status.id>0'
p4013
asbasbasbag57
(g73
g59
NtRp4014
(dp4015
g62
(dp4016
sg71
g3525
sg64
(lp4017
g57
(g78
g59
NtRp4018
(dp4019
g62
(dp4020
g82
g83
ssg71
g4014
sg64
(lp4021
S'myfile1'
p4022
asbag57
(g78
g59
NtRp4023
(dp4024
g62
(dp4025
g89
g90
ssg71
g4014
sg64
(lp4026
S':'
asbag57
(g78
g59
NtRp4027
(dp4028
g62
(dp4029
sg71
g4014
sg64
(lp4030
g57
(g58
g59
NtRp4031
(dp4032
g62
(dp4033
g70
I5
ssg71
g4027
sg64
(lp4034
S'no_table.myfile1.867ac2647674d743.7369676e616c5f756e6c6f67747261696e2e70636c.pcl'
p4035
asbasbasbag57
(g73
g59
NtRp4036
(dp4037
g62
(dp4038
sg71
g3525
sg64
(lp4039
g57
(g78
g59
NtRp4040
(dp4041
g62
(dp4042
g82
g83
ssg71
g4036
sg64
(lp4043
S'myfile2'
p4044
asbag57
(g78
g59
NtRp4045
(dp4046
g62
(dp4047
g89
g90
ssg71
g4036
sg64
(lp4048
S':'
asbag57
(g78
g59
NtRp4049
(dp4050
g62
(dp4051
sg71
g4036
sg64
(lp4052
g57
(g58
g59
NtRp4053
(dp4054
g62
(dp4055
g70
I5
ssg71
g4049
sg64
(lp4056
S''
asbasbasbag57
(g73
g59
NtRp4057
(dp4058
g62
(dp4059
sg71
g3525
sg64
(lp4060
g57
(g78
g59
NtRp4061
(dp4062
g62
(dp4063
g82
g83
ssg71
g4057
sg64
(lp4064
S'myfile3'
p4065
asbag57
(g78
g59
NtRp4066
(dp4067
g62
(dp4068
g89
g90
ssg71
g4057
sg64
(lp4069
S':'
asbag57
(g78
g59
NtRp4070
(dp4071
g62
(dp4072
sg71
g4057
sg64
(lp4073
g57
(g58
g59
NtRp4074
(dp4075
g62
(dp4076
g70
I5
ssg71
g4070
sg64
(lp4077
S''
asbasbasbag57
(g73
g59
NtRp4078
(dp4079
g62
(dp4080
sg71
g3525
sg64
(lp4081
g57
(g78
g59
NtRp4082
(dp4083
g62
(dp4084
g82
g83
ssg71
g4078
sg64
(lp4085
S'myfile4'
p4086
asbag57
(g78
g59
NtRp4087
(dp4088
g62
(dp4089
g89
g90
ssg71
g4078
sg64
(lp4090
S':'
asbag57
(g78
g59
NtRp4091
(dp4092
g62
(dp4093
sg71
g4078
sg64
(lp4094
g57
(g58
g59
NtRp4095
(dp4096
g62
(dp4097
g70
I5
ssg71
g4091
sg64
(lp4098
S''
asbasbasbag57
(g73
g59
NtRp4099
(dp4100
g62
(dp4101
sg71
g3525
sg64
(lp4102
g57
(g78
g59
NtRp4103
(dp4104
g62
(dp4105
g82
g83
ssg71
g4099
sg64
(lp4106
S'myfile5'
p4107
asbag57
(g78
g59
NtRp4108
(dp4109
g62
(dp4110
g89
g90
ssg71
g4099
sg64
(lp4111
S':'
asbag57
(g78
g59
NtRp4112
(dp4113
g62
(dp4114
sg71
g4099
sg64
(lp4115
g57
(g58
g59
NtRp4116
(dp4117
g62
(dp4118
g70
I5
ssg71
g4112
sg64
(lp4119
S''
asbasbasbag57
(g73
g59
NtRp4120
(dp4121
g62
(dp4122
sg71
g3525
sg64
(lp4123
g57
(g78
g59
NtRp4124
(dp4125
g62
(dp4126
g82
g83
ssg71
g4120
sg64
(lp4127
S'myfile6'
p4128
asbag57
(g78
g59
NtRp4129
(dp4130
g62
(dp4131
g89
g90
ssg71
g4120
sg64
(lp4132
S':'
asbag57
(g78
g59
NtRp4133
(dp4134
g62
(dp4135
sg71
g4120
sg64
(lp4136
g57
(g58
g59
NtRp4137
(dp4138
g62
(dp4139
g70
I5
ssg71
g4133
sg64
(lp4140
S''
asbasbasbag57
(g73
g59
NtRp4141
(dp4142
g62
(dp4143
sg71
g3525
sg64
(lp4144
g57
(g78
g59
NtRp4145
(dp4146
g62
(dp4147
g82
g83
ssg71
g4141
sg64
(lp4148
S'output'
p4149
asbag57
(g78
g59
NtRp4150
(dp4151
g62
(dp4152
g89
g90
ssg71
g4141
sg64
(lp4153
S':'
asbag57
(g78
g59
NtRp4154
(dp4155
g62
(dp4156
sg71
g4141
sg64
(lp4157
g57
(g58
g59
NtRp4158
(dp4159
g62
(dp4160
g70
I5
ssg71
g4154
sg64
(lp4161
g57
(g66
g59
NtRp4162
(dp4163
g62
(dp4164
g70
I4
ssg71
Nsg64
(lp4165
g57
(g73
g59
NtRp4166
(dp4167
g62
(dp4168
sg71
g4162
sg64
(lp4169
g57
(g78
g59
NtRp4170
(dp4171
g62
(dp4172
sg71
g4166
sg64
(lp4173
g57
(g58
g59
NtRp4174
(dp4175
g62
(dp4176
g70
I4
ssg71
g4170
sg64
(lp4177
S'Jobnumber\tJobname\tStatus\tStarted\tEnded\tSubmitted\tCommand'
p4178
asbasbasbag57
(g73
g59
NtRp4179
(dp4180
g62
(dp4181
sg71
g4162
sg64
(lp4182
g57
(g78
g59
NtRp4183
(dp4184
g62
(dp4185
sg71
g4179
sg64
(lp4186
g57
(g58
g59
NtRp4187
(dp4188
g62
(dp4189
g70
I4
ssg71
g4183
sg64
(lp4190
S'241\tF8QMFC\tkilled\tNA\t01/30/13:10:54:58\t01/30/13:10:54:41\tpython run_command.py'
p4191
asbasbasbag57
(g73
g59
NtRp4192
(dp4193
g62
(dp4194
sg71
g4162
sg64
(lp4195
g57
(g78
g59
NtRp4196
(dp4197
g62
(dp4198
sg71
g4192
sg64
(lp4199
g57
(g58
g59
NtRp4200
(dp4201
g62
(dp4202
g70
I4
ssg71
g4196
sg64
(lp4203
S'242\t1\tkilled\tNA\t01/30/13:10:56:50\t01/30/13:10:55:43\tpython run_command.py'
p4204
asbasbasbag57
(g73
g59
NtRp4205
(dp4206
g62
(dp4207
sg71
g4162
sg64
(lp4208
g57
(g78
g59
NtRp4209
(dp4210
g62
(dp4211
sg71
g4205
sg64
(lp4212
g57
(g58
g59
NtRp4213
(dp4214
g62
(dp4215
g70
I4
ssg71
g4209
sg64
(lp4216
S'243\t1JCM7W\tcompleted\tNA\t01/31/13:11:02:08\t01/30/13:16:23:56\tpython /home/xchen/chencode/Betsy/scripts/run_protocol.py --protocol normalize_file --input input_signal_file:/home/xchen/chencode/upload/no_table.myfile1.bc230362ce4171ba.616c6c5f616d6c5f747261696e5f66696c742e676374.gct --parameters has_missing_value:zero_fill --parameters preprocess:unknown_preprocess'
p4217
asbasbasbag57
(g73
g59
NtRp4218
(dp4219
g62
(dp4220
sg71
g4162
sg64
(lp4221
g57
(g78
g59
NtRp4222
(dp4223
g62
(dp4224
sg71
g4218
sg64
(lp4225
g57
(g58
g59
NtRp4226
(dp4227
g62
(dp4228
g70
I4
ssg71
g4222
sg64
(lp4229
S'244\tMD5OVN\tcompleted\tNA\t01/31/13:11:02:08\t01/30/13:16:26:25\tpython /home/xchen/chencode/Betsy/scripts/run_protocol.py --protocol normalize_file --input input_signal_file:/home/xchen/chencode/upload/no_table.myfile1.ac92b1b80e18666e.7369676e616c5f756e6c6f67747261696e2e70636c.pcl --parameters has_missing_value:zero_fill --parameters preprocess:unknown_preprocess'
p4230
asbasbasbag57
(g73
g59
NtRp4231
(dp4232
g62
(dp4233
sg71
g4162
sg64
(lp4234
g57
(g78
g59
NtRp4235
(dp4236
g62
(dp4237
sg71
g4231
sg64
(lp4238
g57
(g58
g59
NtRp4239
(dp4240
g62
(dp4241
g70
I4
ssg71
g4235
sg64
(lp4242
S'245\t2XXAAY\tcompleted\t01/31/13:11:02:08\t01/31/13:11:36:29\t01/31/13:11:02:08\tpython /home/xchen/chencode/Betsy/scripts/python run_command.py /home/xchen/chencode/upload/no_table.myfile1.9c934921a246486e.6a6f627175657565.txt'
p4243
asbasbasbag57
(g73
g59
NtRp4244
(dp4245
g62
(dp4246
sg71
g4162
sg64
(lp4247
g57
(g78
g59
NtRp4248
(dp4249
g62
(dp4250
sg71
g4244
sg64
(lp4251
g57
(g58
g59
NtRp4252
(dp4253
g62
(dp4254
g70
I4
ssg71
g4248
sg64
(lp4255
S'254\tKQFWA9\tcompleted\tNA\t02/04/13:15:52:33\t01/31/13:12:50:49\tpython /home/xchen/chencode/Betsy/scripts/python run_command.py /home/xchen/chencode/upload/no_table.myfile1.9c934921a246486e.6a6f627175657565.txt'
p4256
asbasbasbag57
(g73
g59
NtRp4257
(dp4258
g62
(dp4259
sg71
g4162
sg64
(lp4260
g57
(g78
g59
NtRp4261
(dp4262
g62
(dp4263
sg71
g4257
sg64
(lp4264
g57
(g58
g59
NtRp4265
(dp4266
g62
(dp4267
g70
I4
ssg71
g4261
sg64
(lp4268
S'255\t5O5TN9\tcompleted\tNA\t02/04/13:15:52:33\t01/31/13:13:38:12\tpython /home/xchen/chencode/Betsy/scripts/python run_command.py /home/xchen/chencode/upload/no_table.myfile1.9c934921a246486e.6a6f627175657565.txt'
p4269
asbasbasbag57
(g73
g59
NtRp4270
(dp4271
g62
(dp4272
sg71
g4162
sg64
(lp4273
g57
(g78
g59
NtRp4274
(dp4275
g62
(dp4276
sg71
g4270
sg64
(lp4277
g57
(g58
g59
NtRp4278
(dp4279
g62
(dp4280
g70
I4
ssg71
g4274
sg64
(lp4281
S'256\t66OKZZ\tcompleted\tNA\t02/04/13:15:52:33\t01/31/13:15:20:40\tpython /home/xchen/chencode/Betsy/scripts/run_rule.py --plin input_signal_file([contents,[a],status,given],[]) --plout signal_raw([contents,[a],format,tdf,is_logged,unknown_logged,preprocess,unknown_preprocess,predataset,no_predataset],A)'
p4282
asbasbasbag57
(g73
g59
NtRp4283
(dp4284
g62
(dp4285
sg71
g4162
sg64
(lp4286
g57
(g78
g59
NtRp4287
(dp4288
g62
(dp4289
sg71
g4283
sg64
(lp4290
g57
(g58
g59
NtRp4291
(dp4292
g62
(dp4293
g70
I4
ssg71
g4287
sg64
(lp4294
S''
asbasbasbasbasbasbasbasbasbsS'etype'
p4295
S"<type 'exceptions.AttributeError'>"
p4296
sS'date'
p4297
S'Wed Feb  6 14:06:55 2013'
p4298
sS'response'
p4299
g57
(g58
g59
NtRp4300
(dp4301
g62
(dp4302
sg64
(lp4303
g57
(g66
g59
NtRp4304
(dp4305
g62
(dp4306
g70
I5
ssg71
Nsg64
(lp4307
g57
(g73
g59
NtRp4308
(dp4309
g62
(dp4310
sg71
g4304
sg64
(lp4311
g57
(g78
g59
NtRp4312
(dp4313
g62
(dp4314
g82
g83
ssg71
g4308
sg64
(lp4315
g168
asbag57
(g78
g59
NtRp4316
(dp4317
g62
(dp4318
g89
g90
ssg71
g4308
sg64
(lp4319
S':'
asbag57
(g78
g59
NtRp4320
(dp4321
g62
(dp4322
sg71
g4308
sg64
(lp4323
g57
(g58
g59
NtRp4324
(dp4325
g62
(dp4326
g70
I5
ssg71
g4320
sg64
(lp4327
S'<cStringIO.StringO object at 0x108b93b0>'
p4328
asbasbasbag57
(g73
g59
NtRp4329
(dp4330
g62
(dp4331
sg71
g4304
sg64
(lp4332
g57
(g78
g59
NtRp4333
(dp4334
g62
(dp4335
g82
g83
ssg71
g4329
sg64
(lp4336
g256
asbag57
(g78
g59
NtRp4337
(dp4338
g62
(dp4339
g89
g90
ssg71
g4329
sg64
(lp4340
S':'
asbag57
(g78
g59
NtRp4341
(dp4342
g62
(dp4343
sg71
g4329
sg64
(lp4344
g57
(g58
g59
NtRp4345
(dp4346
g62
(dp4347
g70
I5
ssg71
g4341
sg64
(lp4348
g57
(g66
g59
NtRp4349
(dp4350
g62
(dp4351
g70
I4
ssg71
Nsg64
(lp4352
g57
(g73
g59
NtRp4353
(dp4354
g62
(dp4355
sg71
g4349
sg64
(lp4356
g57
(g78
g59
NtRp4357
(dp4358
g62
(dp4359
g82
g83
ssg71
g4353
sg64
(lp4360
S'session_id_betsy'
p4361
asbag57
(g78
g59
NtRp4362
(dp4363
g62
(dp4364
g89
g90
ssg71
g4353
sg64
(lp4365
S':'
asbag57
(g78
g59
NtRp4366
(dp4367
g62
(dp4368
sg71
g4353
sg64
(lp4369
g57
(g58
g59
NtRp4370
(dp4371
g62
(dp4372
g70
I4
ssg71
g4366
sg64
(lp4373
g488
ag57
(g66
g59
NtRp4374
(dp4375
g62
(dp4376
g70
I3
ssg71
Nsg64
(lp4377
g57
(g73
g59
NtRp4378
(dp4379
g62
(dp4380
sg71
g4374
sg64
(lp4381
g57
(g78
g59
NtRp4382
(dp4383
g62
(dp4384
g82
g83
ssg71
g4378
sg64
(lp4385
g307
asbag57
(g78
g59
NtRp4386
(dp4387
g62
(dp4388
g89
g90
ssg71
g4378
sg64
(lp4389
S':'
asbag57
(g78
g59
NtRp4390
(dp4391
g62
(dp4392
sg71
g4378
sg64
(lp4393
g57
(g58
g59
NtRp4394
(dp4395
g62
(dp4396
g70
I3
ssg71
g4390
sg64
(lp4397
S''
asbasbasbag57
(g73
g59
NtRp4398
(dp4399
g62
(dp4400
sg71
g4374
sg64
(lp4401
g57
(g78
g59
NtRp4402
(dp4403
g62
(dp4404
g82
g83
ssg71
g4398
sg64
(lp4405
g328
asbag57
(g78
g59
NtRp4406
(dp4407
g62
(dp4408
g89
g90
ssg71
g4398
sg64
(lp4409
S':'
asbag57
(g78
g59
NtRp4410
(dp4411
g62
(dp4412
sg71
g4398
sg64
(lp4413
g57
(g58
g59
NtRp4414
(dp4415
g62
(dp4416
g70
I3
ssg71
g4410
sg64
(lp4417
S''
asbasbasbag57
(g73
g59
NtRp4418
(dp4419
g62
(dp4420
sg71
g4374
sg64
(lp4421
g57
(g78
g59
NtRp4422
(dp4423
g62
(dp4424
g82
g83
ssg71
g4418
sg64
(lp4425
g349
asbag57
(g78
g59
NtRp4426
(dp4427
g62
(dp4428
g89
g90
ssg71
g4418
sg64
(lp4429
S':'
asbag57
(g78
g59
NtRp4430
(dp4431
g62
(dp4432
sg71
g4418
sg64
(lp4433
g57
(g58
g59
NtRp4434
(dp4435
g62
(dp4436
g70
I3
ssg71
g4430
sg64
(lp4437
S'2592000'
p4438
asbasbasbag57
(g73
g59
NtRp4439
(dp4440
g62
(dp4441
sg71
g4374
sg64
(lp4442
g57
(g78
g59
NtRp4443
(dp4444
g62
(dp4445
g82
g83
ssg71
g4439
sg64
(lp4446
g370
asbag57
(g78
g59
NtRp4447
(dp4448
g62
(dp4449
g89
g90
ssg71
g4439
sg64
(lp4450
S':'
asbag57
(g78
g59
NtRp4451
(dp4452
g62
(dp4453
sg71
g4439
sg64
(lp4454
g57
(g58
g59
NtRp4455
(dp4456
g62
(dp4457
g70
I3
ssg71
g4451
sg64
(lp4458
S''
asbasbasbag57
(g73
g59
NtRp4459
(dp4460
g62
(dp4461
sg71
g4374
sg64
(lp4462
g57
(g78
g59
NtRp4463
(dp4464
g62
(dp4465
g82
g83
ssg71
g4459
sg64
(lp4466
g391
asbag57
(g78
g59
NtRp4467
(dp4468
g62
(dp4469
g89
g90
ssg71
g4459
sg64
(lp4470
S':'
asbag57
(g78
g59
NtRp4471
(dp4472
g62
(dp4473
sg71
g4459
sg64
(lp4474
g57
(g58
g59
NtRp4475
(dp4476
g62
(dp4477
g70
I3
ssg71
g4471
sg64
(lp4478
S''
asbasbasbag57
(g73
g59
NtRp4479
(dp4480
g62
(dp4481
sg71
g4374
sg64
(lp4482
g57
(g78
g59
NtRp4483
(dp4484
g62
(dp4485
g82
g83
ssg71
g4479
sg64
(lp4486
g412
asbag57
(g78
g59
NtRp4487
(dp4488
g62
(dp4489
g89
g90
ssg71
g4479
sg64
(lp4490
S':'
asbag57
(g78
g59
NtRp4491
(dp4492
g62
(dp4493
sg71
g4479
sg64
(lp4494
g57
(g58
g59
NtRp4495
(dp4496
g62
(dp4497
g70
I3
ssg71
g4491
sg64
(lp4498
S'/'
asbasbasbag57
(g73
g59
NtRp4499
(dp4500
g62
(dp4501
sg71
g4374
sg64
(lp4502
g57
(g78
g59
NtRp4503
(dp4504
g62
(dp4505
g82
g83
ssg71
g4499
sg64
(lp4506
g433
asbag57
(g78
g59
NtRp4507
(dp4508
g62
(dp4509
g89
g90
ssg71
g4499
sg64
(lp4510
S':'
asbag57
(g78
g59
NtRp4511
(dp4512
g62
(dp4513
sg71
g4499
sg64
(lp4514
g57
(g58
g59
NtRp4515
(dp4516
g62
(dp4517
g70
I3
ssg71
g4511
sg64
(lp4518
S''
asbasbasbag57
(g73
g59
NtRp4519
(dp4520
g62
(dp4521
sg71
g4374
sg64
(lp4522
g57
(g78
g59
NtRp4523
(dp4524
g62
(dp4525
g82
g83
ssg71
g4519
sg64
(lp4526
g454
asbag57
(g78
g59
NtRp4527
(dp4528
g62
(dp4529
g89
g90
ssg71
g4519
sg64
(lp4530
S':'
asbag57
(g78
g59
NtRp4531
(dp4532
g62
(dp4533
sg71
g4519
sg64
(lp4534
g57
(g58
g59
NtRp4535
(dp4536
g62
(dp4537
g70
I3
ssg71
g4531
sg64
(lp4538
S''
asbasbasbasbasbasbasbasbasbasbasbag57
(g73
g59
NtRp4539
(dp4540
g62
(dp4541
sg71
g4304
sg64
(lp4542
g57
(g78
g59
NtRp4543
(dp4544
g62
(dp4545
g82
g83
ssg71
g4539
sg64
(lp4546
S'delimiters'
p4547
asbag57
(g78
g59
NtRp4548
(dp4549
g62
(dp4550
g89
g90
ssg71
g4539
sg64
(lp4551
S':'
asbag57
(g78
g59
NtRp4552
(dp4553
g62
(dp4554
sg71
g4539
sg64
(lp4555
g57
(g58
g59
NtRp4556
(dp4557
g62
(dp4558
g70
I5
ssg71
g4552
sg64
(lp4559
g57
(g66
g59
NtRp4560
(dp4561
g62
(dp4562
g70
I4
ssg71
Nsg64
(lp4563
g57
(g73
g59
NtRp4564
(dp4565
g62
(dp4566
sg71
g4560
sg64
(lp4567
g57
(g78
g59
NtRp4568
(dp4569
g62
(dp4570
sg71
g4564
sg64
(lp4571
g57
(g58
g59
NtRp4572
(dp4573
g62
(dp4574
g70
I4
ssg71
g4568
sg64
(lp4575
S'{{'
p4576
asbasbasbag57
(g73
g59
NtRp4577
(dp4578
g62
(dp4579
sg71
g4560
sg64
(lp4580
g57
(g78
g59
NtRp4581
(dp4582
g62
(dp4583
sg71
g4577
sg64
(lp4584
g57
(g58
g59
NtRp4585
(dp4586
g62
(dp4587
g70
I4
ssg71
g4581
sg64
(lp4588
S'}}'
p4589
asbasbasbasbasbasbasbag57
(g73
g59
NtRp4590
(dp4591
g62
(dp4592
sg71
g4304
sg64
(lp4593
g57
(g78
g59
NtRp4594
(dp4595
g62
(dp4596
g82
g83
ssg71
g4590
sg64
(lp4597
S'files'
p4598
asbag57
(g78
g59
NtRp4599
(dp4600
g62
(dp4601
g89
g90
ssg71
g4590
sg64
(lp4602
S':'
asbag57
(g78
g59
NtRp4603
(dp4604
g62
(dp4605
sg71
g4590
sg64
(lp4606
g57
(g58
g59
NtRp4607
(dp4608
g62
(dp4609
g70
I5
ssg71
g4603
sg64
(lp4610
g57
(g66
g59
NtRp4611
(dp4612
g62
(dp4613
g70
I4
ssg71
Nsg64
(lp4614
sbasbasbasbag57
(g73
g59
NtRp4615
(dp4616
g62
(dp4617
sg71
g4304
sg64
(lp4618
g57
(g78
g59
NtRp4619
(dp4620
g62
(dp4621
g82
g83
ssg71
g4615
sg64
(lp4622
S'flash'
p4623
asbag57
(g78
g59
NtRp4624
(dp4625
g62
(dp4626
g89
g90
ssg71
g4615
sg64
(lp4627
S':'
asbag57
(g78
g59
NtRp4628
(dp4629
g62
(dp4630
sg71
g4615
sg64
(lp4631
g57
(g58
g59
NtRp4632
(dp4633
g62
(dp4634
g70
I5
ssg71
g4628
sg64
(lp4635
S''
asbasbasbag57
(g73
g59
NtRp4636
(dp4637
g62
(dp4638
sg71
g4304
sg64
(lp4639
g57
(g78
g59
NtRp4640
(dp4641
g62
(dp4642
g82
g83
ssg71
g4636
sg64
(lp4643
S'generic_patterns'
p4644
asbag57
(g78
g59
NtRp4645
(dp4646
g62
(dp4647
g89
g90
ssg71
g4636
sg64
(lp4648
S':'
asbag57
(g78
g59
NtRp4649
(dp4650
g62
(dp4651
sg71
g4636
sg64
(lp4652
g57
(g58
g59
NtRp4653
(dp4654
g62
(dp4655
g70
I5
ssg71
g4649
sg64
(lp4656
g57
(g66
g59
NtRp4657
(dp4658
g62
(dp4659
g70
I4
ssg71
Nsg64
(lp4660
g57
(g73
g59
NtRp4661
(dp4662
g62
(dp4663
sg71
g4657
sg64
(lp4664
g57
(g78
g59
NtRp4665
(dp4666
g62
(dp4667
sg71
g4661
sg64
(lp4668
g57
(g58
g59
NtRp4669
(dp4670
g62
(dp4671
g70
I4
ssg71
g4665
sg64
(lp4672
S'*'
asbasbasbasbasbasbasbag57
(g73
g59
NtRp4673
(dp4674
g62
(dp4675
sg71
g4304
sg64
(lp4676
g57
(g78
g59
NtRp4677
(dp4678
g62
(dp4679
g82
g83
ssg71
g4673
sg64
(lp4680
S'google_analytics_id'
p4681
asbag57
(g78
g59
NtRp4682
(dp4683
g62
(dp4684
g89
g90
ssg71
g4673
sg64
(lp4685
S':'
asbag57
(g78
g59
NtRp4686
(dp4687
g62
(dp4688
sg71
g4673
sg64
(lp4689
g57
(g58
g59
NtRp4690
(dp4691
g62
(dp4692
g70
I5
ssg71
g4686
sg64
(lp4693
S'None'
p4694
asbasbasbag57
(g73
g59
NtRp4695
(dp4696
g62
(dp4697
sg71
g4304
sg64
(lp4698
g57
(g78
g59
NtRp4699
(dp4700
g62
(dp4701
g82
g83
ssg71
g4695
sg64
(lp4702
S'headers'
p4703
asbag57
(g78
g59
NtRp4704
(dp4705
g62
(dp4706
g89
g90
ssg71
g4695
sg64
(lp4707
S':'
asbag57
(g78
g59
NtRp4708
(dp4709
g62
(dp4710
sg71
g4695
sg64
(lp4711
g57
(g58
g59
NtRp4712
(dp4713
g62
(dp4714
g70
I5
ssg71
g4708
sg64
(lp4715
g57
(g66
g59
NtRp4716
(dp4717
g62
(dp4718
g70
I4
ssg71
Nsg64
(lp4719
g57
(g73
g59
NtRp4720
(dp4721
g62
(dp4722
sg71
g4716
sg64
(lp4723
g57
(g78
g59
NtRp4724
(dp4725
g62
(dp4726
g82
g83
ssg71
g4720
sg64
(lp4727
S'X-Powered-By'
p4728
asbag57
(g78
g59
NtRp4729
(dp4730
g62
(dp4731
g89
g90
ssg71
g4720
sg64
(lp4732
S':'
asbag57
(g78
g59
NtRp4733
(dp4734
g62
(dp4735
sg71
g4720
sg64
(lp4736
g57
(g58
g59
NtRp4737
(dp4738
g62
(dp4739
g70
I4
ssg71
g4733
sg64
(lp4740
S'web2py'
p4741
asbasbasbasbasbasbasbag57
(g73
g59
NtRp4742
(dp4743
g62
(dp4744
sg71
g4304
sg64
(lp4745
g57
(g78
g59
NtRp4746
(dp4747
g62
(dp4748
g82
g83
ssg71
g4742
sg64
(lp4749
S'menu'
p4750
asbag57
(g78
g59
NtRp4751
(dp4752
g62
(dp4753
g89
g90
ssg71
g4742
sg64
(lp4754
S':'
asbag57
(g78
g59
NtRp4755
(dp4756
g62
(dp4757
sg71
g4742
sg64
(lp4758
g57
(g58
g59
NtRp4759
(dp4760
g62
(dp4761
g70
I5
ssg71
g4755
sg64
(lp4762
g57
(g66
g59
NtRp4763
(dp4764
g62
(dp4765
g70
I4
ssg71
Nsg64
(lp4766
g57
(g73
g59
NtRp4767
(dp4768
g62
(dp4769
sg71
g4763
sg64
(lp4770
g57
(g78
g59
NtRp4771
(dp4772
g62
(dp4773
sg71
g4767
sg64
(lp4774
g57
(g58
g59
NtRp4775
(dp4776
g62
(dp4777
g70
I4
ssg71
g4771
sg64
(lp4778
g57
(g66
g59
NtRp4779
(dp4780
g62
(dp4781
g70
I3
ssg71
Nsg64
(lp4782
g57
(g73
g59
NtRp4783
(dp4784
g62
(dp4785
sg71
g4779
sg64
(lp4786
g57
(g78
g59
NtRp4787
(dp4788
g62
(dp4789
sg71
g4783
sg64
(lp4790
g57
(g58
g59
NtRp4791
(dp4792
g62
(dp4793
g70
I3
ssg71
g4787
sg64
(lp4794
cgluon.languages
lazyT_unpickle
p4795
(S's\x04\x00\x00\x00Home'
tRp4796
asbasbasbag57
(g73
g59
NtRp4797
(dp4798
g62
(dp4799
sg71
g4779
sg64
(lp4800
g57
(g78
g59
NtRp4801
(dp4802
g62
(dp4803
sg71
g4797
sg64
(lp4804
g57
(g58
g59
NtRp4805
(dp4806
g62
(dp4807
g70
I3
ssg71
g4801
sg64
(lp4808
g100
asbasbasbag57
(g73
g59
NtRp4809
(dp4810
g62
(dp4811
sg71
g4779
sg64
(lp4812
g57
(g78
g59
NtRp4813
(dp4814
g62
(dp4815
sg71
g4809
sg64
(lp4816
g57
(g58
g59
NtRp4817
(dp4818
g62
(dp4819
g70
I3
ssg71
g4813
sg64
(lp4820
S'/Betsy/default/index'
p4821
asbasbasbag57
(g73
g59
NtRp4822
(dp4823
g62
(dp4824
sg71
g4779
sg64
(lp4825
g57
(g78
g59
NtRp4826
(dp4827
g62
(dp4828
sg71
g4822
sg64
(lp4829
g57
(g58
g59
NtRp4830
(dp4831
g62
(dp4832
g70
I3
ssg71
g4826
sg64
(lp4833
g57
(g66
g59
NtRp4834
(dp4835
g62
(dp4836
g70
I2
ssg71
Nsg64
(lp4837
sbasbasbasbasbasbasbasbag57
(g73
g59
NtRp4838
(dp4839
g62
(dp4840
sg71
g4763
sg64
(lp4841
g57
(g78
g59
NtRp4842
(dp4843
g62
(dp4844
sg71
g4838
sg64
(lp4845
g57
(g58
g59
NtRp4846
(dp4847
g62
(dp4848
g70
I4
ssg71
g4842
sg64
(lp4849
g57
(g66
g59
NtRp4850
(dp4851
g62
(dp4852
g70
I3
ssg71
Nsg64
(lp4853
g57
(g73
g59
NtRp4854
(dp4855
g62
(dp4856
sg71
g4850
sg64
(lp4857
g57
(g78
g59
NtRp4858
(dp4859
g62
(dp4860
sg71
g4854
sg64
(lp4861
g57
(g58
g59
NtRp4862
(dp4863
g62
(dp4864
g70
I3
ssg71
g4858
sg64
(lp4865
g57
(cgluon.html
SPAN
p4866
g59
NtRp4867
(dp4868
g62
(dp4869
S'_class'
p4870
S'highlighted'
p4871
ssg71
Nsg64
(lp4872
g4741
asbasbasbasbag57
(g73
g59
NtRp4873
(dp4874
g62
(dp4875
sg71
g4850
sg64
(lp4876
g57
(g78
g59
NtRp4877
(dp4878
g62
(dp4879
sg71
g4873
sg64
(lp4880
g57
(g58
g59
NtRp4881
(dp4882
g62
(dp4883
g70
I3
ssg71
g4877
sg64
(lp4884
g100
asbasbasbag57
(g73
g59
NtRp4885
(dp4886
g62
(dp4887
sg71
g4850
sg64
(lp4888
g57
(g78
g59
NtRp4889
(dp4890
g62
(dp4891
sg71
g4885
sg64
(lp4892
g57
(g58
g59
NtRp4893
(dp4894
g62
(dp4895
g70
I3
ssg71
g4889
sg64
(lp4896
S'http://web2py.com'
p4897
asbasbasbag57
(g73
g59
NtRp4898
(dp4899
g62
(dp4900
sg71
g4850
sg64
(lp4901
g57
(g78
g59
NtRp4902
(dp4903
g62
(dp4904
sg71
g4898
sg64
(lp4905
g57
(g58
g59
NtRp4906
(dp4907
g62
(dp4908
g70
I3
ssg71
g4902
sg64
(lp4909
g57
(g66
g59
NtRp4910
(dp4911
g62
(dp4912
g70
I2
ssg71
Nsg64
(lp4913
g57
(g73
g59
NtRp4914
(dp4915
g62
(dp4916
sg71
g4910
sg64
(lp4917
g57
(g78
g59
NtRp4918
(dp4919
g62
(dp4920
sg71
g4914
sg64
(lp4921
g57
(g58
g59
NtRp4922
(dp4923
g62
(dp4924
g70
I2
ssg71
g4918
sg64
(lp4925
g57
(g66
g59
NtRp4926
(dp4927
g62
(dp4928
g70
I1
ssg71
Nsg64
(lp4929
g57
(g73
g59
NtRp4930
(dp4931
g62
(dp4932
sg71
g4926
sg64
(lp4933
g57
(g78
g59
NtRp4934
(dp4935
g62
(dp4936
sg71
g4930
sg64
(lp4937
g57
(g58
g59
NtRp4938
(dp4939
g62
(dp4940
g70
I1
ssg71
g4934
sg64
(lp4941
g4795
(S's\x08\x00\x00\x00My Sites'
tRp4942
asbasbasbag57
(g73
g59
NtRp4943
(dp4944
g62
(dp4945
sg71
g4926
sg64
(lp4946
g57
(g78
g59
NtRp4947
(dp4948
g62
(dp4949
sg71
g4943
sg64
(lp4950
g57
(g58
g59
NtRp4951
(dp4952
g62
(dp4953
g70
I1
ssg71
g4947
sg64
(lp4954
I00
asbasbasbag57
(g73
g59
NtRp4955
(dp4956
g62
(dp4957
sg71
g4926
sg64
(lp4958
g57
(g78
g59
NtRp4959
(dp4960
g62
(dp4961
sg71
g4955
sg64
(lp4962
g57
(g58
g59
NtRp4963
(dp4964
g62
(dp4965
g70
I1
ssg71
g4959
sg64
(lp4966
S'/admin/default/site'
p4967
asbasbasbasbasbasbasbag57
(g73
g59
NtRp4968
(dp4969
g62
(dp4970
sg71
g4910
sg64
(lp4971
g57
(g78
g59
NtRp4972
(dp4973
g62
(dp4974
sg71
g4968
sg64
(lp4975
g57
(g58
g59
NtRp4976
(dp4977
g62
(dp4978
g70
I2
ssg71
g4972
sg64
(lp4979
g57
(g66
g59
NtRp4980
(dp4981
g62
(dp4982
g70
I1
ssg71
Nsg64
(lp4983
g57
(g73
g59
NtRp4984
(dp4985
g62
(dp4986
sg71
g4980
sg64
(lp4987
g57
(g78
g59
NtRp4988
(dp4989
g62
(dp4990
sg71
g4984
sg64
(lp4991
g57
(g58
g59
NtRp4992
(dp4993
g62
(dp4994
g70
I1
ssg71
g4988
sg64
(lp4995
g4795
(S's\x08\x00\x00\x00This App'
tRp4996
asbasbasbag57
(g73
g59
NtRp4997
(dp4998
g62
(dp4999
sg71
g4980
sg64
(lp5000
g57
(g78
g59
NtRp5001
(dp5002
g62
(dp5003
sg71
g4997
sg64
(lp5004
g57
(g58
g59
NtRp5005
(dp5006
g62
(dp5007
g70
I1
ssg71
g5001
sg64
(lp5008
I00
asbasbasbag57
(g73
g59
NtRp5009
(dp5010
g62
(dp5011
sg71
g4980
sg64
(lp5012
g57
(g78
g59
NtRp5013
(dp5014
g62
(dp5015
sg71
g5009
sg64
(lp5016
g57
(g58
g59
NtRp5017
(dp5018
g62
(dp5019
g70
I1
ssg71
g5013
sg64
(lp5020
S'/admin/default/design/Betsy'
p5021
asbasbasbag57
(g73
g59
NtRp5022
(dp5023
g62
(dp5024
sg71
g4980
sg64
(lp5025
g57
(g78
g59
NtRp5026
(dp5027
g62
(dp5028
sg71
g5022
sg64
(lp5029
g57
(g58
g59
NtRp5030
(dp5031
g62
(dp5032
g70
I1
ssg71
g5026
sg64
(lp5033
(lp5034
(g4795
(S's\n\x00\x00\x00Controller'
tRp5035
I00
S'/admin/default/edit/Betsy/controllers/default.py'
tp5036
a(g4795
(S's\x04\x00\x00\x00View'
tRp5037
I00
S'/admin/default/edit/Betsy/views/default/show_job.html'
tp5038
a(g4795
(S's\x06\x00\x00\x00Layout'
tRp5039
I00
S'/admin/default/edit/Betsy/views/layout.html'
tp5040
a(g4795
(S's\n\x00\x00\x00Stylesheet'
tRp5041
I00
S'/admin/default/edit/Betsy/static/css/web2py.css'
tp5042
a(g4795
(S's\x08\x00\x00\x00DB Model'
tRp5043
I00
S'/admin/default/edit/Betsy/models/db.py'
tp5044
a(g4795
(S's\n\x00\x00\x00Menu Model'
tRp5045
I00
S'/admin/default/edit/Betsy/models/menu.py'
tp5046
a(g4795
(S's\x08\x00\x00\x00Database'
tRp5047
I00
S'/Betsy/appadmin/index'
tp5048
a(g4795
(S's\x06\x00\x00\x00Errors'
tRp5049
I00
S'/admin/default/errors/Betsy'
tp5050
a(g4795
(S's\x05\x00\x00\x00About'
tRp5051
I00
S'/admin/default/about/Betsy'
tp5052
aasbasbasbasbasbasbasbag57
(g73
g59
NtRp5053
(dp5054
g62
(dp5055
sg71
g4910
sg64
(lp5056
g57
(g78
g59
NtRp5057
(dp5058
g62
(dp5059
sg71
g5053
sg64
(lp5060
g57
(g58
g59
NtRp5061
(dp5062
g62
(dp5063
g70
I2
ssg71
g5057
sg64
(lp5064
g57
(g66
g59
NtRp5065
(dp5066
g62
(dp5067
g70
I1
ssg71
Nsg64
(lp5068
g57
(g73
g59
NtRp5069
(dp5070
g62
(dp5071
sg71
g5065
sg64
(lp5072
g57
(g78
g59
NtRp5073
(dp5074
g62
(dp5075
sg71
g5069
sg64
(lp5076
g57
(g58
g59
NtRp5077
(dp5078
g62
(dp5079
g70
I1
ssg71
g5073
sg64
(lp5080
S'web2py.com'
p5081
asbasbasbag57
(g73
g59
NtRp5082
(dp5083
g62
(dp5084
sg71
g5065
sg64
(lp5085
g57
(g78
g59
NtRp5086
(dp5087
g62
(dp5088
sg71
g5082
sg64
(lp5089
g57
(g58
g59
NtRp5090
(dp5091
g62
(dp5092
g70
I1
ssg71
g5086
sg64
(lp5093
I00
asbasbasbag57
(g73
g59
NtRp5094
(dp5095
g62
(dp5096
sg71
g5065
sg64
(lp5097
g57
(g78
g59
NtRp5098
(dp5099
g62
(dp5100
sg71
g5094
sg64
(lp5101
g57
(g58
g59
NtRp5102
(dp5103
g62
(dp5104
g70
I1
ssg71
g5098
sg64
(lp5105
S'http://www.web2py.com'
p5106
asbasbasbag57
(g73
g59
NtRp5107
(dp5108
g62
(dp5109
sg71
g5065
sg64
(lp5110
g57
(g78
g59
NtRp5111
(dp5112
g62
(dp5113
sg71
g5107
sg64
(lp5114
g57
(g58
g59
NtRp5115
(dp5116
g62
(dp5117
g70
I1
ssg71
g5111
sg64
(lp5118
(lp5119
(g4795
(S's\x08\x00\x00\x00Download'
tRp5120
I00
S'http://www.web2py.com/examples/default/download'
p5121
tp5122
a(g4795
(S's\x07\x00\x00\x00Support'
tRp5123
I00
S'http://www.web2py.com/examples/default/support'
p5124
tp5125
a(g4795
(S's\x04\x00\x00\x00Demo'
tRp5126
I00
S'http://web2py.com/demo_admin'
p5127
tp5128
a(g4795
(S's\x0e\x00\x00\x00Quick Examples'
tRp5129
I00
S'http://web2py.com/examples/default/examples'
p5130
tp5131
a(g4795
(S's\x03\x00\x00\x00FAQ'
tRp5132
I00
S'http://web2py.com/AlterEgo'
p5133
tp5134
a(g4795
(S's\x06\x00\x00\x00Videos'
tRp5135
I00
S'http://www.web2py.com/examples/default/videos/'
p5136
tp5137
a(g4795
(S's\x11\x00\x00\x00Free Applications'
tRp5138
I00
S'http://web2py.com/appliances'
p5139
tp5140
a(g4795
(S's\x07\x00\x00\x00Plugins'
tRp5141
I00
S'http://web2py.com/plugins'
p5142
tp5143
a(g4795
(S's\x07\x00\x00\x00Layouts'
tRp5144
I00
S'http://web2py.com/layouts'
p5145
tp5146
a(g4795
(S's\x07\x00\x00\x00Recipes'
tRp5147
I00
S'http://web2pyslices.com/'
p5148
tp5149
a(g4795
(S's\x08\x00\x00\x00Semantic'
tRp5150
I00
S'http://web2py.com/semantic'
p5151
tp5152
aasbasbasbasbasbasbasbag57
(g73
g59
NtRp5153
(dp5154
g62
(dp5155
sg71
g4910
sg64
(lp5156
g57
(g78
g59
NtRp5157
(dp5158
g62
(dp5159
sg71
g5153
sg64
(lp5160
g57
(g58
g59
NtRp5161
(dp5162
g62
(dp5163
g70
I2
ssg71
g5157
sg64
(lp5164
g57
(g66
g59
NtRp5165
(dp5166
g62
(dp5167
g70
I1
ssg71
Nsg64
(lp5168
g57
(g73
g59
NtRp5169
(dp5170
g62
(dp5171
sg71
g5165
sg64
(lp5172
g57
(g78
g59
NtRp5173
(dp5174
g62
(dp5175
sg71
g5169
sg64
(lp5176
g57
(g58
g59
NtRp5177
(dp5178
g62
(dp5179
g70
I1
ssg71
g5173
sg64
(lp5180
g4795
(S's\r\x00\x00\x00Documentation'
tRp5181
asbasbasbag57
(g73
g59
NtRp5182
(dp5183
g62
(dp5184
sg71
g5165
sg64
(lp5185
g57
(g78
g59
NtRp5186
(dp5187
g62
(dp5188
sg71
g5182
sg64
(lp5189
g57
(g58
g59
NtRp5190
(dp5191
g62
(dp5192
g70
I1
ssg71
g5186
sg64
(lp5193
I00
asbasbasbag57
(g73
g59
NtRp5194
(dp5195
g62
(dp5196
sg71
g5165
sg64
(lp5197
g57
(g78
g59
NtRp5198
(dp5199
g62
(dp5200
sg71
g5194
sg64
(lp5201
g57
(g58
g59
NtRp5202
(dp5203
g62
(dp5204
g70
I1
ssg71
g5198
sg64
(lp5205
S'http://www.web2py.com/book'
p5206
asbasbasbag57
(g73
g59
NtRp5207
(dp5208
g62
(dp5209
sg71
g5165
sg64
(lp5210
g57
(g78
g59
NtRp5211
(dp5212
g62
(dp5213
sg71
g5207
sg64
(lp5214
g57
(g58
g59
NtRp5215
(dp5216
g62
(dp5217
g70
I1
ssg71
g5211
sg64
(lp5218
(lp5219
(g4795
(S's\x07\x00\x00\x00Preface'
tRp5220
I00
S'http://www.web2py.com/book/default/chapter/00'
p5221
tp5222
a(g4795
(S's\x0c\x00\x00\x00Introduction'
tRp5223
I00
S'http://www.web2py.com/book/default/chapter/01'
p5224
tp5225
a(g4795
(S's\x06\x00\x00\x00Python'
tRp5226
I00
S'http://www.web2py.com/book/default/chapter/02'
p5227
tp5228
a(g4795
(S's\x08\x00\x00\x00Overview'
tRp5229
I00
S'http://www.web2py.com/book/default/chapter/03'
p5230
tp5231
a(g4795
(S's\x08\x00\x00\x00The Core'
tRp5232
I00
S'http://www.web2py.com/book/default/chapter/04'
p5233
tp5234
a(g4795
(S's\t\x00\x00\x00The Views'
tRp5235
I00
S'http://www.web2py.com/book/default/chapter/05'
p5236
tp5237
a(g4795
(S's\x08\x00\x00\x00Database'
tRp5238
I00
S'http://www.web2py.com/book/default/chapter/06'
p5239
tp5240
a(g4795
(S's\x14\x00\x00\x00Forms and Validators'
tRp5241
I00
S'http://www.web2py.com/book/default/chapter/07'
p5242
tp5243
a(g4795
(S's\r\x00\x00\x00Email and SMS'
tRp5244
I00
S'http://www.web2py.com/book/default/chapter/08'
p5245
tp5246
a(g4795
(S's\x0e\x00\x00\x00Access Control'
tRp5247
I00
S'http://www.web2py.com/book/default/chapter/09'
p5248
tp5249
a(g4795
(S's\x08\x00\x00\x00Services'
tRp5250
I00
S'http://www.web2py.com/book/default/chapter/10'
p5251
tp5252
a(g4795
(S's\x0c\x00\x00\x00Ajax Recipes'
tRp5253
I00
S'http://www.web2py.com/book/default/chapter/11'
p5254
tp5255
a(g4795
(S's\x16\x00\x00\x00Components and Plugins'
tRp5256
I00
S'http://www.web2py.com/book/default/chapter/12'
p5257
tp5258
a(g4795
(S's\x12\x00\x00\x00Deployment Recipes'
tRp5259
I00
S'http://www.web2py.com/book/default/chapter/13'
p5260
tp5261
a(g4795
(S's\r\x00\x00\x00Other Recipes'
tRp5262
I00
S'http://www.web2py.com/book/default/chapter/14'
p5263
tp5264
a(g4795
(S's\r\x00\x00\x00Buy this book'
tRp5265
I00
S'http://stores.lulu.com/web2py'
p5266
tp5267
aasbasbasbasbasbasbasbag57
(g73
g59
NtRp5268
(dp5269
g62
(dp5270
sg71
g4910
sg64
(lp5271
g57
(g78
g59
NtRp5272
(dp5273
g62
(dp5274
sg71
g5268
sg64
(lp5275
g57
(g58
g59
NtRp5276
(dp5277
g62
(dp5278
g70
I2
ssg71
g5272
sg64
(lp5279
g57
(g66
g59
NtRp5280
(dp5281
g62
(dp5282
g70
I1
ssg71
Nsg64
(lp5283
g57
(g73
g59
NtRp5284
(dp5285
g62
(dp5286
sg71
g5280
sg64
(lp5287
g57
(g78
g59
NtRp5288
(dp5289
g62
(dp5290
sg71
g5284
sg64
(lp5291
g57
(g58
g59
NtRp5292
(dp5293
g62
(dp5294
g70
I1
ssg71
g5288
sg64
(lp5295
g4795
(S's\t\x00\x00\x00Community'
tRp5296
asbasbasbag57
(g73
g59
NtRp5297
(dp5298
g62
(dp5299
sg71
g5280
sg64
(lp5300
g57
(g78
g59
NtRp5301
(dp5302
g62
(dp5303
sg71
g5297
sg64
(lp5304
g57
(g58
g59
NtRp5305
(dp5306
g62
(dp5307
g70
I1
ssg71
g5301
sg64
(lp5308
I00
asbasbasbag57
(g73
g59
NtRp5309
(dp5310
g62
(dp5311
sg71
g5280
sg64
(lp5312
g57
(g78
g59
NtRp5313
(dp5314
g62
(dp5315
sg71
g5309
sg64
(lp5316
g57
(g58
g59
NtRp5317
(dp5318
g62
(dp5319
g70
I1
ssg71
g5313
sg64
(lp5320
Nasbasbasbag57
(g73
g59
NtRp5321
(dp5322
g62
(dp5323
sg71
g5280
sg64
(lp5324
g57
(g78
g59
NtRp5325
(dp5326
g62
(dp5327
sg71
g5321
sg64
(lp5328
g57
(g58
g59
NtRp5329
(dp5330
g62
(dp5331
g70
I1
ssg71
g5325
sg64
(lp5332
(lp5333
(g4795
(S's\x06\x00\x00\x00Groups'
tRp5334
I00
S'http://www.web2py.com/examples/default/usergroups'
p5335
tp5336
a(g4795
(S's\x07\x00\x00\x00Twitter'
tRp5337
I00
S'http://twitter.com/web2py'
p5338
tp5339
a(g4795
(S's\t\x00\x00\x00Live Chat'
tRp5340
I00
S'http://webchat.freenode.net/?channels=web2py'
p5341
tp5342
aasbasbasbasbasbasbasbag57
(g73
g59
NtRp5343
(dp5344
g62
(dp5345
sg71
g4910
sg64
(lp5346
g57
(g78
g59
NtRp5347
(dp5348
g62
(dp5349
sg71
g5343
sg64
(lp5350
g57
(g58
g59
NtRp5351
(dp5352
g62
(dp5353
g70
I2
ssg71
g5347
sg64
(lp5354
g57
(g66
g59
NtRp5355
(dp5356
g62
(dp5357
g70
I1
ssg71
Nsg64
(lp5358
g57
(g73
g59
NtRp5359
(dp5360
g62
(dp5361
sg71
g5355
sg64
(lp5362
g57
(g78
g59
NtRp5363
(dp5364
g62
(dp5365
sg71
g5359
sg64
(lp5366
g57
(g58
g59
NtRp5367
(dp5368
g62
(dp5369
g70
I1
ssg71
g5363
sg64
(lp5370
g4795
(S's\x07\x00\x00\x00Plugins'
tRp5371
asbasbasbag57
(g73
g59
NtRp5372
(dp5373
g62
(dp5374
sg71
g5355
sg64
(lp5375
g57
(g78
g59
NtRp5376
(dp5377
g62
(dp5378
sg71
g5372
sg64
(lp5379
g57
(g58
g59
NtRp5380
(dp5381
g62
(dp5382
g70
I1
ssg71
g5376
sg64
(lp5383
I00
asbasbasbag57
(g73
g59
NtRp5384
(dp5385
g62
(dp5386
sg71
g5355
sg64
(lp5387
g57
(g78
g59
NtRp5388
(dp5389
g62
(dp5390
sg71
g5384
sg64
(lp5391
g57
(g58
g59
NtRp5392
(dp5393
g62
(dp5394
g70
I1
ssg71
g5388
sg64
(lp5395
Nasbasbasbag57
(g73
g59
NtRp5396
(dp5397
g62
(dp5398
sg71
g5355
sg64
(lp5399
g57
(g78
g59
NtRp5400
(dp5401
g62
(dp5402
sg71
g5396
sg64
(lp5403
g57
(g58
g59
NtRp5404
(dp5405
g62
(dp5406
g70
I1
ssg71
g5400
sg64
(lp5407
(lp5408
(S'plugin_wiki'
p5409
I00
S'http://web2py.com/examples/default/download'
p5410
tp5411
a(g4795
(S's\r\x00\x00\x00Other Plugins'
tRp5412
I00
g5142
tp5413
a(g4795
(S's\x0e\x00\x00\x00Layout Plugins'
tRp5414
I00
g5145
tp5415
aasbasbasbasbasbasbasbasbasbasbasbasbasbasbasbasbasbasbasbag57
(g73
g59
NtRp5416
(dp5417
g62
(dp5418
sg71
g4304
sg64
(lp5419
g57
(g78
g59
NtRp5420
(dp5421
g62
(dp5422
g82
g83
ssg71
g5416
sg64
(lp5423
S'meta'
p5424
asbag57
(g78
g59
NtRp5425
(dp5426
g62
(dp5427
g89
g90
ssg71
g5416
sg64
(lp5428
S':'
asbag57
(g78
g59
NtRp5429
(dp5430
g62
(dp5431
sg71
g5416
sg64
(lp5432
g57
(g58
g59
NtRp5433
(dp5434
g62
(dp5435
g70
I5
ssg71
g5429
sg64
(lp5436
g57
(g66
g59
NtRp5437
(dp5438
g62
(dp5439
g70
I4
ssg71
Nsg64
(lp5440
g57
(g73
g59
NtRp5441
(dp5442
g62
(dp5443
sg71
g5437
sg64
(lp5444
g57
(g78
g59
NtRp5445
(dp5446
g62
(dp5447
g82
g83
ssg71
g5441
sg64
(lp5448
S'author'
p5449
asbag57
(g78
g59
NtRp5450
(dp5451
g62
(dp5452
g89
g90
ssg71
g5441
sg64
(lp5453
S':'
asbag57
(g78
g59
NtRp5454
(dp5455
g62
(dp5456
sg71
g5441
sg64
(lp5457
g57
(g58
g59
NtRp5458
(dp5459
g62
(dp5460
g70
I4
ssg71
g5454
sg64
(lp5461
S'Your Name <you@example.com>'
p5462
asbasbasbag57
(g73
g59
NtRp5463
(dp5464
g62
(dp5465
sg71
g5437
sg64
(lp5466
g57
(g78
g59
NtRp5467
(dp5468
g62
(dp5469
g82
g83
ssg71
g5463
sg64
(lp5470
S'description'
p5471
asbag57
(g78
g59
NtRp5472
(dp5473
g62
(dp5474
g89
g90
ssg71
g5463
sg64
(lp5475
S':'
asbag57
(g78
g59
NtRp5476
(dp5477
g62
(dp5478
sg71
g5463
sg64
(lp5479
g57
(g58
g59
NtRp5480
(dp5481
g62
(dp5482
g70
I4
ssg71
g5476
sg64
(lp5483
S'a cool new app'
p5484
asbasbasbag57
(g73
g59
NtRp5485
(dp5486
g62
(dp5487
sg71
g5437
sg64
(lp5488
g57
(g78
g59
NtRp5489
(dp5490
g62
(dp5491
g82
g83
ssg71
g5485
sg64
(lp5492
S'generator'
p5493
asbag57
(g78
g59
NtRp5494
(dp5495
g62
(dp5496
g89
g90
ssg71
g5485
sg64
(lp5497
S':'
asbag57
(g78
g59
NtRp5498
(dp5499
g62
(dp5500
sg71
g5485
sg64
(lp5501
g57
(g58
g59
NtRp5502
(dp5503
g62
(dp5504
g70
I4
ssg71
g5498
sg64
(lp5505
S'Web2py Web Framework'
p5506
asbasbasbag57
(g73
g59
NtRp5507
(dp5508
g62
(dp5509
sg71
g5437
sg64
(lp5510
g57
(g78
g59
NtRp5511
(dp5512
g62
(dp5513
g82
g83
ssg71
g5507
sg64
(lp5514
S'keywords'
p5515
asbag57
(g78
g59
NtRp5516
(dp5517
g62
(dp5518
g89
g90
ssg71
g5507
sg64
(lp5519
S':'
asbag57
(g78
g59
NtRp5520
(dp5521
g62
(dp5522
sg71
g5507
sg64
(lp5523
g57
(g58
g59
NtRp5524
(dp5525
g62
(dp5526
g70
I4
ssg71
g5520
sg64
(lp5527
S'web2py, python, framework'
p5528
asbasbasbasbasbasbasbag57
(g73
g59
NtRp5529
(dp5530
g62
(dp5531
sg71
g4304
sg64
(lp5532
g57
(g78
g59
NtRp5533
(dp5534
g62
(dp5535
g82
g83
ssg71
g5529
sg64
(lp5536
S'models_to_run'
p5537
asbag57
(g78
g59
NtRp5538
(dp5539
g62
(dp5540
g89
g90
ssg71
g5529
sg64
(lp5541
S':'
asbag57
(g78
g59
NtRp5542
(dp5543
g62
(dp5544
sg71
g5529
sg64
(lp5545
g57
(g58
g59
NtRp5546
(dp5547
g62
(dp5548
g70
I5
ssg71
g5542
sg64
(lp5549
g57
(g66
g59
NtRp5550
(dp5551
g62
(dp5552
g70
I4
ssg71
Nsg64
(lp5553
g57
(g73
g59
NtRp5554
(dp5555
g62
(dp5556
sg71
g5550
sg64
(lp5557
g57
(g78
g59
NtRp5558
(dp5559
g62
(dp5560
sg71
g5554
sg64
(lp5561
g57
(g58
g59
NtRp5562
(dp5563
g62
(dp5564
g70
I4
ssg71
g5558
sg64
(lp5565
S'^\\w+\\.py$'
p5566
asbasbasbag57
(g73
g59
NtRp5567
(dp5568
g62
(dp5569
sg71
g5550
sg64
(lp5570
g57
(g78
g59
NtRp5571
(dp5572
g62
(dp5573
sg71
g5567
sg64
(lp5574
g57
(g58
g59
NtRp5575
(dp5576
g62
(dp5577
g70
I4
ssg71
g5571
sg64
(lp5578
S'^default/\\w+\\.py$'
p5579
asbasbasbag57
(g73
g59
NtRp5580
(dp5581
g62
(dp5582
sg71
g5550
sg64
(lp5583
g57
(g78
g59
NtRp5584
(dp5585
g62
(dp5586
sg71
g5580
sg64
(lp5587
g57
(g58
g59
NtRp5588
(dp5589
g62
(dp5590
g70
I4
ssg71
g5584
sg64
(lp5591
S'^default/show_job/\\w+\\.py$'
p5592
asbasbasbasbasbasbasbag57
(g73
g59
NtRp5593
(dp5594
g62
(dp5595
sg71
g4304
sg64
(lp5596
g57
(g78
g59
NtRp5597
(dp5598
g62
(dp5599
g82
g83
ssg71
g5593
sg64
(lp5600
S'postprocessing'
p5601
asbag57
(g78
g59
NtRp5602
(dp5603
g62
(dp5604
g89
g90
ssg71
g5593
sg64
(lp5605
S':'
asbag57
(g78
g59
NtRp5606
(dp5607
g62
(dp5608
sg71
g5593
sg64
(lp5609
g57
(g58
g59
NtRp5610
(dp5611
g62
(dp5612
g70
I5
ssg71
g5606
sg64
(lp5613
g57
(g66
g59
NtRp5614
(dp5615
g62
(dp5616
g70
I4
ssg71
Nsg64
(lp5617
sbasbasbasbag57
(g73
g59
NtRp5618
(dp5619
g62
(dp5620
sg71
g4304
sg64
(lp5621
g57
(g78
g59
NtRp5622
(dp5623
g62
(dp5624
g82
g83
ssg71
g5618
sg64
(lp5625
S'session_cookie_expires'
p5626
asbag57
(g78
g59
NtRp5627
(dp5628
g62
(dp5629
g89
g90
ssg71
g5618
sg64
(lp5630
S':'
asbag57
(g78
g59
NtRp5631
(dp5632
g62
(dp5633
sg71
g5618
sg64
(lp5634
g57
(g58
g59
NtRp5635
(dp5636
g62
(dp5637
g70
I5
ssg71
g5631
sg64
(lp5638
S'None'
p5639
asbasbasbag57
(g73
g59
NtRp5640
(dp5641
g62
(dp5642
sg71
g4304
sg64
(lp5643
g57
(g78
g59
NtRp5644
(dp5645
g62
(dp5646
g82
g83
ssg71
g5640
sg64
(lp5647
S'session_data_name'
p5648
asbag57
(g78
g59
NtRp5649
(dp5650
g62
(dp5651
g89
g90
ssg71
g5640
sg64
(lp5652
S':'
asbag57
(g78
g59
NtRp5653
(dp5654
g62
(dp5655
sg71
g5640
sg64
(lp5656
g57
(g58
g59
NtRp5657
(dp5658
g62
(dp5659
g70
I5
ssg71
g5653
sg64
(lp5660
S'session_data_betsy'
p5661
asbasbasbag57
(g73
g59
NtRp5662
(dp5663
g62
(dp5664
sg71
g4304
sg64
(lp5665
g57
(g78
g59
NtRp5666
(dp5667
g62
(dp5668
g82
g83
ssg71
g5662
sg64
(lp5669
S'session_file'
p5670
asbag57
(g78
g59
NtRp5671
(dp5672
g62
(dp5673
g89
g90
ssg71
g5662
sg64
(lp5674
S':'
asbag57
(g78
g59
NtRp5675
(dp5676
g62
(dp5677
sg71
g5662
sg64
(lp5678
g57
(g58
g59
NtRp5679
(dp5680
g62
(dp5681
g70
I5
ssg71
g5675
sg64
(lp5682
S"<open file '/home/xchen/web2py/applications/Betsy/sessions/127.0.0.1-70d52105-0f5d-4884-a4e3-dce6830f30e0', mode 'rb+' at 0x10858420>"
p5683
asbasbasbag57
(g73
g59
NtRp5684
(dp5685
g62
(dp5686
sg71
g4304
sg64
(lp5687
g57
(g78
g59
NtRp5688
(dp5689
g62
(dp5690
g82
g83
ssg71
g5684
sg64
(lp5691
S'session_filename'
p5692
asbag57
(g78
g59
NtRp5693
(dp5694
g62
(dp5695
g89
g90
ssg71
g5684
sg64
(lp5696
S':'
asbag57
(g78
g59
NtRp5697
(dp5698
g62
(dp5699
sg71
g5684
sg64
(lp5700
g57
(g58
g59
NtRp5701
(dp5702
g62
(dp5703
g70
I5
ssg71
g5697
sg64
(lp5704
S'/home/xchen/web2py/applications/Betsy/sessions/127.0.0.1-70d52105-0f5d-4884-a4e3-dce6830f30e0'
p5705
asbasbasbag57
(g73
g59
NtRp5706
(dp5707
g62
(dp5708
sg71
g4304
sg64
(lp5709
g57
(g78
g59
NtRp5710
(dp5711
g62
(dp5712
g82
g83
ssg71
g5706
sg64
(lp5713
S'session_id'
p5714
asbag57
(g78
g59
NtRp5715
(dp5716
g62
(dp5717
g89
g90
ssg71
g5706
sg64
(lp5718
S':'
asbag57
(g78
g59
NtRp5719
(dp5720
g62
(dp5721
sg71
g5706
sg64
(lp5722
g57
(g58
g59
NtRp5723
(dp5724
g62
(dp5725
g70
I5
ssg71
g5719
sg64
(lp5726
g488
asbasbasbag57
(g73
g59
NtRp5727
(dp5728
g62
(dp5729
sg71
g4304
sg64
(lp5730
g57
(g78
g59
NtRp5731
(dp5732
g62
(dp5733
g82
g83
ssg71
g5727
sg64
(lp5734
S'session_id_name'
p5735
asbag57
(g78
g59
NtRp5736
(dp5737
g62
(dp5738
g89
g90
ssg71
g5727
sg64
(lp5739
S':'
asbag57
(g78
g59
NtRp5740
(dp5741
g62
(dp5742
sg71
g5727
sg64
(lp5743
g57
(g58
g59
NtRp5744
(dp5745
g62
(dp5746
g70
I5
ssg71
g5740
sg64
(lp5747
g4361
asbasbasbag57
(g73
g59
NtRp5748
(dp5749
g62
(dp5750
sg71
g4304
sg64
(lp5751
g57
(g78
g59
NtRp5752
(dp5753
g62
(dp5754
g82
g83
ssg71
g5748
sg64
(lp5755
S'session_locked'
p5756
asbag57
(g78
g59
NtRp5757
(dp5758
g62
(dp5759
g89
g90
ssg71
g5748
sg64
(lp5760
S':'
asbag57
(g78
g59
NtRp5761
(dp5762
g62
(dp5763
sg71
g5748
sg64
(lp5764
g57
(g58
g59
NtRp5765
(dp5766
g62
(dp5767
g70
I5
ssg71
g5761
sg64
(lp5768
g1989
asbasbasbag57
(g73
g59
NtRp5769
(dp5770
g62
(dp5771
sg71
g4304
sg64
(lp5772
g57
(g78
g59
NtRp5773
(dp5774
g62
(dp5775
g82
g83
ssg71
g5769
sg64
(lp5776
S'session_new'
p5777
asbag57
(g78
g59
NtRp5778
(dp5779
g62
(dp5780
g89
g90
ssg71
g5769
sg64
(lp5781
S':'
asbag57
(g78
g59
NtRp5782
(dp5783
g62
(dp5784
sg71
g5769
sg64
(lp5785
g57
(g58
g59
NtRp5786
(dp5787
g62
(dp5788
g70
I5
ssg71
g5782
sg64
(lp5789
g100
asbasbasbag57
(g73
g59
NtRp5790
(dp5791
g62
(dp5792
sg71
g4304
sg64
(lp5793
g57
(g78
g59
NtRp5794
(dp5795
g62
(dp5796
g82
g83
ssg71
g5790
sg64
(lp5797
S'session_storage_type'
p5798
asbag57
(g78
g59
NtRp5799
(dp5800
g62
(dp5801
g89
g90
ssg71
g5790
sg64
(lp5802
S':'
asbag57
(g78
g59
NtRp5803
(dp5804
g62
(dp5805
sg71
g5790
sg64
(lp5806
g57
(g58
g59
NtRp5807
(dp5808
g62
(dp5809
g70
I5
ssg71
g5803
sg64
(lp5810
g3442
asbasbasbag57
(g73
g59
NtRp5811
(dp5812
g62
(dp5813
sg71
g4304
sg64
(lp5814
g57
(g78
g59
NtRp5815
(dp5816
g62
(dp5817
g82
g83
ssg71
g5811
sg64
(lp5818
S'status'
p5819
asbag57
(g78
g59
NtRp5820
(dp5821
g62
(dp5822
g89
g90
ssg71
g5811
sg64
(lp5823
S':'
asbag57
(g78
g59
NtRp5824
(dp5825
g62
(dp5826
sg71
g5811
sg64
(lp5827
g57
(g58
g59
NtRp5828
(dp5829
g62
(dp5830
g70
I5
ssg71
g5824
sg64
(lp5831
S'200'
p5832
asbasbasbag57
(g73
g59
NtRp5833
(dp5834
g62
(dp5835
sg71
g4304
sg64
(lp5836
g57
(g78
g59
NtRp5837
(dp5838
g62
(dp5839
g82
g83
ssg71
g5833
sg64
(lp5840
S'subtitle'
p5841
asbag57
(g78
g59
NtRp5842
(dp5843
g62
(dp5844
g89
g90
ssg71
g5833
sg64
(lp5845
S':'
asbag57
(g78
g59
NtRp5846
(dp5847
g62
(dp5848
sg71
g5833
sg64
(lp5849
g57
(g58
g59
NtRp5850
(dp5851
g62
(dp5852
g70
I5
ssg71
g5846
sg64
(lp5853
g4795
(S's\r\x00\x00\x00customize me!'
tRp5854
asbasbasbag57
(g73
g59
NtRp5855
(dp5856
g62
(dp5857
sg71
g4304
sg64
(lp5858
g57
(g78
g59
NtRp5859
(dp5860
g62
(dp5861
g82
g83
ssg71
g5855
sg64
(lp5862
S'title'
p5863
asbag57
(g78
g59
NtRp5864
(dp5865
g62
(dp5866
g89
g90
ssg71
g5855
sg64
(lp5867
S':'
asbag57
(g78
g59
NtRp5868
(dp5869
g62
(dp5870
sg71
g5855
sg64
(lp5871
g57
(g58
g59
NtRp5872
(dp5873
g62
(dp5874
g70
I5
ssg71
g5868
sg64
(lp5875
S'Betsy'
p5876
asbasbasbag57
(g73
g59
NtRp5877
(dp5878
g62
(dp5879
sg71
g4304
sg64
(lp5880
g57
(g78
g59
NtRp5881
(dp5882
g62
(dp5883
g82
g83
ssg71
g5877
sg64
(lp5884
S'view'
p5885
asbag57
(g78
g59
NtRp5886
(dp5887
g62
(dp5888
g89
g90
ssg71
g5877
sg64
(lp5889
S':'
asbag57
(g78
g59
NtRp5890
(dp5891
g62
(dp5892
sg71
g5877
sg64
(lp5893
g57
(g58
g59
NtRp5894
(dp5895
g62
(dp5896
g70
I5
ssg71
g5890
sg64
(lp5897
S'default/show_job.html'
p5898
asbasbasbasbasbsS'locals'
p5899
(dp5900
S'this_job'
p5901
S"<Row {'Status': 'completed', 'Submitted': '02/05...bname': 'FVHB7G', 'id': 102, 'Jobnumber': '328'}>"
p5902
sssS'traceback'
p5903
S'Traceback (most recent call last):\n  File "/home/xchen/web2py/gluon/restricted.py", line 212, in restricted\n    exec ccode in environment\n  File "/home/xchen/web2py/applications/Betsy/controllers/default.py", line 156, in <module>\n  File "/home/xchen/web2py/gluon/globals.py", line 188, in <lambda>\n    self._caller = lambda f: f()\n  File "/home/xchen/web2py/applications/Betsy/controllers/default.py", line 65, in show_job\n    info = \'Job is \' + this_job.status\nAttributeError: \'Row\' object has no attribute \'status\'\n'
p5904
s.