(dp1
S'output'
p2
S"<type 'exceptions.SyntaxError'> when calling URL, function or function name required"
p3
sS'layer'
p4
S'/home/xchen/web2py/applications/Betsy/views/default/show_job.html'
p5
sS'code'
p6
S'response.write(\'<!DOCTYPE html>\\n<!-- paulirish.com/2008/conditional-stylesheets-vs-css-hacks-answer-neither/ -->\\n<!--[if lt IE 7]><html class="ie ie6 ie-lte9 ie-lte8 ie-lte7 no-js" lang="\', escape=False)\nresponse.write(T.accepted_language or \'en\')\nresponse.write(\'"> <![endif]-->\\n<!--[if IE 7]><html class="ie ie7 ie-lte9 ie-lte8 ie-lte7 no-js" lang="\', escape=False)\nresponse.write(T.accepted_language or \'en\')\nresponse.write(\'"> <![endif]-->\\n<!--[if IE 8]><html class="ie ie8 ie-lte9 ie-lte8 no-js" lang="\', escape=False)\nresponse.write(T.accepted_language or \'en\')\nresponse.write(\'"> <![endif]-->\\n<!--[if IE 9]><html class="ie9 ie-lte9 no-js" lang="\', escape=False)\nresponse.write(T.accepted_language or \'en\')\nresponse.write(\'"> <![endif]-->\\n<!--[if (gt IE 9)|!(IE)]><!--> <html class="no-js" lang="\', escape=False)\nresponse.write(T.accepted_language or \'en\')\nresponse.write(\'"> <!--<![endif]-->\\n<head>\\n  <meta charset="utf-8" />\\n  <!-- www.phpied.com/conditional-comments-block-downloads/ -->\\n  <!-- Always force latest IE rendering engine\\n       (even in intranet) & Chrome Frame\\n       Remove this if you use the .htaccess -->\\n  <!--[if IE]>\\n      <meta http-equiv="X-UA-Compatible" content="IE=edge\', escape=False)\nresponse.write(not request.is_local and \',chrome=1\' or \'\')\nresponse.write(\'">\\n      <![endif]-->\\n\\n  <title>\', escape=False)\nresponse.write(response.title or request.application)\nresponse.write(\'</title>\\n\\n  <!-- http://dev.w3.org/html5/markup/meta.name.html -->\\n  <meta name="application-name" content="\', escape=False)\nresponse.write(request.application)\nresponse.write(\'" />\\n\\n  <!-- Speaking of Google, don\\\'t forget to set your site up:\\n       http://google.com/webmasters -->\\n  <meta name="google-site-verification" content="" />\\n\\n  <!--  Mobile Viewport Fix\\n        j.mp/mobileviewport & davidbcalhoun.com/2010/viewport-metatag\\n        device-width: Occupy full width of the screen in its current orientation\\n        initial-scale = 1.0 retains dimensions instead of zooming out if page height > device height\\n        user-scalable = yes allows the user to zoom in -->\\n  <meta name="viewport" content="width=device-width, initial-scale=1.0">\\n\\n  <link rel="shortcut icon" href="\', escape=False)\nresponse.write(URL(\'static\',\'images/favicon.ico\'))\nresponse.write(\'" type="image/x-icon">\\n  <link rel="apple-touch-icon" href="\', escape=False)\nresponse.write(URL(\'static\',\'images/favicon.png\'))\nresponse.write(\'">\\n\\n  <!-- All JavaScript at the bottom, except for Modernizr which enables\\n       HTML5 elements & feature detects -->\\n  <script src="\', escape=False)\nresponse.write(URL(\'static\',\'js/modernizr.custom.js\'))\nresponse.write(\'"></script>\\n\\n  <!-- include stylesheets -->\\n  \', escape=False)\nresponse.files.append(URL(\'static\',\'css/web2py.css\'))\nresponse.files.append(URL(\'static\',\'css/bootstrap.min.css\'))\nresponse.files.append(URL(\'static\',\'css/bootstrap-responsive.min.css\'))\nresponse.files.append(URL(\'static\',\'css/web2py_bootstrap.css\'))\nresponse.write(\'\\n\\n  \', escape=False)\nresponse.write(\'<script type="text/javascript"><!--\\n    // These variables are used by the web2py_ajax_init function in web2py_ajax.js (which is loaded below).\\n    var w2p_ajax_confirm_message = "\', escape=False)\nresponse.write(T(\'Are you sure you want to delete this object?\'))\nresponse.write(\'";\\n    var w2p_ajax_date_format = "\', escape=False)\nresponse.write(T(\'%Y-%m-%d\'))\nresponse.write(\'";\\n    var w2p_ajax_datetime_format = "\', escape=False)\nresponse.write(T(\'%Y-%m-%d %H:%M:%S\'))\nresponse.write(\'";\\n    //--></script>\\n\', escape=False)\nresponse.files.insert(0,URL(\'static\',\'js/jquery.js\'))\nresponse.files.insert(1,URL(\'static\',\'css/calendar.css\'))\nresponse.files.insert(2,URL(\'static\',\'js/calendar.js\'))\nresponse.files.insert(3,URL(\'static\',\'js/web2py.js\'))\nresponse.include_meta()\nresponse.include_files()\nresponse.write(\'\\n\', escape=False)\nresponse.write(\'\\n\\n  \', escape=False)\n# using sidebars need to know what sidebar you want to use\nleft_sidebar_enabled = globals().get(\'left_sidebar_enabled\',False)\nright_sidebar_enabled = globals().get(\'right_sidebar_enabled\',False)\nmiddle_columns = {0:\'span12\',1:\'span9\',2:\'span6\'}[\n(left_sidebar_enabled and 1 or 0)+(right_sidebar_enabled and 1 or 0)]\nresponse.write(\'\\n\\n  <!-- uncomment here to load jquery-ui\\n       <link rel="stylesheet" href="http://ajax.googleapis.com/ajax/libs/jqueryui/1.8.16/themes/base/jquery-ui.css" type="text/css" media="all" />\\n       <script src="http://ajax.googleapis.com/ajax/libs/jqueryui/1.8.16/jquery-ui.min.js" type="text/javascript"></script>\\n       uncomment to load jquery-ui //-->\\n  <noscript><link href="\', escape=False)\nresponse.write(URL(\'static\', \'css/web2py_bootstrap_nojs.css\'))\nresponse.write(\'" rel="stylesheet" type="text/css" /></noscript>\\n  \', escape=False)\nresponse.write(\'\\n</head>\\n\\n<body>\\n  <!-- Navbar ================================================== -->\\n  <div class="navbar navbar-inverse navbar-fixed-top">\\n    <div class="flash">\', escape=False)\nresponse.write(response.flash or \'\')\nresponse.write(\'</div>\\n    <div class="navbar-inner">\\n      <div class="container">\\n        <!-- the next tag is necessary for bootstrap menus, do not remove -->\\n        <button type="button" class="btn btn-navbar" data-toggle="collapse" data-target=".nav-collapse">\\n          <span class="icon-bar"></span>\\n          <span class="icon-bar"></span>\\n          <span class="icon-bar"></span>\\n        </button>\\n        <a class="brand" href="http://www.web2py.com/"><b>web<span>2</span>py</b>&trade;&nbsp;</a>\\n        <ul id="navbar" class="nav pull-right">\', escape=False)\nresponse.write(\'auth\' in globals() and auth.navbar(mode="dropdown") or \'\')\nresponse.write(\'</ul>\\n        <div class="nav-collapse">\\n          \', escape=False)\nis_mobile=request.user_agent().is_mobile\nresponse.write(\'\\n          \', escape=False)\nif response.menu:\n    response.write(\'\\n          \', escape=False)\n    response.write(MENU(response.menu, _class=\'mobile-menu nav\' if is_mobile else \'nav\',mobile=is_mobile,li_class=\'dropdown\',ul_class=\'dropdown-menu\'))\n    response.write(\'\\n          \', escape=False)\n    pass\nresponse.write(\'\\n        </div><!--/.nav-collapse -->\\n      </div>\\n    </div>\\n  </div><!--/top navbar -->\\n\\n  <div class="container">\\n    <!-- Masthead ================================================== -->\\n    <header class="mastheader row" id="header">\\n        <div class="span12">\\n            <div class="page-header">\\n                <h1>\\n                    \', escape=False)\nresponse.write(response.title or request.application)\nresponse.write(\'\\n                    <small>\', escape=False)\nresponse.write(response.subtitle or \'\')\nresponse.write(\'</small>\\n                </h1>\\n            </div>\\n        </div>\\n    </header>\\n\\n    <section id="main" class="main row">\\n        \', escape=False)\nif left_sidebar_enabled:\n    response.write(\'\\n        <div class="span3 left-sidebar">\\n            \', escape=False)\n    response.write(\'\\n            <h3>Left Sidebar</h3>\\n            <p></p>\\n            \', escape=False)\n    response.write(\'\\n        </div>\\n        \', escape=False)\n    pass\nresponse.write(\'\\n\\n        <div class="\', escape=False)\nresponse.write(middle_columns)\nresponse.write(\'">\\n            \', escape=False)\nresponse.write(\'\\n            \', escape=False)\nresponse.write(\'\\n<h1>Job number: \', escape=False)\nresponse.write(job.Jobnumber)\nresponse.write(\'</h1>\\n<h2>\', escape=False)\nresponse.write(info)\nresponse.write(\'</h2>\\n\', escape=False)\nfor i in range(len(text)):\n    response.write(\'\\n\', escape=False)\n    if text[i]==newtext[i]:\n        response.write(\'\\n\\t\\t\', escape=False)\n        response.write(text[i])\n        response.write(\'<br />\\n\\t\', escape=False)\n    else:\n        response.write(\'\\n\', escape=False)\n        response.write(A(newtext[i],_href=URL(\'result_folder\',args=newtext[i])))\n        response.write(\'\\n \', escape=False)\n        response.write(P(A(\'Download\',newtext[i],_href=URL(r=request,c=\'result_folder\',f=newtext[i]))))\n        response.write(\'<br />\\n    \', escape=False)\n        pass\n    response.write(\'\\n\', escape=False)\n    pass\nresponse.write(\'\\n\', escape=False)\nresponse.write(\'\\n            \', escape=False)\nresponse.write(\'\\n        </div>\\n\\n        \', escape=False)\nif right_sidebar_enabled:\n    response.write(\'\\n        <div class="span3">\\n            \', escape=False)\n    response.write(\'\\n            <h3>Right Sidebar</h3>\\n            <p></p>\\n            \', escape=False)\n    response.write(\'\\n        </div>\\n        \', escape=False)\n    pass\nresponse.write(\'\\n    </section><!--/main-->\\n\\n    <!-- Footer ================================================== -->\\n    <div class="row">\\n        <footer class="footer span12" id="footer">\\n            <div class="footer-content">\\n                \', escape=False)\nresponse.write(\' <!-- this is default footer -->\\n                <div class="copyright pull-left">\', escape=False)\nresponse.write(T(\'Copyright\'))\nresponse.write(\' &#169; \', escape=False)\nresponse.write(request.now.year)\nresponse.write(\'</div>\\n                <div id="poweredBy" class="pull-right">\\n                    \', escape=False)\nresponse.write(T(\'Powered by\'))\nresponse.write(\'\\n                    <a href="http://www.web2py.com/">web2py</a>\\n                </div>\\n                \', escape=False)\nresponse.write(\'\\n            </div>\\n        </footer>\\n    </div>\\n\\n  </div> <!-- /container -->\\n\\n  <!-- The javascript =============================================\\n       (Placed at the end of the document so the pages load faster) -->\\n  <script src="\', escape=False)\nresponse.write(URL(\'static\',\'js/bootstrap.min.js\'))\nresponse.write(\'"></script>\\n  <script src="\', escape=False)\nresponse.write(URL(\'static\',\'js/web2py_bootstrap.js\'))\nresponse.write(\'"></script>\\n  <!--[if lt IE 7 ]>\\n      <script src="\', escape=False)\nresponse.write(URL(\'static\',\'js/dd_belatedpng.js\'))\nresponse.write(\'"></script>\\n      <script> DD_belatedPNG.fix(\\\'img, .png_bg\\\'); //fix any <img> or .png_bg background-images </script>\\n      <![endif]-->\\n  \', escape=False)\nif response.google_analytics_id:\n    response.write(\'<script type="text/javascript"> var _gaq = _gaq || []; _gaq.push([\\\'_setAccount\\\', \\\'\', escape=False)\n    response.write(response.google_analytics_id)\n    response.write("\']); _gaq.push([\'_trackPageview\']); (function() { var ga = document.createElement(\'script\'); ga.type = \'text/javascript\'; ga.async = true; ga.src = (\'https:\' == document.location.protocol ? \'https://ssl\' : \'http://www\') + \'.google-analytics.com/ga.js\'; var s = document.getElementsByTagName(\'script\')[0]; s.parentNode.insertBefore(ga, s); })(); </script> ", escape=False)\n    pass\nresponse.write(\'\\n  <script src="\', escape=False)\nresponse.write(URL(\'static\',\'js/share.js\',vars=dict(static=URL(\'static\',\'images\'))))\nresponse.write(\'"></script>\\n</body>\\n</html>\\n\\n\', escape=False)'
p7
sS'snapshot'
p8
(dp9
S'exception'
p10
(dp11
S'__getslice__'
p12
S"<method-wrapper '__getslice__' of exceptions.SyntaxError object>"
p13
sS'text'
p14
S'None'
p15
sS'__str__'
p16
S"<method-wrapper '__str__' of exceptions.SyntaxError object>"
p17
sS'__reduce__'
p18
S'<built-in method __reduce__ of exceptions.SyntaxError object>'
p19
sS'__dict__'
p20
S'{}'
p21
sS'__sizeof__'
p22
S'<built-in method __sizeof__ of exceptions.SyntaxError object>'
p23
sS'__init__'
p24
S"<method-wrapper '__init__' of exceptions.SyntaxError object>"
p25
sS'__setattr__'
p26
S"<method-wrapper '__setattr__' of exceptions.SyntaxError object>"
p27
sS'__reduce_ex__'
p28
S'<built-in method __reduce_ex__ of exceptions.SyntaxError object>'
p29
sS'__new__'
p30
S'<built-in method __new__ of type object>'
p31
sS'__format__'
p32
S'<built-in method __format__ of exceptions.SyntaxError object>'
p33
sS'__class__'
p34
S"<type 'exceptions.SyntaxError'>"
p35
sS'filename'
p36
S'None'
p37
sS'lineno'
p38
S'None'
p39
sS'msg'
p40
S"'when calling URL, function or function name required'"
p41
sS'__doc__'
p42
S"'Invalid syntax.'"
p43
sS'__getitem__'
p44
S"<method-wrapper '__getitem__' of exceptions.SyntaxError object>"
p45
sS'__setstate__'
p46
S'<built-in method __setstate__ of exceptions.SyntaxError object>'
p47
sS'__getattribute__'
p48
S"<method-wrapper '__getattribute__' of exceptions.SyntaxError object>"
p49
sS'print_file_and_line'
p50
S'None'
p51
sS'args'
p52
S"('when calling URL, function or function name required',)"
p53
sS'__subclasshook__'
p54
S'<built-in method __subclasshook__ of type object>'
p55
sS'offset'
p56
S'None'
p57
sS'__unicode__'
p58
S'<built-in method __unicode__ of exceptions.SyntaxError object>'
p59
sS'__delattr__'
p60
S"<method-wrapper '__delattr__' of exceptions.SyntaxError object>"
p61
sS'__repr__'
p62
S"<method-wrapper '__repr__' of exceptions.SyntaxError object>"
p63
sS'__hash__'
p64
S"<method-wrapper '__hash__' of exceptions.SyntaxError object>"
p65
ssS'evalue'
p66
S'when calling URL, function or function name required'
p67
sS'request'
p68
ccopy_reg
_reconstructor
p69
(cgluon.html
BEAUTIFY
p70
c__builtin__
object
p71
NtRp72
(dp73
S'attributes'
p74
(dp75
sS'components'
p76
(lp77
g69
(cgluon.html
TABLE
p78
g71
NtRp79
(dp80
g74
(dp81
S'level'
p82
I5
ssS'parent'
p83
Nsg76
(lp84
g69
(cgluon.html
TR
p85
g71
NtRp86
(dp87
g74
(dp88
sg83
g79
sg76
(lp89
g69
(cgluon.html
TD
p90
g71
NtRp91
(dp92
g74
(dp93
S'_style'
p94
S'font-weight:bold;vertical-align:top'
p95
ssg83
g86
sg76
(lp96
S'ajax'
p97
asbag69
(g90
g71
NtRp98
(dp99
g74
(dp100
S'_valign'
p101
S'top'
p102
ssg83
g86
sg76
(lp103
S':'
asbag69
(g90
g71
NtRp104
(dp105
g74
(dp106
sg83
g86
sg76
(lp107
g69
(g70
g71
NtRp108
(dp109
g74
(dp110
g82
I5
ssg83
g104
sg76
(lp111
S'False'
p112
asbasbasbag69
(g85
g71
NtRp113
(dp114
g74
(dp115
sg83
g79
sg76
(lp116
g69
(g90
g71
NtRp117
(dp118
g74
(dp119
g94
g95
ssg83
g113
sg76
(lp120
S'application'
p121
asbag69
(g90
g71
NtRp122
(dp123
g74
(dp124
g101
g102
ssg83
g113
sg76
(lp125
S':'
asbag69
(g90
g71
NtRp126
(dp127
g74
(dp128
sg83
g113
sg76
(lp129
g69
(g70
g71
NtRp130
(dp131
g74
(dp132
g82
I5
ssg83
g126
sg76
(lp133
S'Betsy'
p134
asbasbasbag69
(g85
g71
NtRp135
(dp136
g74
(dp137
sg83
g79
sg76
(lp138
g69
(g90
g71
NtRp139
(dp140
g74
(dp141
g94
g95
ssg83
g135
sg76
(lp142
g52
asbag69
(g90
g71
NtRp143
(dp144
g74
(dp145
g101
g102
ssg83
g135
sg76
(lp146
S':'
asbag69
(g90
g71
NtRp147
(dp148
g74
(dp149
sg83
g135
sg76
(lp150
g69
(g70
g71
NtRp151
(dp152
g74
(dp153
g82
I5
ssg83
g147
sg76
(lp154
g69
(g78
g71
NtRp155
(dp156
g74
(dp157
g82
I4
ssg83
Nsg76
(lp158
g69
(g85
g71
NtRp159
(dp160
g74
(dp161
sg83
g155
sg76
(lp162
g69
(g90
g71
NtRp163
(dp164
g74
(dp165
sg83
g159
sg76
(lp166
g69
(g70
g71
NtRp167
(dp168
g74
(dp169
g82
I4
ssg83
g163
sg76
(lp170
S'235'
p171
asbasbasbasbasbasbasbag69
(g85
g71
NtRp172
(dp173
g74
(dp174
sg83
g79
sg76
(lp175
g69
(g90
g71
NtRp176
(dp177
g74
(dp178
g94
g95
ssg83
g172
sg76
(lp179
S'body'
p180
asbag69
(g90
g71
NtRp181
(dp182
g74
(dp183
g101
g102
ssg83
g172
sg76
(lp184
S':'
asbag69
(g90
g71
NtRp185
(dp186
g74
(dp187
sg83
g172
sg76
(lp188
g69
(g70
g71
NtRp189
(dp190
g74
(dp191
g82
I5
ssg83
g185
sg76
(lp192
S'<cStringIO.StringO object at 0x12dfe810>'
p193
asbasbasbag69
(g85
g71
NtRp194
(dp195
g74
(dp196
sg83
g79
sg76
(lp197
g69
(g90
g71
NtRp198
(dp199
g74
(dp200
g94
g95
ssg83
g194
sg76
(lp201
S'cid'
p202
asbag69
(g90
g71
NtRp203
(dp204
g74
(dp205
g101
g102
ssg83
g194
sg76
(lp206
S':'
asbag69
(g90
g71
NtRp207
(dp208
g74
(dp209
sg83
g194
sg76
(lp210
g69
(g70
g71
NtRp211
(dp212
g74
(dp213
g82
I5
ssg83
g207
sg76
(lp214
S'None'
p215
asbasbasbag69
(g85
g71
NtRp216
(dp217
g74
(dp218
sg83
g79
sg76
(lp219
g69
(g90
g71
NtRp220
(dp221
g74
(dp222
g94
g95
ssg83
g216
sg76
(lp223
S'client'
p224
asbag69
(g90
g71
NtRp225
(dp226
g74
(dp227
g101
g102
ssg83
g216
sg76
(lp228
S':'
asbag69
(g90
g71
NtRp229
(dp230
g74
(dp231
sg83
g216
sg76
(lp232
g69
(g70
g71
NtRp233
(dp234
g74
(dp235
g82
I5
ssg83
g229
sg76
(lp236
S'127.0.0.1'
p237
asbasbasbag69
(g85
g71
NtRp238
(dp239
g74
(dp240
sg83
g79
sg76
(lp241
g69
(g90
g71
NtRp242
(dp243
g74
(dp244
g94
g95
ssg83
g238
sg76
(lp245
S'controller'
p246
asbag69
(g90
g71
NtRp247
(dp248
g74
(dp249
g101
g102
ssg83
g238
sg76
(lp250
S':'
asbag69
(g90
g71
NtRp251
(dp252
g74
(dp253
sg83
g238
sg76
(lp254
g69
(g70
g71
NtRp255
(dp256
g74
(dp257
g82
I5
ssg83
g251
sg76
(lp258
S'default'
p259
asbasbasbag69
(g85
g71
NtRp260
(dp261
g74
(dp262
sg83
g79
sg76
(lp263
g69
(g90
g71
NtRp264
(dp265
g74
(dp266
g94
g95
ssg83
g260
sg76
(lp267
S'cookies'
p268
asbag69
(g90
g71
NtRp269
(dp270
g74
(dp271
g101
g102
ssg83
g260
sg76
(lp272
S':'
asbag69
(g90
g71
NtRp273
(dp274
g74
(dp275
sg83
g260
sg76
(lp276
g69
(g70
g71
NtRp277
(dp278
g74
(dp279
g82
I5
ssg83
g273
sg76
(lp280
g69
(g78
g71
NtRp281
(dp282
g74
(dp283
g82
I4
ssg83
Nsg76
(lp284
g69
(g85
g71
NtRp285
(dp286
g74
(dp287
sg83
g281
sg76
(lp288
g69
(g90
g71
NtRp289
(dp290
g74
(dp291
g94
g95
ssg83
g285
sg76
(lp292
S'session_id_admin'
p293
asbag69
(g90
g71
NtRp294
(dp295
g74
(dp296
g101
g102
ssg83
g285
sg76
(lp297
S':'
asbag69
(g90
g71
NtRp298
(dp299
g74
(dp300
sg83
g285
sg76
(lp301
g69
(g70
g71
NtRp302
(dp303
g74
(dp304
g82
I4
ssg83
g298
sg76
(lp305
S'127.0.0.1-ad5ef0d6-66e5-4f65-b6c3-672d16531d75'
p306
ag69
(g78
g71
NtRp307
(dp308
g74
(dp309
g82
I3
ssg83
Nsg76
(lp310
g69
(g85
g71
NtRp311
(dp312
g74
(dp313
sg83
g307
sg76
(lp314
g69
(g90
g71
NtRp315
(dp316
g74
(dp317
g94
g95
ssg83
g311
sg76
(lp318
S'comment'
p319
asbag69
(g90
g71
NtRp320
(dp321
g74
(dp322
g101
g102
ssg83
g311
sg76
(lp323
S':'
asbag69
(g90
g71
NtRp324
(dp325
g74
(dp326
sg83
g311
sg76
(lp327
g69
(g70
g71
NtRp328
(dp329
g74
(dp330
g82
I3
ssg83
g324
sg76
(lp331
S''
asbasbasbag69
(g85
g71
NtRp332
(dp333
g74
(dp334
sg83
g307
sg76
(lp335
g69
(g90
g71
NtRp336
(dp337
g74
(dp338
g94
g95
ssg83
g332
sg76
(lp339
S'domain'
p340
asbag69
(g90
g71
NtRp341
(dp342
g74
(dp343
g101
g102
ssg83
g332
sg76
(lp344
S':'
asbag69
(g90
g71
NtRp345
(dp346
g74
(dp347
sg83
g332
sg76
(lp348
g69
(g70
g71
NtRp349
(dp350
g74
(dp351
g82
I3
ssg83
g345
sg76
(lp352
S''
asbasbasbag69
(g85
g71
NtRp353
(dp354
g74
(dp355
sg83
g307
sg76
(lp356
g69
(g90
g71
NtRp357
(dp358
g74
(dp359
g94
g95
ssg83
g353
sg76
(lp360
S'expires'
p361
asbag69
(g90
g71
NtRp362
(dp363
g74
(dp364
g101
g102
ssg83
g353
sg76
(lp365
S':'
asbag69
(g90
g71
NtRp366
(dp367
g74
(dp368
sg83
g353
sg76
(lp369
g69
(g70
g71
NtRp370
(dp371
g74
(dp372
g82
I3
ssg83
g366
sg76
(lp373
S''
asbasbasbag69
(g85
g71
NtRp374
(dp375
g74
(dp376
sg83
g307
sg76
(lp377
g69
(g90
g71
NtRp378
(dp379
g74
(dp380
g94
g95
ssg83
g374
sg76
(lp381
S'httponly'
p382
asbag69
(g90
g71
NtRp383
(dp384
g74
(dp385
g101
g102
ssg83
g374
sg76
(lp386
S':'
asbag69
(g90
g71
NtRp387
(dp388
g74
(dp389
sg83
g374
sg76
(lp390
g69
(g70
g71
NtRp391
(dp392
g74
(dp393
g82
I3
ssg83
g387
sg76
(lp394
S''
asbasbasbag69
(g85
g71
NtRp395
(dp396
g74
(dp397
sg83
g307
sg76
(lp398
g69
(g90
g71
NtRp399
(dp400
g74
(dp401
g94
g95
ssg83
g395
sg76
(lp402
S'max-age'
p403
asbag69
(g90
g71
NtRp404
(dp405
g74
(dp406
g101
g102
ssg83
g395
sg76
(lp407
S':'
asbag69
(g90
g71
NtRp408
(dp409
g74
(dp410
sg83
g395
sg76
(lp411
g69
(g70
g71
NtRp412
(dp413
g74
(dp414
g82
I3
ssg83
g408
sg76
(lp415
S''
asbasbasbag69
(g85
g71
NtRp416
(dp417
g74
(dp418
sg83
g307
sg76
(lp419
g69
(g90
g71
NtRp420
(dp421
g74
(dp422
g94
g95
ssg83
g416
sg76
(lp423
S'path'
p424
asbag69
(g90
g71
NtRp425
(dp426
g74
(dp427
g101
g102
ssg83
g416
sg76
(lp428
S':'
asbag69
(g90
g71
NtRp429
(dp430
g74
(dp431
sg83
g416
sg76
(lp432
g69
(g70
g71
NtRp433
(dp434
g74
(dp435
g82
I3
ssg83
g429
sg76
(lp436
S''
asbasbasbag69
(g85
g71
NtRp437
(dp438
g74
(dp439
sg83
g307
sg76
(lp440
g69
(g90
g71
NtRp441
(dp442
g74
(dp443
g94
g95
ssg83
g437
sg76
(lp444
S'secure'
p445
asbag69
(g90
g71
NtRp446
(dp447
g74
(dp448
g101
g102
ssg83
g437
sg76
(lp449
S':'
asbag69
(g90
g71
NtRp450
(dp451
g74
(dp452
sg83
g437
sg76
(lp453
g69
(g70
g71
NtRp454
(dp455
g74
(dp456
g82
I3
ssg83
g450
sg76
(lp457
S''
asbasbasbag69
(g85
g71
NtRp458
(dp459
g74
(dp460
sg83
g307
sg76
(lp461
g69
(g90
g71
NtRp462
(dp463
g74
(dp464
g94
g95
ssg83
g458
sg76
(lp465
S'version'
p466
asbag69
(g90
g71
NtRp467
(dp468
g74
(dp469
g101
g102
ssg83
g458
sg76
(lp470
S':'
asbag69
(g90
g71
NtRp471
(dp472
g74
(dp473
sg83
g458
sg76
(lp474
g69
(g70
g71
NtRp475
(dp476
g74
(dp477
g82
I3
ssg83
g471
sg76
(lp478
S''
asbasbasbasbasbasbasbag69
(g85
g71
NtRp479
(dp480
g74
(dp481
sg83
g281
sg76
(lp482
g69
(g90
g71
NtRp483
(dp484
g74
(dp485
g94
g95
ssg83
g479
sg76
(lp486
S'session_id_betsy'
p487
asbag69
(g90
g71
NtRp488
(dp489
g74
(dp490
g101
g102
ssg83
g479
sg76
(lp491
S':'
asbag69
(g90
g71
NtRp492
(dp493
g74
(dp494
sg83
g479
sg76
(lp495
g69
(g70
g71
NtRp496
(dp497
g74
(dp498
g82
I4
ssg83
g492
sg76
(lp499
S'127.0.0.1-755547c6-6d6b-4e5a-99c1-f5a3f4534566'
p500
ag69
(g78
g71
NtRp501
(dp502
g74
(dp503
g82
I3
ssg83
Nsg76
(lp504
g69
(g85
g71
NtRp505
(dp506
g74
(dp507
sg83
g501
sg76
(lp508
g69
(g90
g71
NtRp509
(dp510
g74
(dp511
g94
g95
ssg83
g505
sg76
(lp512
g319
asbag69
(g90
g71
NtRp513
(dp514
g74
(dp515
g101
g102
ssg83
g505
sg76
(lp516
S':'
asbag69
(g90
g71
NtRp517
(dp518
g74
(dp519
sg83
g505
sg76
(lp520
g69
(g70
g71
NtRp521
(dp522
g74
(dp523
g82
I3
ssg83
g517
sg76
(lp524
S''
asbasbasbag69
(g85
g71
NtRp525
(dp526
g74
(dp527
sg83
g501
sg76
(lp528
g69
(g90
g71
NtRp529
(dp530
g74
(dp531
g94
g95
ssg83
g525
sg76
(lp532
g340
asbag69
(g90
g71
NtRp533
(dp534
g74
(dp535
g101
g102
ssg83
g525
sg76
(lp536
S':'
asbag69
(g90
g71
NtRp537
(dp538
g74
(dp539
sg83
g525
sg76
(lp540
g69
(g70
g71
NtRp541
(dp542
g74
(dp543
g82
I3
ssg83
g537
sg76
(lp544
S''
asbasbasbag69
(g85
g71
NtRp545
(dp546
g74
(dp547
sg83
g501
sg76
(lp548
g69
(g90
g71
NtRp549
(dp550
g74
(dp551
g94
g95
ssg83
g545
sg76
(lp552
g361
asbag69
(g90
g71
NtRp553
(dp554
g74
(dp555
g101
g102
ssg83
g545
sg76
(lp556
S':'
asbag69
(g90
g71
NtRp557
(dp558
g74
(dp559
sg83
g545
sg76
(lp560
g69
(g70
g71
NtRp561
(dp562
g74
(dp563
g82
I3
ssg83
g557
sg76
(lp564
S''
asbasbasbag69
(g85
g71
NtRp565
(dp566
g74
(dp567
sg83
g501
sg76
(lp568
g69
(g90
g71
NtRp569
(dp570
g74
(dp571
g94
g95
ssg83
g565
sg76
(lp572
g382
asbag69
(g90
g71
NtRp573
(dp574
g74
(dp575
g101
g102
ssg83
g565
sg76
(lp576
S':'
asbag69
(g90
g71
NtRp577
(dp578
g74
(dp579
sg83
g565
sg76
(lp580
g69
(g70
g71
NtRp581
(dp582
g74
(dp583
g82
I3
ssg83
g577
sg76
(lp584
S''
asbasbasbag69
(g85
g71
NtRp585
(dp586
g74
(dp587
sg83
g501
sg76
(lp588
g69
(g90
g71
NtRp589
(dp590
g74
(dp591
g94
g95
ssg83
g585
sg76
(lp592
g403
asbag69
(g90
g71
NtRp593
(dp594
g74
(dp595
g101
g102
ssg83
g585
sg76
(lp596
S':'
asbag69
(g90
g71
NtRp597
(dp598
g74
(dp599
sg83
g585
sg76
(lp600
g69
(g70
g71
NtRp601
(dp602
g74
(dp603
g82
I3
ssg83
g597
sg76
(lp604
S''
asbasbasbag69
(g85
g71
NtRp605
(dp606
g74
(dp607
sg83
g501
sg76
(lp608
g69
(g90
g71
NtRp609
(dp610
g74
(dp611
g94
g95
ssg83
g605
sg76
(lp612
g424
asbag69
(g90
g71
NtRp613
(dp614
g74
(dp615
g101
g102
ssg83
g605
sg76
(lp616
S':'
asbag69
(g90
g71
NtRp617
(dp618
g74
(dp619
sg83
g605
sg76
(lp620
g69
(g70
g71
NtRp621
(dp622
g74
(dp623
g82
I3
ssg83
g617
sg76
(lp624
S''
asbasbasbag69
(g85
g71
NtRp625
(dp626
g74
(dp627
sg83
g501
sg76
(lp628
g69
(g90
g71
NtRp629
(dp630
g74
(dp631
g94
g95
ssg83
g625
sg76
(lp632
g445
asbag69
(g90
g71
NtRp633
(dp634
g74
(dp635
g101
g102
ssg83
g625
sg76
(lp636
S':'
asbag69
(g90
g71
NtRp637
(dp638
g74
(dp639
sg83
g625
sg76
(lp640
g69
(g70
g71
NtRp641
(dp642
g74
(dp643
g82
I3
ssg83
g637
sg76
(lp644
S''
asbasbasbag69
(g85
g71
NtRp645
(dp646
g74
(dp647
sg83
g501
sg76
(lp648
g69
(g90
g71
NtRp649
(dp650
g74
(dp651
g94
g95
ssg83
g645
sg76
(lp652
g466
asbag69
(g90
g71
NtRp653
(dp654
g74
(dp655
g101
g102
ssg83
g645
sg76
(lp656
S':'
asbag69
(g90
g71
NtRp657
(dp658
g74
(dp659
sg83
g645
sg76
(lp660
g69
(g70
g71
NtRp661
(dp662
g74
(dp663
g82
I3
ssg83
g657
sg76
(lp664
S''
asbasbasbasbasbasbasbasbasbasbasbag69
(g85
g71
NtRp665
(dp666
g74
(dp667
sg83
g79
sg76
(lp668
g69
(g90
g71
NtRp669
(dp670
g74
(dp671
g94
g95
ssg83
g665
sg76
(lp672
S'env'
p673
asbag69
(g90
g71
NtRp674
(dp675
g74
(dp676
g101
g102
ssg83
g665
sg76
(lp677
S':'
asbag69
(g90
g71
NtRp678
(dp679
g74
(dp680
sg83
g665
sg76
(lp681
g69
(g70
g71
NtRp682
(dp683
g74
(dp684
g82
I5
ssg83
g678
sg76
(lp685
g69
(g78
g71
NtRp686
(dp687
g74
(dp688
g82
I4
ssg83
Nsg76
(lp689
g69
(g85
g71
NtRp690
(dp691
g74
(dp692
sg83
g686
sg76
(lp693
g69
(g90
g71
NtRp694
(dp695
g74
(dp696
g94
g95
ssg83
g690
sg76
(lp697
S'app_folders'
p698
asbag69
(g90
g71
NtRp699
(dp700
g74
(dp701
g101
g102
ssg83
g690
sg76
(lp702
S':'
asbag69
(g90
g71
NtRp703
(dp704
g74
(dp705
sg83
g690
sg76
(lp706
g69
(g70
g71
NtRp707
(dp708
g74
(dp709
g82
I4
ssg83
g703
sg76
(lp710
S"set(['/home/xchen/web2py/applications/Betsy/', '/home/xchen/web2py/applications/admin/'])"
p711
asbasbasbag69
(g85
g71
NtRp712
(dp713
g74
(dp714
sg83
g686
sg76
(lp715
g69
(g90
g71
NtRp716
(dp717
g74
(dp718
g94
g95
ssg83
g712
sg76
(lp719
S'applications_parent'
p720
asbag69
(g90
g71
NtRp721
(dp722
g74
(dp723
g101
g102
ssg83
g712
sg76
(lp724
S':'
asbag69
(g90
g71
NtRp725
(dp726
g74
(dp727
sg83
g712
sg76
(lp728
g69
(g70
g71
NtRp729
(dp730
g74
(dp731
g82
I4
ssg83
g725
sg76
(lp732
S'/home/xchen/web2py'
p733
asbasbasbag69
(g85
g71
NtRp734
(dp735
g74
(dp736
sg83
g686
sg76
(lp737
g69
(g90
g71
NtRp738
(dp739
g74
(dp740
g94
g95
ssg83
g734
sg76
(lp741
S'cmd_args'
p742
asbag69
(g90
g71
NtRp743
(dp744
g74
(dp745
g101
g102
ssg83
g734
sg76
(lp746
S':'
asbag69
(g90
g71
NtRp747
(dp748
g74
(dp749
sg83
g734
sg76
(lp750
g69
(g70
g71
NtRp751
(dp752
g74
(dp753
g82
I4
ssg83
g747
sg76
(lp754
g69
(g78
g71
NtRp755
(dp756
g74
(dp757
g82
I3
ssg83
Nsg76
(lp758
sbasbasbasbag69
(g85
g71
NtRp759
(dp760
g74
(dp761
sg83
g686
sg76
(lp762
g69
(g90
g71
NtRp763
(dp764
g74
(dp765
g94
g95
ssg83
g759
sg76
(lp766
S'cmd_options'
p767
asbag69
(g90
g71
NtRp768
(dp769
g74
(dp770
g101
g102
ssg83
g759
sg76
(lp771
S':'
asbag69
(g90
g71
NtRp772
(dp773
g74
(dp774
sg83
g759
sg76
(lp775
g69
(g70
g71
NtRp776
(dp777
g74
(dp778
g82
I4
ssg83
g772
sg76
(lp779
S"<Values at 0x11697e18: {'verbose': False, 'ip': '127.0.0.1', 'with_scheduler': False, 'ips': [], 'shutdown_timeout': 5, 'taskbar': False, 'port': 8080, 'maxthreads': None, 'softcron': False, 'server_name': 'unicron.shis.uth.tmc.edu', 'bpython': False, 'nogui': False, 'pid_filename': 'httpserver.pid', 'extcron': False, 'runcron': False, 'run_system_tests': False, 'test': None, 'folder': '/home/xchen/web2py', 'config': '', 'minthreads': None, 'winservice': '', 'shell': None, 'run': '', 'log_filename': 'httpserver.log', 'debuglevel': 30, 'args': [''], 'socket_timeout': 5, 'ssl_ca_certificate': None, 'scheduler': None, 'profiler_filename': None, 'ssl_private_key': '', 'scheduler_groups': None, 'password': 'baby2008', 'request_queue_size': 5, 'ssl_certificate': '', 'cronjob': False, 'numthreads': None, 'quiet': False, 'interfaces': None, 'import_models': False, 'timeout': 10, 'plain': False, 'nobanner': False}>"
p780
asbasbasbag69
(g85
g71
NtRp781
(dp782
g74
(dp783
sg83
g686
sg76
(lp784
g69
(g90
g71
NtRp785
(dp786
g74
(dp787
g94
g95
ssg83
g781
sg76
(lp788
S'db_sessions'
p789
asbag69
(g90
g71
NtRp790
(dp791
g74
(dp792
g101
g102
ssg83
g781
sg76
(lp793
S':'
asbag69
(g90
g71
NtRp794
(dp795
g74
(dp796
sg83
g781
sg76
(lp797
g69
(g70
g71
NtRp798
(dp799
g74
(dp800
g82
I4
ssg83
g794
sg76
(lp801
S'set([])'
p802
asbasbasbag69
(g85
g71
NtRp803
(dp804
g74
(dp805
sg83
g686
sg76
(lp806
g69
(g90
g71
NtRp807
(dp808
g74
(dp809
g94
g95
ssg83
g803
sg76
(lp810
S'debugging'
p811
asbag69
(g90
g71
NtRp812
(dp813
g74
(dp814
g101
g102
ssg83
g803
sg76
(lp815
S':'
asbag69
(g90
g71
NtRp816
(dp817
g74
(dp818
sg83
g803
sg76
(lp819
g69
(g70
g71
NtRp820
(dp821
g74
(dp822
g82
I4
ssg83
g816
sg76
(lp823
g112
asbasbasbag69
(g85
g71
NtRp824
(dp825
g74
(dp826
sg83
g686
sg76
(lp827
g69
(g90
g71
NtRp828
(dp829
g74
(dp830
g94
g95
ssg83
g824
sg76
(lp831
S'gluon_parent'
p832
asbag69
(g90
g71
NtRp833
(dp834
g74
(dp835
g101
g102
ssg83
g824
sg76
(lp836
S':'
asbag69
(g90
g71
NtRp837
(dp838
g74
(dp839
sg83
g824
sg76
(lp840
g69
(g70
g71
NtRp841
(dp842
g74
(dp843
g82
I4
ssg83
g837
sg76
(lp844
S'/home/xchen/web2py'
p845
asbasbasbag69
(g85
g71
NtRp846
(dp847
g74
(dp848
sg83
g686
sg76
(lp849
g69
(g90
g71
NtRp850
(dp851
g74
(dp852
g94
g95
ssg83
g846
sg76
(lp853
S'http_accept'
p854
asbag69
(g90
g71
NtRp855
(dp856
g74
(dp857
g101
g102
ssg83
g846
sg76
(lp858
S':'
asbag69
(g90
g71
NtRp859
(dp860
g74
(dp861
sg83
g846
sg76
(lp862
g69
(g70
g71
NtRp863
(dp864
g74
(dp865
g82
I4
ssg83
g859
sg76
(lp866
S'text/html,application/xhtml+xml,application/xml;q=0.9,*/*;q=0.8'
p867
asbasbasbag69
(g85
g71
NtRp868
(dp869
g74
(dp870
sg83
g686
sg76
(lp871
g69
(g90
g71
NtRp872
(dp873
g74
(dp874
g94
g95
ssg83
g868
sg76
(lp875
S'http_accept_encoding'
p876
asbag69
(g90
g71
NtRp877
(dp878
g74
(dp879
g101
g102
ssg83
g868
sg76
(lp880
S':'
asbag69
(g90
g71
NtRp881
(dp882
g74
(dp883
sg83
g868
sg76
(lp884
g69
(g70
g71
NtRp885
(dp886
g74
(dp887
g82
I4
ssg83
g881
sg76
(lp888
S'gzip, deflate'
p889
asbasbasbag69
(g85
g71
NtRp890
(dp891
g74
(dp892
sg83
g686
sg76
(lp893
g69
(g90
g71
NtRp894
(dp895
g74
(dp896
g94
g95
ssg83
g890
sg76
(lp897
S'http_accept_language'
p898
asbag69
(g90
g71
NtRp899
(dp900
g74
(dp901
g101
g102
ssg83
g890
sg76
(lp902
S':'
asbag69
(g90
g71
NtRp903
(dp904
g74
(dp905
sg83
g890
sg76
(lp906
g69
(g70
g71
NtRp907
(dp908
g74
(dp909
g82
I4
ssg83
g903
sg76
(lp910
S'en-US,en;q=0.5'
p911
asbasbasbag69
(g85
g71
NtRp912
(dp913
g74
(dp914
sg83
g686
sg76
(lp915
g69
(g90
g71
NtRp916
(dp917
g74
(dp918
g94
g95
ssg83
g912
sg76
(lp919
S'http_cache_control'
p920
asbag69
(g90
g71
NtRp921
(dp922
g74
(dp923
g101
g102
ssg83
g912
sg76
(lp924
S':'
asbag69
(g90
g71
NtRp925
(dp926
g74
(dp927
sg83
g912
sg76
(lp928
g69
(g70
g71
NtRp929
(dp930
g74
(dp931
g82
I4
ssg83
g925
sg76
(lp932
S'max-age=0'
p933
asbasbasbag69
(g85
g71
NtRp934
(dp935
g74
(dp936
sg83
g686
sg76
(lp937
g69
(g90
g71
NtRp938
(dp939
g74
(dp940
g94
g95
ssg83
g934
sg76
(lp941
S'http_connection'
p942
asbag69
(g90
g71
NtRp943
(dp944
g74
(dp945
g101
g102
ssg83
g934
sg76
(lp946
S':'
asbag69
(g90
g71
NtRp947
(dp948
g74
(dp949
sg83
g934
sg76
(lp950
g69
(g70
g71
NtRp951
(dp952
g74
(dp953
g82
I4
ssg83
g947
sg76
(lp954
S'keep-alive'
p955
asbasbasbag69
(g85
g71
NtRp956
(dp957
g74
(dp958
sg83
g686
sg76
(lp959
g69
(g90
g71
NtRp960
(dp961
g74
(dp962
g94
g95
ssg83
g956
sg76
(lp963
S'http_cookie'
p964
asbag69
(g90
g71
NtRp965
(dp966
g74
(dp967
g101
g102
ssg83
g956
sg76
(lp968
S':'
asbag69
(g90
g71
NtRp969
(dp970
g74
(dp971
sg83
g956
sg76
(lp972
g69
(g70
g71
NtRp973
(dp974
g74
(dp975
g82
I4
ssg83
g969
sg76
(lp976
S'session_id_betsy=127.0.0.1-755547c6-6d6b-4e5a-99c1-f5a3f4534566; session_id_admin=127.0.0.1-ad5ef0d6-66e5-4f65-b6c3-672d16531d75'
p977
asbasbasbag69
(g85
g71
NtRp978
(dp979
g74
(dp980
sg83
g686
sg76
(lp981
g69
(g90
g71
NtRp982
(dp983
g74
(dp984
g94
g95
ssg83
g978
sg76
(lp985
S'http_host'
p986
asbag69
(g90
g71
NtRp987
(dp988
g74
(dp989
g101
g102
ssg83
g978
sg76
(lp990
S':'
asbag69
(g90
g71
NtRp991
(dp992
g74
(dp993
sg83
g978
sg76
(lp994
g69
(g70
g71
NtRp995
(dp996
g74
(dp997
g82
I4
ssg83
g991
sg76
(lp998
S'localhost:8080'
p999
asbasbasbag69
(g85
g71
NtRp1000
(dp1001
g74
(dp1002
sg83
g686
sg76
(lp1003
g69
(g90
g71
NtRp1004
(dp1005
g74
(dp1006
g94
g95
ssg83
g1000
sg76
(lp1007
S'http_referer'
p1008
asbag69
(g90
g71
NtRp1009
(dp1010
g74
(dp1011
g101
g102
ssg83
g1000
sg76
(lp1012
S':'
asbag69
(g90
g71
NtRp1013
(dp1014
g74
(dp1015
sg83
g1000
sg76
(lp1016
g69
(g70
g71
NtRp1017
(dp1018
g74
(dp1019
g82
I4
ssg83
g1013
sg76
(lp1020
S'http://localhost:8080/Betsy/default/show_status'
p1021
asbasbasbag69
(g85
g71
NtRp1022
(dp1023
g74
(dp1024
sg83
g686
sg76
(lp1025
g69
(g90
g71
NtRp1026
(dp1027
g74
(dp1028
g94
g95
ssg83
g1022
sg76
(lp1029
S'http_user_agent'
p1030
asbag69
(g90
g71
NtRp1031
(dp1032
g74
(dp1033
g101
g102
ssg83
g1022
sg76
(lp1034
S':'
asbag69
(g90
g71
NtRp1035
(dp1036
g74
(dp1037
sg83
g1022
sg76
(lp1038
g69
(g70
g71
NtRp1039
(dp1040
g74
(dp1041
g82
I4
ssg83
g1035
sg76
(lp1042
S'Mozilla/5.0 (Macintosh; Intel Mac OS X 10.6; rv:20.0) Gecko/20100101 Firefox/20.0'
p1043
asbasbasbag69
(g85
g71
NtRp1044
(dp1045
g74
(dp1046
sg83
g686
sg76
(lp1047
g69
(g90
g71
NtRp1048
(dp1049
g74
(dp1050
g94
g95
ssg83
g1044
sg76
(lp1051
S'is_jython'
p1052
asbag69
(g90
g71
NtRp1053
(dp1054
g74
(dp1055
g101
g102
ssg83
g1044
sg76
(lp1056
S':'
asbag69
(g90
g71
NtRp1057
(dp1058
g74
(dp1059
sg83
g1044
sg76
(lp1060
g69
(g70
g71
NtRp1061
(dp1062
g74
(dp1063
g82
I4
ssg83
g1057
sg76
(lp1064
g112
asbasbasbag69
(g85
g71
NtRp1065
(dp1066
g74
(dp1067
sg83
g686
sg76
(lp1068
g69
(g90
g71
NtRp1069
(dp1070
g74
(dp1071
g94
g95
ssg83
g1065
sg76
(lp1072
S'is_pypy'
p1073
asbag69
(g90
g71
NtRp1074
(dp1075
g74
(dp1076
g101
g102
ssg83
g1065
sg76
(lp1077
S':'
asbag69
(g90
g71
NtRp1078
(dp1079
g74
(dp1080
sg83
g1065
sg76
(lp1081
g69
(g70
g71
NtRp1082
(dp1083
g74
(dp1084
g82
I4
ssg83
g1078
sg76
(lp1085
g112
asbasbasbag69
(g85
g71
NtRp1086
(dp1087
g74
(dp1088
sg83
g686
sg76
(lp1089
g69
(g90
g71
NtRp1090
(dp1091
g74
(dp1092
g94
g95
ssg83
g1086
sg76
(lp1093
S'local_hosts'
p1094
asbag69
(g90
g71
NtRp1095
(dp1096
g74
(dp1097
g101
g102
ssg83
g1086
sg76
(lp1098
S':'
asbag69
(g90
g71
NtRp1099
(dp1100
g74
(dp1101
sg83
g1086
sg76
(lp1102
g69
(g70
g71
NtRp1103
(dp1104
g74
(dp1105
g82
I4
ssg83
g1099
sg76
(lp1106
g69
(g78
g71
NtRp1107
(dp1108
g74
(dp1109
g82
I3
ssg83
Nsg76
(lp1110
g69
(g85
g71
NtRp1111
(dp1112
g74
(dp1113
sg83
g1107
sg76
(lp1114
g69
(g90
g71
NtRp1115
(dp1116
g74
(dp1117
sg83
g1111
sg76
(lp1118
g69
(g70
g71
NtRp1119
(dp1120
g74
(dp1121
g82
I3
ssg83
g1115
sg76
(lp1122
S'127.0.0.1'
p1123
asbasbasbag69
(g85
g71
NtRp1124
(dp1125
g74
(dp1126
sg83
g1107
sg76
(lp1127
g69
(g90
g71
NtRp1128
(dp1129
g74
(dp1130
sg83
g1124
sg76
(lp1131
g69
(g70
g71
NtRp1132
(dp1133
g74
(dp1134
g82
I3
ssg83
g1128
sg76
(lp1135
S'::ffff:127.0.0.1'
p1136
asbasbasbag69
(g85
g71
NtRp1137
(dp1138
g74
(dp1139
sg83
g1107
sg76
(lp1140
g69
(g90
g71
NtRp1141
(dp1142
g74
(dp1143
sg83
g1137
sg76
(lp1144
g69
(g70
g71
NtRp1145
(dp1146
g74
(dp1147
g82
I3
ssg83
g1141
sg76
(lp1148
S'unicron.shis.uth.tmc.edu'
p1149
asbasbasbag69
(g85
g71
NtRp1150
(dp1151
g74
(dp1152
sg83
g1107
sg76
(lp1153
g69
(g90
g71
NtRp1154
(dp1155
g74
(dp1156
sg83
g1150
sg76
(lp1157
g69
(g70
g71
NtRp1158
(dp1159
g74
(dp1160
g82
I3
ssg83
g1154
sg76
(lp1161
S'unicron.shis.uth.tmc.edu'
p1162
asbasbasbag69
(g85
g71
NtRp1163
(dp1164
g74
(dp1165
sg83
g1107
sg76
(lp1166
g69
(g90
g71
NtRp1167
(dp1168
g74
(dp1169
sg83
g1163
sg76
(lp1170
g69
(g70
g71
NtRp1171
(dp1172
g74
(dp1173
g82
I3
ssg83
g1167
sg76
(lp1174
S'127.0.0.1'
p1175
asbasbasbasbasbasbasbag69
(g85
g71
NtRp1176
(dp1177
g74
(dp1178
sg83
g686
sg76
(lp1179
g69
(g90
g71
NtRp1180
(dp1181
g74
(dp1182
g94
g95
ssg83
g1176
sg76
(lp1183
S'path_info'
p1184
asbag69
(g90
g71
NtRp1185
(dp1186
g74
(dp1187
g101
g102
ssg83
g1176
sg76
(lp1188
S':'
asbag69
(g90
g71
NtRp1189
(dp1190
g74
(dp1191
sg83
g1176
sg76
(lp1192
g69
(g70
g71
NtRp1193
(dp1194
g74
(dp1195
g82
I4
ssg83
g1189
sg76
(lp1196
S'/Betsy/default/show_job/235'
p1197
asbasbasbag69
(g85
g71
NtRp1198
(dp1199
g74
(dp1200
sg83
g686
sg76
(lp1201
g69
(g90
g71
NtRp1202
(dp1203
g74
(dp1204
g94
g95
ssg83
g1198
sg76
(lp1205
S'query_string'
p1206
asbag69
(g90
g71
NtRp1207
(dp1208
g74
(dp1209
g101
g102
ssg83
g1198
sg76
(lp1210
S':'
asbag69
(g90
g71
NtRp1211
(dp1212
g74
(dp1213
sg83
g1198
sg76
(lp1214
g69
(g70
g71
NtRp1215
(dp1216
g74
(dp1217
g82
I4
ssg83
g1211
sg76
(lp1218
S''
asbasbasbag69
(g85
g71
NtRp1219
(dp1220
g74
(dp1221
sg83
g686
sg76
(lp1222
g69
(g90
g71
NtRp1223
(dp1224
g74
(dp1225
g94
g95
ssg83
g1219
sg76
(lp1226
S'remote_addr'
p1227
asbag69
(g90
g71
NtRp1228
(dp1229
g74
(dp1230
g101
g102
ssg83
g1219
sg76
(lp1231
S':'
asbag69
(g90
g71
NtRp1232
(dp1233
g74
(dp1234
sg83
g1219
sg76
(lp1235
g69
(g70
g71
NtRp1236
(dp1237
g74
(dp1238
g82
I4
ssg83
g1232
sg76
(lp1239
g237
asbasbasbag69
(g85
g71
NtRp1240
(dp1241
g74
(dp1242
sg83
g686
sg76
(lp1243
g69
(g90
g71
NtRp1244
(dp1245
g74
(dp1246
g94
g95
ssg83
g1240
sg76
(lp1247
S'remote_port'
p1248
asbag69
(g90
g71
NtRp1249
(dp1250
g74
(dp1251
g101
g102
ssg83
g1240
sg76
(lp1252
S':'
asbag69
(g90
g71
NtRp1253
(dp1254
g74
(dp1255
sg83
g1240
sg76
(lp1256
g69
(g70
g71
NtRp1257
(dp1258
g74
(dp1259
g82
I4
ssg83
g1253
sg76
(lp1260
S'52178'
p1261
asbasbasbag69
(g85
g71
NtRp1262
(dp1263
g74
(dp1264
sg83
g686
sg76
(lp1265
g69
(g90
g71
NtRp1266
(dp1267
g74
(dp1268
g94
g95
ssg83
g1262
sg76
(lp1269
S'request_method'
p1270
asbag69
(g90
g71
NtRp1271
(dp1272
g74
(dp1273
g101
g102
ssg83
g1262
sg76
(lp1274
S':'
asbag69
(g90
g71
NtRp1275
(dp1276
g74
(dp1277
sg83
g1262
sg76
(lp1278
g69
(g70
g71
NtRp1279
(dp1280
g74
(dp1281
g82
I4
ssg83
g1275
sg76
(lp1282
S'GET'
p1283
asbasbasbag69
(g85
g71
NtRp1284
(dp1285
g74
(dp1286
sg83
g686
sg76
(lp1287
g69
(g90
g71
NtRp1288
(dp1289
g74
(dp1290
g94
g95
ssg83
g1284
sg76
(lp1291
S'request_uri'
p1292
asbag69
(g90
g71
NtRp1293
(dp1294
g74
(dp1295
g101
g102
ssg83
g1284
sg76
(lp1296
S':'
asbag69
(g90
g71
NtRp1297
(dp1298
g74
(dp1299
sg83
g1284
sg76
(lp1300
g69
(g70
g71
NtRp1301
(dp1302
g74
(dp1303
g82
I4
ssg83
g1297
sg76
(lp1304
g1197
asbasbasbag69
(g85
g71
NtRp1305
(dp1306
g74
(dp1307
sg83
g686
sg76
(lp1308
g69
(g90
g71
NtRp1309
(dp1310
g74
(dp1311
g94
g95
ssg83
g1305
sg76
(lp1312
S'script_name'
p1313
asbag69
(g90
g71
NtRp1314
(dp1315
g74
(dp1316
g101
g102
ssg83
g1305
sg76
(lp1317
S':'
asbag69
(g90
g71
NtRp1318
(dp1319
g74
(dp1320
sg83
g1305
sg76
(lp1321
g69
(g70
g71
NtRp1322
(dp1323
g74
(dp1324
g82
I4
ssg83
g1318
sg76
(lp1325
S''
asbasbasbag69
(g85
g71
NtRp1326
(dp1327
g74
(dp1328
sg83
g686
sg76
(lp1329
g69
(g90
g71
NtRp1330
(dp1331
g74
(dp1332
g94
g95
ssg83
g1326
sg76
(lp1333
S'server_name'
p1334
asbag69
(g90
g71
NtRp1335
(dp1336
g74
(dp1337
g101
g102
ssg83
g1326
sg76
(lp1338
S':'
asbag69
(g90
g71
NtRp1339
(dp1340
g74
(dp1341
sg83
g1326
sg76
(lp1342
g69
(g70
g71
NtRp1343
(dp1344
g74
(dp1345
g82
I4
ssg83
g1339
sg76
(lp1346
g1162
asbasbasbag69
(g85
g71
NtRp1347
(dp1348
g74
(dp1349
sg83
g686
sg76
(lp1350
g69
(g90
g71
NtRp1351
(dp1352
g74
(dp1353
g94
g95
ssg83
g1347
sg76
(lp1354
S'server_port'
p1355
asbag69
(g90
g71
NtRp1356
(dp1357
g74
(dp1358
g101
g102
ssg83
g1347
sg76
(lp1359
S':'
asbag69
(g90
g71
NtRp1360
(dp1361
g74
(dp1362
sg83
g1347
sg76
(lp1363
g69
(g70
g71
NtRp1364
(dp1365
g74
(dp1366
g82
I4
ssg83
g1360
sg76
(lp1367
S'8080'
p1368
asbasbasbag69
(g85
g71
NtRp1369
(dp1370
g74
(dp1371
sg83
g686
sg76
(lp1372
g69
(g90
g71
NtRp1373
(dp1374
g74
(dp1375
g94
g95
ssg83
g1369
sg76
(lp1376
S'server_protocol'
p1377
asbag69
(g90
g71
NtRp1378
(dp1379
g74
(dp1380
g101
g102
ssg83
g1369
sg76
(lp1381
S':'
asbag69
(g90
g71
NtRp1382
(dp1383
g74
(dp1384
sg83
g1369
sg76
(lp1385
g69
(g70
g71
NtRp1386
(dp1387
g74
(dp1388
g82
I4
ssg83
g1382
sg76
(lp1389
S'HTTP/1.1'
p1390
asbasbasbag69
(g85
g71
NtRp1391
(dp1392
g74
(dp1393
sg83
g686
sg76
(lp1394
g69
(g90
g71
NtRp1395
(dp1396
g74
(dp1397
g94
g95
ssg83
g1391
sg76
(lp1398
S'server_software'
p1399
asbag69
(g90
g71
NtRp1400
(dp1401
g74
(dp1402
g101
g102
ssg83
g1391
sg76
(lp1403
S':'
asbag69
(g90
g71
NtRp1404
(dp1405
g74
(dp1406
sg83
g1391
sg76
(lp1407
g69
(g70
g71
NtRp1408
(dp1409
g74
(dp1410
g82
I4
ssg83
g1404
sg76
(lp1411
S'Rocket 1.2.5'
p1412
asbasbasbag69
(g85
g71
NtRp1413
(dp1414
g74
(dp1415
sg83
g686
sg76
(lp1416
g69
(g90
g71
NtRp1417
(dp1418
g74
(dp1419
g94
g95
ssg83
g1413
sg76
(lp1420
S'web2py_path'
p1421
asbag69
(g90
g71
NtRp1422
(dp1423
g74
(dp1424
g101
g102
ssg83
g1413
sg76
(lp1425
S':'
asbag69
(g90
g71
NtRp1426
(dp1427
g74
(dp1428
sg83
g1413
sg76
(lp1429
g69
(g70
g71
NtRp1430
(dp1431
g74
(dp1432
g82
I4
ssg83
g1426
sg76
(lp1433
g733
asbasbasbag69
(g85
g71
NtRp1434
(dp1435
g74
(dp1436
sg83
g686
sg76
(lp1437
g69
(g90
g71
NtRp1438
(dp1439
g74
(dp1440
g94
g95
ssg83
g1434
sg76
(lp1441
S'web2py_version'
p1442
asbag69
(g90
g71
NtRp1443
(dp1444
g74
(dp1445
g101
g102
ssg83
g1434
sg76
(lp1446
S':'
asbag69
(g90
g71
NtRp1447
(dp1448
g74
(dp1449
sg83
g1434
sg76
(lp1450
g69
(g70
g71
NtRp1451
(dp1452
g74
(dp1453
g82
I4
ssg83
g1447
sg76
(lp1454
g69
(g78
g71
NtRp1455
(dp1456
g74
(dp1457
g82
I3
ssg83
Nsg76
(lp1458
g69
(g85
g71
NtRp1459
(dp1460
g74
(dp1461
sg83
g1455
sg76
(lp1462
g69
(g90
g71
NtRp1463
(dp1464
g74
(dp1465
sg83
g1459
sg76
(lp1466
g69
(g70
g71
NtRp1467
(dp1468
g74
(dp1469
g82
I3
ssg83
g1463
sg76
(lp1470
S'2'
asbasbasbag69
(g85
g71
NtRp1471
(dp1472
g74
(dp1473
sg83
g1455
sg76
(lp1474
g69
(g90
g71
NtRp1475
(dp1476
g74
(dp1477
sg83
g1471
sg76
(lp1478
g69
(g70
g71
NtRp1479
(dp1480
g74
(dp1481
g82
I3
ssg83
g1475
sg76
(lp1482
S'2'
asbasbasbag69
(g85
g71
NtRp1483
(dp1484
g74
(dp1485
sg83
g1455
sg76
(lp1486
g69
(g90
g71
NtRp1487
(dp1488
g74
(dp1489
sg83
g1483
sg76
(lp1490
g69
(g70
g71
NtRp1491
(dp1492
g74
(dp1493
g82
I3
ssg83
g1487
sg76
(lp1494
S'1'
asbasbasbag69
(g85
g71
NtRp1495
(dp1496
g74
(dp1497
sg83
g1455
sg76
(lp1498
g69
(g90
g71
NtRp1499
(dp1500
g74
(dp1501
sg83
g1495
sg76
(lp1502
g69
(g70
g71
NtRp1503
(dp1504
g74
(dp1505
g82
I3
ssg83
g1499
sg76
(lp1506
S'datetime.datetime(2012, 10, 21, 16, 57, 4)'
p1507
asbasbasbag69
(g85
g71
NtRp1508
(dp1509
g74
(dp1510
sg83
g1455
sg76
(lp1511
g69
(g90
g71
NtRp1512
(dp1513
g74
(dp1514
sg83
g1508
sg76
(lp1515
g69
(g70
g71
NtRp1516
(dp1517
g74
(dp1518
g82
I3
ssg83
g1512
sg76
(lp1519
S'stable'
p1520
asbasbasbasbasbasbasbag69
(g85
g71
NtRp1521
(dp1522
g74
(dp1523
sg83
g686
sg76
(lp1524
g69
(g90
g71
NtRp1525
(dp1526
g74
(dp1527
g94
g95
ssg83
g1521
sg76
(lp1528
S'wsgi_errors'
p1529
asbag69
(g90
g71
NtRp1530
(dp1531
g74
(dp1532
g101
g102
ssg83
g1521
sg76
(lp1533
S':'
asbag69
(g90
g71
NtRp1534
(dp1535
g74
(dp1536
sg83
g1521
sg76
(lp1537
g69
(g70
g71
NtRp1538
(dp1539
g74
(dp1540
g82
I4
ssg83
g1534
sg76
(lp1541
S"<open file '<stderr>', mode 'w' at 0x2b30eb745270>"
p1542
asbasbasbag69
(g85
g71
NtRp1543
(dp1544
g74
(dp1545
sg83
g686
sg76
(lp1546
g69
(g90
g71
NtRp1547
(dp1548
g74
(dp1549
g94
g95
ssg83
g1543
sg76
(lp1550
S'wsgi_file_wrapper'
p1551
asbag69
(g90
g71
NtRp1552
(dp1553
g74
(dp1554
g101
g102
ssg83
g1543
sg76
(lp1555
S':'
asbag69
(g90
g71
NtRp1556
(dp1557
g74
(dp1558
sg83
g1543
sg76
(lp1559
g69
(g70
g71
NtRp1560
(dp1561
g74
(dp1562
g82
I4
ssg83
g1556
sg76
(lp1563
S'<class wsgiref.util.FileWrapper at 0x115f6a78>'
p1564
asbasbasbag69
(g85
g71
NtRp1565
(dp1566
g74
(dp1567
sg83
g686
sg76
(lp1568
g69
(g90
g71
NtRp1569
(dp1570
g74
(dp1571
g94
g95
ssg83
g1565
sg76
(lp1572
S'wsgi_input'
p1573
asbag69
(g90
g71
NtRp1574
(dp1575
g74
(dp1576
g101
g102
ssg83
g1565
sg76
(lp1577
S':'
asbag69
(g90
g71
NtRp1578
(dp1579
g74
(dp1580
sg83
g1565
sg76
(lp1581
g69
(g70
g71
NtRp1582
(dp1583
g74
(dp1584
g82
I4
ssg83
g1578
sg76
(lp1585
S'<socket._fileobject object at 0x12cf85d0>'
p1586
asbasbasbag69
(g85
g71
NtRp1587
(dp1588
g74
(dp1589
sg83
g686
sg76
(lp1590
g69
(g90
g71
NtRp1591
(dp1592
g74
(dp1593
g94
g95
ssg83
g1587
sg76
(lp1594
S'wsgi_multiprocess'
p1595
asbag69
(g90
g71
NtRp1596
(dp1597
g74
(dp1598
g101
g102
ssg83
g1587
sg76
(lp1599
S':'
asbag69
(g90
g71
NtRp1600
(dp1601
g74
(dp1602
sg83
g1587
sg76
(lp1603
g69
(g70
g71
NtRp1604
(dp1605
g74
(dp1606
g82
I4
ssg83
g1600
sg76
(lp1607
g112
asbasbasbag69
(g85
g71
NtRp1608
(dp1609
g74
(dp1610
sg83
g686
sg76
(lp1611
g69
(g90
g71
NtRp1612
(dp1613
g74
(dp1614
g94
g95
ssg83
g1608
sg76
(lp1615
S'wsgi_multithread'
p1616
asbag69
(g90
g71
NtRp1617
(dp1618
g74
(dp1619
g101
g102
ssg83
g1608
sg76
(lp1620
S':'
asbag69
(g90
g71
NtRp1621
(dp1622
g74
(dp1623
sg83
g1608
sg76
(lp1624
g69
(g70
g71
NtRp1625
(dp1626
g74
(dp1627
g82
I4
ssg83
g1621
sg76
(lp1628
S'True'
p1629
asbasbasbag69
(g85
g71
NtRp1630
(dp1631
g74
(dp1632
sg83
g686
sg76
(lp1633
g69
(g90
g71
NtRp1634
(dp1635
g74
(dp1636
g94
g95
ssg83
g1630
sg76
(lp1637
S'wsgi_run_once'
p1638
asbag69
(g90
g71
NtRp1639
(dp1640
g74
(dp1641
g101
g102
ssg83
g1630
sg76
(lp1642
S':'
asbag69
(g90
g71
NtRp1643
(dp1644
g74
(dp1645
sg83
g1630
sg76
(lp1646
g69
(g70
g71
NtRp1647
(dp1648
g74
(dp1649
g82
I4
ssg83
g1643
sg76
(lp1650
g112
asbasbasbag69
(g85
g71
NtRp1651
(dp1652
g74
(dp1653
sg83
g686
sg76
(lp1654
g69
(g90
g71
NtRp1655
(dp1656
g74
(dp1657
g94
g95
ssg83
g1651
sg76
(lp1658
S'wsgi_url_scheme'
p1659
asbag69
(g90
g71
NtRp1660
(dp1661
g74
(dp1662
g101
g102
ssg83
g1651
sg76
(lp1663
S':'
asbag69
(g90
g71
NtRp1664
(dp1665
g74
(dp1666
sg83
g1651
sg76
(lp1667
g69
(g70
g71
NtRp1668
(dp1669
g74
(dp1670
g82
I4
ssg83
g1664
sg76
(lp1671
S'http'
p1672
asbasbasbag69
(g85
g71
NtRp1673
(dp1674
g74
(dp1675
sg83
g686
sg76
(lp1676
g69
(g90
g71
NtRp1677
(dp1678
g74
(dp1679
g94
g95
ssg83
g1673
sg76
(lp1680
S'wsgi_version'
p1681
asbag69
(g90
g71
NtRp1682
(dp1683
g74
(dp1684
g101
g102
ssg83
g1673
sg76
(lp1685
S':'
asbag69
(g90
g71
NtRp1686
(dp1687
g74
(dp1688
sg83
g1673
sg76
(lp1689
g69
(g70
g71
NtRp1690
(dp1691
g74
(dp1692
g82
I4
ssg83
g1686
sg76
(lp1693
g69
(g78
g71
NtRp1694
(dp1695
g74
(dp1696
g82
I3
ssg83
Nsg76
(lp1697
g69
(g85
g71
NtRp1698
(dp1699
g74
(dp1700
sg83
g1694
sg76
(lp1701
g69
(g90
g71
NtRp1702
(dp1703
g74
(dp1704
sg83
g1698
sg76
(lp1705
g69
(g70
g71
NtRp1706
(dp1707
g74
(dp1708
g82
I3
ssg83
g1702
sg76
(lp1709
S'1'
asbasbasbag69
(g85
g71
NtRp1710
(dp1711
g74
(dp1712
sg83
g1694
sg76
(lp1713
g69
(g90
g71
NtRp1714
(dp1715
g74
(dp1716
sg83
g1710
sg76
(lp1717
g69
(g70
g71
NtRp1718
(dp1719
g74
(dp1720
g82
I3
ssg83
g1714
sg76
(lp1721
S'0'
asbasbasbasbasbasbasbasbasbasbasbag69
(g85
g71
NtRp1722
(dp1723
g74
(dp1724
sg83
g79
sg76
(lp1725
g69
(g90
g71
NtRp1726
(dp1727
g74
(dp1728
g94
g95
ssg83
g1722
sg76
(lp1729
S'extension'
p1730
asbag69
(g90
g71
NtRp1731
(dp1732
g74
(dp1733
g101
g102
ssg83
g1722
sg76
(lp1734
S':'
asbag69
(g90
g71
NtRp1735
(dp1736
g74
(dp1737
sg83
g1722
sg76
(lp1738
g69
(g70
g71
NtRp1739
(dp1740
g74
(dp1741
g82
I5
ssg83
g1735
sg76
(lp1742
S'html'
p1743
asbasbasbag69
(g85
g71
NtRp1744
(dp1745
g74
(dp1746
sg83
g79
sg76
(lp1747
g69
(g90
g71
NtRp1748
(dp1749
g74
(dp1750
g94
g95
ssg83
g1744
sg76
(lp1751
S'folder'
p1752
asbag69
(g90
g71
NtRp1753
(dp1754
g74
(dp1755
g101
g102
ssg83
g1744
sg76
(lp1756
S':'
asbag69
(g90
g71
NtRp1757
(dp1758
g74
(dp1759
sg83
g1744
sg76
(lp1760
g69
(g70
g71
NtRp1761
(dp1762
g74
(dp1763
g82
I5
ssg83
g1757
sg76
(lp1764
S'/home/xchen/web2py/applications/Betsy/'
p1765
asbasbasbag69
(g85
g71
NtRp1766
(dp1767
g74
(dp1768
sg83
g79
sg76
(lp1769
g69
(g90
g71
NtRp1770
(dp1771
g74
(dp1772
g94
g95
ssg83
g1766
sg76
(lp1773
S'function'
p1774
asbag69
(g90
g71
NtRp1775
(dp1776
g74
(dp1777
g101
g102
ssg83
g1766
sg76
(lp1778
S':'
asbag69
(g90
g71
NtRp1779
(dp1780
g74
(dp1781
sg83
g1766
sg76
(lp1782
g69
(g70
g71
NtRp1783
(dp1784
g74
(dp1785
g82
I5
ssg83
g1779
sg76
(lp1786
S'show_job'
p1787
asbasbasbag69
(g85
g71
NtRp1788
(dp1789
g74
(dp1790
sg83
g79
sg76
(lp1791
g69
(g90
g71
NtRp1792
(dp1793
g74
(dp1794
g94
g95
ssg83
g1788
sg76
(lp1795
S'get_vars'
p1796
asbag69
(g90
g71
NtRp1797
(dp1798
g74
(dp1799
g101
g102
ssg83
g1788
sg76
(lp1800
S':'
asbag69
(g90
g71
NtRp1801
(dp1802
g74
(dp1803
sg83
g1788
sg76
(lp1804
g69
(g70
g71
NtRp1805
(dp1806
g74
(dp1807
g82
I5
ssg83
g1801
sg76
(lp1808
g69
(g78
g71
NtRp1809
(dp1810
g74
(dp1811
g82
I4
ssg83
Nsg76
(lp1812
sbasbasbasbag69
(g85
g71
NtRp1813
(dp1814
g74
(dp1815
sg83
g79
sg76
(lp1816
g69
(g90
g71
NtRp1817
(dp1818
g74
(dp1819
g94
g95
ssg83
g1813
sg76
(lp1820
S'global_settings'
p1821
asbag69
(g90
g71
NtRp1822
(dp1823
g74
(dp1824
g101
g102
ssg83
g1813
sg76
(lp1825
S':'
asbag69
(g90
g71
NtRp1826
(dp1827
g74
(dp1828
sg83
g1813
sg76
(lp1829
g69
(g70
g71
NtRp1830
(dp1831
g74
(dp1832
g82
I5
ssg83
g1826
sg76
(lp1833
g69
(g78
g71
NtRp1834
(dp1835
g74
(dp1836
g82
I4
ssg83
Nsg76
(lp1837
g69
(g85
g71
NtRp1838
(dp1839
g74
(dp1840
sg83
g1834
sg76
(lp1841
g69
(g90
g71
NtRp1842
(dp1843
g74
(dp1844
g94
g95
ssg83
g1838
sg76
(lp1845
g698
asbag69
(g90
g71
NtRp1846
(dp1847
g74
(dp1848
g101
g102
ssg83
g1838
sg76
(lp1849
S':'
asbag69
(g90
g71
NtRp1850
(dp1851
g74
(dp1852
sg83
g1838
sg76
(lp1853
g69
(g70
g71
NtRp1854
(dp1855
g74
(dp1856
g82
I4
ssg83
g1850
sg76
(lp1857
S"set(['/home/xchen/web2py/applications/Betsy/', '/home/xchen/web2py/applications/admin/'])"
p1858
asbasbasbag69
(g85
g71
NtRp1859
(dp1860
g74
(dp1861
sg83
g1834
sg76
(lp1862
g69
(g90
g71
NtRp1863
(dp1864
g74
(dp1865
g94
g95
ssg83
g1859
sg76
(lp1866
g720
asbag69
(g90
g71
NtRp1867
(dp1868
g74
(dp1869
g101
g102
ssg83
g1859
sg76
(lp1870
S':'
asbag69
(g90
g71
NtRp1871
(dp1872
g74
(dp1873
sg83
g1859
sg76
(lp1874
g69
(g70
g71
NtRp1875
(dp1876
g74
(dp1877
g82
I4
ssg83
g1871
sg76
(lp1878
g733
asbasbasbag69
(g85
g71
NtRp1879
(dp1880
g74
(dp1881
sg83
g1834
sg76
(lp1882
g69
(g90
g71
NtRp1883
(dp1884
g74
(dp1885
g94
g95
ssg83
g1879
sg76
(lp1886
g742
asbag69
(g90
g71
NtRp1887
(dp1888
g74
(dp1889
g101
g102
ssg83
g1879
sg76
(lp1890
S':'
asbag69
(g90
g71
NtRp1891
(dp1892
g74
(dp1893
sg83
g1879
sg76
(lp1894
g69
(g70
g71
NtRp1895
(dp1896
g74
(dp1897
g82
I4
ssg83
g1891
sg76
(lp1898
g69
(g78
g71
NtRp1899
(dp1900
g74
(dp1901
g82
I3
ssg83
Nsg76
(lp1902
sbasbasbasbag69
(g85
g71
NtRp1903
(dp1904
g74
(dp1905
sg83
g1834
sg76
(lp1906
g69
(g90
g71
NtRp1907
(dp1908
g74
(dp1909
g94
g95
ssg83
g1903
sg76
(lp1910
g767
asbag69
(g90
g71
NtRp1911
(dp1912
g74
(dp1913
g101
g102
ssg83
g1903
sg76
(lp1914
S':'
asbag69
(g90
g71
NtRp1915
(dp1916
g74
(dp1917
sg83
g1903
sg76
(lp1918
g69
(g70
g71
NtRp1919
(dp1920
g74
(dp1921
g82
I4
ssg83
g1915
sg76
(lp1922
S"<Values at 0x11697e18: {'verbose': False, 'ip': '127.0.0.1', 'with_scheduler': False, 'ips': [], 'shutdown_timeout': 5, 'taskbar': False, 'port': 8080, 'maxthreads': None, 'softcron': False, 'server_name': 'unicron.shis.uth.tmc.edu', 'bpython': False, 'nogui': False, 'pid_filename': 'httpserver.pid', 'extcron': False, 'runcron': False, 'run_system_tests': False, 'test': None, 'folder': '/home/xchen/web2py', 'config': '', 'minthreads': None, 'winservice': '', 'shell': None, 'run': '', 'log_filename': 'httpserver.log', 'debuglevel': 30, 'args': [''], 'socket_timeout': 5, 'ssl_ca_certificate': None, 'scheduler': None, 'profiler_filename': None, 'ssl_private_key': '', 'scheduler_groups': None, 'password': 'baby2008', 'request_queue_size': 5, 'ssl_certificate': '', 'cronjob': False, 'numthreads': None, 'quiet': False, 'interfaces': None, 'import_models': False, 'timeout': 10, 'plain': False, 'nobanner': False}>"
p1923
asbasbasbag69
(g85
g71
NtRp1924
(dp1925
g74
(dp1926
sg83
g1834
sg76
(lp1927
g69
(g90
g71
NtRp1928
(dp1929
g74
(dp1930
g94
g95
ssg83
g1924
sg76
(lp1931
g789
asbag69
(g90
g71
NtRp1932
(dp1933
g74
(dp1934
g101
g102
ssg83
g1924
sg76
(lp1935
S':'
asbag69
(g90
g71
NtRp1936
(dp1937
g74
(dp1938
sg83
g1924
sg76
(lp1939
g69
(g70
g71
NtRp1940
(dp1941
g74
(dp1942
g82
I4
ssg83
g1936
sg76
(lp1943
S'set([])'
p1944
asbasbasbag69
(g85
g71
NtRp1945
(dp1946
g74
(dp1947
sg83
g1834
sg76
(lp1948
g69
(g90
g71
NtRp1949
(dp1950
g74
(dp1951
g94
g95
ssg83
g1945
sg76
(lp1952
g811
asbag69
(g90
g71
NtRp1953
(dp1954
g74
(dp1955
g101
g102
ssg83
g1945
sg76
(lp1956
S':'
asbag69
(g90
g71
NtRp1957
(dp1958
g74
(dp1959
sg83
g1945
sg76
(lp1960
g69
(g70
g71
NtRp1961
(dp1962
g74
(dp1963
g82
I4
ssg83
g1957
sg76
(lp1964
g112
asbasbasbag69
(g85
g71
NtRp1965
(dp1966
g74
(dp1967
sg83
g1834
sg76
(lp1968
g69
(g90
g71
NtRp1969
(dp1970
g74
(dp1971
g94
g95
ssg83
g1965
sg76
(lp1972
g832
asbag69
(g90
g71
NtRp1973
(dp1974
g74
(dp1975
g101
g102
ssg83
g1965
sg76
(lp1976
S':'
asbag69
(g90
g71
NtRp1977
(dp1978
g74
(dp1979
sg83
g1965
sg76
(lp1980
g69
(g70
g71
NtRp1981
(dp1982
g74
(dp1983
g82
I4
ssg83
g1977
sg76
(lp1984
g845
asbasbasbag69
(g85
g71
NtRp1985
(dp1986
g74
(dp1987
sg83
g1834
sg76
(lp1988
g69
(g90
g71
NtRp1989
(dp1990
g74
(dp1991
g94
g95
ssg83
g1985
sg76
(lp1992
g1052
asbag69
(g90
g71
NtRp1993
(dp1994
g74
(dp1995
g101
g102
ssg83
g1985
sg76
(lp1996
S':'
asbag69
(g90
g71
NtRp1997
(dp1998
g74
(dp1999
sg83
g1985
sg76
(lp2000
g69
(g70
g71
NtRp2001
(dp2002
g74
(dp2003
g82
I4
ssg83
g1997
sg76
(lp2004
g112
asbasbasbag69
(g85
g71
NtRp2005
(dp2006
g74
(dp2007
sg83
g1834
sg76
(lp2008
g69
(g90
g71
NtRp2009
(dp2010
g74
(dp2011
g94
g95
ssg83
g2005
sg76
(lp2012
g1073
asbag69
(g90
g71
NtRp2013
(dp2014
g74
(dp2015
g101
g102
ssg83
g2005
sg76
(lp2016
S':'
asbag69
(g90
g71
NtRp2017
(dp2018
g74
(dp2019
sg83
g2005
sg76
(lp2020
g69
(g70
g71
NtRp2021
(dp2022
g74
(dp2023
g82
I4
ssg83
g2017
sg76
(lp2024
g112
asbasbasbag69
(g85
g71
NtRp2025
(dp2026
g74
(dp2027
sg83
g1834
sg76
(lp2028
g69
(g90
g71
NtRp2029
(dp2030
g74
(dp2031
g94
g95
ssg83
g2025
sg76
(lp2032
g1094
asbag69
(g90
g71
NtRp2033
(dp2034
g74
(dp2035
g101
g102
ssg83
g2025
sg76
(lp2036
S':'
asbag69
(g90
g71
NtRp2037
(dp2038
g74
(dp2039
sg83
g2025
sg76
(lp2040
g69
(g70
g71
NtRp2041
(dp2042
g74
(dp2043
g82
I4
ssg83
g2037
sg76
(lp2044
g69
(g78
g71
NtRp2045
(dp2046
g74
(dp2047
g82
I3
ssg83
Nsg76
(lp2048
g69
(g85
g71
NtRp2049
(dp2050
g74
(dp2051
sg83
g2045
sg76
(lp2052
g69
(g90
g71
NtRp2053
(dp2054
g74
(dp2055
sg83
g2049
sg76
(lp2056
g69
(g70
g71
NtRp2057
(dp2058
g74
(dp2059
g82
I3
ssg83
g2053
sg76
(lp2060
g1123
asbasbasbag69
(g85
g71
NtRp2061
(dp2062
g74
(dp2063
sg83
g2045
sg76
(lp2064
g69
(g90
g71
NtRp2065
(dp2066
g74
(dp2067
sg83
g2061
sg76
(lp2068
g69
(g70
g71
NtRp2069
(dp2070
g74
(dp2071
g82
I3
ssg83
g2065
sg76
(lp2072
g1136
asbasbasbag69
(g85
g71
NtRp2073
(dp2074
g74
(dp2075
sg83
g2045
sg76
(lp2076
g69
(g90
g71
NtRp2077
(dp2078
g74
(dp2079
sg83
g2073
sg76
(lp2080
g69
(g70
g71
NtRp2081
(dp2082
g74
(dp2083
g82
I3
ssg83
g2077
sg76
(lp2084
g1149
asbasbasbag69
(g85
g71
NtRp2085
(dp2086
g74
(dp2087
sg83
g2045
sg76
(lp2088
g69
(g90
g71
NtRp2089
(dp2090
g74
(dp2091
sg83
g2085
sg76
(lp2092
g69
(g70
g71
NtRp2093
(dp2094
g74
(dp2095
g82
I3
ssg83
g2089
sg76
(lp2096
g1162
asbasbasbag69
(g85
g71
NtRp2097
(dp2098
g74
(dp2099
sg83
g2045
sg76
(lp2100
g69
(g90
g71
NtRp2101
(dp2102
g74
(dp2103
sg83
g2097
sg76
(lp2104
g69
(g70
g71
NtRp2105
(dp2106
g74
(dp2107
g82
I3
ssg83
g2101
sg76
(lp2108
g1175
asbasbasbasbasbasbasbag69
(g85
g71
NtRp2109
(dp2110
g74
(dp2111
sg83
g1834
sg76
(lp2112
g69
(g90
g71
NtRp2113
(dp2114
g74
(dp2115
g94
g95
ssg83
g2109
sg76
(lp2116
g1442
asbag69
(g90
g71
NtRp2117
(dp2118
g74
(dp2119
g101
g102
ssg83
g2109
sg76
(lp2120
S':'
asbag69
(g90
g71
NtRp2121
(dp2122
g74
(dp2123
sg83
g2109
sg76
(lp2124
g69
(g70
g71
NtRp2125
(dp2126
g74
(dp2127
g82
I4
ssg83
g2121
sg76
(lp2128
g69
(g78
g71
NtRp2129
(dp2130
g74
(dp2131
g82
I3
ssg83
Nsg76
(lp2132
g69
(g85
g71
NtRp2133
(dp2134
g74
(dp2135
sg83
g2129
sg76
(lp2136
g69
(g90
g71
NtRp2137
(dp2138
g74
(dp2139
sg83
g2133
sg76
(lp2140
g69
(g70
g71
NtRp2141
(dp2142
g74
(dp2143
g82
I3
ssg83
g2137
sg76
(lp2144
S'2'
asbasbasbag69
(g85
g71
NtRp2145
(dp2146
g74
(dp2147
sg83
g2129
sg76
(lp2148
g69
(g90
g71
NtRp2149
(dp2150
g74
(dp2151
sg83
g2145
sg76
(lp2152
g69
(g70
g71
NtRp2153
(dp2154
g74
(dp2155
g82
I3
ssg83
g2149
sg76
(lp2156
S'2'
asbasbasbag69
(g85
g71
NtRp2157
(dp2158
g74
(dp2159
sg83
g2129
sg76
(lp2160
g69
(g90
g71
NtRp2161
(dp2162
g74
(dp2163
sg83
g2157
sg76
(lp2164
g69
(g70
g71
NtRp2165
(dp2166
g74
(dp2167
g82
I3
ssg83
g2161
sg76
(lp2168
S'1'
asbasbasbag69
(g85
g71
NtRp2169
(dp2170
g74
(dp2171
sg83
g2129
sg76
(lp2172
g69
(g90
g71
NtRp2173
(dp2174
g74
(dp2175
sg83
g2169
sg76
(lp2176
g69
(g70
g71
NtRp2177
(dp2178
g74
(dp2179
g82
I3
ssg83
g2173
sg76
(lp2180
S'datetime.datetime(2012, 10, 21, 16, 57, 4)'
p2181
asbasbasbag69
(g85
g71
NtRp2182
(dp2183
g74
(dp2184
sg83
g2129
sg76
(lp2185
g69
(g90
g71
NtRp2186
(dp2187
g74
(dp2188
sg83
g2182
sg76
(lp2189
g69
(g70
g71
NtRp2190
(dp2191
g74
(dp2192
g82
I3
ssg83
g2186
sg76
(lp2193
g1520
asbasbasbasbasbasbasbasbasbasbasbag69
(g85
g71
NtRp2194
(dp2195
g74
(dp2196
sg83
g79
sg76
(lp2197
g69
(g90
g71
NtRp2198
(dp2199
g74
(dp2200
g94
g95
ssg83
g2194
sg76
(lp2201
S'is_https'
p2202
asbag69
(g90
g71
NtRp2203
(dp2204
g74
(dp2205
g101
g102
ssg83
g2194
sg76
(lp2206
S':'
asbag69
(g90
g71
NtRp2207
(dp2208
g74
(dp2209
sg83
g2194
sg76
(lp2210
g69
(g70
g71
NtRp2211
(dp2212
g74
(dp2213
g82
I5
ssg83
g2207
sg76
(lp2214
g112
asbasbasbag69
(g85
g71
NtRp2215
(dp2216
g74
(dp2217
sg83
g79
sg76
(lp2218
g69
(g90
g71
NtRp2219
(dp2220
g74
(dp2221
g94
g95
ssg83
g2215
sg76
(lp2222
S'is_local'
p2223
asbag69
(g90
g71
NtRp2224
(dp2225
g74
(dp2226
g101
g102
ssg83
g2215
sg76
(lp2227
S':'
asbag69
(g90
g71
NtRp2228
(dp2229
g74
(dp2230
sg83
g2215
sg76
(lp2231
g69
(g70
g71
NtRp2232
(dp2233
g74
(dp2234
g82
I5
ssg83
g2228
sg76
(lp2235
g1629
asbasbasbag69
(g85
g71
NtRp2236
(dp2237
g74
(dp2238
sg83
g79
sg76
(lp2239
g69
(g90
g71
NtRp2240
(dp2241
g74
(dp2242
g94
g95
ssg83
g2236
sg76
(lp2243
S'is_restful'
p2244
asbag69
(g90
g71
NtRp2245
(dp2246
g74
(dp2247
g101
g102
ssg83
g2236
sg76
(lp2248
S':'
asbag69
(g90
g71
NtRp2249
(dp2250
g74
(dp2251
sg83
g2236
sg76
(lp2252
g69
(g70
g71
NtRp2253
(dp2254
g74
(dp2255
g82
I5
ssg83
g2249
sg76
(lp2256
g112
asbasbasbag69
(g85
g71
NtRp2257
(dp2258
g74
(dp2259
sg83
g79
sg76
(lp2260
g69
(g90
g71
NtRp2261
(dp2262
g74
(dp2263
g94
g95
ssg83
g2257
sg76
(lp2264
S'now'
p2265
asbag69
(g90
g71
NtRp2266
(dp2267
g74
(dp2268
g101
g102
ssg83
g2257
sg76
(lp2269
S':'
asbag69
(g90
g71
NtRp2270
(dp2271
g74
(dp2272
sg83
g2257
sg76
(lp2273
g69
(g70
g71
NtRp2274
(dp2275
g74
(dp2276
g82
I5
ssg83
g2270
sg76
(lp2277
S'datetime.datetime(2013, 5, 3, 10, 18, 20, 590884)'
p2278
asbasbasbag69
(g85
g71
NtRp2279
(dp2280
g74
(dp2281
sg83
g79
sg76
(lp2282
g69
(g90
g71
NtRp2283
(dp2284
g74
(dp2285
g94
g95
ssg83
g2279
sg76
(lp2286
S'post_vars'
p2287
asbag69
(g90
g71
NtRp2288
(dp2289
g74
(dp2290
g101
g102
ssg83
g2279
sg76
(lp2291
S':'
asbag69
(g90
g71
NtRp2292
(dp2293
g74
(dp2294
sg83
g2279
sg76
(lp2295
g69
(g70
g71
NtRp2296
(dp2297
g74
(dp2298
g82
I5
ssg83
g2292
sg76
(lp2299
g69
(g78
g71
NtRp2300
(dp2301
g74
(dp2302
g82
I4
ssg83
Nsg76
(lp2303
sbasbasbasbag69
(g85
g71
NtRp2304
(dp2305
g74
(dp2306
sg83
g79
sg76
(lp2307
g69
(g90
g71
NtRp2308
(dp2309
g74
(dp2310
g94
g95
ssg83
g2304
sg76
(lp2311
S'raw_args'
p2312
asbag69
(g90
g71
NtRp2313
(dp2314
g74
(dp2315
g101
g102
ssg83
g2304
sg76
(lp2316
S':'
asbag69
(g90
g71
NtRp2317
(dp2318
g74
(dp2319
sg83
g2304
sg76
(lp2320
g69
(g70
g71
NtRp2321
(dp2322
g74
(dp2323
g82
I5
ssg83
g2317
sg76
(lp2324
S'/235'
p2325
asbasbasbag69
(g85
g71
NtRp2326
(dp2327
g74
(dp2328
sg83
g79
sg76
(lp2329
g69
(g90
g71
NtRp2330
(dp2331
g74
(dp2332
g94
g95
ssg83
g2326
sg76
(lp2333
S'raw_extension'
p2334
asbag69
(g90
g71
NtRp2335
(dp2336
g74
(dp2337
g101
g102
ssg83
g2326
sg76
(lp2338
S':'
asbag69
(g90
g71
NtRp2339
(dp2340
g74
(dp2341
sg83
g2326
sg76
(lp2342
g69
(g70
g71
NtRp2343
(dp2344
g74
(dp2345
g82
I5
ssg83
g2339
sg76
(lp2346
S'None'
p2347
asbasbasbag69
(g85
g71
NtRp2348
(dp2349
g74
(dp2350
sg83
g79
sg76
(lp2351
g69
(g90
g71
NtRp2352
(dp2353
g74
(dp2354
g94
g95
ssg83
g2348
sg76
(lp2355
S'url'
p2356
asbag69
(g90
g71
NtRp2357
(dp2358
g74
(dp2359
g101
g102
ssg83
g2348
sg76
(lp2360
S':'
asbag69
(g90
g71
NtRp2361
(dp2362
g74
(dp2363
sg83
g2348
sg76
(lp2364
g69
(g70
g71
NtRp2365
(dp2366
g74
(dp2367
g82
I5
ssg83
g2361
sg76
(lp2368
g1197
asbasbasbag69
(g85
g71
NtRp2369
(dp2370
g74
(dp2371
sg83
g79
sg76
(lp2372
g69
(g90
g71
NtRp2373
(dp2374
g74
(dp2375
g94
g95
ssg83
g2369
sg76
(lp2376
S'utcnow'
p2377
asbag69
(g90
g71
NtRp2378
(dp2379
g74
(dp2380
g101
g102
ssg83
g2369
sg76
(lp2381
S':'
asbag69
(g90
g71
NtRp2382
(dp2383
g74
(dp2384
sg83
g2369
sg76
(lp2385
g69
(g70
g71
NtRp2386
(dp2387
g74
(dp2388
g82
I5
ssg83
g2382
sg76
(lp2389
S'datetime.datetime(2013, 5, 3, 15, 18, 20, 590900)'
p2390
asbasbasbag69
(g85
g71
NtRp2391
(dp2392
g74
(dp2393
sg83
g79
sg76
(lp2394
g69
(g90
g71
NtRp2395
(dp2396
g74
(dp2397
g94
g95
ssg83
g2391
sg76
(lp2398
S'uuid'
p2399
asbag69
(g90
g71
NtRp2400
(dp2401
g74
(dp2402
g101
g102
ssg83
g2391
sg76
(lp2403
S':'
asbag69
(g90
g71
NtRp2404
(dp2405
g74
(dp2406
sg83
g2391
sg76
(lp2407
g69
(g70
g71
NtRp2408
(dp2409
g74
(dp2410
g82
I5
ssg83
g2404
sg76
(lp2411
S'Betsy/127.0.0.1.2013-05-03.10-18-20.73bc38b2-2a49-4828-8d80-079c593e7280'
p2412
asbasbasbag69
(g85
g71
NtRp2413
(dp2414
g74
(dp2415
sg83
g79
sg76
(lp2416
g69
(g90
g71
NtRp2417
(dp2418
g74
(dp2419
g94
g95
ssg83
g2413
sg76
(lp2420
S'vars'
p2421
asbag69
(g90
g71
NtRp2422
(dp2423
g74
(dp2424
g101
g102
ssg83
g2413
sg76
(lp2425
S':'
asbag69
(g90
g71
NtRp2426
(dp2427
g74
(dp2428
sg83
g2413
sg76
(lp2429
g69
(g70
g71
NtRp2430
(dp2431
g74
(dp2432
g82
I5
ssg83
g2426
sg76
(lp2433
g69
(g78
g71
NtRp2434
(dp2435
g74
(dp2436
g82
I4
ssg83
Nsg76
(lp2437
sbasbasbasbag69
(g85
g71
NtRp2438
(dp2439
g74
(dp2440
sg83
g79
sg76
(lp2441
g69
(g90
g71
NtRp2442
(dp2443
g74
(dp2444
g94
g95
ssg83
g2438
sg76
(lp2445
S'wsgi'
p2446
asbag69
(g90
g71
NtRp2447
(dp2448
g74
(dp2449
g101
g102
ssg83
g2438
sg76
(lp2450
S':'
asbag69
(g90
g71
NtRp2451
(dp2452
g74
(dp2453
sg83
g2438
sg76
(lp2454
g69
(g70
g71
NtRp2455
(dp2456
g74
(dp2457
g82
I5
ssg83
g2451
sg76
(lp2458
g69
(g78
g71
NtRp2459
(dp2460
g74
(dp2461
g82
I4
ssg83
Nsg76
(lp2462
g69
(g85
g71
NtRp2463
(dp2464
g74
(dp2465
sg83
g2459
sg76
(lp2466
g69
(g90
g71
NtRp2467
(dp2468
g74
(dp2469
g94
g95
ssg83
g2463
sg76
(lp2470
S'environ'
p2471
asbag69
(g90
g71
NtRp2472
(dp2473
g74
(dp2474
g101
g102
ssg83
g2463
sg76
(lp2475
S':'
asbag69
(g90
g71
NtRp2476
(dp2477
g74
(dp2478
sg83
g2463
sg76
(lp2479
g69
(g70
g71
NtRp2480
(dp2481
g74
(dp2482
g82
I4
ssg83
g2476
sg76
(lp2483
g69
(g78
g71
NtRp2484
(dp2485
g74
(dp2486
g82
I3
ssg83
Nsg76
(lp2487
g69
(g85
g71
NtRp2488
(dp2489
g74
(dp2490
sg83
g2484
sg76
(lp2491
g69
(g90
g71
NtRp2492
(dp2493
g74
(dp2494
g94
g95
ssg83
g2488
sg76
(lp2495
S'HTTP_ACCEPT'
p2496
asbag69
(g90
g71
NtRp2497
(dp2498
g74
(dp2499
g101
g102
ssg83
g2488
sg76
(lp2500
S':'
asbag69
(g90
g71
NtRp2501
(dp2502
g74
(dp2503
sg83
g2488
sg76
(lp2504
g69
(g70
g71
NtRp2505
(dp2506
g74
(dp2507
g82
I3
ssg83
g2501
sg76
(lp2508
g867
asbasbasbag69
(g85
g71
NtRp2509
(dp2510
g74
(dp2511
sg83
g2484
sg76
(lp2512
g69
(g90
g71
NtRp2513
(dp2514
g74
(dp2515
g94
g95
ssg83
g2509
sg76
(lp2516
S'HTTP_ACCEPT_ENCODING'
p2517
asbag69
(g90
g71
NtRp2518
(dp2519
g74
(dp2520
g101
g102
ssg83
g2509
sg76
(lp2521
S':'
asbag69
(g90
g71
NtRp2522
(dp2523
g74
(dp2524
sg83
g2509
sg76
(lp2525
g69
(g70
g71
NtRp2526
(dp2527
g74
(dp2528
g82
I3
ssg83
g2522
sg76
(lp2529
g889
asbasbasbag69
(g85
g71
NtRp2530
(dp2531
g74
(dp2532
sg83
g2484
sg76
(lp2533
g69
(g90
g71
NtRp2534
(dp2535
g74
(dp2536
g94
g95
ssg83
g2530
sg76
(lp2537
S'HTTP_ACCEPT_LANGUAGE'
p2538
asbag69
(g90
g71
NtRp2539
(dp2540
g74
(dp2541
g101
g102
ssg83
g2530
sg76
(lp2542
S':'
asbag69
(g90
g71
NtRp2543
(dp2544
g74
(dp2545
sg83
g2530
sg76
(lp2546
g69
(g70
g71
NtRp2547
(dp2548
g74
(dp2549
g82
I3
ssg83
g2543
sg76
(lp2550
g911
asbasbasbag69
(g85
g71
NtRp2551
(dp2552
g74
(dp2553
sg83
g2484
sg76
(lp2554
g69
(g90
g71
NtRp2555
(dp2556
g74
(dp2557
g94
g95
ssg83
g2551
sg76
(lp2558
S'HTTP_CACHE_CONTROL'
p2559
asbag69
(g90
g71
NtRp2560
(dp2561
g74
(dp2562
g101
g102
ssg83
g2551
sg76
(lp2563
S':'
asbag69
(g90
g71
NtRp2564
(dp2565
g74
(dp2566
sg83
g2551
sg76
(lp2567
g69
(g70
g71
NtRp2568
(dp2569
g74
(dp2570
g82
I3
ssg83
g2564
sg76
(lp2571
g933
asbasbasbag69
(g85
g71
NtRp2572
(dp2573
g74
(dp2574
sg83
g2484
sg76
(lp2575
g69
(g90
g71
NtRp2576
(dp2577
g74
(dp2578
g94
g95
ssg83
g2572
sg76
(lp2579
S'HTTP_CONNECTION'
p2580
asbag69
(g90
g71
NtRp2581
(dp2582
g74
(dp2583
g101
g102
ssg83
g2572
sg76
(lp2584
S':'
asbag69
(g90
g71
NtRp2585
(dp2586
g74
(dp2587
sg83
g2572
sg76
(lp2588
g69
(g70
g71
NtRp2589
(dp2590
g74
(dp2591
g82
I3
ssg83
g2585
sg76
(lp2592
g955
asbasbasbag69
(g85
g71
NtRp2593
(dp2594
g74
(dp2595
sg83
g2484
sg76
(lp2596
g69
(g90
g71
NtRp2597
(dp2598
g74
(dp2599
g94
g95
ssg83
g2593
sg76
(lp2600
S'HTTP_COOKIE'
p2601
asbag69
(g90
g71
NtRp2602
(dp2603
g74
(dp2604
g101
g102
ssg83
g2593
sg76
(lp2605
S':'
asbag69
(g90
g71
NtRp2606
(dp2607
g74
(dp2608
sg83
g2593
sg76
(lp2609
g69
(g70
g71
NtRp2610
(dp2611
g74
(dp2612
g82
I3
ssg83
g2606
sg76
(lp2613
g977
asbasbasbag69
(g85
g71
NtRp2614
(dp2615
g74
(dp2616
sg83
g2484
sg76
(lp2617
g69
(g90
g71
NtRp2618
(dp2619
g74
(dp2620
g94
g95
ssg83
g2614
sg76
(lp2621
S'HTTP_HOST'
p2622
asbag69
(g90
g71
NtRp2623
(dp2624
g74
(dp2625
g101
g102
ssg83
g2614
sg76
(lp2626
S':'
asbag69
(g90
g71
NtRp2627
(dp2628
g74
(dp2629
sg83
g2614
sg76
(lp2630
g69
(g70
g71
NtRp2631
(dp2632
g74
(dp2633
g82
I3
ssg83
g2627
sg76
(lp2634
g999
asbasbasbag69
(g85
g71
NtRp2635
(dp2636
g74
(dp2637
sg83
g2484
sg76
(lp2638
g69
(g90
g71
NtRp2639
(dp2640
g74
(dp2641
g94
g95
ssg83
g2635
sg76
(lp2642
S'HTTP_REFERER'
p2643
asbag69
(g90
g71
NtRp2644
(dp2645
g74
(dp2646
g101
g102
ssg83
g2635
sg76
(lp2647
S':'
asbag69
(g90
g71
NtRp2648
(dp2649
g74
(dp2650
sg83
g2635
sg76
(lp2651
g69
(g70
g71
NtRp2652
(dp2653
g74
(dp2654
g82
I3
ssg83
g2648
sg76
(lp2655
g1021
asbasbasbag69
(g85
g71
NtRp2656
(dp2657
g74
(dp2658
sg83
g2484
sg76
(lp2659
g69
(g90
g71
NtRp2660
(dp2661
g74
(dp2662
g94
g95
ssg83
g2656
sg76
(lp2663
S'HTTP_USER_AGENT'
p2664
asbag69
(g90
g71
NtRp2665
(dp2666
g74
(dp2667
g101
g102
ssg83
g2656
sg76
(lp2668
S':'
asbag69
(g90
g71
NtRp2669
(dp2670
g74
(dp2671
sg83
g2656
sg76
(lp2672
g69
(g70
g71
NtRp2673
(dp2674
g74
(dp2675
g82
I3
ssg83
g2669
sg76
(lp2676
g1043
asbasbasbag69
(g85
g71
NtRp2677
(dp2678
g74
(dp2679
sg83
g2484
sg76
(lp2680
g69
(g90
g71
NtRp2681
(dp2682
g74
(dp2683
g94
g95
ssg83
g2677
sg76
(lp2684
S'PATH_INFO'
p2685
asbag69
(g90
g71
NtRp2686
(dp2687
g74
(dp2688
g101
g102
ssg83
g2677
sg76
(lp2689
S':'
asbag69
(g90
g71
NtRp2690
(dp2691
g74
(dp2692
sg83
g2677
sg76
(lp2693
g69
(g70
g71
NtRp2694
(dp2695
g74
(dp2696
g82
I3
ssg83
g2690
sg76
(lp2697
g1197
asbasbasbag69
(g85
g71
NtRp2698
(dp2699
g74
(dp2700
sg83
g2484
sg76
(lp2701
g69
(g90
g71
NtRp2702
(dp2703
g74
(dp2704
g94
g95
ssg83
g2698
sg76
(lp2705
S'QUERY_STRING'
p2706
asbag69
(g90
g71
NtRp2707
(dp2708
g74
(dp2709
g101
g102
ssg83
g2698
sg76
(lp2710
S':'
asbag69
(g90
g71
NtRp2711
(dp2712
g74
(dp2713
sg83
g2698
sg76
(lp2714
g69
(g70
g71
NtRp2715
(dp2716
g74
(dp2717
g82
I3
ssg83
g2711
sg76
(lp2718
S''
asbasbasbag69
(g85
g71
NtRp2719
(dp2720
g74
(dp2721
sg83
g2484
sg76
(lp2722
g69
(g90
g71
NtRp2723
(dp2724
g74
(dp2725
g94
g95
ssg83
g2719
sg76
(lp2726
S'REMOTE_ADDR'
p2727
asbag69
(g90
g71
NtRp2728
(dp2729
g74
(dp2730
g101
g102
ssg83
g2719
sg76
(lp2731
S':'
asbag69
(g90
g71
NtRp2732
(dp2733
g74
(dp2734
sg83
g2719
sg76
(lp2735
g69
(g70
g71
NtRp2736
(dp2737
g74
(dp2738
g82
I3
ssg83
g2732
sg76
(lp2739
g237
asbasbasbag69
(g85
g71
NtRp2740
(dp2741
g74
(dp2742
sg83
g2484
sg76
(lp2743
g69
(g90
g71
NtRp2744
(dp2745
g74
(dp2746
g94
g95
ssg83
g2740
sg76
(lp2747
S'REMOTE_PORT'
p2748
asbag69
(g90
g71
NtRp2749
(dp2750
g74
(dp2751
g101
g102
ssg83
g2740
sg76
(lp2752
S':'
asbag69
(g90
g71
NtRp2753
(dp2754
g74
(dp2755
sg83
g2740
sg76
(lp2756
g69
(g70
g71
NtRp2757
(dp2758
g74
(dp2759
g82
I3
ssg83
g2753
sg76
(lp2760
g1261
asbasbasbag69
(g85
g71
NtRp2761
(dp2762
g74
(dp2763
sg83
g2484
sg76
(lp2764
g69
(g90
g71
NtRp2765
(dp2766
g74
(dp2767
g94
g95
ssg83
g2761
sg76
(lp2768
S'REQUEST_METHOD'
p2769
asbag69
(g90
g71
NtRp2770
(dp2771
g74
(dp2772
g101
g102
ssg83
g2761
sg76
(lp2773
S':'
asbag69
(g90
g71
NtRp2774
(dp2775
g74
(dp2776
sg83
g2761
sg76
(lp2777
g69
(g70
g71
NtRp2778
(dp2779
g74
(dp2780
g82
I3
ssg83
g2774
sg76
(lp2781
g1283
asbasbasbag69
(g85
g71
NtRp2782
(dp2783
g74
(dp2784
sg83
g2484
sg76
(lp2785
g69
(g90
g71
NtRp2786
(dp2787
g74
(dp2788
g94
g95
ssg83
g2782
sg76
(lp2789
S'REQUEST_URI'
p2790
asbag69
(g90
g71
NtRp2791
(dp2792
g74
(dp2793
g101
g102
ssg83
g2782
sg76
(lp2794
S':'
asbag69
(g90
g71
NtRp2795
(dp2796
g74
(dp2797
sg83
g2782
sg76
(lp2798
g69
(g70
g71
NtRp2799
(dp2800
g74
(dp2801
g82
I3
ssg83
g2795
sg76
(lp2802
g1197
asbasbasbag69
(g85
g71
NtRp2803
(dp2804
g74
(dp2805
sg83
g2484
sg76
(lp2806
g69
(g90
g71
NtRp2807
(dp2808
g74
(dp2809
g94
g95
ssg83
g2803
sg76
(lp2810
S'SCRIPT_NAME'
p2811
asbag69
(g90
g71
NtRp2812
(dp2813
g74
(dp2814
g101
g102
ssg83
g2803
sg76
(lp2815
S':'
asbag69
(g90
g71
NtRp2816
(dp2817
g74
(dp2818
sg83
g2803
sg76
(lp2819
g69
(g70
g71
NtRp2820
(dp2821
g74
(dp2822
g82
I3
ssg83
g2816
sg76
(lp2823
S''
asbasbasbag69
(g85
g71
NtRp2824
(dp2825
g74
(dp2826
sg83
g2484
sg76
(lp2827
g69
(g90
g71
NtRp2828
(dp2829
g74
(dp2830
g94
g95
ssg83
g2824
sg76
(lp2831
S'SERVER_NAME'
p2832
asbag69
(g90
g71
NtRp2833
(dp2834
g74
(dp2835
g101
g102
ssg83
g2824
sg76
(lp2836
S':'
asbag69
(g90
g71
NtRp2837
(dp2838
g74
(dp2839
sg83
g2824
sg76
(lp2840
g69
(g70
g71
NtRp2841
(dp2842
g74
(dp2843
g82
I3
ssg83
g2837
sg76
(lp2844
g1162
asbasbasbag69
(g85
g71
NtRp2845
(dp2846
g74
(dp2847
sg83
g2484
sg76
(lp2848
g69
(g90
g71
NtRp2849
(dp2850
g74
(dp2851
g94
g95
ssg83
g2845
sg76
(lp2852
S'SERVER_PORT'
p2853
asbag69
(g90
g71
NtRp2854
(dp2855
g74
(dp2856
g101
g102
ssg83
g2845
sg76
(lp2857
S':'
asbag69
(g90
g71
NtRp2858
(dp2859
g74
(dp2860
sg83
g2845
sg76
(lp2861
g69
(g70
g71
NtRp2862
(dp2863
g74
(dp2864
g82
I3
ssg83
g2858
sg76
(lp2865
g1368
asbasbasbag69
(g85
g71
NtRp2866
(dp2867
g74
(dp2868
sg83
g2484
sg76
(lp2869
g69
(g90
g71
NtRp2870
(dp2871
g74
(dp2872
g94
g95
ssg83
g2866
sg76
(lp2873
S'SERVER_PROTOCOL'
p2874
asbag69
(g90
g71
NtRp2875
(dp2876
g74
(dp2877
g101
g102
ssg83
g2866
sg76
(lp2878
S':'
asbag69
(g90
g71
NtRp2879
(dp2880
g74
(dp2881
sg83
g2866
sg76
(lp2882
g69
(g70
g71
NtRp2883
(dp2884
g74
(dp2885
g82
I3
ssg83
g2879
sg76
(lp2886
g1390
asbasbasbag69
(g85
g71
NtRp2887
(dp2888
g74
(dp2889
sg83
g2484
sg76
(lp2890
g69
(g90
g71
NtRp2891
(dp2892
g74
(dp2893
g94
g95
ssg83
g2887
sg76
(lp2894
S'SERVER_SOFTWARE'
p2895
asbag69
(g90
g71
NtRp2896
(dp2897
g74
(dp2898
g101
g102
ssg83
g2887
sg76
(lp2899
S':'
asbag69
(g90
g71
NtRp2900
(dp2901
g74
(dp2902
sg83
g2887
sg76
(lp2903
g69
(g70
g71
NtRp2904
(dp2905
g74
(dp2906
g82
I3
ssg83
g2900
sg76
(lp2907
g1412
asbasbasbag69
(g85
g71
NtRp2908
(dp2909
g74
(dp2910
sg83
g2484
sg76
(lp2911
g69
(g90
g71
NtRp2912
(dp2913
g74
(dp2914
g94
g95
ssg83
g2908
sg76
(lp2915
S'wsgi.errors'
p2916
asbag69
(g90
g71
NtRp2917
(dp2918
g74
(dp2919
g101
g102
ssg83
g2908
sg76
(lp2920
S':'
asbag69
(g90
g71
NtRp2921
(dp2922
g74
(dp2923
sg83
g2908
sg76
(lp2924
g69
(g70
g71
NtRp2925
(dp2926
g74
(dp2927
g82
I3
ssg83
g2921
sg76
(lp2928
S"<open file '<stderr>', mode 'w' at 0x2b30eb745270>"
p2929
asbasbasbag69
(g85
g71
NtRp2930
(dp2931
g74
(dp2932
sg83
g2484
sg76
(lp2933
g69
(g90
g71
NtRp2934
(dp2935
g74
(dp2936
g94
g95
ssg83
g2930
sg76
(lp2937
S'wsgi.file_wrapper'
p2938
asbag69
(g90
g71
NtRp2939
(dp2940
g74
(dp2941
g101
g102
ssg83
g2930
sg76
(lp2942
S':'
asbag69
(g90
g71
NtRp2943
(dp2944
g74
(dp2945
sg83
g2930
sg76
(lp2946
g69
(g70
g71
NtRp2947
(dp2948
g74
(dp2949
g82
I3
ssg83
g2943
sg76
(lp2950
S'<class wsgiref.util.FileWrapper at 0x115f6a78>'
p2951
asbasbasbag69
(g85
g71
NtRp2952
(dp2953
g74
(dp2954
sg83
g2484
sg76
(lp2955
g69
(g90
g71
NtRp2956
(dp2957
g74
(dp2958
g94
g95
ssg83
g2952
sg76
(lp2959
S'wsgi.input'
p2960
asbag69
(g90
g71
NtRp2961
(dp2962
g74
(dp2963
g101
g102
ssg83
g2952
sg76
(lp2964
S':'
asbag69
(g90
g71
NtRp2965
(dp2966
g74
(dp2967
sg83
g2952
sg76
(lp2968
g69
(g70
g71
NtRp2969
(dp2970
g74
(dp2971
g82
I3
ssg83
g2965
sg76
(lp2972
S'<cStringIO.StringO object at 0x12dfe810>'
p2973
asbasbasbag69
(g85
g71
NtRp2974
(dp2975
g74
(dp2976
sg83
g2484
sg76
(lp2977
g69
(g90
g71
NtRp2978
(dp2979
g74
(dp2980
g94
g95
ssg83
g2974
sg76
(lp2981
S'wsgi.multiprocess'
p2982
asbag69
(g90
g71
NtRp2983
(dp2984
g74
(dp2985
g101
g102
ssg83
g2974
sg76
(lp2986
S':'
asbag69
(g90
g71
NtRp2987
(dp2988
g74
(dp2989
sg83
g2974
sg76
(lp2990
g69
(g70
g71
NtRp2991
(dp2992
g74
(dp2993
g82
I3
ssg83
g2987
sg76
(lp2994
g112
asbasbasbag69
(g85
g71
NtRp2995
(dp2996
g74
(dp2997
sg83
g2484
sg76
(lp2998
g69
(g90
g71
NtRp2999
(dp3000
g74
(dp3001
g94
g95
ssg83
g2995
sg76
(lp3002
S'wsgi.multithread'
p3003
asbag69
(g90
g71
NtRp3004
(dp3005
g74
(dp3006
g101
g102
ssg83
g2995
sg76
(lp3007
S':'
asbag69
(g90
g71
NtRp3008
(dp3009
g74
(dp3010
sg83
g2995
sg76
(lp3011
g69
(g70
g71
NtRp3012
(dp3013
g74
(dp3014
g82
I3
ssg83
g3008
sg76
(lp3015
g1629
asbasbasbag69
(g85
g71
NtRp3016
(dp3017
g74
(dp3018
sg83
g2484
sg76
(lp3019
g69
(g90
g71
NtRp3020
(dp3021
g74
(dp3022
g94
g95
ssg83
g3016
sg76
(lp3023
S'wsgi.run_once'
p3024
asbag69
(g90
g71
NtRp3025
(dp3026
g74
(dp3027
g101
g102
ssg83
g3016
sg76
(lp3028
S':'
asbag69
(g90
g71
NtRp3029
(dp3030
g74
(dp3031
sg83
g3016
sg76
(lp3032
g69
(g70
g71
NtRp3033
(dp3034
g74
(dp3035
g82
I3
ssg83
g3029
sg76
(lp3036
g112
asbasbasbag69
(g85
g71
NtRp3037
(dp3038
g74
(dp3039
sg83
g2484
sg76
(lp3040
g69
(g90
g71
NtRp3041
(dp3042
g74
(dp3043
g94
g95
ssg83
g3037
sg76
(lp3044
S'wsgi.url_scheme'
p3045
asbag69
(g90
g71
NtRp3046
(dp3047
g74
(dp3048
g101
g102
ssg83
g3037
sg76
(lp3049
S':'
asbag69
(g90
g71
NtRp3050
(dp3051
g74
(dp3052
sg83
g3037
sg76
(lp3053
g69
(g70
g71
NtRp3054
(dp3055
g74
(dp3056
g82
I3
ssg83
g3050
sg76
(lp3057
g1672
asbasbasbag69
(g85
g71
NtRp3058
(dp3059
g74
(dp3060
sg83
g2484
sg76
(lp3061
g69
(g90
g71
NtRp3062
(dp3063
g74
(dp3064
g94
g95
ssg83
g3058
sg76
(lp3065
S'wsgi.version'
p3066
asbag69
(g90
g71
NtRp3067
(dp3068
g74
(dp3069
g101
g102
ssg83
g3058
sg76
(lp3070
S':'
asbag69
(g90
g71
NtRp3071
(dp3072
g74
(dp3073
sg83
g3058
sg76
(lp3074
g69
(g70
g71
NtRp3075
(dp3076
g74
(dp3077
g82
I3
ssg83
g3071
sg76
(lp3078
S'1'
asbasbasbasbasbasbasbasbasbasbasbasbasbsS'frames'
p3079
(lp3080
(dp3081
S'file'
p3082
S'/home/xchen/web2py/gluon/restricted.py'
p3083
sS'dump'
p3084
(dp3085
S'environment'
p3086
S"{'A': <class 'gluon.html.A'>, 'Auth': <class 'gluon.tools.Auth'>, 'B': <class 'gluon.html.B'>, 'BEAUTIFY': <class 'gluon.html.BEAUTIFY'>, 'BODY': <class 'gluon.html.BODY'>, 'BR': <class 'gluon.html.BR'>, 'BUTTON': <class 'gluon.html.BUTTON'>, 'CAT': <class 'gluon.html.CAT'>, 'CENTER': <class 'gluon.html.CENTER'>, 'CLEANUP': <class 'gluon.validators.CLEANUP'>, ...}"
p3087
sS'ccode'
p3088
S'<code object <module> at 0x12f38a30, file "/home...tions/Betsy/views/default/show_job.html", line 1>'
p3089
ssS'lnum'
p3090
I212
sS'lines'
p3091
(dp3092
I207
S'    try:'
p3093
sI208
S'        if isinstance(code, types.CodeType):'
p3094
sI209
S'            ccode = code'
p3095
sI210
S'        else:'
p3096
sI211
S'            ccode = compile2(code, layer)'
p3097
sI212
S'        exec ccode in environment'
p3098
sI213
S'    except HTTP:'
p3099
sI214
S'        raise'
p3100
sI215
S'    except RestrictedError:'
p3101
sI216
S'        # do not encapsulate (obfuscate) the original RestrictedError'
p3102
ssS'call'
p3103
S'(code=\'response.write(\\\'<!DOCTYPE html>\\\\n<!-- paulirish...."></script>\\\\n</body>\\\\n</html>\\\\n\\\\n\\\', escape=False)\', environment={\'A\': <class \'gluon.html.A\'>, \'Auth\': <class \'gluon.tools.Auth\'>, \'B\': <class \'gluon.html.B\'>, \'BEAUTIFY\': <class \'gluon.html.BEAUTIFY\'>, \'BODY\': <class \'gluon.html.BODY\'>, \'BR\': <class \'gluon.html.BR\'>, \'BUTTON\': <class \'gluon.html.BUTTON\'>, \'CAT\': <class \'gluon.html.CAT\'>, \'CENTER\': <class \'gluon.html.CENTER\'>, \'CLEANUP\': <class \'gluon.validators.CLEANUP\'>, ...}, layer=\'/home/xchen/web2py/applications/Betsy/views/default/show_job.html\')'
p3104
sS'func'
p3105
S'restricted'
p3106
sa(dp3107
g3082
S'/home/xchen/web2py/applications/Betsy/views/default/show_job.html'
p3108
sg3084
(dp3109
sg3090
I93
sg3091
(dp3110
I96
S"    response.write('\\n', escape=False)"
p3111
sI97
S'    pass'
p3112
sI98
S"response.write('\\n', escape=False)"
p3113
sI99
S"response.write('\\n            ', escape=False)"
p3114
sI100
S"response.write('\\n        </div>\\n\\n        ', escape=False)"
p3115
sI101
S'if right_sidebar_enabled:'
p3116
sI102
S'    response.write(\'\\n        <div class="span3">\\n            \', escape=False)'
p3117
sI103
S"    response.write('\\n            <h3>Right Sidebar</h3>\\n            <p></p>\\n            ', escape=False)"
p3118
sI84
S"    response.write('\\n', escape=False)"
p3119
sI85
S'    if text[i]==newtext[i]:'
p3120
sI86
S"        response.write('\\n\\t\\t', escape=False)"
p3121
sI87
S'        response.write(text[i])'
p3122
sI88
S"        response.write('<br />\\n\\t', escape=False)"
p3123
sI89
S'    else:'
p3124
sI90
S"        response.write('\\n', escape=False)"
p3125
sI91
S"        response.write(A(newtext[i],_href=URL('result_folder',args=newtext[i])))"
p3126
sI92
S"        response.write('\\n ', escape=False)"
p3127
sI93
S"        response.write(P(A('Download',newtext[i],_href=URL(r=request,c='result_folder',f=newtext[i]))))"
p3128
sI94
S"        response.write('<br />\\n    ', escape=False)"
p3129
sI95
S'        pass'
p3130
ssg3103
S'()'
p3131
sg3105
S'<module>'
p3132
sa(dp3133
g3082
S'/home/xchen/web2py/gluon/html.py'
p3134
sg3084
(dp3135
sg3090
I275
sg3091
(dp3136
I270
S'        if not isinstance(f, str):'
p3137
sI271
S"            if hasattr(f, '__name__'):"
p3138
sI272
S'                function = f.__name__'
p3139
sI273
S'            else:'
p3140
sI274
S'                raise SyntaxError('
p3141
sI275
S"                    'when calling URL, function or function name required')"
p3142
sI276
S"        elif '/' in f:"
p3143
sI277
S'            if f.startswith("/"):'
p3144
sI278
S'                f = f[1:]'
p3145
sI279
S"            items = f.split('/')"
p3146
ssg3103
S"(a=None, c='result_folder', f=['annotate_probes_BETSYHASH1_3647ecb57328dd9ab3fbc1b34d025aca', 'signal_file_annot_path.b86ee99021db9bd2.616c6c5f616d6c5f746573745f66696c742e676374.txt'], r=<Storage {'function': 'show_job', 'body': <cStri...applications/Betsy/', 'post_vars': <Storage {}>}>, args=[], vars={}, anchor='', extension=None, env=<Storage {'debugging': False, 'http_user_agent':...[]), 'query_string': '', 'wsgi_run_once': False}>, hmac_key=None, hash_vars=True, salt=None, user_signature=None, scheme=None, host=None, port=None, encode_embedded_slash=False, url_encode=True)"
p3147
sg3105
S'URL'
p3148
sasS'pyver'
p3149
S'Python 2.7.3: /usr/local/bin/python'
p3150
sS'session'
p3151
g69
(g70
g71
NtRp3152
(dp3153
g74
(dp3154
sg76
(lp3155
g69
(g78
g71
NtRp3156
(dp3157
g74
(dp3158
g82
I5
ssg83
Nsg76
(lp3159
g69
(g85
g71
NtRp3160
(dp3161
g74
(dp3162
sg83
g3156
sg76
(lp3163
g69
(g90
g71
NtRp3164
(dp3165
g74
(dp3166
g94
g95
ssg83
g3160
sg76
(lp3167
S'auth'
p3168
asbag69
(g90
g71
NtRp3169
(dp3170
g74
(dp3171
g101
g102
ssg83
g3160
sg76
(lp3172
S':'
asbag69
(g90
g71
NtRp3173
(dp3174
g74
(dp3175
sg83
g3160
sg76
(lp3176
g69
(g70
g71
NtRp3177
(dp3178
g74
(dp3179
g82
I5
ssg83
g3173
sg76
(lp3180
g69
(g78
g71
NtRp3181
(dp3182
g74
(dp3183
g82
I4
ssg83
Nsg76
(lp3184
g69
(g85
g71
NtRp3185
(dp3186
g74
(dp3187
sg83
g3181
sg76
(lp3188
g69
(g90
g71
NtRp3189
(dp3190
g74
(dp3191
g94
g95
ssg83
g3185
sg76
(lp3192
S'expiration'
p3193
asbag69
(g90
g71
NtRp3194
(dp3195
g74
(dp3196
g101
g102
ssg83
g3185
sg76
(lp3197
S':'
asbag69
(g90
g71
NtRp3198
(dp3199
g74
(dp3200
sg83
g3185
sg76
(lp3201
g69
(g70
g71
NtRp3202
(dp3203
g74
(dp3204
g82
I4
ssg83
g3198
sg76
(lp3205
S'2592000'
p3206
asbasbasbag69
(g85
g71
NtRp3207
(dp3208
g74
(dp3209
sg83
g3181
sg76
(lp3210
g69
(g90
g71
NtRp3211
(dp3212
g74
(dp3213
g94
g95
ssg83
g3207
sg76
(lp3214
S'hmac_key'
p3215
asbag69
(g90
g71
NtRp3216
(dp3217
g74
(dp3218
g101
g102
ssg83
g3207
sg76
(lp3219
S':'
asbag69
(g90
g71
NtRp3220
(dp3221
g74
(dp3222
sg83
g3207
sg76
(lp3223
g69
(g70
g71
NtRp3224
(dp3225
g74
(dp3226
g82
I4
ssg83
g3220
sg76
(lp3227
S'e9ea9131-9ac8-41db-a091-de13324be4c9'
p3228
asbasbasbag69
(g85
g71
NtRp3229
(dp3230
g74
(dp3231
sg83
g3181
sg76
(lp3232
g69
(g90
g71
NtRp3233
(dp3234
g74
(dp3235
g94
g95
ssg83
g3229
sg76
(lp3236
S'last_visit'
p3237
asbag69
(g90
g71
NtRp3238
(dp3239
g74
(dp3240
g101
g102
ssg83
g3229
sg76
(lp3241
S':'
asbag69
(g90
g71
NtRp3242
(dp3243
g74
(dp3244
sg83
g3229
sg76
(lp3245
g69
(g70
g71
NtRp3246
(dp3247
g74
(dp3248
g82
I4
ssg83
g3242
sg76
(lp3249
S'datetime.datetime(2013, 5, 1, 14, 13, 30, 546601)'
p3250
asbasbasbag69
(g85
g71
NtRp3251
(dp3252
g74
(dp3253
sg83
g3181
sg76
(lp3254
g69
(g90
g71
NtRp3255
(dp3256
g74
(dp3257
g94
g95
ssg83
g3251
sg76
(lp3258
S'remember'
p3259
asbag69
(g90
g71
NtRp3260
(dp3261
g74
(dp3262
g101
g102
ssg83
g3251
sg76
(lp3263
S':'
asbag69
(g90
g71
NtRp3264
(dp3265
g74
(dp3266
sg83
g3251
sg76
(lp3267
g69
(g70
g71
NtRp3268
(dp3269
g74
(dp3270
g82
I4
ssg83
g3264
sg76
(lp3271
g1629
asbasbasbag69
(g85
g71
NtRp3272
(dp3273
g74
(dp3274
sg83
g3181
sg76
(lp3275
g69
(g90
g71
NtRp3276
(dp3277
g74
(dp3278
g94
g95
ssg83
g3272
sg76
(lp3279
S'user'
p3280
asbag69
(g90
g71
NtRp3281
(dp3282
g74
(dp3283
g101
g102
ssg83
g3272
sg76
(lp3284
S':'
asbag69
(g90
g71
NtRp3285
(dp3286
g74
(dp3287
sg83
g3272
sg76
(lp3288
g69
(g70
g71
NtRp3289
(dp3290
g74
(dp3291
g82
I4
ssg83
g3285
sg76
(lp3292
g69
(g78
g71
NtRp3293
(dp3294
g74
(dp3295
g82
I3
ssg83
Nsg76
(lp3296
g69
(g85
g71
NtRp3297
(dp3298
g74
(dp3299
sg83
g3293
sg76
(lp3300
g69
(g90
g71
NtRp3301
(dp3302
g74
(dp3303
g94
g95
ssg83
g3297
sg76
(lp3304
S'email'
p3305
asbag69
(g90
g71
NtRp3306
(dp3307
g74
(dp3308
g101
g102
ssg83
g3297
sg76
(lp3309
S':'
asbag69
(g90
g71
NtRp3310
(dp3311
g74
(dp3312
sg83
g3297
sg76
(lp3313
g69
(g70
g71
NtRp3314
(dp3315
g74
(dp3316
g82
I3
ssg83
g3310
sg76
(lp3317
S'xiaoling.chen@uth.tmc.edu'
p3318
asbasbasbag69
(g85
g71
NtRp3319
(dp3320
g74
(dp3321
sg83
g3293
sg76
(lp3322
g69
(g90
g71
NtRp3323
(dp3324
g74
(dp3325
g94
g95
ssg83
g3319
sg76
(lp3326
S'first_name'
p3327
asbag69
(g90
g71
NtRp3328
(dp3329
g74
(dp3330
g101
g102
ssg83
g3319
sg76
(lp3331
S':'
asbag69
(g90
g71
NtRp3332
(dp3333
g74
(dp3334
sg83
g3319
sg76
(lp3335
g69
(g70
g71
NtRp3336
(dp3337
g74
(dp3338
g82
I3
ssg83
g3332
sg76
(lp3339
S'Xiaoling'
p3340
asbasbasbag69
(g85
g71
NtRp3341
(dp3342
g74
(dp3343
sg83
g3293
sg76
(lp3344
g69
(g90
g71
NtRp3345
(dp3346
g74
(dp3347
g94
g95
ssg83
g3341
sg76
(lp3348
S'id'
p3349
asbag69
(g90
g71
NtRp3350
(dp3351
g74
(dp3352
g101
g102
ssg83
g3341
sg76
(lp3353
S':'
asbag69
(g90
g71
NtRp3354
(dp3355
g74
(dp3356
sg83
g3341
sg76
(lp3357
g69
(g70
g71
NtRp3358
(dp3359
g74
(dp3360
g82
I3
ssg83
g3354
sg76
(lp3361
S'1'
asbasbasbag69
(g85
g71
NtRp3362
(dp3363
g74
(dp3364
sg83
g3293
sg76
(lp3365
g69
(g90
g71
NtRp3366
(dp3367
g74
(dp3368
g94
g95
ssg83
g3362
sg76
(lp3369
S'last_name'
p3370
asbag69
(g90
g71
NtRp3371
(dp3372
g74
(dp3373
g101
g102
ssg83
g3362
sg76
(lp3374
S':'
asbag69
(g90
g71
NtRp3375
(dp3376
g74
(dp3377
sg83
g3362
sg76
(lp3378
g69
(g70
g71
NtRp3379
(dp3380
g74
(dp3381
g82
I3
ssg83
g3375
sg76
(lp3382
S'Chen'
p3383
asbasbasbag69
(g85
g71
NtRp3384
(dp3385
g74
(dp3386
sg83
g3293
sg76
(lp3387
g69
(g90
g71
NtRp3388
(dp3389
g74
(dp3390
g94
g95
ssg83
g3384
sg76
(lp3391
S'registration_id'
p3392
asbag69
(g90
g71
NtRp3393
(dp3394
g74
(dp3395
g101
g102
ssg83
g3384
sg76
(lp3396
S':'
asbag69
(g90
g71
NtRp3397
(dp3398
g74
(dp3399
sg83
g3384
sg76
(lp3400
g69
(g70
g71
NtRp3401
(dp3402
g74
(dp3403
g82
I3
ssg83
g3397
sg76
(lp3404
S''
asbasbasbag69
(g85
g71
NtRp3405
(dp3406
g74
(dp3407
sg83
g3293
sg76
(lp3408
g69
(g90
g71
NtRp3409
(dp3410
g74
(dp3411
g94
g95
ssg83
g3405
sg76
(lp3412
S'registration_key'
p3413
asbag69
(g90
g71
NtRp3414
(dp3415
g74
(dp3416
g101
g102
ssg83
g3405
sg76
(lp3417
S':'
asbag69
(g90
g71
NtRp3418
(dp3419
g74
(dp3420
sg83
g3405
sg76
(lp3421
g69
(g70
g71
NtRp3422
(dp3423
g74
(dp3424
g82
I3
ssg83
g3418
sg76
(lp3425
S''
asbasbasbag69
(g85
g71
NtRp3426
(dp3427
g74
(dp3428
sg83
g3293
sg76
(lp3429
g69
(g90
g71
NtRp3430
(dp3431
g74
(dp3432
g94
g95
ssg83
g3426
sg76
(lp3433
S'reset_password_key'
p3434
asbag69
(g90
g71
NtRp3435
(dp3436
g74
(dp3437
g101
g102
ssg83
g3426
sg76
(lp3438
S':'
asbag69
(g90
g71
NtRp3439
(dp3440
g74
(dp3441
sg83
g3426
sg76
(lp3442
g69
(g70
g71
NtRp3443
(dp3444
g74
(dp3445
g82
I3
ssg83
g3439
sg76
(lp3446
S''
asbasbasbasbasbasbasbag69
(g85
g71
NtRp3447
(dp3448
g74
(dp3449
sg83
g3181
sg76
(lp3450
g69
(g90
g71
NtRp3451
(dp3452
g74
(dp3453
g94
g95
ssg83
g3447
sg76
(lp3454
S'user_groups'
p3455
asbag69
(g90
g71
NtRp3456
(dp3457
g74
(dp3458
g101
g102
ssg83
g3447
sg76
(lp3459
S':'
asbag69
(g90
g71
NtRp3460
(dp3461
g74
(dp3462
sg83
g3447
sg76
(lp3463
g69
(g70
g71
NtRp3464
(dp3465
g74
(dp3466
g82
I4
ssg83
g3460
sg76
(lp3467
g69
(g78
g71
NtRp3468
(dp3469
g74
(dp3470
g82
I3
ssg83
Nsg76
(lp3471
g69
(g85
g71
NtRp3472
(dp3473
g74
(dp3474
sg83
g3468
sg76
(lp3475
g69
(g90
g71
NtRp3476
(dp3477
g74
(dp3478
g94
g95
ssg83
g3472
sg76
(lp3479
S'1'
asbag69
(g90
g71
NtRp3480
(dp3481
g74
(dp3482
g101
g102
ssg83
g3472
sg76
(lp3483
S':'
asbag69
(g90
g71
NtRp3484
(dp3485
g74
(dp3486
sg83
g3472
sg76
(lp3487
g69
(g70
g71
NtRp3488
(dp3489
g74
(dp3490
g82
I3
ssg83
g3484
sg76
(lp3491
S'user_1'
p3492
asbasbasbasbasbasbasbasbasbasbasbag69
(g85
g71
NtRp3493
(dp3494
g74
(dp3495
sg83
g3156
sg76
(lp3496
g69
(g90
g71
NtRp3497
(dp3498
g74
(dp3499
g94
g95
ssg83
g3493
sg76
(lp3500
S'flash'
p3501
asbag69
(g90
g71
NtRp3502
(dp3503
g74
(dp3504
g101
g102
ssg83
g3493
sg76
(lp3505
S':'
asbag69
(g90
g71
NtRp3506
(dp3507
g74
(dp3508
sg83
g3493
sg76
(lp3509
g69
(g70
g71
NtRp3510
(dp3511
g74
(dp3512
g82
I5
ssg83
g3506
sg76
(lp3513
S'None'
p3514
asbasbasbag69
(g85
g71
NtRp3515
(dp3516
g74
(dp3517
sg83
g3156
sg76
(lp3518
g69
(g90
g71
NtRp3519
(dp3520
g74
(dp3521
g94
g95
ssg83
g3515
sg76
(lp3522
S'input_file'
p3523
asbag69
(g90
g71
NtRp3524
(dp3525
g74
(dp3526
g101
g102
ssg83
g3515
sg76
(lp3527
S':'
asbag69
(g90
g71
NtRp3528
(dp3529
g74
(dp3530
sg83
g3515
sg76
(lp3531
g69
(g70
g71
NtRp3532
(dp3533
g74
(dp3534
g82
I5
ssg83
g3528
sg76
(lp3535
g69
(g78
g71
NtRp3536
(dp3537
g74
(dp3538
g82
I4
ssg83
Nsg76
(lp3539
g69
(g85
g71
NtRp3540
(dp3541
g74
(dp3542
sg83
g3536
sg76
(lp3543
g69
(g90
g71
NtRp3544
(dp3545
g74
(dp3546
sg83
g3540
sg76
(lp3547
g69
(g70
g71
NtRp3548
(dp3549
g74
(dp3550
g82
I4
ssg83
g3544
sg76
(lp3551
S'--input'
p3552
asbasbasbag69
(g85
g71
NtRp3553
(dp3554
g74
(dp3555
sg83
g3536
sg76
(lp3556
g69
(g90
g71
NtRp3557
(dp3558
g74
(dp3559
sg83
g3553
sg76
(lp3560
g69
(g70
g71
NtRp3561
(dp3562
g74
(dp3563
g82
I4
ssg83
g3557
sg76
(lp3564
S'input_signal_file:/home/xchen/chencode/upload/no_table.myfile0_path.b86ee99021db9bd2.616c6c5f616d6c5f746573745f66696c742e676374.gct'
p3565
asbasbasbasbasbasbasbag69
(g85
g71
NtRp3566
(dp3567
g74
(dp3568
sg83
g3156
sg76
(lp3569
g69
(g90
g71
NtRp3570
(dp3571
g74
(dp3572
g94
g95
ssg83
g3566
sg76
(lp3573
S'label'
p3574
asbag69
(g90
g71
NtRp3575
(dp3576
g74
(dp3577
g101
g102
ssg83
g3566
sg76
(lp3578
S':'
asbag69
(g90
g71
NtRp3579
(dp3580
g74
(dp3581
sg83
g3566
sg76
(lp3582
g69
(g70
g71
NtRp3583
(dp3584
g74
(dp3585
g82
I5
ssg83
g3579
sg76
(lp3586
S'normalize_file'
p3587
asbasbasbag69
(g85
g71
NtRp3588
(dp3589
g74
(dp3590
sg83
g3156
sg76
(lp3591
g69
(g90
g71
NtRp3592
(dp3593
g74
(dp3594
g94
g95
ssg83
g3588
sg76
(lp3595
S'output'
p3596
asbag69
(g90
g71
NtRp3597
(dp3598
g74
(dp3599
g101
g102
ssg83
g3588
sg76
(lp3600
S':'
asbag69
(g90
g71
NtRp3601
(dp3602
g74
(dp3603
sg83
g3588
sg76
(lp3604
g69
(g70
g71
NtRp3605
(dp3606
g74
(dp3607
g82
I5
ssg83
g3601
sg76
(lp3608
g69
(g78
g71
NtRp3609
(dp3610
g74
(dp3611
g82
I4
ssg83
Nsg76
(lp3612
sbasbasbasbag69
(g85
g71
NtRp3613
(dp3614
g74
(dp3615
sg83
g3156
sg76
(lp3616
g69
(g90
g71
NtRp3617
(dp3618
g74
(dp3619
g94
g95
ssg83
g3613
sg76
(lp3620
S'parameters'
p3621
asbag69
(g90
g71
NtRp3622
(dp3623
g74
(dp3624
g101
g102
ssg83
g3613
sg76
(lp3625
S':'
asbag69
(g90
g71
NtRp3626
(dp3627
g74
(dp3628
sg83
g3613
sg76
(lp3629
g69
(g70
g71
NtRp3630
(dp3631
g74
(dp3632
g82
I5
ssg83
g3626
sg76
(lp3633
g69
(g78
g71
NtRp3634
(dp3635
g74
(dp3636
g82
I4
ssg83
Nsg76
(lp3637
g69
(g85
g71
NtRp3638
(dp3639
g74
(dp3640
sg83
g3634
sg76
(lp3641
g69
(g90
g71
NtRp3642
(dp3643
g74
(dp3644
sg83
g3638
sg76
(lp3645
g69
(g70
g71
NtRp3646
(dp3647
g74
(dp3648
g82
I4
ssg83
g3642
sg76
(lp3649
S'--parameters'
p3650
asbasbasbag69
(g85
g71
NtRp3651
(dp3652
g74
(dp3653
sg83
g3634
sg76
(lp3654
g69
(g90
g71
NtRp3655
(dp3656
g74
(dp3657
sg83
g3651
sg76
(lp3658
g69
(g70
g71
NtRp3659
(dp3660
g74
(dp3661
g82
I4
ssg83
g3655
sg76
(lp3662
S'gene_center:no_gene_center'
p3663
asbasbasbag69
(g85
g71
NtRp3664
(dp3665
g74
(dp3666
sg83
g3634
sg76
(lp3667
g69
(g90
g71
NtRp3668
(dp3669
g74
(dp3670
sg83
g3664
sg76
(lp3671
g69
(g70
g71
NtRp3672
(dp3673
g74
(dp3674
g82
I4
ssg83
g3668
sg76
(lp3675
g3650
asbasbasbag69
(g85
g71
NtRp3676
(dp3677
g74
(dp3678
sg83
g3634
sg76
(lp3679
g69
(g90
g71
NtRp3680
(dp3681
g74
(dp3682
sg83
g3676
sg76
(lp3683
g69
(g70
g71
NtRp3684
(dp3685
g74
(dp3686
g82
I4
ssg83
g3680
sg76
(lp3687
S'gene_order:no_order'
p3688
asbasbasbag69
(g85
g71
NtRp3689
(dp3690
g74
(dp3691
sg83
g3634
sg76
(lp3692
g69
(g90
g71
NtRp3693
(dp3694
g74
(dp3695
sg83
g3689
sg76
(lp3696
g69
(g70
g71
NtRp3697
(dp3698
g74
(dp3699
g82
I4
ssg83
g3693
sg76
(lp3700
g3650
asbasbasbag69
(g85
g71
NtRp3701
(dp3702
g74
(dp3703
sg83
g3634
sg76
(lp3704
g69
(g90
g71
NtRp3705
(dp3706
g74
(dp3707
sg83
g3701
sg76
(lp3708
g69
(g70
g71
NtRp3709
(dp3710
g74
(dp3711
g82
I4
ssg83
g3705
sg76
(lp3712
S'gene_normalize:no_gene_normalize'
p3713
asbasbasbag69
(g85
g71
NtRp3714
(dp3715
g74
(dp3716
sg83
g3634
sg76
(lp3717
g69
(g90
g71
NtRp3718
(dp3719
g74
(dp3720
sg83
g3714
sg76
(lp3721
g69
(g70
g71
NtRp3722
(dp3723
g74
(dp3724
g82
I4
ssg83
g3718
sg76
(lp3725
g3650
asbasbasbag69
(g85
g71
NtRp3726
(dp3727
g74
(dp3728
sg83
g3634
sg76
(lp3729
g69
(g90
g71
NtRp3730
(dp3731
g74
(dp3732
sg83
g3726
sg76
(lp3733
g69
(g70
g71
NtRp3734
(dp3735
g74
(dp3736
g82
I4
ssg83
g3730
sg76
(lp3737
S'combat:no_combat'
p3738
asbasbasbag69
(g85
g71
NtRp3739
(dp3740
g74
(dp3741
sg83
g3634
sg76
(lp3742
g69
(g90
g71
NtRp3743
(dp3744
g74
(dp3745
sg83
g3739
sg76
(lp3746
g69
(g70
g71
NtRp3747
(dp3748
g74
(dp3749
g82
I4
ssg83
g3743
sg76
(lp3750
g3650
asbasbasbag69
(g85
g71
NtRp3751
(dp3752
g74
(dp3753
sg83
g3634
sg76
(lp3754
g69
(g90
g71
NtRp3755
(dp3756
g74
(dp3757
sg83
g3751
sg76
(lp3758
g69
(g70
g71
NtRp3759
(dp3760
g74
(dp3761
g82
I4
ssg83
g3755
sg76
(lp3762
S'quantile:no_quantile'
p3763
asbasbasbag69
(g85
g71
NtRp3764
(dp3765
g74
(dp3766
sg83
g3634
sg76
(lp3767
g69
(g90
g71
NtRp3768
(dp3769
g74
(dp3770
sg83
g3764
sg76
(lp3771
g69
(g70
g71
NtRp3772
(dp3773
g74
(dp3774
g82
I4
ssg83
g3768
sg76
(lp3775
g3650
asbasbasbag69
(g85
g71
NtRp3776
(dp3777
g74
(dp3778
sg83
g3634
sg76
(lp3779
g69
(g90
g71
NtRp3780
(dp3781
g74
(dp3782
sg83
g3776
sg76
(lp3783
g69
(g70
g71
NtRp3784
(dp3785
g74
(dp3786
g82
I4
ssg83
g3780
sg76
(lp3787
S'predataset:no_predataset'
p3788
asbasbasbag69
(g85
g71
NtRp3789
(dp3790
g74
(dp3791
sg83
g3634
sg76
(lp3792
g69
(g90
g71
NtRp3793
(dp3794
g74
(dp3795
sg83
g3789
sg76
(lp3796
g69
(g70
g71
NtRp3797
(dp3798
g74
(dp3799
g82
I4
ssg83
g3793
sg76
(lp3800
g3650
asbasbasbag69
(g85
g71
NtRp3801
(dp3802
g74
(dp3803
sg83
g3634
sg76
(lp3804
g69
(g90
g71
NtRp3805
(dp3806
g74
(dp3807
sg83
g3801
sg76
(lp3808
g69
(g70
g71
NtRp3809
(dp3810
g74
(dp3811
g82
I4
ssg83
g3805
sg76
(lp3812
S'dwd:no_dwd'
p3813
asbasbasbag69
(g85
g71
NtRp3814
(dp3815
g74
(dp3816
sg83
g3634
sg76
(lp3817
g69
(g90
g71
NtRp3818
(dp3819
g74
(dp3820
sg83
g3814
sg76
(lp3821
g69
(g70
g71
NtRp3822
(dp3823
g74
(dp3824
g82
I4
ssg83
g3818
sg76
(lp3825
g3650
asbasbasbag69
(g85
g71
NtRp3826
(dp3827
g74
(dp3828
sg83
g3634
sg76
(lp3829
g69
(g90
g71
NtRp3830
(dp3831
g74
(dp3832
sg83
g3826
sg76
(lp3833
g69
(g70
g71
NtRp3834
(dp3835
g74
(dp3836
g82
I4
ssg83
g3830
sg76
(lp3837
S'preprocess:unknown_preprocess'
p3838
asbasbasbag69
(g85
g71
NtRp3839
(dp3840
g74
(dp3841
sg83
g3634
sg76
(lp3842
g69
(g90
g71
NtRp3843
(dp3844
g74
(dp3845
sg83
g3839
sg76
(lp3846
g69
(g70
g71
NtRp3847
(dp3848
g74
(dp3849
g82
I4
ssg83
g3843
sg76
(lp3850
g3650
asbasbasbag69
(g85
g71
NtRp3851
(dp3852
g74
(dp3853
sg83
g3634
sg76
(lp3854
g69
(g90
g71
NtRp3855
(dp3856
g74
(dp3857
sg83
g3851
sg76
(lp3858
g69
(g70
g71
NtRp3859
(dp3860
g74
(dp3861
g82
I4
ssg83
g3855
sg76
(lp3862
S'unique_genes:no_unique_genes'
p3863
asbasbasbag69
(g85
g71
NtRp3864
(dp3865
g74
(dp3866
sg83
g3634
sg76
(lp3867
g69
(g90
g71
NtRp3868
(dp3869
g74
(dp3870
sg83
g3864
sg76
(lp3871
g69
(g70
g71
NtRp3872
(dp3873
g74
(dp3874
g82
I4
ssg83
g3868
sg76
(lp3875
g3650
asbasbasbag69
(g85
g71
NtRp3876
(dp3877
g74
(dp3878
sg83
g3634
sg76
(lp3879
g69
(g90
g71
NtRp3880
(dp3881
g74
(dp3882
sg83
g3876
sg76
(lp3883
g69
(g70
g71
NtRp3884
(dp3885
g74
(dp3886
g82
I4
ssg83
g3880
sg76
(lp3887
S'rename_sample:no_rename'
p3888
asbasbasbag69
(g85
g71
NtRp3889
(dp3890
g74
(dp3891
sg83
g3634
sg76
(lp3892
g69
(g90
g71
NtRp3893
(dp3894
g74
(dp3895
sg83
g3889
sg76
(lp3896
g69
(g70
g71
NtRp3897
(dp3898
g74
(dp3899
g82
I4
ssg83
g3893
sg76
(lp3900
g3650
asbasbasbag69
(g85
g71
NtRp3901
(dp3902
g74
(dp3903
sg83
g3634
sg76
(lp3904
g69
(g90
g71
NtRp3905
(dp3906
g74
(dp3907
sg83
g3901
sg76
(lp3908
g69
(g70
g71
NtRp3909
(dp3910
g74
(dp3911
g82
I4
ssg83
g3905
sg76
(lp3912
S'has_missing_value:zero_fill'
p3913
asbasbasbag69
(g85
g71
NtRp3914
(dp3915
g74
(dp3916
sg83
g3634
sg76
(lp3917
g69
(g90
g71
NtRp3918
(dp3919
g74
(dp3920
sg83
g3914
sg76
(lp3921
g69
(g70
g71
NtRp3922
(dp3923
g74
(dp3924
g82
I4
ssg83
g3918
sg76
(lp3925
g3650
asbasbasbag69
(g85
g71
NtRp3926
(dp3927
g74
(dp3928
sg83
g3634
sg76
(lp3929
g69
(g90
g71
NtRp3930
(dp3931
g74
(dp3932
sg83
g3926
sg76
(lp3933
g69
(g70
g71
NtRp3934
(dp3935
g74
(dp3936
g82
I4
ssg83
g3930
sg76
(lp3937
S'format:tdf'
p3938
asbasbasbag69
(g85
g71
NtRp3939
(dp3940
g74
(dp3941
sg83
g3634
sg76
(lp3942
g69
(g90
g71
NtRp3943
(dp3944
g74
(dp3945
sg83
g3939
sg76
(lp3946
g69
(g70
g71
NtRp3947
(dp3948
g74
(dp3949
g82
I4
ssg83
g3943
sg76
(lp3950
g3650
asbasbasbag69
(g85
g71
NtRp3951
(dp3952
g74
(dp3953
sg83
g3634
sg76
(lp3954
g69
(g90
g71
NtRp3955
(dp3956
g74
(dp3957
sg83
g3951
sg76
(lp3958
g69
(g70
g71
NtRp3959
(dp3960
g74
(dp3961
g82
I4
ssg83
g3955
sg76
(lp3962
S'num_features:0'
p3963
asbasbasbag69
(g85
g71
NtRp3964
(dp3965
g74
(dp3966
sg83
g3634
sg76
(lp3967
g69
(g90
g71
NtRp3968
(dp3969
g74
(dp3970
sg83
g3964
sg76
(lp3971
g69
(g70
g71
NtRp3972
(dp3973
g74
(dp3974
g82
I4
ssg83
g3968
sg76
(lp3975
g3650
asbasbasbag69
(g85
g71
NtRp3976
(dp3977
g74
(dp3978
sg83
g3634
sg76
(lp3979
g69
(g90
g71
NtRp3980
(dp3981
g74
(dp3982
sg83
g3976
sg76
(lp3983
g69
(g70
g71
NtRp3984
(dp3985
g74
(dp3986
g82
I4
ssg83
g3980
sg76
(lp3987
S'shiftscale:no_shiftscale'
p3988
asbasbasbag69
(g85
g71
NtRp3989
(dp3990
g74
(dp3991
sg83
g3634
sg76
(lp3992
g69
(g90
g71
NtRp3993
(dp3994
g74
(dp3995
sg83
g3989
sg76
(lp3996
g69
(g70
g71
NtRp3997
(dp3998
g74
(dp3999
g82
I4
ssg83
g3993
sg76
(lp4000
g3650
asbasbasbag69
(g85
g71
NtRp4001
(dp4002
g74
(dp4003
sg83
g3634
sg76
(lp4004
g69
(g90
g71
NtRp4005
(dp4006
g74
(dp4007
sg83
g4001
sg76
(lp4008
g69
(g70
g71
NtRp4009
(dp4010
g74
(dp4011
g82
I4
ssg83
g4005
sg76
(lp4012
S'filter:0'
p4013
asbasbasbag69
(g85
g71
NtRp4014
(dp4015
g74
(dp4016
sg83
g3634
sg76
(lp4017
g69
(g90
g71
NtRp4018
(dp4019
g74
(dp4020
sg83
g4014
sg76
(lp4021
g69
(g70
g71
NtRp4022
(dp4023
g74
(dp4024
g82
I4
ssg83
g4018
sg76
(lp4025
g3650
asbasbasbag69
(g85
g71
NtRp4026
(dp4027
g74
(dp4028
sg83
g3634
sg76
(lp4029
g69
(g90
g71
NtRp4030
(dp4031
g74
(dp4032
sg83
g4026
sg76
(lp4033
g69
(g70
g71
NtRp4034
(dp4035
g74
(dp4036
g82
I4
ssg83
g4030
sg76
(lp4037
S'is_logged:logged'
p4038
asbasbasbag69
(g85
g71
NtRp4039
(dp4040
g74
(dp4041
sg83
g3634
sg76
(lp4042
g69
(g90
g71
NtRp4043
(dp4044
g74
(dp4045
sg83
g4039
sg76
(lp4046
g69
(g70
g71
NtRp4047
(dp4048
g74
(dp4049
g82
I4
ssg83
g4043
sg76
(lp4050
g3650
asbasbasbag69
(g85
g71
NtRp4051
(dp4052
g74
(dp4053
sg83
g3634
sg76
(lp4054
g69
(g90
g71
NtRp4055
(dp4056
g74
(dp4057
sg83
g4051
sg76
(lp4058
g69
(g70
g71
NtRp4059
(dp4060
g74
(dp4061
g82
I4
ssg83
g4055
sg76
(lp4062
S'bfrm:no_bfrm'
p4063
asbasbasbasbasbasbasbag69
(g85
g71
NtRp4064
(dp4065
g74
(dp4066
sg83
g3156
sg76
(lp4067
g69
(g90
g71
NtRp4068
(dp4069
g74
(dp4070
g94
g95
ssg83
g4064
sg76
(lp4071
S'protocol'
p4072
asbag69
(g90
g71
NtRp4073
(dp4074
g74
(dp4075
g101
g102
ssg83
g4064
sg76
(lp4076
S':'
asbag69
(g90
g71
NtRp4077
(dp4078
g74
(dp4079
sg83
g4064
sg76
(lp4080
g69
(g70
g71
NtRp4081
(dp4082
g74
(dp4083
g82
I5
ssg83
g4077
sg76
(lp4084
g3587
asbasbasbasbasbsS'etype'
p4085
S"<type 'exceptions.SyntaxError'>"
p4086
sS'date'
p4087
S'Fri May  3 10:18:20 2013'
p4088
sS'response'
p4089
g69
(g70
g71
NtRp4090
(dp4091
g74
(dp4092
sg76
(lp4093
g69
(g78
g71
NtRp4094
(dp4095
g74
(dp4096
g82
I5
ssg83
Nsg76
(lp4097
g69
(g85
g71
NtRp4098
(dp4099
g74
(dp4100
sg83
g4094
sg76
(lp4101
g69
(g90
g71
NtRp4102
(dp4103
g74
(dp4104
g94
g95
ssg83
g4098
sg76
(lp4105
g180
asbag69
(g90
g71
NtRp4106
(dp4107
g74
(dp4108
g101
g102
ssg83
g4098
sg76
(lp4109
S':'
asbag69
(g90
g71
NtRp4110
(dp4111
g74
(dp4112
sg83
g4098
sg76
(lp4113
g69
(g70
g71
NtRp4114
(dp4115
g74
(dp4116
g82
I5
ssg83
g4110
sg76
(lp4117
S'<cStringIO.StringO object at 0x12dfedc0>'
p4118
asbasbasbag69
(g85
g71
NtRp4119
(dp4120
g74
(dp4121
sg83
g4094
sg76
(lp4122
g69
(g90
g71
NtRp4123
(dp4124
g74
(dp4125
g94
g95
ssg83
g4119
sg76
(lp4126
g268
asbag69
(g90
g71
NtRp4127
(dp4128
g74
(dp4129
g101
g102
ssg83
g4119
sg76
(lp4130
S':'
asbag69
(g90
g71
NtRp4131
(dp4132
g74
(dp4133
sg83
g4119
sg76
(lp4134
g69
(g70
g71
NtRp4135
(dp4136
g74
(dp4137
g82
I5
ssg83
g4131
sg76
(lp4138
g69
(g78
g71
NtRp4139
(dp4140
g74
(dp4141
g82
I4
ssg83
Nsg76
(lp4142
g69
(g85
g71
NtRp4143
(dp4144
g74
(dp4145
sg83
g4139
sg76
(lp4146
g69
(g90
g71
NtRp4147
(dp4148
g74
(dp4149
g94
g95
ssg83
g4143
sg76
(lp4150
S'session_id_betsy'
p4151
asbag69
(g90
g71
NtRp4152
(dp4153
g74
(dp4154
g101
g102
ssg83
g4143
sg76
(lp4155
S':'
asbag69
(g90
g71
NtRp4156
(dp4157
g74
(dp4158
sg83
g4143
sg76
(lp4159
g69
(g70
g71
NtRp4160
(dp4161
g74
(dp4162
g82
I4
ssg83
g4156
sg76
(lp4163
g500
ag69
(g78
g71
NtRp4164
(dp4165
g74
(dp4166
g82
I3
ssg83
Nsg76
(lp4167
g69
(g85
g71
NtRp4168
(dp4169
g74
(dp4170
sg83
g4164
sg76
(lp4171
g69
(g90
g71
NtRp4172
(dp4173
g74
(dp4174
g94
g95
ssg83
g4168
sg76
(lp4175
g319
asbag69
(g90
g71
NtRp4176
(dp4177
g74
(dp4178
g101
g102
ssg83
g4168
sg76
(lp4179
S':'
asbag69
(g90
g71
NtRp4180
(dp4181
g74
(dp4182
sg83
g4168
sg76
(lp4183
g69
(g70
g71
NtRp4184
(dp4185
g74
(dp4186
g82
I3
ssg83
g4180
sg76
(lp4187
S''
asbasbasbag69
(g85
g71
NtRp4188
(dp4189
g74
(dp4190
sg83
g4164
sg76
(lp4191
g69
(g90
g71
NtRp4192
(dp4193
g74
(dp4194
g94
g95
ssg83
g4188
sg76
(lp4195
g340
asbag69
(g90
g71
NtRp4196
(dp4197
g74
(dp4198
g101
g102
ssg83
g4188
sg76
(lp4199
S':'
asbag69
(g90
g71
NtRp4200
(dp4201
g74
(dp4202
sg83
g4188
sg76
(lp4203
g69
(g70
g71
NtRp4204
(dp4205
g74
(dp4206
g82
I3
ssg83
g4200
sg76
(lp4207
S''
asbasbasbag69
(g85
g71
NtRp4208
(dp4209
g74
(dp4210
sg83
g4164
sg76
(lp4211
g69
(g90
g71
NtRp4212
(dp4213
g74
(dp4214
g94
g95
ssg83
g4208
sg76
(lp4215
g361
asbag69
(g90
g71
NtRp4216
(dp4217
g74
(dp4218
g101
g102
ssg83
g4208
sg76
(lp4219
S':'
asbag69
(g90
g71
NtRp4220
(dp4221
g74
(dp4222
sg83
g4208
sg76
(lp4223
g69
(g70
g71
NtRp4224
(dp4225
g74
(dp4226
g82
I3
ssg83
g4220
sg76
(lp4227
S'2592000'
p4228
asbasbasbag69
(g85
g71
NtRp4229
(dp4230
g74
(dp4231
sg83
g4164
sg76
(lp4232
g69
(g90
g71
NtRp4233
(dp4234
g74
(dp4235
g94
g95
ssg83
g4229
sg76
(lp4236
g382
asbag69
(g90
g71
NtRp4237
(dp4238
g74
(dp4239
g101
g102
ssg83
g4229
sg76
(lp4240
S':'
asbag69
(g90
g71
NtRp4241
(dp4242
g74
(dp4243
sg83
g4229
sg76
(lp4244
g69
(g70
g71
NtRp4245
(dp4246
g74
(dp4247
g82
I3
ssg83
g4241
sg76
(lp4248
S''
asbasbasbag69
(g85
g71
NtRp4249
(dp4250
g74
(dp4251
sg83
g4164
sg76
(lp4252
g69
(g90
g71
NtRp4253
(dp4254
g74
(dp4255
g94
g95
ssg83
g4249
sg76
(lp4256
g403
asbag69
(g90
g71
NtRp4257
(dp4258
g74
(dp4259
g101
g102
ssg83
g4249
sg76
(lp4260
S':'
asbag69
(g90
g71
NtRp4261
(dp4262
g74
(dp4263
sg83
g4249
sg76
(lp4264
g69
(g70
g71
NtRp4265
(dp4266
g74
(dp4267
g82
I3
ssg83
g4261
sg76
(lp4268
S''
asbasbasbag69
(g85
g71
NtRp4269
(dp4270
g74
(dp4271
sg83
g4164
sg76
(lp4272
g69
(g90
g71
NtRp4273
(dp4274
g74
(dp4275
g94
g95
ssg83
g4269
sg76
(lp4276
g424
asbag69
(g90
g71
NtRp4277
(dp4278
g74
(dp4279
g101
g102
ssg83
g4269
sg76
(lp4280
S':'
asbag69
(g90
g71
NtRp4281
(dp4282
g74
(dp4283
sg83
g4269
sg76
(lp4284
g69
(g70
g71
NtRp4285
(dp4286
g74
(dp4287
g82
I3
ssg83
g4281
sg76
(lp4288
S'/'
asbasbasbag69
(g85
g71
NtRp4289
(dp4290
g74
(dp4291
sg83
g4164
sg76
(lp4292
g69
(g90
g71
NtRp4293
(dp4294
g74
(dp4295
g94
g95
ssg83
g4289
sg76
(lp4296
g445
asbag69
(g90
g71
NtRp4297
(dp4298
g74
(dp4299
g101
g102
ssg83
g4289
sg76
(lp4300
S':'
asbag69
(g90
g71
NtRp4301
(dp4302
g74
(dp4303
sg83
g4289
sg76
(lp4304
g69
(g70
g71
NtRp4305
(dp4306
g74
(dp4307
g82
I3
ssg83
g4301
sg76
(lp4308
S''
asbasbasbag69
(g85
g71
NtRp4309
(dp4310
g74
(dp4311
sg83
g4164
sg76
(lp4312
g69
(g90
g71
NtRp4313
(dp4314
g74
(dp4315
g94
g95
ssg83
g4309
sg76
(lp4316
g466
asbag69
(g90
g71
NtRp4317
(dp4318
g74
(dp4319
g101
g102
ssg83
g4309
sg76
(lp4320
S':'
asbag69
(g90
g71
NtRp4321
(dp4322
g74
(dp4323
sg83
g4309
sg76
(lp4324
g69
(g70
g71
NtRp4325
(dp4326
g74
(dp4327
g82
I3
ssg83
g4321
sg76
(lp4328
S''
asbasbasbasbasbasbasbasbasbasbasbag69
(g85
g71
NtRp4329
(dp4330
g74
(dp4331
sg83
g4094
sg76
(lp4332
g69
(g90
g71
NtRp4333
(dp4334
g74
(dp4335
g94
g95
ssg83
g4329
sg76
(lp4336
S'delimiters'
p4337
asbag69
(g90
g71
NtRp4338
(dp4339
g74
(dp4340
g101
g102
ssg83
g4329
sg76
(lp4341
S':'
asbag69
(g90
g71
NtRp4342
(dp4343
g74
(dp4344
sg83
g4329
sg76
(lp4345
g69
(g70
g71
NtRp4346
(dp4347
g74
(dp4348
g82
I5
ssg83
g4342
sg76
(lp4349
g69
(g78
g71
NtRp4350
(dp4351
g74
(dp4352
g82
I4
ssg83
Nsg76
(lp4353
g69
(g85
g71
NtRp4354
(dp4355
g74
(dp4356
sg83
g4350
sg76
(lp4357
g69
(g90
g71
NtRp4358
(dp4359
g74
(dp4360
sg83
g4354
sg76
(lp4361
g69
(g70
g71
NtRp4362
(dp4363
g74
(dp4364
g82
I4
ssg83
g4358
sg76
(lp4365
S'{{'
p4366
asbasbasbag69
(g85
g71
NtRp4367
(dp4368
g74
(dp4369
sg83
g4350
sg76
(lp4370
g69
(g90
g71
NtRp4371
(dp4372
g74
(dp4373
sg83
g4367
sg76
(lp4374
g69
(g70
g71
NtRp4375
(dp4376
g74
(dp4377
g82
I4
ssg83
g4371
sg76
(lp4378
S'}}'
p4379
asbasbasbasbasbasbasbag69
(g85
g71
NtRp4380
(dp4381
g74
(dp4382
sg83
g4094
sg76
(lp4383
g69
(g90
g71
NtRp4384
(dp4385
g74
(dp4386
g94
g95
ssg83
g4380
sg76
(lp4387
S'files'
p4388
asbag69
(g90
g71
NtRp4389
(dp4390
g74
(dp4391
g101
g102
ssg83
g4380
sg76
(lp4392
S':'
asbag69
(g90
g71
NtRp4393
(dp4394
g74
(dp4395
sg83
g4380
sg76
(lp4396
g69
(g70
g71
NtRp4397
(dp4398
g74
(dp4399
g82
I5
ssg83
g4393
sg76
(lp4400
g69
(g78
g71
NtRp4401
(dp4402
g74
(dp4403
g82
I4
ssg83
Nsg76
(lp4404
g69
(g85
g71
NtRp4405
(dp4406
g74
(dp4407
sg83
g4401
sg76
(lp4408
g69
(g90
g71
NtRp4409
(dp4410
g74
(dp4411
sg83
g4405
sg76
(lp4412
g69
(g70
g71
NtRp4413
(dp4414
g74
(dp4415
g82
I4
ssg83
g4409
sg76
(lp4416
S'/Betsy/static/js/jquery.js'
p4417
asbasbasbag69
(g85
g71
NtRp4418
(dp4419
g74
(dp4420
sg83
g4401
sg76
(lp4421
g69
(g90
g71
NtRp4422
(dp4423
g74
(dp4424
sg83
g4418
sg76
(lp4425
g69
(g70
g71
NtRp4426
(dp4427
g74
(dp4428
g82
I4
ssg83
g4422
sg76
(lp4429
S'/Betsy/static/css/calendar.css'
p4430
asbasbasbag69
(g85
g71
NtRp4431
(dp4432
g74
(dp4433
sg83
g4401
sg76
(lp4434
g69
(g90
g71
NtRp4435
(dp4436
g74
(dp4437
sg83
g4431
sg76
(lp4438
g69
(g70
g71
NtRp4439
(dp4440
g74
(dp4441
g82
I4
ssg83
g4435
sg76
(lp4442
S'/Betsy/static/js/calendar.js'
p4443
asbasbasbag69
(g85
g71
NtRp4444
(dp4445
g74
(dp4446
sg83
g4401
sg76
(lp4447
g69
(g90
g71
NtRp4448
(dp4449
g74
(dp4450
sg83
g4444
sg76
(lp4451
g69
(g70
g71
NtRp4452
(dp4453
g74
(dp4454
g82
I4
ssg83
g4448
sg76
(lp4455
S'/Betsy/static/js/web2py.js'
p4456
asbasbasbag69
(g85
g71
NtRp4457
(dp4458
g74
(dp4459
sg83
g4401
sg76
(lp4460
g69
(g90
g71
NtRp4461
(dp4462
g74
(dp4463
sg83
g4457
sg76
(lp4464
g69
(g70
g71
NtRp4465
(dp4466
g74
(dp4467
g82
I4
ssg83
g4461
sg76
(lp4468
S'/Betsy/static/css/web2py.css'
p4469
asbasbasbag69
(g85
g71
NtRp4470
(dp4471
g74
(dp4472
sg83
g4401
sg76
(lp4473
g69
(g90
g71
NtRp4474
(dp4475
g74
(dp4476
sg83
g4470
sg76
(lp4477
g69
(g70
g71
NtRp4478
(dp4479
g74
(dp4480
g82
I4
ssg83
g4474
sg76
(lp4481
S'/Betsy/static/css/bootstrap.min.css'
p4482
asbasbasbag69
(g85
g71
NtRp4483
(dp4484
g74
(dp4485
sg83
g4401
sg76
(lp4486
g69
(g90
g71
NtRp4487
(dp4488
g74
(dp4489
sg83
g4483
sg76
(lp4490
g69
(g70
g71
NtRp4491
(dp4492
g74
(dp4493
g82
I4
ssg83
g4487
sg76
(lp4494
S'/Betsy/static/css/bootstrap-responsive.min.css'
p4495
asbasbasbag69
(g85
g71
NtRp4496
(dp4497
g74
(dp4498
sg83
g4401
sg76
(lp4499
g69
(g90
g71
NtRp4500
(dp4501
g74
(dp4502
sg83
g4496
sg76
(lp4503
g69
(g70
g71
NtRp4504
(dp4505
g74
(dp4506
g82
I4
ssg83
g4500
sg76
(lp4507
S'/Betsy/static/css/web2py_bootstrap.css'
p4508
asbasbasbasbasbasbasbag69
(g85
g71
NtRp4509
(dp4510
g74
(dp4511
sg83
g4094
sg76
(lp4512
g69
(g90
g71
NtRp4513
(dp4514
g74
(dp4515
g94
g95
ssg83
g4509
sg76
(lp4516
S'flash'
p4517
asbag69
(g90
g71
NtRp4518
(dp4519
g74
(dp4520
g101
g102
ssg83
g4509
sg76
(lp4521
S':'
asbag69
(g90
g71
NtRp4522
(dp4523
g74
(dp4524
sg83
g4509
sg76
(lp4525
g69
(g70
g71
NtRp4526
(dp4527
g74
(dp4528
g82
I5
ssg83
g4522
sg76
(lp4529
S''
asbasbasbag69
(g85
g71
NtRp4530
(dp4531
g74
(dp4532
sg83
g4094
sg76
(lp4533
g69
(g90
g71
NtRp4534
(dp4535
g74
(dp4536
g94
g95
ssg83
g4530
sg76
(lp4537
S'generic_patterns'
p4538
asbag69
(g90
g71
NtRp4539
(dp4540
g74
(dp4541
g101
g102
ssg83
g4530
sg76
(lp4542
S':'
asbag69
(g90
g71
NtRp4543
(dp4544
g74
(dp4545
sg83
g4530
sg76
(lp4546
g69
(g70
g71
NtRp4547
(dp4548
g74
(dp4549
g82
I5
ssg83
g4543
sg76
(lp4550
g69
(g78
g71
NtRp4551
(dp4552
g74
(dp4553
g82
I4
ssg83
Nsg76
(lp4554
g69
(g85
g71
NtRp4555
(dp4556
g74
(dp4557
sg83
g4551
sg76
(lp4558
g69
(g90
g71
NtRp4559
(dp4560
g74
(dp4561
sg83
g4555
sg76
(lp4562
g69
(g70
g71
NtRp4563
(dp4564
g74
(dp4565
g82
I4
ssg83
g4559
sg76
(lp4566
S'*'
asbasbasbasbasbasbasbag69
(g85
g71
NtRp4567
(dp4568
g74
(dp4569
sg83
g4094
sg76
(lp4570
g69
(g90
g71
NtRp4571
(dp4572
g74
(dp4573
g94
g95
ssg83
g4567
sg76
(lp4574
S'google_analytics_id'
p4575
asbag69
(g90
g71
NtRp4576
(dp4577
g74
(dp4578
g101
g102
ssg83
g4567
sg76
(lp4579
S':'
asbag69
(g90
g71
NtRp4580
(dp4581
g74
(dp4582
sg83
g4567
sg76
(lp4583
g69
(g70
g71
NtRp4584
(dp4585
g74
(dp4586
g82
I5
ssg83
g4580
sg76
(lp4587
S'None'
p4588
asbasbasbag69
(g85
g71
NtRp4589
(dp4590
g74
(dp4591
sg83
g4094
sg76
(lp4592
g69
(g90
g71
NtRp4593
(dp4594
g74
(dp4595
g94
g95
ssg83
g4589
sg76
(lp4596
S'headers'
p4597
asbag69
(g90
g71
NtRp4598
(dp4599
g74
(dp4600
g101
g102
ssg83
g4589
sg76
(lp4601
S':'
asbag69
(g90
g71
NtRp4602
(dp4603
g74
(dp4604
sg83
g4589
sg76
(lp4605
g69
(g70
g71
NtRp4606
(dp4607
g74
(dp4608
g82
I5
ssg83
g4602
sg76
(lp4609
g69
(g78
g71
NtRp4610
(dp4611
g74
(dp4612
g82
I4
ssg83
Nsg76
(lp4613
g69
(g85
g71
NtRp4614
(dp4615
g74
(dp4616
sg83
g4610
sg76
(lp4617
g69
(g90
g71
NtRp4618
(dp4619
g74
(dp4620
g94
g95
ssg83
g4614
sg76
(lp4621
S'X-Powered-By'
p4622
asbag69
(g90
g71
NtRp4623
(dp4624
g74
(dp4625
g101
g102
ssg83
g4614
sg76
(lp4626
S':'
asbag69
(g90
g71
NtRp4627
(dp4628
g74
(dp4629
sg83
g4614
sg76
(lp4630
g69
(g70
g71
NtRp4631
(dp4632
g74
(dp4633
g82
I4
ssg83
g4627
sg76
(lp4634
S'web2py'
p4635
asbasbasbasbasbasbasbag69
(g85
g71
NtRp4636
(dp4637
g74
(dp4638
sg83
g4094
sg76
(lp4639
g69
(g90
g71
NtRp4640
(dp4641
g74
(dp4642
g94
g95
ssg83
g4636
sg76
(lp4643
S'menu'
p4644
asbag69
(g90
g71
NtRp4645
(dp4646
g74
(dp4647
g101
g102
ssg83
g4636
sg76
(lp4648
S':'
asbag69
(g90
g71
NtRp4649
(dp4650
g74
(dp4651
sg83
g4636
sg76
(lp4652
g69
(g70
g71
NtRp4653
(dp4654
g74
(dp4655
g82
I5
ssg83
g4649
sg76
(lp4656
g69
(g78
g71
NtRp4657
(dp4658
g74
(dp4659
g82
I4
ssg83
Nsg76
(lp4660
g69
(g85
g71
NtRp4661
(dp4662
g74
(dp4663
sg83
g4657
sg76
(lp4664
g69
(g90
g71
NtRp4665
(dp4666
g74
(dp4667
sg83
g4661
sg76
(lp4668
g69
(g70
g71
NtRp4669
(dp4670
g74
(dp4671
g82
I4
ssg83
g4665
sg76
(lp4672
g69
(g78
g71
NtRp4673
(dp4674
g74
(dp4675
g82
I3
ssg83
Nsg76
(lp4676
g69
(g85
g71
NtRp4677
(dp4678
g74
(dp4679
sg83
g4673
sg76
(lp4680
g69
(g90
g71
NtRp4681
(dp4682
g74
(dp4683
sg83
g4677
sg76
(lp4684
g69
(g70
g71
NtRp4685
(dp4686
g74
(dp4687
g82
I3
ssg83
g4681
sg76
(lp4688
cgluon.languages
lazyT_unpickle
p4689
(S's\x04\x00\x00\x00Home'
tRp4690
asbasbasbag69
(g85
g71
NtRp4691
(dp4692
g74
(dp4693
sg83
g4673
sg76
(lp4694
g69
(g90
g71
NtRp4695
(dp4696
g74
(dp4697
sg83
g4691
sg76
(lp4698
g69
(g70
g71
NtRp4699
(dp4700
g74
(dp4701
g82
I3
ssg83
g4695
sg76
(lp4702
g112
asbasbasbag69
(g85
g71
NtRp4703
(dp4704
g74
(dp4705
sg83
g4673
sg76
(lp4706
g69
(g90
g71
NtRp4707
(dp4708
g74
(dp4709
sg83
g4703
sg76
(lp4710
g69
(g70
g71
NtRp4711
(dp4712
g74
(dp4713
g82
I3
ssg83
g4707
sg76
(lp4714
S'/Betsy/default/index'
p4715
asbasbasbag69
(g85
g71
NtRp4716
(dp4717
g74
(dp4718
sg83
g4673
sg76
(lp4719
g69
(g90
g71
NtRp4720
(dp4721
g74
(dp4722
sg83
g4716
sg76
(lp4723
g69
(g70
g71
NtRp4724
(dp4725
g74
(dp4726
g82
I3
ssg83
g4720
sg76
(lp4727
g69
(g78
g71
NtRp4728
(dp4729
g74
(dp4730
g82
I2
ssg83
Nsg76
(lp4731
sbasbasbasbasbasbasbasbag69
(g85
g71
NtRp4732
(dp4733
g74
(dp4734
sg83
g4657
sg76
(lp4735
g69
(g90
g71
NtRp4736
(dp4737
g74
(dp4738
sg83
g4732
sg76
(lp4739
g69
(g70
g71
NtRp4740
(dp4741
g74
(dp4742
g82
I4
ssg83
g4736
sg76
(lp4743
g69
(g78
g71
NtRp4744
(dp4745
g74
(dp4746
g82
I3
ssg83
Nsg76
(lp4747
g69
(g85
g71
NtRp4748
(dp4749
g74
(dp4750
sg83
g4744
sg76
(lp4751
g69
(g90
g71
NtRp4752
(dp4753
g74
(dp4754
sg83
g4748
sg76
(lp4755
g69
(g70
g71
NtRp4756
(dp4757
g74
(dp4758
g82
I3
ssg83
g4752
sg76
(lp4759
g69
(cgluon.html
SPAN
p4760
g71
NtRp4761
(dp4762
g74
(dp4763
S'_class'
p4764
S'highlighted'
p4765
ssg83
g69
(cgluon.html
A
p4766
g71
NtRp4767
(dp4768
g74
(dp4769
S'_href'
p4770
S'http://web2py.com'
p4771
ssg83
g69
(cgluon.html
LI
p4772
g71
NtRp4773
(dp4774
g74
(dp4775
g4764
S'dropdown'
p4776
ssg83
g69
(cgluon.html
UL
p4777
g71
NtRp4778
(dp4779
g74
(dp4780
S'li_class'
p4781
g4776
sS'mobile'
p4782
I00
sg4764
S'nav'
p4783
sS'ul_class'
p4784
S'dropdown-menu'
p4785
sS'li_active'
p4786
S'web2py-menu-active'
p4787
ssg83
Nsg76
(lp4788
g69
(g4772
g71
NtRp4789
(dp4790
g74
(dp4791
sg83
g4778
sg76
(lp4792
g69
(g4766
g71
NtRp4793
(dp4794
g74
(dp4795
g4770
g4715
ssg83
g4789
sg76
(lp4796
g4690
asbasbag4773
asbsg76
(lp4797
g4767
ag69
(g4777
g71
NtRp4798
(dp4799
g74
(dp4800
g4764
g4785
ssg83
g4773
sg76
(lp4801
g69
(g4772
g71
NtRp4802
(dp4803
g74
(dp4804
sg83
g4798
sg76
(lp4805
g69
(g4766
g71
NtRp4806
(dp4807
g74
(dp4808
g4770
S'/admin/default/site'
p4809
ssg83
g4802
sg76
(lp4810
g4689
(S's\x08\x00\x00\x00My Sites'
tRp4811
asbasbag69
(g4772
g71
NtRp4812
(dp4813
g74
(dp4814
g4764
g4776
ssg83
g4798
sg76
(lp4815
g69
(g4766
g71
NtRp4816
(dp4817
g74
(dp4818
g4770
S'/admin/default/design/Betsy'
p4819
ssg83
g4812
sg76
(lp4820
g4689
(S's\x08\x00\x00\x00This App'
tRp4821
asbag69
(g4777
g71
NtRp4822
(dp4823
g74
(dp4824
g4764
g4785
ssg83
g4812
sg76
(lp4825
g69
(g4772
g71
NtRp4826
(dp4827
g74
(dp4828
sg83
g4822
sg76
(lp4829
g69
(g4766
g71
NtRp4830
(dp4831
g74
(dp4832
g4770
S'/admin/default/edit/Betsy/controllers/default.py'
p4833
ssg83
g4826
sg76
(lp4834
g4689
(S's\n\x00\x00\x00Controller'
tRp4835
asbasbag69
(g4772
g71
NtRp4836
(dp4837
g74
(dp4838
sg83
g4822
sg76
(lp4839
g69
(g4766
g71
NtRp4840
(dp4841
g74
(dp4842
g4770
S'/admin/default/edit/Betsy/views/default/show_job.html'
p4843
ssg83
g4836
sg76
(lp4844
g4689
(S's\x04\x00\x00\x00View'
tRp4845
asbasbag69
(g4772
g71
NtRp4846
(dp4847
g74
(dp4848
sg83
g4822
sg76
(lp4849
g69
(g4766
g71
NtRp4850
(dp4851
g74
(dp4852
g4770
S'/admin/default/edit/Betsy/views/layout.html'
p4853
ssg83
g4846
sg76
(lp4854
g4689
(S's\x06\x00\x00\x00Layout'
tRp4855
asbasbag69
(g4772
g71
NtRp4856
(dp4857
g74
(dp4858
sg83
g4822
sg76
(lp4859
g69
(g4766
g71
NtRp4860
(dp4861
g74
(dp4862
g4770
S'/admin/default/edit/Betsy/static/css/web2py.css'
p4863
ssg83
g4856
sg76
(lp4864
g4689
(S's\n\x00\x00\x00Stylesheet'
tRp4865
asbasbag69
(g4772
g71
NtRp4866
(dp4867
g74
(dp4868
sg83
g4822
sg76
(lp4869
g69
(g4766
g71
NtRp4870
(dp4871
g74
(dp4872
g4770
S'/admin/default/edit/Betsy/models/db.py'
p4873
ssg83
g4866
sg76
(lp4874
g4689
(S's\x08\x00\x00\x00DB Model'
tRp4875
asbasbag69
(g4772
g71
NtRp4876
(dp4877
g74
(dp4878
sg83
g4822
sg76
(lp4879
g69
(g4766
g71
NtRp4880
(dp4881
g74
(dp4882
g4770
S'/admin/default/edit/Betsy/models/menu.py'
p4883
ssg83
g4876
sg76
(lp4884
g4689
(S's\n\x00\x00\x00Menu Model'
tRp4885
asbasbag69
(g4772
g71
NtRp4886
(dp4887
g74
(dp4888
sg83
g4822
sg76
(lp4889
g69
(g4766
g71
NtRp4890
(dp4891
g74
(dp4892
g4770
S'/Betsy/appadmin/index'
p4893
ssg83
g4886
sg76
(lp4894
g4689
(S's\x08\x00\x00\x00Database'
tRp4895
asbasbag69
(g4772
g71
NtRp4896
(dp4897
g74
(dp4898
sg83
g4822
sg76
(lp4899
g69
(g4766
g71
NtRp4900
(dp4901
g74
(dp4902
g4770
S'/admin/default/errors/Betsy'
p4903
ssg83
g4896
sg76
(lp4904
g4689
(S's\x06\x00\x00\x00Errors'
tRp4905
asbasbag69
(g4772
g71
NtRp4906
(dp4907
g74
(dp4908
sg83
g4822
sg76
(lp4909
g69
(g4766
g71
NtRp4910
(dp4911
g74
(dp4912
g4770
S'/admin/default/about/Betsy'
p4913
ssg83
g4906
sg76
(lp4914
g4689
(S's\x05\x00\x00\x00About'
tRp4915
asbasbasbasbag69
(g4772
g71
NtRp4916
(dp4917
g74
(dp4918
g4764
g4776
ssg83
g4798
sg76
(lp4919
g69
(g4766
g71
NtRp4920
(dp4921
g74
(dp4922
g4770
S'http://www.web2py.com'
p4923
ssg83
g4916
sg76
(lp4924
S'web2py.com'
p4925
asbag69
(g4777
g71
NtRp4926
(dp4927
g74
(dp4928
g4764
g4785
ssg83
g4916
sg76
(lp4929
g69
(g4772
g71
NtRp4930
(dp4931
g74
(dp4932
sg83
g4926
sg76
(lp4933
g69
(g4766
g71
NtRp4934
(dp4935
g74
(dp4936
g4770
S'http://www.web2py.com/examples/default/download'
p4937
ssg83
g4930
sg76
(lp4938
g4689
(S's\x08\x00\x00\x00Download'
tRp4939
asbasbag69
(g4772
g71
NtRp4940
(dp4941
g74
(dp4942
sg83
g4926
sg76
(lp4943
g69
(g4766
g71
NtRp4944
(dp4945
g74
(dp4946
g4770
S'http://www.web2py.com/examples/default/support'
p4947
ssg83
g4940
sg76
(lp4948
g4689
(S's\x07\x00\x00\x00Support'
tRp4949
asbasbag69
(g4772
g71
NtRp4950
(dp4951
g74
(dp4952
sg83
g4926
sg76
(lp4953
g69
(g4766
g71
NtRp4954
(dp4955
g74
(dp4956
g4770
S'http://web2py.com/demo_admin'
p4957
ssg83
g4950
sg76
(lp4958
g4689
(S's\x04\x00\x00\x00Demo'
tRp4959
asbasbag69
(g4772
g71
NtRp4960
(dp4961
g74
(dp4962
sg83
g4926
sg76
(lp4963
g69
(g4766
g71
NtRp4964
(dp4965
g74
(dp4966
g4770
S'http://web2py.com/examples/default/examples'
p4967
ssg83
g4960
sg76
(lp4968
g4689
(S's\x0e\x00\x00\x00Quick Examples'
tRp4969
asbasbag69
(g4772
g71
NtRp4970
(dp4971
g74
(dp4972
sg83
g4926
sg76
(lp4973
g69
(g4766
g71
NtRp4974
(dp4975
g74
(dp4976
g4770
S'http://web2py.com/AlterEgo'
p4977
ssg83
g4970
sg76
(lp4978
g4689
(S's\x03\x00\x00\x00FAQ'
tRp4979
asbasbag69
(g4772
g71
NtRp4980
(dp4981
g74
(dp4982
sg83
g4926
sg76
(lp4983
g69
(g4766
g71
NtRp4984
(dp4985
g74
(dp4986
g4770
S'http://www.web2py.com/examples/default/videos/'
p4987
ssg83
g4980
sg76
(lp4988
g4689
(S's\x06\x00\x00\x00Videos'
tRp4989
asbasbag69
(g4772
g71
NtRp4990
(dp4991
g74
(dp4992
sg83
g4926
sg76
(lp4993
g69
(g4766
g71
NtRp4994
(dp4995
g74
(dp4996
g4770
S'http://web2py.com/appliances'
p4997
ssg83
g4990
sg76
(lp4998
g4689
(S's\x11\x00\x00\x00Free Applications'
tRp4999
asbasbag69
(g4772
g71
NtRp5000
(dp5001
g74
(dp5002
sg83
g4926
sg76
(lp5003
g69
(g4766
g71
NtRp5004
(dp5005
g74
(dp5006
g4770
S'http://web2py.com/plugins'
p5007
ssg83
g5000
sg76
(lp5008
g4689
(S's\x07\x00\x00\x00Plugins'
tRp5009
asbasbag69
(g4772
g71
NtRp5010
(dp5011
g74
(dp5012
sg83
g4926
sg76
(lp5013
g69
(g4766
g71
NtRp5014
(dp5015
g74
(dp5016
g4770
S'http://web2py.com/layouts'
p5017
ssg83
g5010
sg76
(lp5018
g4689
(S's\x07\x00\x00\x00Layouts'
tRp5019
asbasbag69
(g4772
g71
NtRp5020
(dp5021
g74
(dp5022
sg83
g4926
sg76
(lp5023
g69
(g4766
g71
NtRp5024
(dp5025
g74
(dp5026
g4770
S'http://web2pyslices.com/'
p5027
ssg83
g5020
sg76
(lp5028
g4689
(S's\x07\x00\x00\x00Recipes'
tRp5029
asbasbag69
(g4772
g71
NtRp5030
(dp5031
g74
(dp5032
sg83
g4926
sg76
(lp5033
g69
(g4766
g71
NtRp5034
(dp5035
g74
(dp5036
g4770
S'http://web2py.com/semantic'
p5037
ssg83
g5030
sg76
(lp5038
g4689
(S's\x08\x00\x00\x00Semantic'
tRp5039
asbasbasbasbag69
(g4772
g71
NtRp5040
(dp5041
g74
(dp5042
g4764
g4776
ssg83
g4798
sg76
(lp5043
g69
(g4766
g71
NtRp5044
(dp5045
g74
(dp5046
g4770
S'http://www.web2py.com/book'
p5047
ssg83
g5040
sg76
(lp5048
g4689
(S's\r\x00\x00\x00Documentation'
tRp5049
asbag69
(g4777
g71
NtRp5050
(dp5051
g74
(dp5052
g4764
g4785
ssg83
g5040
sg76
(lp5053
g69
(g4772
g71
NtRp5054
(dp5055
g74
(dp5056
sg83
g5050
sg76
(lp5057
g69
(g4766
g71
NtRp5058
(dp5059
g74
(dp5060
g4770
S'http://www.web2py.com/book/default/chapter/00'
p5061
ssg83
g5054
sg76
(lp5062
g4689
(S's\x07\x00\x00\x00Preface'
tRp5063
asbasbag69
(g4772
g71
NtRp5064
(dp5065
g74
(dp5066
sg83
g5050
sg76
(lp5067
g69
(g4766
g71
NtRp5068
(dp5069
g74
(dp5070
g4770
S'http://www.web2py.com/book/default/chapter/01'
p5071
ssg83
g5064
sg76
(lp5072
g4689
(S's\x0c\x00\x00\x00Introduction'
tRp5073
asbasbag69
(g4772
g71
NtRp5074
(dp5075
g74
(dp5076
sg83
g5050
sg76
(lp5077
g69
(g4766
g71
NtRp5078
(dp5079
g74
(dp5080
g4770
S'http://www.web2py.com/book/default/chapter/02'
p5081
ssg83
g5074
sg76
(lp5082
g4689
(S's\x06\x00\x00\x00Python'
tRp5083
asbasbag69
(g4772
g71
NtRp5084
(dp5085
g74
(dp5086
sg83
g5050
sg76
(lp5087
g69
(g4766
g71
NtRp5088
(dp5089
g74
(dp5090
g4770
S'http://www.web2py.com/book/default/chapter/03'
p5091
ssg83
g5084
sg76
(lp5092
g4689
(S's\x08\x00\x00\x00Overview'
tRp5093
asbasbag69
(g4772
g71
NtRp5094
(dp5095
g74
(dp5096
sg83
g5050
sg76
(lp5097
g69
(g4766
g71
NtRp5098
(dp5099
g74
(dp5100
g4770
S'http://www.web2py.com/book/default/chapter/04'
p5101
ssg83
g5094
sg76
(lp5102
g4689
(S's\x08\x00\x00\x00The Core'
tRp5103
asbasbag69
(g4772
g71
NtRp5104
(dp5105
g74
(dp5106
sg83
g5050
sg76
(lp5107
g69
(g4766
g71
NtRp5108
(dp5109
g74
(dp5110
g4770
S'http://www.web2py.com/book/default/chapter/05'
p5111
ssg83
g5104
sg76
(lp5112
g4689
(S's\t\x00\x00\x00The Views'
tRp5113
asbasbag69
(g4772
g71
NtRp5114
(dp5115
g74
(dp5116
sg83
g5050
sg76
(lp5117
g69
(g4766
g71
NtRp5118
(dp5119
g74
(dp5120
g4770
S'http://www.web2py.com/book/default/chapter/06'
p5121
ssg83
g5114
sg76
(lp5122
g4689
(S's\x08\x00\x00\x00Database'
tRp5123
asbasbag69
(g4772
g71
NtRp5124
(dp5125
g74
(dp5126
sg83
g5050
sg76
(lp5127
g69
(g4766
g71
NtRp5128
(dp5129
g74
(dp5130
g4770
S'http://www.web2py.com/book/default/chapter/07'
p5131
ssg83
g5124
sg76
(lp5132
g4689
(S's\x14\x00\x00\x00Forms and Validators'
tRp5133
asbasbag69
(g4772
g71
NtRp5134
(dp5135
g74
(dp5136
sg83
g5050
sg76
(lp5137
g69
(g4766
g71
NtRp5138
(dp5139
g74
(dp5140
g4770
S'http://www.web2py.com/book/default/chapter/08'
p5141
ssg83
g5134
sg76
(lp5142
g4689
(S's\r\x00\x00\x00Email and SMS'
tRp5143
asbasbag69
(g4772
g71
NtRp5144
(dp5145
g74
(dp5146
sg83
g5050
sg76
(lp5147
g69
(g4766
g71
NtRp5148
(dp5149
g74
(dp5150
g4770
S'http://www.web2py.com/book/default/chapter/09'
p5151
ssg83
g5144
sg76
(lp5152
g4689
(S's\x0e\x00\x00\x00Access Control'
tRp5153
asbasbag69
(g4772
g71
NtRp5154
(dp5155
g74
(dp5156
sg83
g5050
sg76
(lp5157
g69
(g4766
g71
NtRp5158
(dp5159
g74
(dp5160
g4770
S'http://www.web2py.com/book/default/chapter/10'
p5161
ssg83
g5154
sg76
(lp5162
g4689
(S's\x08\x00\x00\x00Services'
tRp5163
asbasbag69
(g4772
g71
NtRp5164
(dp5165
g74
(dp5166
sg83
g5050
sg76
(lp5167
g69
(g4766
g71
NtRp5168
(dp5169
g74
(dp5170
g4770
S'http://www.web2py.com/book/default/chapter/11'
p5171
ssg83
g5164
sg76
(lp5172
g4689
(S's\x0c\x00\x00\x00Ajax Recipes'
tRp5173
asbasbag69
(g4772
g71
NtRp5174
(dp5175
g74
(dp5176
sg83
g5050
sg76
(lp5177
g69
(g4766
g71
NtRp5178
(dp5179
g74
(dp5180
g4770
S'http://www.web2py.com/book/default/chapter/12'
p5181
ssg83
g5174
sg76
(lp5182
g4689
(S's\x16\x00\x00\x00Components and Plugins'
tRp5183
asbasbag69
(g4772
g71
NtRp5184
(dp5185
g74
(dp5186
sg83
g5050
sg76
(lp5187
g69
(g4766
g71
NtRp5188
(dp5189
g74
(dp5190
g4770
S'http://www.web2py.com/book/default/chapter/13'
p5191
ssg83
g5184
sg76
(lp5192
g4689
(S's\x12\x00\x00\x00Deployment Recipes'
tRp5193
asbasbag69
(g4772
g71
NtRp5194
(dp5195
g74
(dp5196
sg83
g5050
sg76
(lp5197
g69
(g4766
g71
NtRp5198
(dp5199
g74
(dp5200
g4770
S'http://www.web2py.com/book/default/chapter/14'
p5201
ssg83
g5194
sg76
(lp5202
g4689
(S's\r\x00\x00\x00Other Recipes'
tRp5203
asbasbag69
(g4772
g71
NtRp5204
(dp5205
g74
(dp5206
sg83
g5050
sg76
(lp5207
g69
(g4766
g71
NtRp5208
(dp5209
g74
(dp5210
g4770
S'http://stores.lulu.com/web2py'
p5211
ssg83
g5204
sg76
(lp5212
g4689
(S's\r\x00\x00\x00Buy this book'
tRp5213
asbasbasbasbag69
(g4772
g71
NtRp5214
(dp5215
g74
(dp5216
g4764
g4776
ssg83
g4798
sg76
(lp5217
g69
(g4766
g71
NtRp5218
(dp5219
g74
(dp5220
S'_onclick'
p5221
S'javascript:void(0);return false;'
p5222
sg4770
S'#'
ssg83
g5214
sg76
(lp5223
g4689
(S's\t\x00\x00\x00Community'
tRp5224
asbag69
(g4777
g71
NtRp5225
(dp5226
g74
(dp5227
g4764
g4785
ssg83
g5214
sg76
(lp5228
g69
(g4772
g71
NtRp5229
(dp5230
g74
(dp5231
sg83
g5225
sg76
(lp5232
g69
(g4766
g71
NtRp5233
(dp5234
g74
(dp5235
g4770
S'http://www.web2py.com/examples/default/usergroups'
p5236
ssg83
g5229
sg76
(lp5237
g4689
(S's\x06\x00\x00\x00Groups'
tRp5238
asbasbag69
(g4772
g71
NtRp5239
(dp5240
g74
(dp5241
sg83
g5225
sg76
(lp5242
g69
(g4766
g71
NtRp5243
(dp5244
g74
(dp5245
g4770
S'http://twitter.com/web2py'
p5246
ssg83
g5239
sg76
(lp5247
g4689
(S's\x07\x00\x00\x00Twitter'
tRp5248
asbasbag69
(g4772
g71
NtRp5249
(dp5250
g74
(dp5251
sg83
g5225
sg76
(lp5252
g69
(g4766
g71
NtRp5253
(dp5254
g74
(dp5255
g4770
S'http://webchat.freenode.net/?channels=web2py'
p5256
ssg83
g5249
sg76
(lp5257
g4689
(S's\t\x00\x00\x00Live Chat'
tRp5258
asbasbasbasbag69
(g4772
g71
NtRp5259
(dp5260
g74
(dp5261
g4764
g4776
ssg83
g4798
sg76
(lp5262
g69
(g4766
g71
NtRp5263
(dp5264
g74
(dp5265
g5221
g5222
sg4770
S'#'
ssg83
g5259
sg76
(lp5266
g4689
(S's\x07\x00\x00\x00Plugins'
tRp5267
asbag69
(g4777
g71
NtRp5268
(dp5269
g74
(dp5270
g4764
g4785
ssg83
g5259
sg76
(lp5271
g69
(g4772
g71
NtRp5272
(dp5273
g74
(dp5274
sg83
g5268
sg76
(lp5275
g69
(g4766
g71
NtRp5276
(dp5277
g74
(dp5278
g4770
S'http://web2py.com/examples/default/download'
p5279
ssg83
g5272
sg76
(lp5280
S'plugin_wiki'
p5281
asbasbag69
(g4772
g71
NtRp5282
(dp5283
g74
(dp5284
sg83
g5268
sg76
(lp5285
g69
(g4766
g71
NtRp5286
(dp5287
g74
(dp5288
g4770
g5007
ssg83
g5282
sg76
(lp5289
g4689
(S's\r\x00\x00\x00Other Plugins'
tRp5290
asbasbag69
(g4772
g71
NtRp5291
(dp5292
g74
(dp5293
sg83
g5268
sg76
(lp5294
g69
(g4766
g71
NtRp5295
(dp5296
g74
(dp5297
g4770
g5017
ssg83
g5291
sg76
(lp5298
g4689
(S's\x0e\x00\x00\x00Layout Plugins'
tRp5299
asbasbasbasbasbasbsg76
(lp5300
g4761
asbsg76
(lp5301
g4635
asbasbasbasbag69
(g85
g71
NtRp5302
(dp5303
g74
(dp5304
sg83
g4744
sg76
(lp5305
g69
(g90
g71
NtRp5306
(dp5307
g74
(dp5308
sg83
g5302
sg76
(lp5309
g69
(g70
g71
NtRp5310
(dp5311
g74
(dp5312
g82
I3
ssg83
g5306
sg76
(lp5313
g112
asbasbasbag69
(g85
g71
NtRp5314
(dp5315
g74
(dp5316
sg83
g4744
sg76
(lp5317
g69
(g90
g71
NtRp5318
(dp5319
g74
(dp5320
sg83
g5314
sg76
(lp5321
g69
(g70
g71
NtRp5322
(dp5323
g74
(dp5324
g82
I3
ssg83
g5318
sg76
(lp5325
g4771
asbasbasbag69
(g85
g71
NtRp5326
(dp5327
g74
(dp5328
sg83
g4744
sg76
(lp5329
g69
(g90
g71
NtRp5330
(dp5331
g74
(dp5332
sg83
g5326
sg76
(lp5333
g69
(g70
g71
NtRp5334
(dp5335
g74
(dp5336
g82
I3
ssg83
g5330
sg76
(lp5337
g69
(g78
g71
NtRp5338
(dp5339
g74
(dp5340
g82
I2
ssg83
Nsg76
(lp5341
g69
(g85
g71
NtRp5342
(dp5343
g74
(dp5344
sg83
g5338
sg76
(lp5345
g69
(g90
g71
NtRp5346
(dp5347
g74
(dp5348
sg83
g5342
sg76
(lp5349
g69
(g70
g71
NtRp5350
(dp5351
g74
(dp5352
g82
I2
ssg83
g5346
sg76
(lp5353
g69
(g78
g71
NtRp5354
(dp5355
g74
(dp5356
g82
I1
ssg83
Nsg76
(lp5357
g69
(g85
g71
NtRp5358
(dp5359
g74
(dp5360
sg83
g5354
sg76
(lp5361
g69
(g90
g71
NtRp5362
(dp5363
g74
(dp5364
sg83
g5358
sg76
(lp5365
g69
(g70
g71
NtRp5366
(dp5367
g74
(dp5368
g82
I1
ssg83
g5362
sg76
(lp5369
g4811
asbasbasbag69
(g85
g71
NtRp5370
(dp5371
g74
(dp5372
sg83
g5354
sg76
(lp5373
g69
(g90
g71
NtRp5374
(dp5375
g74
(dp5376
sg83
g5370
sg76
(lp5377
g69
(g70
g71
NtRp5378
(dp5379
g74
(dp5380
g82
I1
ssg83
g5374
sg76
(lp5381
I00
asbasbasbag69
(g85
g71
NtRp5382
(dp5383
g74
(dp5384
sg83
g5354
sg76
(lp5385
g69
(g90
g71
NtRp5386
(dp5387
g74
(dp5388
sg83
g5382
sg76
(lp5389
g69
(g70
g71
NtRp5390
(dp5391
g74
(dp5392
g82
I1
ssg83
g5386
sg76
(lp5393
g4809
asbasbasbasbasbasbasbag69
(g85
g71
NtRp5394
(dp5395
g74
(dp5396
sg83
g5338
sg76
(lp5397
g69
(g90
g71
NtRp5398
(dp5399
g74
(dp5400
sg83
g5394
sg76
(lp5401
g69
(g70
g71
NtRp5402
(dp5403
g74
(dp5404
g82
I2
ssg83
g5398
sg76
(lp5405
g69
(g78
g71
NtRp5406
(dp5407
g74
(dp5408
g82
I1
ssg83
Nsg76
(lp5409
g69
(g85
g71
NtRp5410
(dp5411
g74
(dp5412
sg83
g5406
sg76
(lp5413
g69
(g90
g71
NtRp5414
(dp5415
g74
(dp5416
sg83
g5410
sg76
(lp5417
g69
(g70
g71
NtRp5418
(dp5419
g74
(dp5420
g82
I1
ssg83
g5414
sg76
(lp5421
g4821
asbasbasbag69
(g85
g71
NtRp5422
(dp5423
g74
(dp5424
sg83
g5406
sg76
(lp5425
g69
(g90
g71
NtRp5426
(dp5427
g74
(dp5428
sg83
g5422
sg76
(lp5429
g69
(g70
g71
NtRp5430
(dp5431
g74
(dp5432
g82
I1
ssg83
g5426
sg76
(lp5433
I00
asbasbasbag69
(g85
g71
NtRp5434
(dp5435
g74
(dp5436
sg83
g5406
sg76
(lp5437
g69
(g90
g71
NtRp5438
(dp5439
g74
(dp5440
sg83
g5434
sg76
(lp5441
g69
(g70
g71
NtRp5442
(dp5443
g74
(dp5444
g82
I1
ssg83
g5438
sg76
(lp5445
g4819
asbasbasbag69
(g85
g71
NtRp5446
(dp5447
g74
(dp5448
sg83
g5406
sg76
(lp5449
g69
(g90
g71
NtRp5450
(dp5451
g74
(dp5452
sg83
g5446
sg76
(lp5453
g69
(g70
g71
NtRp5454
(dp5455
g74
(dp5456
g82
I1
ssg83
g5450
sg76
(lp5457
(lp5458
(g4835
I00
g4833
tp5459
a(g4845
I00
g4843
tp5460
a(g4855
I00
g4853
tp5461
a(g4865
I00
g4863
tp5462
a(g4875
I00
g4873
tp5463
a(g4885
I00
g4883
tp5464
a(g4895
I00
g4893
tp5465
a(g4905
I00
g4903
tp5466
a(g4915
I00
g4913
tp5467
aasbasbasbasbasbasbasbag69
(g85
g71
NtRp5468
(dp5469
g74
(dp5470
sg83
g5338
sg76
(lp5471
g69
(g90
g71
NtRp5472
(dp5473
g74
(dp5474
sg83
g5468
sg76
(lp5475
g69
(g70
g71
NtRp5476
(dp5477
g74
(dp5478
g82
I2
ssg83
g5472
sg76
(lp5479
g69
(g78
g71
NtRp5480
(dp5481
g74
(dp5482
g82
I1
ssg83
Nsg76
(lp5483
g69
(g85
g71
NtRp5484
(dp5485
g74
(dp5486
sg83
g5480
sg76
(lp5487
g69
(g90
g71
NtRp5488
(dp5489
g74
(dp5490
sg83
g5484
sg76
(lp5491
g69
(g70
g71
NtRp5492
(dp5493
g74
(dp5494
g82
I1
ssg83
g5488
sg76
(lp5495
g4925
asbasbasbag69
(g85
g71
NtRp5496
(dp5497
g74
(dp5498
sg83
g5480
sg76
(lp5499
g69
(g90
g71
NtRp5500
(dp5501
g74
(dp5502
sg83
g5496
sg76
(lp5503
g69
(g70
g71
NtRp5504
(dp5505
g74
(dp5506
g82
I1
ssg83
g5500
sg76
(lp5507
I00
asbasbasbag69
(g85
g71
NtRp5508
(dp5509
g74
(dp5510
sg83
g5480
sg76
(lp5511
g69
(g90
g71
NtRp5512
(dp5513
g74
(dp5514
sg83
g5508
sg76
(lp5515
g69
(g70
g71
NtRp5516
(dp5517
g74
(dp5518
g82
I1
ssg83
g5512
sg76
(lp5519
g4923
asbasbasbag69
(g85
g71
NtRp5520
(dp5521
g74
(dp5522
sg83
g5480
sg76
(lp5523
g69
(g90
g71
NtRp5524
(dp5525
g74
(dp5526
sg83
g5520
sg76
(lp5527
g69
(g70
g71
NtRp5528
(dp5529
g74
(dp5530
g82
I1
ssg83
g5524
sg76
(lp5531
(lp5532
(g4939
I00
g4937
tp5533
a(g4949
I00
g4947
tp5534
a(g4959
I00
g4957
tp5535
a(g4969
I00
g4967
tp5536
a(g4979
I00
g4977
tp5537
a(g4989
I00
g4987
tp5538
a(g4999
I00
g4997
tp5539
a(g5009
I00
g5007
tp5540
a(g5019
I00
g5017
tp5541
a(g5029
I00
g5027
tp5542
a(g5039
I00
g5037
tp5543
aasbasbasbasbasbasbasbag69
(g85
g71
NtRp5544
(dp5545
g74
(dp5546
sg83
g5338
sg76
(lp5547
g69
(g90
g71
NtRp5548
(dp5549
g74
(dp5550
sg83
g5544
sg76
(lp5551
g69
(g70
g71
NtRp5552
(dp5553
g74
(dp5554
g82
I2
ssg83
g5548
sg76
(lp5555
g69
(g78
g71
NtRp5556
(dp5557
g74
(dp5558
g82
I1
ssg83
Nsg76
(lp5559
g69
(g85
g71
NtRp5560
(dp5561
g74
(dp5562
sg83
g5556
sg76
(lp5563
g69
(g90
g71
NtRp5564
(dp5565
g74
(dp5566
sg83
g5560
sg76
(lp5567
g69
(g70
g71
NtRp5568
(dp5569
g74
(dp5570
g82
I1
ssg83
g5564
sg76
(lp5571
g5049
asbasbasbag69
(g85
g71
NtRp5572
(dp5573
g74
(dp5574
sg83
g5556
sg76
(lp5575
g69
(g90
g71
NtRp5576
(dp5577
g74
(dp5578
sg83
g5572
sg76
(lp5579
g69
(g70
g71
NtRp5580
(dp5581
g74
(dp5582
g82
I1
ssg83
g5576
sg76
(lp5583
I00
asbasbasbag69
(g85
g71
NtRp5584
(dp5585
g74
(dp5586
sg83
g5556
sg76
(lp5587
g69
(g90
g71
NtRp5588
(dp5589
g74
(dp5590
sg83
g5584
sg76
(lp5591
g69
(g70
g71
NtRp5592
(dp5593
g74
(dp5594
g82
I1
ssg83
g5588
sg76
(lp5595
g5047
asbasbasbag69
(g85
g71
NtRp5596
(dp5597
g74
(dp5598
sg83
g5556
sg76
(lp5599
g69
(g90
g71
NtRp5600
(dp5601
g74
(dp5602
sg83
g5596
sg76
(lp5603
g69
(g70
g71
NtRp5604
(dp5605
g74
(dp5606
g82
I1
ssg83
g5600
sg76
(lp5607
(lp5608
(g5063
I00
g5061
tp5609
a(g5073
I00
g5071
tp5610
a(g5083
I00
g5081
tp5611
a(g5093
I00
g5091
tp5612
a(g5103
I00
g5101
tp5613
a(g5113
I00
g5111
tp5614
a(g5123
I00
g5121
tp5615
a(g5133
I00
g5131
tp5616
a(g5143
I00
g5141
tp5617
a(g5153
I00
g5151
tp5618
a(g5163
I00
g5161
tp5619
a(g5173
I00
g5171
tp5620
a(g5183
I00
g5181
tp5621
a(g5193
I00
g5191
tp5622
a(g5203
I00
g5201
tp5623
a(g5213
I00
g5211
tp5624
aasbasbasbasbasbasbasbag69
(g85
g71
NtRp5625
(dp5626
g74
(dp5627
sg83
g5338
sg76
(lp5628
g69
(g90
g71
NtRp5629
(dp5630
g74
(dp5631
sg83
g5625
sg76
(lp5632
g69
(g70
g71
NtRp5633
(dp5634
g74
(dp5635
g82
I2
ssg83
g5629
sg76
(lp5636
g69
(g78
g71
NtRp5637
(dp5638
g74
(dp5639
g82
I1
ssg83
Nsg76
(lp5640
g69
(g85
g71
NtRp5641
(dp5642
g74
(dp5643
sg83
g5637
sg76
(lp5644
g69
(g90
g71
NtRp5645
(dp5646
g74
(dp5647
sg83
g5641
sg76
(lp5648
g69
(g70
g71
NtRp5649
(dp5650
g74
(dp5651
g82
I1
ssg83
g5645
sg76
(lp5652
g5224
asbasbasbag69
(g85
g71
NtRp5653
(dp5654
g74
(dp5655
sg83
g5637
sg76
(lp5656
g69
(g90
g71
NtRp5657
(dp5658
g74
(dp5659
sg83
g5653
sg76
(lp5660
g69
(g70
g71
NtRp5661
(dp5662
g74
(dp5663
g82
I1
ssg83
g5657
sg76
(lp5664
I00
asbasbasbag69
(g85
g71
NtRp5665
(dp5666
g74
(dp5667
sg83
g5637
sg76
(lp5668
g69
(g90
g71
NtRp5669
(dp5670
g74
(dp5671
sg83
g5665
sg76
(lp5672
g69
(g70
g71
NtRp5673
(dp5674
g74
(dp5675
g82
I1
ssg83
g5669
sg76
(lp5676
Nasbasbasbag69
(g85
g71
NtRp5677
(dp5678
g74
(dp5679
sg83
g5637
sg76
(lp5680
g69
(g90
g71
NtRp5681
(dp5682
g74
(dp5683
sg83
g5677
sg76
(lp5684
g69
(g70
g71
NtRp5685
(dp5686
g74
(dp5687
g82
I1
ssg83
g5681
sg76
(lp5688
(lp5689
(g5238
I00
g5236
tp5690
a(g5248
I00
g5246
tp5691
a(g5258
I00
g5256
tp5692
aasbasbasbasbasbasbasbag69
(g85
g71
NtRp5693
(dp5694
g74
(dp5695
sg83
g5338
sg76
(lp5696
g69
(g90
g71
NtRp5697
(dp5698
g74
(dp5699
sg83
g5693
sg76
(lp5700
g69
(g70
g71
NtRp5701
(dp5702
g74
(dp5703
g82
I2
ssg83
g5697
sg76
(lp5704
g69
(g78
g71
NtRp5705
(dp5706
g74
(dp5707
g82
I1
ssg83
Nsg76
(lp5708
g69
(g85
g71
NtRp5709
(dp5710
g74
(dp5711
sg83
g5705
sg76
(lp5712
g69
(g90
g71
NtRp5713
(dp5714
g74
(dp5715
sg83
g5709
sg76
(lp5716
g69
(g70
g71
NtRp5717
(dp5718
g74
(dp5719
g82
I1
ssg83
g5713
sg76
(lp5720
g5267
asbasbasbag69
(g85
g71
NtRp5721
(dp5722
g74
(dp5723
sg83
g5705
sg76
(lp5724
g69
(g90
g71
NtRp5725
(dp5726
g74
(dp5727
sg83
g5721
sg76
(lp5728
g69
(g70
g71
NtRp5729
(dp5730
g74
(dp5731
g82
I1
ssg83
g5725
sg76
(lp5732
I00
asbasbasbag69
(g85
g71
NtRp5733
(dp5734
g74
(dp5735
sg83
g5705
sg76
(lp5736
g69
(g90
g71
NtRp5737
(dp5738
g74
(dp5739
sg83
g5733
sg76
(lp5740
g69
(g70
g71
NtRp5741
(dp5742
g74
(dp5743
g82
I1
ssg83
g5737
sg76
(lp5744
Nasbasbasbag69
(g85
g71
NtRp5745
(dp5746
g74
(dp5747
sg83
g5705
sg76
(lp5748
g69
(g90
g71
NtRp5749
(dp5750
g74
(dp5751
sg83
g5745
sg76
(lp5752
g69
(g70
g71
NtRp5753
(dp5754
g74
(dp5755
g82
I1
ssg83
g5749
sg76
(lp5756
(lp5757
(g5281
I00
g5279
tp5758
a(g5290
I00
g5007
tp5759
a(g5299
I00
g5017
tp5760
aasbasbasbasbasbasbasbasbasbasbasbasbasbasbasbasbasbasbasbag69
(g85
g71
NtRp5761
(dp5762
g74
(dp5763
sg83
g4094
sg76
(lp5764
g69
(g90
g71
NtRp5765
(dp5766
g74
(dp5767
g94
g95
ssg83
g5761
sg76
(lp5768
S'meta'
p5769
asbag69
(g90
g71
NtRp5770
(dp5771
g74
(dp5772
g101
g102
ssg83
g5761
sg76
(lp5773
S':'
asbag69
(g90
g71
NtRp5774
(dp5775
g74
(dp5776
sg83
g5761
sg76
(lp5777
g69
(g70
g71
NtRp5778
(dp5779
g74
(dp5780
g82
I5
ssg83
g5774
sg76
(lp5781
g69
(g78
g71
NtRp5782
(dp5783
g74
(dp5784
g82
I4
ssg83
Nsg76
(lp5785
g69
(g85
g71
NtRp5786
(dp5787
g74
(dp5788
sg83
g5782
sg76
(lp5789
g69
(g90
g71
NtRp5790
(dp5791
g74
(dp5792
g94
g95
ssg83
g5786
sg76
(lp5793
S'author'
p5794
asbag69
(g90
g71
NtRp5795
(dp5796
g74
(dp5797
g101
g102
ssg83
g5786
sg76
(lp5798
S':'
asbag69
(g90
g71
NtRp5799
(dp5800
g74
(dp5801
sg83
g5786
sg76
(lp5802
g69
(g70
g71
NtRp5803
(dp5804
g74
(dp5805
g82
I4
ssg83
g5799
sg76
(lp5806
S'Your Name <you@example.com>'
p5807
asbasbasbag69
(g85
g71
NtRp5808
(dp5809
g74
(dp5810
sg83
g5782
sg76
(lp5811
g69
(g90
g71
NtRp5812
(dp5813
g74
(dp5814
g94
g95
ssg83
g5808
sg76
(lp5815
S'description'
p5816
asbag69
(g90
g71
NtRp5817
(dp5818
g74
(dp5819
g101
g102
ssg83
g5808
sg76
(lp5820
S':'
asbag69
(g90
g71
NtRp5821
(dp5822
g74
(dp5823
sg83
g5808
sg76
(lp5824
g69
(g70
g71
NtRp5825
(dp5826
g74
(dp5827
g82
I4
ssg83
g5821
sg76
(lp5828
S'a cool new app'
p5829
asbasbasbag69
(g85
g71
NtRp5830
(dp5831
g74
(dp5832
sg83
g5782
sg76
(lp5833
g69
(g90
g71
NtRp5834
(dp5835
g74
(dp5836
g94
g95
ssg83
g5830
sg76
(lp5837
S'generator'
p5838
asbag69
(g90
g71
NtRp5839
(dp5840
g74
(dp5841
g101
g102
ssg83
g5830
sg76
(lp5842
S':'
asbag69
(g90
g71
NtRp5843
(dp5844
g74
(dp5845
sg83
g5830
sg76
(lp5846
g69
(g70
g71
NtRp5847
(dp5848
g74
(dp5849
g82
I4
ssg83
g5843
sg76
(lp5850
S'Web2py Web Framework'
p5851
asbasbasbag69
(g85
g71
NtRp5852
(dp5853
g74
(dp5854
sg83
g5782
sg76
(lp5855
g69
(g90
g71
NtRp5856
(dp5857
g74
(dp5858
g94
g95
ssg83
g5852
sg76
(lp5859
S'keywords'
p5860
asbag69
(g90
g71
NtRp5861
(dp5862
g74
(dp5863
g101
g102
ssg83
g5852
sg76
(lp5864
S':'
asbag69
(g90
g71
NtRp5865
(dp5866
g74
(dp5867
sg83
g5852
sg76
(lp5868
g69
(g70
g71
NtRp5869
(dp5870
g74
(dp5871
g82
I4
ssg83
g5865
sg76
(lp5872
S'web2py, python, framework'
p5873
asbasbasbasbasbasbasbag69
(g85
g71
NtRp5874
(dp5875
g74
(dp5876
sg83
g4094
sg76
(lp5877
g69
(g90
g71
NtRp5878
(dp5879
g74
(dp5880
g94
g95
ssg83
g5874
sg76
(lp5881
S'models_to_run'
p5882
asbag69
(g90
g71
NtRp5883
(dp5884
g74
(dp5885
g101
g102
ssg83
g5874
sg76
(lp5886
S':'
asbag69
(g90
g71
NtRp5887
(dp5888
g74
(dp5889
sg83
g5874
sg76
(lp5890
g69
(g70
g71
NtRp5891
(dp5892
g74
(dp5893
g82
I5
ssg83
g5887
sg76
(lp5894
g69
(g78
g71
NtRp5895
(dp5896
g74
(dp5897
g82
I4
ssg83
Nsg76
(lp5898
g69
(g85
g71
NtRp5899
(dp5900
g74
(dp5901
sg83
g5895
sg76
(lp5902
g69
(g90
g71
NtRp5903
(dp5904
g74
(dp5905
sg83
g5899
sg76
(lp5906
g69
(g70
g71
NtRp5907
(dp5908
g74
(dp5909
g82
I4
ssg83
g5903
sg76
(lp5910
S'^\\w+\\.py$'
p5911
asbasbasbag69
(g85
g71
NtRp5912
(dp5913
g74
(dp5914
sg83
g5895
sg76
(lp5915
g69
(g90
g71
NtRp5916
(dp5917
g74
(dp5918
sg83
g5912
sg76
(lp5919
g69
(g70
g71
NtRp5920
(dp5921
g74
(dp5922
g82
I4
ssg83
g5916
sg76
(lp5923
S'^default/\\w+\\.py$'
p5924
asbasbasbag69
(g85
g71
NtRp5925
(dp5926
g74
(dp5927
sg83
g5895
sg76
(lp5928
g69
(g90
g71
NtRp5929
(dp5930
g74
(dp5931
sg83
g5925
sg76
(lp5932
g69
(g70
g71
NtRp5933
(dp5934
g74
(dp5935
g82
I4
ssg83
g5929
sg76
(lp5936
S'^default/show_job/\\w+\\.py$'
p5937
asbasbasbasbasbasbasbag69
(g85
g71
NtRp5938
(dp5939
g74
(dp5940
sg83
g4094
sg76
(lp5941
g69
(g90
g71
NtRp5942
(dp5943
g74
(dp5944
g94
g95
ssg83
g5938
sg76
(lp5945
S'postprocessing'
p5946
asbag69
(g90
g71
NtRp5947
(dp5948
g74
(dp5949
g101
g102
ssg83
g5938
sg76
(lp5950
S':'
asbag69
(g90
g71
NtRp5951
(dp5952
g74
(dp5953
sg83
g5938
sg76
(lp5954
g69
(g70
g71
NtRp5955
(dp5956
g74
(dp5957
g82
I5
ssg83
g5951
sg76
(lp5958
g69
(g78
g71
NtRp5959
(dp5960
g74
(dp5961
g82
I4
ssg83
Nsg76
(lp5962
sbasbasbasbag69
(g85
g71
NtRp5963
(dp5964
g74
(dp5965
sg83
g4094
sg76
(lp5966
g69
(g90
g71
NtRp5967
(dp5968
g74
(dp5969
g94
g95
ssg83
g5963
sg76
(lp5970
S'session_cookie_expires'
p5971
asbag69
(g90
g71
NtRp5972
(dp5973
g74
(dp5974
g101
g102
ssg83
g5963
sg76
(lp5975
S':'
asbag69
(g90
g71
NtRp5976
(dp5977
g74
(dp5978
sg83
g5963
sg76
(lp5979
g69
(g70
g71
NtRp5980
(dp5981
g74
(dp5982
g82
I5
ssg83
g5976
sg76
(lp5983
S'None'
p5984
asbasbasbag69
(g85
g71
NtRp5985
(dp5986
g74
(dp5987
sg83
g4094
sg76
(lp5988
g69
(g90
g71
NtRp5989
(dp5990
g74
(dp5991
g94
g95
ssg83
g5985
sg76
(lp5992
S'session_data_name'
p5993
asbag69
(g90
g71
NtRp5994
(dp5995
g74
(dp5996
g101
g102
ssg83
g5985
sg76
(lp5997
S':'
asbag69
(g90
g71
NtRp5998
(dp5999
g74
(dp6000
sg83
g5985
sg76
(lp6001
g69
(g70
g71
NtRp6002
(dp6003
g74
(dp6004
g82
I5
ssg83
g5998
sg76
(lp6005
S'session_data_betsy'
p6006
asbasbasbag69
(g85
g71
NtRp6007
(dp6008
g74
(dp6009
sg83
g4094
sg76
(lp6010
g69
(g90
g71
NtRp6011
(dp6012
g74
(dp6013
g94
g95
ssg83
g6007
sg76
(lp6014
S'session_file'
p6015
asbag69
(g90
g71
NtRp6016
(dp6017
g74
(dp6018
g101
g102
ssg83
g6007
sg76
(lp6019
S':'
asbag69
(g90
g71
NtRp6020
(dp6021
g74
(dp6022
sg83
g6007
sg76
(lp6023
g69
(g70
g71
NtRp6024
(dp6025
g74
(dp6026
g82
I5
ssg83
g6020
sg76
(lp6027
S"<open file '/home/xchen/web2py/applications/Betsy/sessions/127.0.0.1-755547c6-6d6b-4e5a-99c1-f5a3f4534566', mode 'rb+' at 0x12b4d810>"
p6028
asbasbasbag69
(g85
g71
NtRp6029
(dp6030
g74
(dp6031
sg83
g4094
sg76
(lp6032
g69
(g90
g71
NtRp6033
(dp6034
g74
(dp6035
g94
g95
ssg83
g6029
sg76
(lp6036
S'session_filename'
p6037
asbag69
(g90
g71
NtRp6038
(dp6039
g74
(dp6040
g101
g102
ssg83
g6029
sg76
(lp6041
S':'
asbag69
(g90
g71
NtRp6042
(dp6043
g74
(dp6044
sg83
g6029
sg76
(lp6045
g69
(g70
g71
NtRp6046
(dp6047
g74
(dp6048
g82
I5
ssg83
g6042
sg76
(lp6049
S'/home/xchen/web2py/applications/Betsy/sessions/127.0.0.1-755547c6-6d6b-4e5a-99c1-f5a3f4534566'
p6050
asbasbasbag69
(g85
g71
NtRp6051
(dp6052
g74
(dp6053
sg83
g4094
sg76
(lp6054
g69
(g90
g71
NtRp6055
(dp6056
g74
(dp6057
g94
g95
ssg83
g6051
sg76
(lp6058
S'session_id'
p6059
asbag69
(g90
g71
NtRp6060
(dp6061
g74
(dp6062
g101
g102
ssg83
g6051
sg76
(lp6063
S':'
asbag69
(g90
g71
NtRp6064
(dp6065
g74
(dp6066
sg83
g6051
sg76
(lp6067
g69
(g70
g71
NtRp6068
(dp6069
g74
(dp6070
g82
I5
ssg83
g6064
sg76
(lp6071
g500
asbasbasbag69
(g85
g71
NtRp6072
(dp6073
g74
(dp6074
sg83
g4094
sg76
(lp6075
g69
(g90
g71
NtRp6076
(dp6077
g74
(dp6078
g94
g95
ssg83
g6072
sg76
(lp6079
S'session_id_name'
p6080
asbag69
(g90
g71
NtRp6081
(dp6082
g74
(dp6083
g101
g102
ssg83
g6072
sg76
(lp6084
S':'
asbag69
(g90
g71
NtRp6085
(dp6086
g74
(dp6087
sg83
g6072
sg76
(lp6088
g69
(g70
g71
NtRp6089
(dp6090
g74
(dp6091
g82
I5
ssg83
g6085
sg76
(lp6092
g4151
asbasbasbag69
(g85
g71
NtRp6093
(dp6094
g74
(dp6095
sg83
g4094
sg76
(lp6096
g69
(g90
g71
NtRp6097
(dp6098
g74
(dp6099
g94
g95
ssg83
g6093
sg76
(lp6100
S'session_locked'
p6101
asbag69
(g90
g71
NtRp6102
(dp6103
g74
(dp6104
g101
g102
ssg83
g6093
sg76
(lp6105
S':'
asbag69
(g90
g71
NtRp6106
(dp6107
g74
(dp6108
sg83
g6093
sg76
(lp6109
g69
(g70
g71
NtRp6110
(dp6111
g74
(dp6112
g82
I5
ssg83
g6106
sg76
(lp6113
g1629
asbasbasbag69
(g85
g71
NtRp6114
(dp6115
g74
(dp6116
sg83
g4094
sg76
(lp6117
g69
(g90
g71
NtRp6118
(dp6119
g74
(dp6120
g94
g95
ssg83
g6114
sg76
(lp6121
S'session_new'
p6122
asbag69
(g90
g71
NtRp6123
(dp6124
g74
(dp6125
g101
g102
ssg83
g6114
sg76
(lp6126
S':'
asbag69
(g90
g71
NtRp6127
(dp6128
g74
(dp6129
sg83
g6114
sg76
(lp6130
g69
(g70
g71
NtRp6131
(dp6132
g74
(dp6133
g82
I5
ssg83
g6127
sg76
(lp6134
g112
asbasbasbag69
(g85
g71
NtRp6135
(dp6136
g74
(dp6137
sg83
g4094
sg76
(lp6138
g69
(g90
g71
NtRp6139
(dp6140
g74
(dp6141
g94
g95
ssg83
g6135
sg76
(lp6142
S'session_storage_type'
p6143
asbag69
(g90
g71
NtRp6144
(dp6145
g74
(dp6146
g101
g102
ssg83
g6135
sg76
(lp6147
S':'
asbag69
(g90
g71
NtRp6148
(dp6149
g74
(dp6150
sg83
g6135
sg76
(lp6151
g69
(g70
g71
NtRp6152
(dp6153
g74
(dp6154
g82
I5
ssg83
g6148
sg76
(lp6155
g3082
asbasbasbag69
(g85
g71
NtRp6156
(dp6157
g74
(dp6158
sg83
g4094
sg76
(lp6159
g69
(g90
g71
NtRp6160
(dp6161
g74
(dp6162
g94
g95
ssg83
g6156
sg76
(lp6163
S'status'
p6164
asbag69
(g90
g71
NtRp6165
(dp6166
g74
(dp6167
g101
g102
ssg83
g6156
sg76
(lp6168
S':'
asbag69
(g90
g71
NtRp6169
(dp6170
g74
(dp6171
sg83
g6156
sg76
(lp6172
g69
(g70
g71
NtRp6173
(dp6174
g74
(dp6175
g82
I5
ssg83
g6169
sg76
(lp6176
S'200'
p6177
asbasbasbag69
(g85
g71
NtRp6178
(dp6179
g74
(dp6180
sg83
g4094
sg76
(lp6181
g69
(g90
g71
NtRp6182
(dp6183
g74
(dp6184
g94
g95
ssg83
g6178
sg76
(lp6185
S'subtitle'
p6186
asbag69
(g90
g71
NtRp6187
(dp6188
g74
(dp6189
g101
g102
ssg83
g6178
sg76
(lp6190
S':'
asbag69
(g90
g71
NtRp6191
(dp6192
g74
(dp6193
sg83
g6178
sg76
(lp6194
g69
(g70
g71
NtRp6195
(dp6196
g74
(dp6197
g82
I5
ssg83
g6191
sg76
(lp6198
g4689
(S's\r\x00\x00\x00customize me!'
tRp6199
asbasbasbag69
(g85
g71
NtRp6200
(dp6201
g74
(dp6202
sg83
g4094
sg76
(lp6203
g69
(g90
g71
NtRp6204
(dp6205
g74
(dp6206
g94
g95
ssg83
g6200
sg76
(lp6207
S'title'
p6208
asbag69
(g90
g71
NtRp6209
(dp6210
g74
(dp6211
g101
g102
ssg83
g6200
sg76
(lp6212
S':'
asbag69
(g90
g71
NtRp6213
(dp6214
g74
(dp6215
sg83
g6200
sg76
(lp6216
g69
(g70
g71
NtRp6217
(dp6218
g74
(dp6219
g82
I5
ssg83
g6213
sg76
(lp6220
S'Betsy'
p6221
asbasbasbag69
(g85
g71
NtRp6222
(dp6223
g74
(dp6224
sg83
g4094
sg76
(lp6225
g69
(g90
g71
NtRp6226
(dp6227
g74
(dp6228
g94
g95
ssg83
g6222
sg76
(lp6229
S'view'
p6230
asbag69
(g90
g71
NtRp6231
(dp6232
g74
(dp6233
g101
g102
ssg83
g6222
sg76
(lp6234
S':'
asbag69
(g90
g71
NtRp6235
(dp6236
g74
(dp6237
sg83
g6222
sg76
(lp6238
g69
(g70
g71
NtRp6239
(dp6240
g74
(dp6241
g82
I5
ssg83
g6235
sg76
(lp6242
S'default/show_job.html'
p6243
asbasbasbasbasbsS'locals'
p6244
(dp6245
g2421
g21
sS'hash_vars'
p6246
g1629
sS'port'
p6247
S'None'
p6248
sg121
S"'Betsy'"
p6249
sS'user_signature'
p6250
S'None'
p6251
sg673
S"<Storage {'debugging': False, 'http_user_agent':...[]), 'query_string': '', 'wsgi_run_once': False}>"
p6252
sS'url_encode'
p6253
g1629
sS'scheme'
p6254
S'None'
p6255
sg1774
S"'show_job'"
p6256
sS'encode_embedded_slash'
p6257
g112
sg52
S'[]'
p6258
sS'url_out'
p6259
S'<function url_out>'
p6260
sg246
S"'result_folder'"
p6261
sS'a'
S'None'
p6262
sS'c'
S"'result_folder'"
p6263
sg1730
S'None'
p6264
sS'f'
S"['annotate_probes_BETSYHASH1_3647ecb57328dd9ab3fbc1b34d025aca', 'signal_file_annot_path.b86ee99021db9bd2.616c6c5f616d6c5f746573745f66696c742e676374.txt']"
p6265
sS'host'
p6266
S'None'
p6267
sS'hmac_key'
p6268
S'None'
p6269
sS'r'
S"<Storage {'function': 'show_job', 'body': <cStri...applications/Betsy/', 'post_vars': <Storage {}>}>"
p6270
sS'salt'
p6271
S'None'
p6272
sS'anchor'
p6273
S"''"
p6274
sssS'traceback'
p6275
S'Traceback (most recent call last):\n  File "/home/xchen/web2py/gluon/restricted.py", line 212, in restricted\n    exec ccode in environment\n  File "/home/xchen/web2py/applications/Betsy/views/default/show_job.html", line 93, in <module>\n  File "/home/xchen/web2py/gluon/html.py", line 275, in URL\n    \'when calling URL, function or function name required\')\nSyntaxError: when calling URL, function or function name required\n'
p6276
s.