(dp1
S'output'
p2
S"<type 'exceptions.SyntaxError'> invalid syntax (show_job.html, line 90)"
p3
sS'layer'
p4
S'/home/xchen/web2py/applications/Betsy/views/default/show_job.html'
p5
sS'code'
p6
S'response.write(\'<!DOCTYPE html>\\n<!-- paulirish.com/2008/conditional-stylesheets-vs-css-hacks-answer-neither/ -->\\n<!--[if lt IE 7]><html class="ie ie6 ie-lte9 ie-lte8 ie-lte7 no-js" lang="\', escape=False)\nresponse.write(T.accepted_language or \'en\')\nresponse.write(\'"> <![endif]-->\\n<!--[if IE 7]><html class="ie ie7 ie-lte9 ie-lte8 ie-lte7 no-js" lang="\', escape=False)\nresponse.write(T.accepted_language or \'en\')\nresponse.write(\'"> <![endif]-->\\n<!--[if IE 8]><html class="ie ie8 ie-lte9 ie-lte8 no-js" lang="\', escape=False)\nresponse.write(T.accepted_language or \'en\')\nresponse.write(\'"> <![endif]-->\\n<!--[if IE 9]><html class="ie9 ie-lte9 no-js" lang="\', escape=False)\nresponse.write(T.accepted_language or \'en\')\nresponse.write(\'"> <![endif]-->\\n<!--[if (gt IE 9)|!(IE)]><!--> <html class="no-js" lang="\', escape=False)\nresponse.write(T.accepted_language or \'en\')\nresponse.write(\'"> <!--<![endif]-->\\n<head>\\n  <meta charset="utf-8" />\\n  <!-- www.phpied.com/conditional-comments-block-downloads/ -->\\n  <!-- Always force latest IE rendering engine\\n       (even in intranet) & Chrome Frame\\n       Remove this if you use the .htaccess -->\\n  <!--[if IE]>\\n      <meta http-equiv="X-UA-Compatible" content="IE=edge\', escape=False)\nresponse.write(not request.is_local and \',chrome=1\' or \'\')\nresponse.write(\'">\\n      <![endif]-->\\n\\n  <title>\', escape=False)\nresponse.write(response.title or request.application)\nresponse.write(\'</title>\\n\\n  <!-- http://dev.w3.org/html5/markup/meta.name.html -->\\n  <meta name="application-name" content="\', escape=False)\nresponse.write(request.application)\nresponse.write(\'" />\\n\\n  <!-- Speaking of Google, don\\\'t forget to set your site up:\\n       http://google.com/webmasters -->\\n  <meta name="google-site-verification" content="" />\\n\\n  <!--  Mobile Viewport Fix\\n        j.mp/mobileviewport & davidbcalhoun.com/2010/viewport-metatag\\n        device-width: Occupy full width of the screen in its current orientation\\n        initial-scale = 1.0 retains dimensions instead of zooming out if page height > device height\\n        user-scalable = yes allows the user to zoom in -->\\n  <meta name="viewport" content="width=device-width, initial-scale=1.0">\\n\\n  <link rel="shortcut icon" href="\', escape=False)\nresponse.write(URL(\'static\',\'images/favicon.ico\'))\nresponse.write(\'" type="image/x-icon">\\n  <link rel="apple-touch-icon" href="\', escape=False)\nresponse.write(URL(\'static\',\'images/favicon.png\'))\nresponse.write(\'">\\n\\n  <!-- All JavaScript at the bottom, except for Modernizr which enables\\n       HTML5 elements & feature detects -->\\n  <script src="\', escape=False)\nresponse.write(URL(\'static\',\'js/modernizr.custom.js\'))\nresponse.write(\'"></script>\\n\\n  <!-- include stylesheets -->\\n  \', escape=False)\nresponse.files.append(URL(\'static\',\'css/web2py.css\'))\nresponse.files.append(URL(\'static\',\'css/bootstrap.min.css\'))\nresponse.files.append(URL(\'static\',\'css/bootstrap-responsive.min.css\'))\nresponse.files.append(URL(\'static\',\'css/web2py_bootstrap.css\'))\nresponse.write(\'\\n\\n  \', escape=False)\nresponse.write(\'<script type="text/javascript"><!--\\n    // These variables are used by the web2py_ajax_init function in web2py_ajax.js (which is loaded below).\\n    var w2p_ajax_confirm_message = "\', escape=False)\nresponse.write(T(\'Are you sure you want to delete this object?\'))\nresponse.write(\'";\\n    var w2p_ajax_date_format = "\', escape=False)\nresponse.write(T(\'%Y-%m-%d\'))\nresponse.write(\'";\\n    var w2p_ajax_datetime_format = "\', escape=False)\nresponse.write(T(\'%Y-%m-%d %H:%M:%S\'))\nresponse.write(\'";\\n    //--></script>\\n\', escape=False)\nresponse.files.insert(0,URL(\'static\',\'js/jquery.js\'))\nresponse.files.insert(1,URL(\'static\',\'css/calendar.css\'))\nresponse.files.insert(2,URL(\'static\',\'js/calendar.js\'))\nresponse.files.insert(3,URL(\'static\',\'js/web2py.js\'))\nresponse.include_meta()\nresponse.include_files()\nresponse.write(\'\\n\', escape=False)\nresponse.write(\'\\n\\n  \', escape=False)\n# using sidebars need to know what sidebar you want to use\nleft_sidebar_enabled = globals().get(\'left_sidebar_enabled\',False)\nright_sidebar_enabled = globals().get(\'right_sidebar_enabled\',False)\nmiddle_columns = {0:\'span12\',1:\'span9\',2:\'span6\'}[\n(left_sidebar_enabled and 1 or 0)+(right_sidebar_enabled and 1 or 0)]\nresponse.write(\'\\n\\n  <!-- uncomment here to load jquery-ui\\n       <link rel="stylesheet" href="http://ajax.googleapis.com/ajax/libs/jqueryui/1.8.16/themes/base/jquery-ui.css" type="text/css" media="all" />\\n       <script src="http://ajax.googleapis.com/ajax/libs/jqueryui/1.8.16/jquery-ui.min.js" type="text/javascript"></script>\\n       uncomment to load jquery-ui //-->\\n  <noscript><link href="\', escape=False)\nresponse.write(URL(\'static\', \'css/web2py_bootstrap_nojs.css\'))\nresponse.write(\'" rel="stylesheet" type="text/css" /></noscript>\\n  \', escape=False)\nresponse.write(\'\\n</head>\\n\\n<body>\\n  <!-- Navbar ================================================== -->\\n  <div class="navbar navbar-inverse navbar-fixed-top">\\n    <div class="flash">\', escape=False)\nresponse.write(response.flash or \'\')\nresponse.write(\'</div>\\n    <div class="navbar-inner">\\n      <div class="container">\\n        <!-- the next tag is necessary for bootstrap menus, do not remove -->\\n        <button type="button" class="btn btn-navbar" data-toggle="collapse" data-target=".nav-collapse">\\n          <span class="icon-bar"></span>\\n          <span class="icon-bar"></span>\\n          <span class="icon-bar"></span>\\n        </button>\\n        <a class="brand" href="http://www.web2py.com/"><b>web<span>2</span>py</b>&trade;&nbsp;</a>\\n        <ul id="navbar" class="nav pull-right">\', escape=False)\nresponse.write(\'auth\' in globals() and auth.navbar(mode="dropdown") or \'\')\nresponse.write(\'</ul>\\n        <div class="nav-collapse">\\n          \', escape=False)\nis_mobile=request.user_agent().is_mobile\nresponse.write(\'\\n          \', escape=False)\nif response.menu:\n    response.write(\'\\n          \', escape=False)\n    response.write(MENU(response.menu, _class=\'mobile-menu nav\' if is_mobile else \'nav\',mobile=is_mobile,li_class=\'dropdown\',ul_class=\'dropdown-menu\'))\n    response.write(\'\\n          \', escape=False)\n    pass\nresponse.write(\'\\n        </div><!--/.nav-collapse -->\\n      </div>\\n    </div>\\n  </div><!--/top navbar -->\\n\\n  <div class="container">\\n    <!-- Masthead ================================================== -->\\n    <header class="mastheader row" id="header">\\n        <div class="span12">\\n            <div class="page-header">\\n                <h1>\\n                    \', escape=False)\nresponse.write(response.title or request.application)\nresponse.write(\'\\n                    <small>\', escape=False)\nresponse.write(response.subtitle or \'\')\nresponse.write(\'</small>\\n                </h1>\\n            </div>\\n        </div>\\n    </header>\\n\\n    <section id="main" class="main row">\\n        \', escape=False)\nif left_sidebar_enabled:\n    response.write(\'\\n        <div class="span3 left-sidebar">\\n            \', escape=False)\n    response.write(\'\\n            <h3>Left Sidebar</h3>\\n            <p></p>\\n            \', escape=False)\n    response.write(\'\\n        </div>\\n        \', escape=False)\n    pass\nresponse.write(\'\\n\\n        <div class="\', escape=False)\nresponse.write(middle_columns)\nresponse.write(\'">\\n            \', escape=False)\nresponse.write(\'\\n            \', escape=False)\nresponse.write(\'\\n<h1>Job number: \', escape=False)\nresponse.write(job.Jobnumber)\nresponse.write(\'</h1>\\n<h2>\', escape=False)\nresponse.write(info)\nresponse.write(\'</h2>\\n<!--\', escape=False)\nresponse.write(text)\nresponse.write(\'\\n\', escape=False)\nfor line in text:\n    response.write(\'\\n\\t\\n\\t\', escape=False)\n    if os.path.exists(line):\n        response.write(\'\\n\\t\\t\', escape=False)\n        response.write(A(line,_href=URL(line))\n        response.write(\'\\n\\t\', escape=False)\n    else:\n        response.write(\'\\n\\t\', escape=False)\n        response.write(line)\n        response.write(\'\\n\\t\', escape=False)\n        pass\n    response.write(\'\\n\', escape=False)\n    pass\nresponse.write(\'-->\\n\', escape=False)\nresponse.write(\'\\n            \', escape=False)\nresponse.write(\'\\n        </div>\\n\\n        \', escape=False)\nif right_sidebar_enabled:\n    response.write(\'\\n        <div class="span3">\\n            \', escape=False)\n    response.write(\'\\n            <h3>Right Sidebar</h3>\\n            <p></p>\\n            \', escape=False)\n    response.write(\'\\n        </div>\\n        \', escape=False)\n    pass\nresponse.write(\'\\n    </section><!--/main-->\\n\\n    <!-- Footer ================================================== -->\\n    <div class="row">\\n        <footer class="footer span12" id="footer">\\n            <div class="footer-content">\\n                \', escape=False)\nresponse.write(\' <!-- this is default footer -->\\n                <div class="copyright pull-left">\', escape=False)\nresponse.write(T(\'Copyright\'))\nresponse.write(\' &#169; \', escape=False)\nresponse.write(request.now.year)\nresponse.write(\'</div>\\n                <div id="poweredBy" class="pull-right">\\n                    \', escape=False)\nresponse.write(T(\'Powered by\'))\nresponse.write(\'\\n                    <a href="http://www.web2py.com/">web2py</a>\\n                </div>\\n                \', escape=False)\nresponse.write(\'\\n            </div>\\n        </footer>\\n    </div>\\n\\n  </div> <!-- /container -->\\n\\n  <!-- The javascript =============================================\\n       (Placed at the end of the document so the pages load faster) -->\\n  <script src="\', escape=False)\nresponse.write(URL(\'static\',\'js/bootstrap.min.js\'))\nresponse.write(\'"></script>\\n  <script src="\', escape=False)\nresponse.write(URL(\'static\',\'js/web2py_bootstrap.js\'))\nresponse.write(\'"></script>\\n  <!--[if lt IE 7 ]>\\n      <script src="\', escape=False)\nresponse.write(URL(\'static\',\'js/dd_belatedpng.js\'))\nresponse.write(\'"></script>\\n      <script> DD_belatedPNG.fix(\\\'img, .png_bg\\\'); //fix any <img> or .png_bg background-images </script>\\n      <![endif]-->\\n  \', escape=False)\nif response.google_analytics_id:\n    response.write(\'<script type="text/javascript"> var _gaq = _gaq || []; _gaq.push([\\\'_setAccount\\\', \\\'\', escape=False)\n    response.write(response.google_analytics_id)\n    response.write("\']); _gaq.push([\'_trackPageview\']); (function() { var ga = document.createElement(\'script\'); ga.type = \'text/javascript\'; ga.async = true; ga.src = (\'https:\' == document.location.protocol ? \'https://ssl\' : \'http://www\') + \'.google-analytics.com/ga.js\'; var s = document.getElementsByTagName(\'script\')[0]; s.parentNode.insertBefore(ga, s); })(); </script> ", escape=False)\n    pass\nresponse.write(\'\\n  <script src="\', escape=False)\nresponse.write(URL(\'static\',\'js/share.js\',vars=dict(static=URL(\'static\',\'images\'))))\nresponse.write(\'"></script>\\n</body>\\n</html>\\n\\n\', escape=False)'
p7
sS'snapshot'
p8
(dp9
S'exception'
p10
(dp11
S'__getslice__'
p12
S"<method-wrapper '__getslice__' of exceptions.SyntaxError object>"
p13
sS'text'
p14
S'"        response.write(\'\\\\n\\\\t\', escape=False)\\n"'
p15
sS'__str__'
p16
S"<method-wrapper '__str__' of exceptions.SyntaxError object>"
p17
sS'__reduce__'
p18
S'<built-in method __reduce__ of exceptions.SyntaxError object>'
p19
sS'__dict__'
p20
S'{}'
p21
sS'__sizeof__'
p22
S'<built-in method __sizeof__ of exceptions.SyntaxError object>'
p23
sS'__init__'
p24
S"<method-wrapper '__init__' of exceptions.SyntaxError object>"
p25
sS'__setattr__'
p26
S"<method-wrapper '__setattr__' of exceptions.SyntaxError object>"
p27
sS'__reduce_ex__'
p28
S'<built-in method __reduce_ex__ of exceptions.SyntaxError object>'
p29
sS'__new__'
p30
S'<built-in method __new__ of type object>'
p31
sS'__format__'
p32
S'<built-in method __format__ of exceptions.SyntaxError object>'
p33
sS'__class__'
p34
S"<type 'exceptions.SyntaxError'>"
p35
sS'filename'
p36
S"'/home/xchen/web2py/applications/Betsy/views/default/show_job.html'"
p37
sS'lineno'
p38
S'90'
p39
sS'msg'
p40
S"'invalid syntax'"
p41
sS'__doc__'
p42
S"'Invalid syntax.'"
p43
sS'__getitem__'
p44
S"<method-wrapper '__getitem__' of exceptions.SyntaxError object>"
p45
sS'__setstate__'
p46
S'<built-in method __setstate__ of exceptions.SyntaxError object>'
p47
sS'__getattribute__'
p48
S"<method-wrapper '__getattribute__' of exceptions.SyntaxError object>"
p49
sS'print_file_and_line'
p50
S'None'
p51
sS'args'
p52
S'(\'invalid syntax\', (\'/home/xchen/web2py/applications/Betsy/views/default/show_job.html\', 90, 16, "        response.write(\'\\\\n\\\\t\', escape=False)\\n"))'
p53
sS'__subclasshook__'
p54
S'<built-in method __subclasshook__ of type object>'
p55
sS'offset'
p56
S'16'
p57
sS'__unicode__'
p58
S'<built-in method __unicode__ of exceptions.SyntaxError object>'
p59
sS'__delattr__'
p60
S"<method-wrapper '__delattr__' of exceptions.SyntaxError object>"
p61
sS'__repr__'
p62
S"<method-wrapper '__repr__' of exceptions.SyntaxError object>"
p63
sS'__hash__'
p64
S"<method-wrapper '__hash__' of exceptions.SyntaxError object>"
p65
ssS'evalue'
p66
S'invalid syntax (show_job.html, line 90)'
p67
sS'request'
p68
ccopy_reg
_reconstructor
p69
(cgluon.html
BEAUTIFY
p70
c__builtin__
object
p71
NtRp72
(dp73
S'attributes'
p74
(dp75
sS'components'
p76
(lp77
g69
(cgluon.html
TABLE
p78
g71
NtRp79
(dp80
g74
(dp81
S'level'
p82
I5
ssS'parent'
p83
Nsg76
(lp84
g69
(cgluon.html
TR
p85
g71
NtRp86
(dp87
g74
(dp88
sg83
g79
sg76
(lp89
g69
(cgluon.html
TD
p90
g71
NtRp91
(dp92
g74
(dp93
S'_style'
p94
S'font-weight:bold;vertical-align:top'
p95
ssg83
g86
sg76
(lp96
S'ajax'
p97
asbag69
(g90
g71
NtRp98
(dp99
g74
(dp100
S'_valign'
p101
S'top'
p102
ssg83
g86
sg76
(lp103
S':'
asbag69
(g90
g71
NtRp104
(dp105
g74
(dp106
sg83
g86
sg76
(lp107
g69
(g70
g71
NtRp108
(dp109
g74
(dp110
g82
I5
ssg83
g104
sg76
(lp111
S'False'
p112
asbasbasbag69
(g85
g71
NtRp113
(dp114
g74
(dp115
sg83
g79
sg76
(lp116
g69
(g90
g71
NtRp117
(dp118
g74
(dp119
g94
g95
ssg83
g113
sg76
(lp120
S'application'
p121
asbag69
(g90
g71
NtRp122
(dp123
g74
(dp124
g101
g102
ssg83
g113
sg76
(lp125
S':'
asbag69
(g90
g71
NtRp126
(dp127
g74
(dp128
sg83
g113
sg76
(lp129
g69
(g70
g71
NtRp130
(dp131
g74
(dp132
g82
I5
ssg83
g126
sg76
(lp133
S'Betsy'
p134
asbasbasbag69
(g85
g71
NtRp135
(dp136
g74
(dp137
sg83
g79
sg76
(lp138
g69
(g90
g71
NtRp139
(dp140
g74
(dp141
g94
g95
ssg83
g135
sg76
(lp142
g52
asbag69
(g90
g71
NtRp143
(dp144
g74
(dp145
g101
g102
ssg83
g135
sg76
(lp146
S':'
asbag69
(g90
g71
NtRp147
(dp148
g74
(dp149
sg83
g135
sg76
(lp150
g69
(g70
g71
NtRp151
(dp152
g74
(dp153
g82
I5
ssg83
g147
sg76
(lp154
g69
(g78
g71
NtRp155
(dp156
g74
(dp157
g82
I4
ssg83
Nsg76
(lp158
g69
(g85
g71
NtRp159
(dp160
g74
(dp161
sg83
g155
sg76
(lp162
g69
(g90
g71
NtRp163
(dp164
g74
(dp165
sg83
g159
sg76
(lp166
g69
(g70
g71
NtRp167
(dp168
g74
(dp169
g82
I4
ssg83
g163
sg76
(lp170
S'131'
p171
asbasbasbasbasbasbasbag69
(g85
g71
NtRp172
(dp173
g74
(dp174
sg83
g79
sg76
(lp175
g69
(g90
g71
NtRp176
(dp177
g74
(dp178
g94
g95
ssg83
g172
sg76
(lp179
S'body'
p180
asbag69
(g90
g71
NtRp181
(dp182
g74
(dp183
g101
g102
ssg83
g172
sg76
(lp184
S':'
asbag69
(g90
g71
NtRp185
(dp186
g74
(dp187
sg83
g172
sg76
(lp188
g69
(g70
g71
NtRp189
(dp190
g74
(dp191
g82
I5
ssg83
g185
sg76
(lp192
S'<cStringIO.StringO object at 0x169ff4c8>'
p193
asbasbasbag69
(g85
g71
NtRp194
(dp195
g74
(dp196
sg83
g79
sg76
(lp197
g69
(g90
g71
NtRp198
(dp199
g74
(dp200
g94
g95
ssg83
g194
sg76
(lp201
S'cid'
p202
asbag69
(g90
g71
NtRp203
(dp204
g74
(dp205
g101
g102
ssg83
g194
sg76
(lp206
S':'
asbag69
(g90
g71
NtRp207
(dp208
g74
(dp209
sg83
g194
sg76
(lp210
g69
(g70
g71
NtRp211
(dp212
g74
(dp213
g82
I5
ssg83
g207
sg76
(lp214
S'None'
p215
asbasbasbag69
(g85
g71
NtRp216
(dp217
g74
(dp218
sg83
g79
sg76
(lp219
g69
(g90
g71
NtRp220
(dp221
g74
(dp222
g94
g95
ssg83
g216
sg76
(lp223
S'client'
p224
asbag69
(g90
g71
NtRp225
(dp226
g74
(dp227
g101
g102
ssg83
g216
sg76
(lp228
S':'
asbag69
(g90
g71
NtRp229
(dp230
g74
(dp231
sg83
g216
sg76
(lp232
g69
(g70
g71
NtRp233
(dp234
g74
(dp235
g82
I5
ssg83
g229
sg76
(lp236
S'127.0.0.1'
p237
asbasbasbag69
(g85
g71
NtRp238
(dp239
g74
(dp240
sg83
g79
sg76
(lp241
g69
(g90
g71
NtRp242
(dp243
g74
(dp244
g94
g95
ssg83
g238
sg76
(lp245
S'controller'
p246
asbag69
(g90
g71
NtRp247
(dp248
g74
(dp249
g101
g102
ssg83
g238
sg76
(lp250
S':'
asbag69
(g90
g71
NtRp251
(dp252
g74
(dp253
sg83
g238
sg76
(lp254
g69
(g70
g71
NtRp255
(dp256
g74
(dp257
g82
I5
ssg83
g251
sg76
(lp258
S'default'
p259
asbasbasbag69
(g85
g71
NtRp260
(dp261
g74
(dp262
sg83
g79
sg76
(lp263
g69
(g90
g71
NtRp264
(dp265
g74
(dp266
g94
g95
ssg83
g260
sg76
(lp267
S'cookies'
p268
asbag69
(g90
g71
NtRp269
(dp270
g74
(dp271
g101
g102
ssg83
g260
sg76
(lp272
S':'
asbag69
(g90
g71
NtRp273
(dp274
g74
(dp275
sg83
g260
sg76
(lp276
g69
(g70
g71
NtRp277
(dp278
g74
(dp279
g82
I5
ssg83
g273
sg76
(lp280
g69
(g78
g71
NtRp281
(dp282
g74
(dp283
g82
I4
ssg83
Nsg76
(lp284
g69
(g85
g71
NtRp285
(dp286
g74
(dp287
sg83
g281
sg76
(lp288
g69
(g90
g71
NtRp289
(dp290
g74
(dp291
g94
g95
ssg83
g285
sg76
(lp292
S'session_id_betsy'
p293
asbag69
(g90
g71
NtRp294
(dp295
g74
(dp296
g101
g102
ssg83
g285
sg76
(lp297
S':'
asbag69
(g90
g71
NtRp298
(dp299
g74
(dp300
sg83
g285
sg76
(lp301
g69
(g70
g71
NtRp302
(dp303
g74
(dp304
g82
I4
ssg83
g298
sg76
(lp305
S'127.0.0.1-70d52105-0f5d-4884-a4e3-dce6830f30e0'
p306
ag69
(g78
g71
NtRp307
(dp308
g74
(dp309
g82
I3
ssg83
Nsg76
(lp310
g69
(g85
g71
NtRp311
(dp312
g74
(dp313
sg83
g307
sg76
(lp314
g69
(g90
g71
NtRp315
(dp316
g74
(dp317
g94
g95
ssg83
g311
sg76
(lp318
S'comment'
p319
asbag69
(g90
g71
NtRp320
(dp321
g74
(dp322
g101
g102
ssg83
g311
sg76
(lp323
S':'
asbag69
(g90
g71
NtRp324
(dp325
g74
(dp326
sg83
g311
sg76
(lp327
g69
(g70
g71
NtRp328
(dp329
g74
(dp330
g82
I3
ssg83
g324
sg76
(lp331
S''
asbasbasbag69
(g85
g71
NtRp332
(dp333
g74
(dp334
sg83
g307
sg76
(lp335
g69
(g90
g71
NtRp336
(dp337
g74
(dp338
g94
g95
ssg83
g332
sg76
(lp339
S'domain'
p340
asbag69
(g90
g71
NtRp341
(dp342
g74
(dp343
g101
g102
ssg83
g332
sg76
(lp344
S':'
asbag69
(g90
g71
NtRp345
(dp346
g74
(dp347
sg83
g332
sg76
(lp348
g69
(g70
g71
NtRp349
(dp350
g74
(dp351
g82
I3
ssg83
g345
sg76
(lp352
S''
asbasbasbag69
(g85
g71
NtRp353
(dp354
g74
(dp355
sg83
g307
sg76
(lp356
g69
(g90
g71
NtRp357
(dp358
g74
(dp359
g94
g95
ssg83
g353
sg76
(lp360
S'expires'
p361
asbag69
(g90
g71
NtRp362
(dp363
g74
(dp364
g101
g102
ssg83
g353
sg76
(lp365
S':'
asbag69
(g90
g71
NtRp366
(dp367
g74
(dp368
sg83
g353
sg76
(lp369
g69
(g70
g71
NtRp370
(dp371
g74
(dp372
g82
I3
ssg83
g366
sg76
(lp373
S''
asbasbasbag69
(g85
g71
NtRp374
(dp375
g74
(dp376
sg83
g307
sg76
(lp377
g69
(g90
g71
NtRp378
(dp379
g74
(dp380
g94
g95
ssg83
g374
sg76
(lp381
S'httponly'
p382
asbag69
(g90
g71
NtRp383
(dp384
g74
(dp385
g101
g102
ssg83
g374
sg76
(lp386
S':'
asbag69
(g90
g71
NtRp387
(dp388
g74
(dp389
sg83
g374
sg76
(lp390
g69
(g70
g71
NtRp391
(dp392
g74
(dp393
g82
I3
ssg83
g387
sg76
(lp394
S''
asbasbasbag69
(g85
g71
NtRp395
(dp396
g74
(dp397
sg83
g307
sg76
(lp398
g69
(g90
g71
NtRp399
(dp400
g74
(dp401
g94
g95
ssg83
g395
sg76
(lp402
S'max-age'
p403
asbag69
(g90
g71
NtRp404
(dp405
g74
(dp406
g101
g102
ssg83
g395
sg76
(lp407
S':'
asbag69
(g90
g71
NtRp408
(dp409
g74
(dp410
sg83
g395
sg76
(lp411
g69
(g70
g71
NtRp412
(dp413
g74
(dp414
g82
I3
ssg83
g408
sg76
(lp415
S''
asbasbasbag69
(g85
g71
NtRp416
(dp417
g74
(dp418
sg83
g307
sg76
(lp419
g69
(g90
g71
NtRp420
(dp421
g74
(dp422
g94
g95
ssg83
g416
sg76
(lp423
S'path'
p424
asbag69
(g90
g71
NtRp425
(dp426
g74
(dp427
g101
g102
ssg83
g416
sg76
(lp428
S':'
asbag69
(g90
g71
NtRp429
(dp430
g74
(dp431
sg83
g416
sg76
(lp432
g69
(g70
g71
NtRp433
(dp434
g74
(dp435
g82
I3
ssg83
g429
sg76
(lp436
S''
asbasbasbag69
(g85
g71
NtRp437
(dp438
g74
(dp439
sg83
g307
sg76
(lp440
g69
(g90
g71
NtRp441
(dp442
g74
(dp443
g94
g95
ssg83
g437
sg76
(lp444
S'secure'
p445
asbag69
(g90
g71
NtRp446
(dp447
g74
(dp448
g101
g102
ssg83
g437
sg76
(lp449
S':'
asbag69
(g90
g71
NtRp450
(dp451
g74
(dp452
sg83
g437
sg76
(lp453
g69
(g70
g71
NtRp454
(dp455
g74
(dp456
g82
I3
ssg83
g450
sg76
(lp457
S''
asbasbasbag69
(g85
g71
NtRp458
(dp459
g74
(dp460
sg83
g307
sg76
(lp461
g69
(g90
g71
NtRp462
(dp463
g74
(dp464
g94
g95
ssg83
g458
sg76
(lp465
S'version'
p466
asbag69
(g90
g71
NtRp467
(dp468
g74
(dp469
g101
g102
ssg83
g458
sg76
(lp470
S':'
asbag69
(g90
g71
NtRp471
(dp472
g74
(dp473
sg83
g458
sg76
(lp474
g69
(g70
g71
NtRp475
(dp476
g74
(dp477
g82
I3
ssg83
g471
sg76
(lp478
S''
asbasbasbasbasbasbasbasbasbasbasbag69
(g85
g71
NtRp479
(dp480
g74
(dp481
sg83
g79
sg76
(lp482
g69
(g90
g71
NtRp483
(dp484
g74
(dp485
g94
g95
ssg83
g479
sg76
(lp486
S'env'
p487
asbag69
(g90
g71
NtRp488
(dp489
g74
(dp490
g101
g102
ssg83
g479
sg76
(lp491
S':'
asbag69
(g90
g71
NtRp492
(dp493
g74
(dp494
sg83
g479
sg76
(lp495
g69
(g70
g71
NtRp496
(dp497
g74
(dp498
g82
I5
ssg83
g492
sg76
(lp499
g69
(g78
g71
NtRp500
(dp501
g74
(dp502
g82
I4
ssg83
Nsg76
(lp503
g69
(g85
g71
NtRp504
(dp505
g74
(dp506
sg83
g500
sg76
(lp507
g69
(g90
g71
NtRp508
(dp509
g74
(dp510
g94
g95
ssg83
g504
sg76
(lp511
S'app_folders'
p512
asbag69
(g90
g71
NtRp513
(dp514
g74
(dp515
g101
g102
ssg83
g504
sg76
(lp516
S':'
asbag69
(g90
g71
NtRp517
(dp518
g74
(dp519
sg83
g504
sg76
(lp520
g69
(g70
g71
NtRp521
(dp522
g74
(dp523
g82
I4
ssg83
g517
sg76
(lp524
S"set(['/home/xchen/web2py/applications/Betsy/'])"
p525
asbasbasbag69
(g85
g71
NtRp526
(dp527
g74
(dp528
sg83
g500
sg76
(lp529
g69
(g90
g71
NtRp530
(dp531
g74
(dp532
g94
g95
ssg83
g526
sg76
(lp533
S'applications_parent'
p534
asbag69
(g90
g71
NtRp535
(dp536
g74
(dp537
g101
g102
ssg83
g526
sg76
(lp538
S':'
asbag69
(g90
g71
NtRp539
(dp540
g74
(dp541
sg83
g526
sg76
(lp542
g69
(g70
g71
NtRp543
(dp544
g74
(dp545
g82
I4
ssg83
g539
sg76
(lp546
S'/home/xchen/web2py'
p547
asbasbasbag69
(g85
g71
NtRp548
(dp549
g74
(dp550
sg83
g500
sg76
(lp551
g69
(g90
g71
NtRp552
(dp553
g74
(dp554
g94
g95
ssg83
g548
sg76
(lp555
S'cmd_args'
p556
asbag69
(g90
g71
NtRp557
(dp558
g74
(dp559
g101
g102
ssg83
g548
sg76
(lp560
S':'
asbag69
(g90
g71
NtRp561
(dp562
g74
(dp563
sg83
g548
sg76
(lp564
g69
(g70
g71
NtRp565
(dp566
g74
(dp567
g82
I4
ssg83
g561
sg76
(lp568
g69
(g78
g71
NtRp569
(dp570
g74
(dp571
g82
I3
ssg83
Nsg76
(lp572
sbasbasbasbag69
(g85
g71
NtRp573
(dp574
g74
(dp575
sg83
g500
sg76
(lp576
g69
(g90
g71
NtRp577
(dp578
g74
(dp579
g94
g95
ssg83
g573
sg76
(lp580
S'cmd_options'
p581
asbag69
(g90
g71
NtRp582
(dp583
g74
(dp584
g101
g102
ssg83
g573
sg76
(lp585
S':'
asbag69
(g90
g71
NtRp586
(dp587
g74
(dp588
sg83
g573
sg76
(lp589
g69
(g70
g71
NtRp590
(dp591
g74
(dp592
g82
I4
ssg83
g586
sg76
(lp593
S"<Values at 0x1670ae18: {'verbose': False, 'ip': '127.0.0.1', 'with_scheduler': False, 'ips': [], 'shutdown_timeout': 5, 'taskbar': False, 'port': 8080, 'maxthreads': None, 'softcron': False, 'server_name': 'unicron.shis.uth.tmc.edu', 'bpython': False, 'nogui': False, 'pid_filename': 'httpserver.pid', 'extcron': False, 'runcron': False, 'run_system_tests': False, 'test': None, 'folder': '/home/xchen/web2py', 'config': '', 'minthreads': None, 'winservice': '', 'shell': None, 'run': '', 'log_filename': 'httpserver.log', 'debuglevel': 30, 'args': [''], 'socket_timeout': 5, 'ssl_ca_certificate': None, 'scheduler': None, 'profiler_filename': None, 'ssl_private_key': '', 'scheduler_groups': None, 'password': 'baby2008', 'request_queue_size': 5, 'ssl_certificate': '', 'cronjob': False, 'numthreads': None, 'quiet': False, 'interfaces': None, 'import_models': False, 'timeout': 10, 'plain': False, 'nobanner': False}>"
p594
asbasbasbag69
(g85
g71
NtRp595
(dp596
g74
(dp597
sg83
g500
sg76
(lp598
g69
(g90
g71
NtRp599
(dp600
g74
(dp601
g94
g95
ssg83
g595
sg76
(lp602
S'db_sessions'
p603
asbag69
(g90
g71
NtRp604
(dp605
g74
(dp606
g101
g102
ssg83
g595
sg76
(lp607
S':'
asbag69
(g90
g71
NtRp608
(dp609
g74
(dp610
sg83
g595
sg76
(lp611
g69
(g70
g71
NtRp612
(dp613
g74
(dp614
g82
I4
ssg83
g608
sg76
(lp615
S'set([])'
p616
asbasbasbag69
(g85
g71
NtRp617
(dp618
g74
(dp619
sg83
g500
sg76
(lp620
g69
(g90
g71
NtRp621
(dp622
g74
(dp623
g94
g95
ssg83
g617
sg76
(lp624
S'debugging'
p625
asbag69
(g90
g71
NtRp626
(dp627
g74
(dp628
g101
g102
ssg83
g617
sg76
(lp629
S':'
asbag69
(g90
g71
NtRp630
(dp631
g74
(dp632
sg83
g617
sg76
(lp633
g69
(g70
g71
NtRp634
(dp635
g74
(dp636
g82
I4
ssg83
g630
sg76
(lp637
g112
asbasbasbag69
(g85
g71
NtRp638
(dp639
g74
(dp640
sg83
g500
sg76
(lp641
g69
(g90
g71
NtRp642
(dp643
g74
(dp644
g94
g95
ssg83
g638
sg76
(lp645
S'gluon_parent'
p646
asbag69
(g90
g71
NtRp647
(dp648
g74
(dp649
g101
g102
ssg83
g638
sg76
(lp650
S':'
asbag69
(g90
g71
NtRp651
(dp652
g74
(dp653
sg83
g638
sg76
(lp654
g69
(g70
g71
NtRp655
(dp656
g74
(dp657
g82
I4
ssg83
g651
sg76
(lp658
S'/home/xchen/web2py'
p659
asbasbasbag69
(g85
g71
NtRp660
(dp661
g74
(dp662
sg83
g500
sg76
(lp663
g69
(g90
g71
NtRp664
(dp665
g74
(dp666
g94
g95
ssg83
g660
sg76
(lp667
S'http_accept'
p668
asbag69
(g90
g71
NtRp669
(dp670
g74
(dp671
g101
g102
ssg83
g660
sg76
(lp672
S':'
asbag69
(g90
g71
NtRp673
(dp674
g74
(dp675
sg83
g660
sg76
(lp676
g69
(g70
g71
NtRp677
(dp678
g74
(dp679
g82
I4
ssg83
g673
sg76
(lp680
S'text/html,application/xhtml+xml,application/xml;q=0.9,*/*;q=0.8'
p681
asbasbasbag69
(g85
g71
NtRp682
(dp683
g74
(dp684
sg83
g500
sg76
(lp685
g69
(g90
g71
NtRp686
(dp687
g74
(dp688
g94
g95
ssg83
g682
sg76
(lp689
S'http_accept_encoding'
p690
asbag69
(g90
g71
NtRp691
(dp692
g74
(dp693
g101
g102
ssg83
g682
sg76
(lp694
S':'
asbag69
(g90
g71
NtRp695
(dp696
g74
(dp697
sg83
g682
sg76
(lp698
g69
(g70
g71
NtRp699
(dp700
g74
(dp701
g82
I4
ssg83
g695
sg76
(lp702
S'gzip, deflate'
p703
asbasbasbag69
(g85
g71
NtRp704
(dp705
g74
(dp706
sg83
g500
sg76
(lp707
g69
(g90
g71
NtRp708
(dp709
g74
(dp710
g94
g95
ssg83
g704
sg76
(lp711
S'http_accept_language'
p712
asbag69
(g90
g71
NtRp713
(dp714
g74
(dp715
g101
g102
ssg83
g704
sg76
(lp716
S':'
asbag69
(g90
g71
NtRp717
(dp718
g74
(dp719
sg83
g704
sg76
(lp720
g69
(g70
g71
NtRp721
(dp722
g74
(dp723
g82
I4
ssg83
g717
sg76
(lp724
S'en-US,en;q=0.5'
p725
asbasbasbag69
(g85
g71
NtRp726
(dp727
g74
(dp728
sg83
g500
sg76
(lp729
g69
(g90
g71
NtRp730
(dp731
g74
(dp732
g94
g95
ssg83
g726
sg76
(lp733
S'http_connection'
p734
asbag69
(g90
g71
NtRp735
(dp736
g74
(dp737
g101
g102
ssg83
g726
sg76
(lp738
S':'
asbag69
(g90
g71
NtRp739
(dp740
g74
(dp741
sg83
g726
sg76
(lp742
g69
(g70
g71
NtRp743
(dp744
g74
(dp745
g82
I4
ssg83
g739
sg76
(lp746
S'keep-alive'
p747
asbasbasbag69
(g85
g71
NtRp748
(dp749
g74
(dp750
sg83
g500
sg76
(lp751
g69
(g90
g71
NtRp752
(dp753
g74
(dp754
g94
g95
ssg83
g748
sg76
(lp755
S'http_cookie'
p756
asbag69
(g90
g71
NtRp757
(dp758
g74
(dp759
g101
g102
ssg83
g748
sg76
(lp760
S':'
asbag69
(g90
g71
NtRp761
(dp762
g74
(dp763
sg83
g748
sg76
(lp764
g69
(g70
g71
NtRp765
(dp766
g74
(dp767
g82
I4
ssg83
g761
sg76
(lp768
S'session_id_betsy=127.0.0.1-70d52105-0f5d-4884-a4e3-dce6830f30e0'
p769
asbasbasbag69
(g85
g71
NtRp770
(dp771
g74
(dp772
sg83
g500
sg76
(lp773
g69
(g90
g71
NtRp774
(dp775
g74
(dp776
g94
g95
ssg83
g770
sg76
(lp777
S'http_host'
p778
asbag69
(g90
g71
NtRp779
(dp780
g74
(dp781
g101
g102
ssg83
g770
sg76
(lp782
S':'
asbag69
(g90
g71
NtRp783
(dp784
g74
(dp785
sg83
g770
sg76
(lp786
g69
(g70
g71
NtRp787
(dp788
g74
(dp789
g82
I4
ssg83
g783
sg76
(lp790
S'localhost:8080'
p791
asbasbasbag69
(g85
g71
NtRp792
(dp793
g74
(dp794
sg83
g500
sg76
(lp795
g69
(g90
g71
NtRp796
(dp797
g74
(dp798
g94
g95
ssg83
g792
sg76
(lp799
S'http_referer'
p800
asbag69
(g90
g71
NtRp801
(dp802
g74
(dp803
g101
g102
ssg83
g792
sg76
(lp804
S':'
asbag69
(g90
g71
NtRp805
(dp806
g74
(dp807
sg83
g792
sg76
(lp808
g69
(g70
g71
NtRp809
(dp810
g74
(dp811
g82
I4
ssg83
g805
sg76
(lp812
S'http://localhost:8080/Betsy/default/show_status'
p813
asbasbasbag69
(g85
g71
NtRp814
(dp815
g74
(dp816
sg83
g500
sg76
(lp817
g69
(g90
g71
NtRp818
(dp819
g74
(dp820
g94
g95
ssg83
g814
sg76
(lp821
S'http_user_agent'
p822
asbag69
(g90
g71
NtRp823
(dp824
g74
(dp825
g101
g102
ssg83
g814
sg76
(lp826
S':'
asbag69
(g90
g71
NtRp827
(dp828
g74
(dp829
sg83
g814
sg76
(lp830
g69
(g70
g71
NtRp831
(dp832
g74
(dp833
g82
I4
ssg83
g827
sg76
(lp834
S'Mozilla/5.0 (Macintosh; Intel Mac OS X 10.6; rv:18.0) Gecko/20100101 Firefox/18.0'
p835
asbasbasbag69
(g85
g71
NtRp836
(dp837
g74
(dp838
sg83
g500
sg76
(lp839
g69
(g90
g71
NtRp840
(dp841
g74
(dp842
g94
g95
ssg83
g836
sg76
(lp843
S'is_jython'
p844
asbag69
(g90
g71
NtRp845
(dp846
g74
(dp847
g101
g102
ssg83
g836
sg76
(lp848
S':'
asbag69
(g90
g71
NtRp849
(dp850
g74
(dp851
sg83
g836
sg76
(lp852
g69
(g70
g71
NtRp853
(dp854
g74
(dp855
g82
I4
ssg83
g849
sg76
(lp856
g112
asbasbasbag69
(g85
g71
NtRp857
(dp858
g74
(dp859
sg83
g500
sg76
(lp860
g69
(g90
g71
NtRp861
(dp862
g74
(dp863
g94
g95
ssg83
g857
sg76
(lp864
S'is_pypy'
p865
asbag69
(g90
g71
NtRp866
(dp867
g74
(dp868
g101
g102
ssg83
g857
sg76
(lp869
S':'
asbag69
(g90
g71
NtRp870
(dp871
g74
(dp872
sg83
g857
sg76
(lp873
g69
(g70
g71
NtRp874
(dp875
g74
(dp876
g82
I4
ssg83
g870
sg76
(lp877
g112
asbasbasbag69
(g85
g71
NtRp878
(dp879
g74
(dp880
sg83
g500
sg76
(lp881
g69
(g90
g71
NtRp882
(dp883
g74
(dp884
g94
g95
ssg83
g878
sg76
(lp885
S'local_hosts'
p886
asbag69
(g90
g71
NtRp887
(dp888
g74
(dp889
g101
g102
ssg83
g878
sg76
(lp890
S':'
asbag69
(g90
g71
NtRp891
(dp892
g74
(dp893
sg83
g878
sg76
(lp894
g69
(g70
g71
NtRp895
(dp896
g74
(dp897
g82
I4
ssg83
g891
sg76
(lp898
g69
(g78
g71
NtRp899
(dp900
g74
(dp901
g82
I3
ssg83
Nsg76
(lp902
g69
(g85
g71
NtRp903
(dp904
g74
(dp905
sg83
g899
sg76
(lp906
g69
(g90
g71
NtRp907
(dp908
g74
(dp909
sg83
g903
sg76
(lp910
g69
(g70
g71
NtRp911
(dp912
g74
(dp913
g82
I3
ssg83
g907
sg76
(lp914
S'127.0.0.1'
p915
asbasbasbag69
(g85
g71
NtRp916
(dp917
g74
(dp918
sg83
g899
sg76
(lp919
g69
(g90
g71
NtRp920
(dp921
g74
(dp922
sg83
g916
sg76
(lp923
g69
(g70
g71
NtRp924
(dp925
g74
(dp926
g82
I3
ssg83
g920
sg76
(lp927
S'::ffff:127.0.0.1'
p928
asbasbasbag69
(g85
g71
NtRp929
(dp930
g74
(dp931
sg83
g899
sg76
(lp932
g69
(g90
g71
NtRp933
(dp934
g74
(dp935
sg83
g929
sg76
(lp936
g69
(g70
g71
NtRp937
(dp938
g74
(dp939
g82
I3
ssg83
g933
sg76
(lp940
S'unicron.shis.uth.tmc.edu'
p941
asbasbasbag69
(g85
g71
NtRp942
(dp943
g74
(dp944
sg83
g899
sg76
(lp945
g69
(g90
g71
NtRp946
(dp947
g74
(dp948
sg83
g942
sg76
(lp949
g69
(g70
g71
NtRp950
(dp951
g74
(dp952
g82
I3
ssg83
g946
sg76
(lp953
S'unicron.shis.uth.tmc.edu'
p954
asbasbasbag69
(g85
g71
NtRp955
(dp956
g74
(dp957
sg83
g899
sg76
(lp958
g69
(g90
g71
NtRp959
(dp960
g74
(dp961
sg83
g955
sg76
(lp962
g69
(g70
g71
NtRp963
(dp964
g74
(dp965
g82
I3
ssg83
g959
sg76
(lp966
S'127.0.0.1'
p967
asbasbasbasbasbasbasbag69
(g85
g71
NtRp968
(dp969
g74
(dp970
sg83
g500
sg76
(lp971
g69
(g90
g71
NtRp972
(dp973
g74
(dp974
g94
g95
ssg83
g968
sg76
(lp975
S'path_info'
p976
asbag69
(g90
g71
NtRp977
(dp978
g74
(dp979
g101
g102
ssg83
g968
sg76
(lp980
S':'
asbag69
(g90
g71
NtRp981
(dp982
g74
(dp983
sg83
g968
sg76
(lp984
g69
(g70
g71
NtRp985
(dp986
g74
(dp987
g82
I4
ssg83
g981
sg76
(lp988
S'/Betsy/default/show_job/131'
p989
asbasbasbag69
(g85
g71
NtRp990
(dp991
g74
(dp992
sg83
g500
sg76
(lp993
g69
(g90
g71
NtRp994
(dp995
g74
(dp996
g94
g95
ssg83
g990
sg76
(lp997
S'query_string'
p998
asbag69
(g90
g71
NtRp999
(dp1000
g74
(dp1001
g101
g102
ssg83
g990
sg76
(lp1002
S':'
asbag69
(g90
g71
NtRp1003
(dp1004
g74
(dp1005
sg83
g990
sg76
(lp1006
g69
(g70
g71
NtRp1007
(dp1008
g74
(dp1009
g82
I4
ssg83
g1003
sg76
(lp1010
S''
asbasbasbag69
(g85
g71
NtRp1011
(dp1012
g74
(dp1013
sg83
g500
sg76
(lp1014
g69
(g90
g71
NtRp1015
(dp1016
g74
(dp1017
g94
g95
ssg83
g1011
sg76
(lp1018
S'remote_addr'
p1019
asbag69
(g90
g71
NtRp1020
(dp1021
g74
(dp1022
g101
g102
ssg83
g1011
sg76
(lp1023
S':'
asbag69
(g90
g71
NtRp1024
(dp1025
g74
(dp1026
sg83
g1011
sg76
(lp1027
g69
(g70
g71
NtRp1028
(dp1029
g74
(dp1030
g82
I4
ssg83
g1024
sg76
(lp1031
g237
asbasbasbag69
(g85
g71
NtRp1032
(dp1033
g74
(dp1034
sg83
g500
sg76
(lp1035
g69
(g90
g71
NtRp1036
(dp1037
g74
(dp1038
g94
g95
ssg83
g1032
sg76
(lp1039
S'remote_port'
p1040
asbag69
(g90
g71
NtRp1041
(dp1042
g74
(dp1043
g101
g102
ssg83
g1032
sg76
(lp1044
S':'
asbag69
(g90
g71
NtRp1045
(dp1046
g74
(dp1047
sg83
g1032
sg76
(lp1048
g69
(g70
g71
NtRp1049
(dp1050
g74
(dp1051
g82
I4
ssg83
g1045
sg76
(lp1052
S'55440'
p1053
asbasbasbag69
(g85
g71
NtRp1054
(dp1055
g74
(dp1056
sg83
g500
sg76
(lp1057
g69
(g90
g71
NtRp1058
(dp1059
g74
(dp1060
g94
g95
ssg83
g1054
sg76
(lp1061
S'request_method'
p1062
asbag69
(g90
g71
NtRp1063
(dp1064
g74
(dp1065
g101
g102
ssg83
g1054
sg76
(lp1066
S':'
asbag69
(g90
g71
NtRp1067
(dp1068
g74
(dp1069
sg83
g1054
sg76
(lp1070
g69
(g70
g71
NtRp1071
(dp1072
g74
(dp1073
g82
I4
ssg83
g1067
sg76
(lp1074
S'GET'
p1075
asbasbasbag69
(g85
g71
NtRp1076
(dp1077
g74
(dp1078
sg83
g500
sg76
(lp1079
g69
(g90
g71
NtRp1080
(dp1081
g74
(dp1082
g94
g95
ssg83
g1076
sg76
(lp1083
S'request_uri'
p1084
asbag69
(g90
g71
NtRp1085
(dp1086
g74
(dp1087
g101
g102
ssg83
g1076
sg76
(lp1088
S':'
asbag69
(g90
g71
NtRp1089
(dp1090
g74
(dp1091
sg83
g1076
sg76
(lp1092
g69
(g70
g71
NtRp1093
(dp1094
g74
(dp1095
g82
I4
ssg83
g1089
sg76
(lp1096
g989
asbasbasbag69
(g85
g71
NtRp1097
(dp1098
g74
(dp1099
sg83
g500
sg76
(lp1100
g69
(g90
g71
NtRp1101
(dp1102
g74
(dp1103
g94
g95
ssg83
g1097
sg76
(lp1104
S'script_name'
p1105
asbag69
(g90
g71
NtRp1106
(dp1107
g74
(dp1108
g101
g102
ssg83
g1097
sg76
(lp1109
S':'
asbag69
(g90
g71
NtRp1110
(dp1111
g74
(dp1112
sg83
g1097
sg76
(lp1113
g69
(g70
g71
NtRp1114
(dp1115
g74
(dp1116
g82
I4
ssg83
g1110
sg76
(lp1117
S''
asbasbasbag69
(g85
g71
NtRp1118
(dp1119
g74
(dp1120
sg83
g500
sg76
(lp1121
g69
(g90
g71
NtRp1122
(dp1123
g74
(dp1124
g94
g95
ssg83
g1118
sg76
(lp1125
S'server_name'
p1126
asbag69
(g90
g71
NtRp1127
(dp1128
g74
(dp1129
g101
g102
ssg83
g1118
sg76
(lp1130
S':'
asbag69
(g90
g71
NtRp1131
(dp1132
g74
(dp1133
sg83
g1118
sg76
(lp1134
g69
(g70
g71
NtRp1135
(dp1136
g74
(dp1137
g82
I4
ssg83
g1131
sg76
(lp1138
g954
asbasbasbag69
(g85
g71
NtRp1139
(dp1140
g74
(dp1141
sg83
g500
sg76
(lp1142
g69
(g90
g71
NtRp1143
(dp1144
g74
(dp1145
g94
g95
ssg83
g1139
sg76
(lp1146
S'server_port'
p1147
asbag69
(g90
g71
NtRp1148
(dp1149
g74
(dp1150
g101
g102
ssg83
g1139
sg76
(lp1151
S':'
asbag69
(g90
g71
NtRp1152
(dp1153
g74
(dp1154
sg83
g1139
sg76
(lp1155
g69
(g70
g71
NtRp1156
(dp1157
g74
(dp1158
g82
I4
ssg83
g1152
sg76
(lp1159
S'8080'
p1160
asbasbasbag69
(g85
g71
NtRp1161
(dp1162
g74
(dp1163
sg83
g500
sg76
(lp1164
g69
(g90
g71
NtRp1165
(dp1166
g74
(dp1167
g94
g95
ssg83
g1161
sg76
(lp1168
S'server_protocol'
p1169
asbag69
(g90
g71
NtRp1170
(dp1171
g74
(dp1172
g101
g102
ssg83
g1161
sg76
(lp1173
S':'
asbag69
(g90
g71
NtRp1174
(dp1175
g74
(dp1176
sg83
g1161
sg76
(lp1177
g69
(g70
g71
NtRp1178
(dp1179
g74
(dp1180
g82
I4
ssg83
g1174
sg76
(lp1181
S'HTTP/1.1'
p1182
asbasbasbag69
(g85
g71
NtRp1183
(dp1184
g74
(dp1185
sg83
g500
sg76
(lp1186
g69
(g90
g71
NtRp1187
(dp1188
g74
(dp1189
g94
g95
ssg83
g1183
sg76
(lp1190
S'server_software'
p1191
asbag69
(g90
g71
NtRp1192
(dp1193
g74
(dp1194
g101
g102
ssg83
g1183
sg76
(lp1195
S':'
asbag69
(g90
g71
NtRp1196
(dp1197
g74
(dp1198
sg83
g1183
sg76
(lp1199
g69
(g70
g71
NtRp1200
(dp1201
g74
(dp1202
g82
I4
ssg83
g1196
sg76
(lp1203
S'Rocket 1.2.5'
p1204
asbasbasbag69
(g85
g71
NtRp1205
(dp1206
g74
(dp1207
sg83
g500
sg76
(lp1208
g69
(g90
g71
NtRp1209
(dp1210
g74
(dp1211
g94
g95
ssg83
g1205
sg76
(lp1212
S'web2py_path'
p1213
asbag69
(g90
g71
NtRp1214
(dp1215
g74
(dp1216
g101
g102
ssg83
g1205
sg76
(lp1217
S':'
asbag69
(g90
g71
NtRp1218
(dp1219
g74
(dp1220
sg83
g1205
sg76
(lp1221
g69
(g70
g71
NtRp1222
(dp1223
g74
(dp1224
g82
I4
ssg83
g1218
sg76
(lp1225
g547
asbasbasbag69
(g85
g71
NtRp1226
(dp1227
g74
(dp1228
sg83
g500
sg76
(lp1229
g69
(g90
g71
NtRp1230
(dp1231
g74
(dp1232
g94
g95
ssg83
g1226
sg76
(lp1233
S'web2py_version'
p1234
asbag69
(g90
g71
NtRp1235
(dp1236
g74
(dp1237
g101
g102
ssg83
g1226
sg76
(lp1238
S':'
asbag69
(g90
g71
NtRp1239
(dp1240
g74
(dp1241
sg83
g1226
sg76
(lp1242
g69
(g70
g71
NtRp1243
(dp1244
g74
(dp1245
g82
I4
ssg83
g1239
sg76
(lp1246
g69
(g78
g71
NtRp1247
(dp1248
g74
(dp1249
g82
I3
ssg83
Nsg76
(lp1250
g69
(g85
g71
NtRp1251
(dp1252
g74
(dp1253
sg83
g1247
sg76
(lp1254
g69
(g90
g71
NtRp1255
(dp1256
g74
(dp1257
sg83
g1251
sg76
(lp1258
g69
(g70
g71
NtRp1259
(dp1260
g74
(dp1261
g82
I3
ssg83
g1255
sg76
(lp1262
S'2'
asbasbasbag69
(g85
g71
NtRp1263
(dp1264
g74
(dp1265
sg83
g1247
sg76
(lp1266
g69
(g90
g71
NtRp1267
(dp1268
g74
(dp1269
sg83
g1263
sg76
(lp1270
g69
(g70
g71
NtRp1271
(dp1272
g74
(dp1273
g82
I3
ssg83
g1267
sg76
(lp1274
S'2'
asbasbasbag69
(g85
g71
NtRp1275
(dp1276
g74
(dp1277
sg83
g1247
sg76
(lp1278
g69
(g90
g71
NtRp1279
(dp1280
g74
(dp1281
sg83
g1275
sg76
(lp1282
g69
(g70
g71
NtRp1283
(dp1284
g74
(dp1285
g82
I3
ssg83
g1279
sg76
(lp1286
S'1'
asbasbasbag69
(g85
g71
NtRp1287
(dp1288
g74
(dp1289
sg83
g1247
sg76
(lp1290
g69
(g90
g71
NtRp1291
(dp1292
g74
(dp1293
sg83
g1287
sg76
(lp1294
g69
(g70
g71
NtRp1295
(dp1296
g74
(dp1297
g82
I3
ssg83
g1291
sg76
(lp1298
S'datetime.datetime(2012, 10, 21, 16, 57, 4)'
p1299
asbasbasbag69
(g85
g71
NtRp1300
(dp1301
g74
(dp1302
sg83
g1247
sg76
(lp1303
g69
(g90
g71
NtRp1304
(dp1305
g74
(dp1306
sg83
g1300
sg76
(lp1307
g69
(g70
g71
NtRp1308
(dp1309
g74
(dp1310
g82
I3
ssg83
g1304
sg76
(lp1311
S'stable'
p1312
asbasbasbasbasbasbasbag69
(g85
g71
NtRp1313
(dp1314
g74
(dp1315
sg83
g500
sg76
(lp1316
g69
(g90
g71
NtRp1317
(dp1318
g74
(dp1319
g94
g95
ssg83
g1313
sg76
(lp1320
S'wsgi_errors'
p1321
asbag69
(g90
g71
NtRp1322
(dp1323
g74
(dp1324
g101
g102
ssg83
g1313
sg76
(lp1325
S':'
asbag69
(g90
g71
NtRp1326
(dp1327
g74
(dp1328
sg83
g1313
sg76
(lp1329
g69
(g70
g71
NtRp1330
(dp1331
g74
(dp1332
g82
I4
ssg83
g1326
sg76
(lp1333
S"<open file '<stderr>', mode 'w' at 0x2b62e6c3a270>"
p1334
asbasbasbag69
(g85
g71
NtRp1335
(dp1336
g74
(dp1337
sg83
g500
sg76
(lp1338
g69
(g90
g71
NtRp1339
(dp1340
g74
(dp1341
g94
g95
ssg83
g1335
sg76
(lp1342
S'wsgi_file_wrapper'
p1343
asbag69
(g90
g71
NtRp1344
(dp1345
g74
(dp1346
g101
g102
ssg83
g1335
sg76
(lp1347
S':'
asbag69
(g90
g71
NtRp1348
(dp1349
g74
(dp1350
sg83
g1335
sg76
(lp1351
g69
(g70
g71
NtRp1352
(dp1353
g74
(dp1354
g82
I4
ssg83
g1348
sg76
(lp1355
S'<class wsgiref.util.FileWrapper at 0x16668a78>'
p1356
asbasbasbag69
(g85
g71
NtRp1357
(dp1358
g74
(dp1359
sg83
g500
sg76
(lp1360
g69
(g90
g71
NtRp1361
(dp1362
g74
(dp1363
g94
g95
ssg83
g1357
sg76
(lp1364
S'wsgi_input'
p1365
asbag69
(g90
g71
NtRp1366
(dp1367
g74
(dp1368
g101
g102
ssg83
g1357
sg76
(lp1369
S':'
asbag69
(g90
g71
NtRp1370
(dp1371
g74
(dp1372
sg83
g1357
sg76
(lp1373
g69
(g70
g71
NtRp1374
(dp1375
g74
(dp1376
g82
I4
ssg83
g1370
sg76
(lp1377
S'<socket._fileobject object at 0x169e64d0>'
p1378
asbasbasbag69
(g85
g71
NtRp1379
(dp1380
g74
(dp1381
sg83
g500
sg76
(lp1382
g69
(g90
g71
NtRp1383
(dp1384
g74
(dp1385
g94
g95
ssg83
g1379
sg76
(lp1386
S'wsgi_multiprocess'
p1387
asbag69
(g90
g71
NtRp1388
(dp1389
g74
(dp1390
g101
g102
ssg83
g1379
sg76
(lp1391
S':'
asbag69
(g90
g71
NtRp1392
(dp1393
g74
(dp1394
sg83
g1379
sg76
(lp1395
g69
(g70
g71
NtRp1396
(dp1397
g74
(dp1398
g82
I4
ssg83
g1392
sg76
(lp1399
g112
asbasbasbag69
(g85
g71
NtRp1400
(dp1401
g74
(dp1402
sg83
g500
sg76
(lp1403
g69
(g90
g71
NtRp1404
(dp1405
g74
(dp1406
g94
g95
ssg83
g1400
sg76
(lp1407
S'wsgi_multithread'
p1408
asbag69
(g90
g71
NtRp1409
(dp1410
g74
(dp1411
g101
g102
ssg83
g1400
sg76
(lp1412
S':'
asbag69
(g90
g71
NtRp1413
(dp1414
g74
(dp1415
sg83
g1400
sg76
(lp1416
g69
(g70
g71
NtRp1417
(dp1418
g74
(dp1419
g82
I4
ssg83
g1413
sg76
(lp1420
S'True'
p1421
asbasbasbag69
(g85
g71
NtRp1422
(dp1423
g74
(dp1424
sg83
g500
sg76
(lp1425
g69
(g90
g71
NtRp1426
(dp1427
g74
(dp1428
g94
g95
ssg83
g1422
sg76
(lp1429
S'wsgi_run_once'
p1430
asbag69
(g90
g71
NtRp1431
(dp1432
g74
(dp1433
g101
g102
ssg83
g1422
sg76
(lp1434
S':'
asbag69
(g90
g71
NtRp1435
(dp1436
g74
(dp1437
sg83
g1422
sg76
(lp1438
g69
(g70
g71
NtRp1439
(dp1440
g74
(dp1441
g82
I4
ssg83
g1435
sg76
(lp1442
g112
asbasbasbag69
(g85
g71
NtRp1443
(dp1444
g74
(dp1445
sg83
g500
sg76
(lp1446
g69
(g90
g71
NtRp1447
(dp1448
g74
(dp1449
g94
g95
ssg83
g1443
sg76
(lp1450
S'wsgi_url_scheme'
p1451
asbag69
(g90
g71
NtRp1452
(dp1453
g74
(dp1454
g101
g102
ssg83
g1443
sg76
(lp1455
S':'
asbag69
(g90
g71
NtRp1456
(dp1457
g74
(dp1458
sg83
g1443
sg76
(lp1459
g69
(g70
g71
NtRp1460
(dp1461
g74
(dp1462
g82
I4
ssg83
g1456
sg76
(lp1463
S'http'
p1464
asbasbasbag69
(g85
g71
NtRp1465
(dp1466
g74
(dp1467
sg83
g500
sg76
(lp1468
g69
(g90
g71
NtRp1469
(dp1470
g74
(dp1471
g94
g95
ssg83
g1465
sg76
(lp1472
S'wsgi_version'
p1473
asbag69
(g90
g71
NtRp1474
(dp1475
g74
(dp1476
g101
g102
ssg83
g1465
sg76
(lp1477
S':'
asbag69
(g90
g71
NtRp1478
(dp1479
g74
(dp1480
sg83
g1465
sg76
(lp1481
g69
(g70
g71
NtRp1482
(dp1483
g74
(dp1484
g82
I4
ssg83
g1478
sg76
(lp1485
g69
(g78
g71
NtRp1486
(dp1487
g74
(dp1488
g82
I3
ssg83
Nsg76
(lp1489
g69
(g85
g71
NtRp1490
(dp1491
g74
(dp1492
sg83
g1486
sg76
(lp1493
g69
(g90
g71
NtRp1494
(dp1495
g74
(dp1496
sg83
g1490
sg76
(lp1497
g69
(g70
g71
NtRp1498
(dp1499
g74
(dp1500
g82
I3
ssg83
g1494
sg76
(lp1501
S'1'
asbasbasbag69
(g85
g71
NtRp1502
(dp1503
g74
(dp1504
sg83
g1486
sg76
(lp1505
g69
(g90
g71
NtRp1506
(dp1507
g74
(dp1508
sg83
g1502
sg76
(lp1509
g69
(g70
g71
NtRp1510
(dp1511
g74
(dp1512
g82
I3
ssg83
g1506
sg76
(lp1513
S'0'
asbasbasbasbasbasbasbasbasbasbasbag69
(g85
g71
NtRp1514
(dp1515
g74
(dp1516
sg83
g79
sg76
(lp1517
g69
(g90
g71
NtRp1518
(dp1519
g74
(dp1520
g94
g95
ssg83
g1514
sg76
(lp1521
S'extension'
p1522
asbag69
(g90
g71
NtRp1523
(dp1524
g74
(dp1525
g101
g102
ssg83
g1514
sg76
(lp1526
S':'
asbag69
(g90
g71
NtRp1527
(dp1528
g74
(dp1529
sg83
g1514
sg76
(lp1530
g69
(g70
g71
NtRp1531
(dp1532
g74
(dp1533
g82
I5
ssg83
g1527
sg76
(lp1534
S'html'
p1535
asbasbasbag69
(g85
g71
NtRp1536
(dp1537
g74
(dp1538
sg83
g79
sg76
(lp1539
g69
(g90
g71
NtRp1540
(dp1541
g74
(dp1542
g94
g95
ssg83
g1536
sg76
(lp1543
S'folder'
p1544
asbag69
(g90
g71
NtRp1545
(dp1546
g74
(dp1547
g101
g102
ssg83
g1536
sg76
(lp1548
S':'
asbag69
(g90
g71
NtRp1549
(dp1550
g74
(dp1551
sg83
g1536
sg76
(lp1552
g69
(g70
g71
NtRp1553
(dp1554
g74
(dp1555
g82
I5
ssg83
g1549
sg76
(lp1556
S'/home/xchen/web2py/applications/Betsy/'
p1557
asbasbasbag69
(g85
g71
NtRp1558
(dp1559
g74
(dp1560
sg83
g79
sg76
(lp1561
g69
(g90
g71
NtRp1562
(dp1563
g74
(dp1564
g94
g95
ssg83
g1558
sg76
(lp1565
S'function'
p1566
asbag69
(g90
g71
NtRp1567
(dp1568
g74
(dp1569
g101
g102
ssg83
g1558
sg76
(lp1570
S':'
asbag69
(g90
g71
NtRp1571
(dp1572
g74
(dp1573
sg83
g1558
sg76
(lp1574
g69
(g70
g71
NtRp1575
(dp1576
g74
(dp1577
g82
I5
ssg83
g1571
sg76
(lp1578
S'show_job'
p1579
asbasbasbag69
(g85
g71
NtRp1580
(dp1581
g74
(dp1582
sg83
g79
sg76
(lp1583
g69
(g90
g71
NtRp1584
(dp1585
g74
(dp1586
g94
g95
ssg83
g1580
sg76
(lp1587
S'get_vars'
p1588
asbag69
(g90
g71
NtRp1589
(dp1590
g74
(dp1591
g101
g102
ssg83
g1580
sg76
(lp1592
S':'
asbag69
(g90
g71
NtRp1593
(dp1594
g74
(dp1595
sg83
g1580
sg76
(lp1596
g69
(g70
g71
NtRp1597
(dp1598
g74
(dp1599
g82
I5
ssg83
g1593
sg76
(lp1600
g69
(g78
g71
NtRp1601
(dp1602
g74
(dp1603
g82
I4
ssg83
Nsg76
(lp1604
sbasbasbasbag69
(g85
g71
NtRp1605
(dp1606
g74
(dp1607
sg83
g79
sg76
(lp1608
g69
(g90
g71
NtRp1609
(dp1610
g74
(dp1611
g94
g95
ssg83
g1605
sg76
(lp1612
S'global_settings'
p1613
asbag69
(g90
g71
NtRp1614
(dp1615
g74
(dp1616
g101
g102
ssg83
g1605
sg76
(lp1617
S':'
asbag69
(g90
g71
NtRp1618
(dp1619
g74
(dp1620
sg83
g1605
sg76
(lp1621
g69
(g70
g71
NtRp1622
(dp1623
g74
(dp1624
g82
I5
ssg83
g1618
sg76
(lp1625
g69
(g78
g71
NtRp1626
(dp1627
g74
(dp1628
g82
I4
ssg83
Nsg76
(lp1629
g69
(g85
g71
NtRp1630
(dp1631
g74
(dp1632
sg83
g1626
sg76
(lp1633
g69
(g90
g71
NtRp1634
(dp1635
g74
(dp1636
g94
g95
ssg83
g1630
sg76
(lp1637
g512
asbag69
(g90
g71
NtRp1638
(dp1639
g74
(dp1640
g101
g102
ssg83
g1630
sg76
(lp1641
S':'
asbag69
(g90
g71
NtRp1642
(dp1643
g74
(dp1644
sg83
g1630
sg76
(lp1645
g69
(g70
g71
NtRp1646
(dp1647
g74
(dp1648
g82
I4
ssg83
g1642
sg76
(lp1649
S"set(['/home/xchen/web2py/applications/Betsy/'])"
p1650
asbasbasbag69
(g85
g71
NtRp1651
(dp1652
g74
(dp1653
sg83
g1626
sg76
(lp1654
g69
(g90
g71
NtRp1655
(dp1656
g74
(dp1657
g94
g95
ssg83
g1651
sg76
(lp1658
g534
asbag69
(g90
g71
NtRp1659
(dp1660
g74
(dp1661
g101
g102
ssg83
g1651
sg76
(lp1662
S':'
asbag69
(g90
g71
NtRp1663
(dp1664
g74
(dp1665
sg83
g1651
sg76
(lp1666
g69
(g70
g71
NtRp1667
(dp1668
g74
(dp1669
g82
I4
ssg83
g1663
sg76
(lp1670
g547
asbasbasbag69
(g85
g71
NtRp1671
(dp1672
g74
(dp1673
sg83
g1626
sg76
(lp1674
g69
(g90
g71
NtRp1675
(dp1676
g74
(dp1677
g94
g95
ssg83
g1671
sg76
(lp1678
g556
asbag69
(g90
g71
NtRp1679
(dp1680
g74
(dp1681
g101
g102
ssg83
g1671
sg76
(lp1682
S':'
asbag69
(g90
g71
NtRp1683
(dp1684
g74
(dp1685
sg83
g1671
sg76
(lp1686
g69
(g70
g71
NtRp1687
(dp1688
g74
(dp1689
g82
I4
ssg83
g1683
sg76
(lp1690
g69
(g78
g71
NtRp1691
(dp1692
g74
(dp1693
g82
I3
ssg83
Nsg76
(lp1694
sbasbasbasbag69
(g85
g71
NtRp1695
(dp1696
g74
(dp1697
sg83
g1626
sg76
(lp1698
g69
(g90
g71
NtRp1699
(dp1700
g74
(dp1701
g94
g95
ssg83
g1695
sg76
(lp1702
g581
asbag69
(g90
g71
NtRp1703
(dp1704
g74
(dp1705
g101
g102
ssg83
g1695
sg76
(lp1706
S':'
asbag69
(g90
g71
NtRp1707
(dp1708
g74
(dp1709
sg83
g1695
sg76
(lp1710
g69
(g70
g71
NtRp1711
(dp1712
g74
(dp1713
g82
I4
ssg83
g1707
sg76
(lp1714
S"<Values at 0x1670ae18: {'verbose': False, 'ip': '127.0.0.1', 'with_scheduler': False, 'ips': [], 'shutdown_timeout': 5, 'taskbar': False, 'port': 8080, 'maxthreads': None, 'softcron': False, 'server_name': 'unicron.shis.uth.tmc.edu', 'bpython': False, 'nogui': False, 'pid_filename': 'httpserver.pid', 'extcron': False, 'runcron': False, 'run_system_tests': False, 'test': None, 'folder': '/home/xchen/web2py', 'config': '', 'minthreads': None, 'winservice': '', 'shell': None, 'run': '', 'log_filename': 'httpserver.log', 'debuglevel': 30, 'args': [''], 'socket_timeout': 5, 'ssl_ca_certificate': None, 'scheduler': None, 'profiler_filename': None, 'ssl_private_key': '', 'scheduler_groups': None, 'password': 'baby2008', 'request_queue_size': 5, 'ssl_certificate': '', 'cronjob': False, 'numthreads': None, 'quiet': False, 'interfaces': None, 'import_models': False, 'timeout': 10, 'plain': False, 'nobanner': False}>"
p1715
asbasbasbag69
(g85
g71
NtRp1716
(dp1717
g74
(dp1718
sg83
g1626
sg76
(lp1719
g69
(g90
g71
NtRp1720
(dp1721
g74
(dp1722
g94
g95
ssg83
g1716
sg76
(lp1723
g603
asbag69
(g90
g71
NtRp1724
(dp1725
g74
(dp1726
g101
g102
ssg83
g1716
sg76
(lp1727
S':'
asbag69
(g90
g71
NtRp1728
(dp1729
g74
(dp1730
sg83
g1716
sg76
(lp1731
g69
(g70
g71
NtRp1732
(dp1733
g74
(dp1734
g82
I4
ssg83
g1728
sg76
(lp1735
S'set([])'
p1736
asbasbasbag69
(g85
g71
NtRp1737
(dp1738
g74
(dp1739
sg83
g1626
sg76
(lp1740
g69
(g90
g71
NtRp1741
(dp1742
g74
(dp1743
g94
g95
ssg83
g1737
sg76
(lp1744
g625
asbag69
(g90
g71
NtRp1745
(dp1746
g74
(dp1747
g101
g102
ssg83
g1737
sg76
(lp1748
S':'
asbag69
(g90
g71
NtRp1749
(dp1750
g74
(dp1751
sg83
g1737
sg76
(lp1752
g69
(g70
g71
NtRp1753
(dp1754
g74
(dp1755
g82
I4
ssg83
g1749
sg76
(lp1756
g112
asbasbasbag69
(g85
g71
NtRp1757
(dp1758
g74
(dp1759
sg83
g1626
sg76
(lp1760
g69
(g90
g71
NtRp1761
(dp1762
g74
(dp1763
g94
g95
ssg83
g1757
sg76
(lp1764
g646
asbag69
(g90
g71
NtRp1765
(dp1766
g74
(dp1767
g101
g102
ssg83
g1757
sg76
(lp1768
S':'
asbag69
(g90
g71
NtRp1769
(dp1770
g74
(dp1771
sg83
g1757
sg76
(lp1772
g69
(g70
g71
NtRp1773
(dp1774
g74
(dp1775
g82
I4
ssg83
g1769
sg76
(lp1776
g659
asbasbasbag69
(g85
g71
NtRp1777
(dp1778
g74
(dp1779
sg83
g1626
sg76
(lp1780
g69
(g90
g71
NtRp1781
(dp1782
g74
(dp1783
g94
g95
ssg83
g1777
sg76
(lp1784
g844
asbag69
(g90
g71
NtRp1785
(dp1786
g74
(dp1787
g101
g102
ssg83
g1777
sg76
(lp1788
S':'
asbag69
(g90
g71
NtRp1789
(dp1790
g74
(dp1791
sg83
g1777
sg76
(lp1792
g69
(g70
g71
NtRp1793
(dp1794
g74
(dp1795
g82
I4
ssg83
g1789
sg76
(lp1796
g112
asbasbasbag69
(g85
g71
NtRp1797
(dp1798
g74
(dp1799
sg83
g1626
sg76
(lp1800
g69
(g90
g71
NtRp1801
(dp1802
g74
(dp1803
g94
g95
ssg83
g1797
sg76
(lp1804
g865
asbag69
(g90
g71
NtRp1805
(dp1806
g74
(dp1807
g101
g102
ssg83
g1797
sg76
(lp1808
S':'
asbag69
(g90
g71
NtRp1809
(dp1810
g74
(dp1811
sg83
g1797
sg76
(lp1812
g69
(g70
g71
NtRp1813
(dp1814
g74
(dp1815
g82
I4
ssg83
g1809
sg76
(lp1816
g112
asbasbasbag69
(g85
g71
NtRp1817
(dp1818
g74
(dp1819
sg83
g1626
sg76
(lp1820
g69
(g90
g71
NtRp1821
(dp1822
g74
(dp1823
g94
g95
ssg83
g1817
sg76
(lp1824
g886
asbag69
(g90
g71
NtRp1825
(dp1826
g74
(dp1827
g101
g102
ssg83
g1817
sg76
(lp1828
S':'
asbag69
(g90
g71
NtRp1829
(dp1830
g74
(dp1831
sg83
g1817
sg76
(lp1832
g69
(g70
g71
NtRp1833
(dp1834
g74
(dp1835
g82
I4
ssg83
g1829
sg76
(lp1836
g69
(g78
g71
NtRp1837
(dp1838
g74
(dp1839
g82
I3
ssg83
Nsg76
(lp1840
g69
(g85
g71
NtRp1841
(dp1842
g74
(dp1843
sg83
g1837
sg76
(lp1844
g69
(g90
g71
NtRp1845
(dp1846
g74
(dp1847
sg83
g1841
sg76
(lp1848
g69
(g70
g71
NtRp1849
(dp1850
g74
(dp1851
g82
I3
ssg83
g1845
sg76
(lp1852
g915
asbasbasbag69
(g85
g71
NtRp1853
(dp1854
g74
(dp1855
sg83
g1837
sg76
(lp1856
g69
(g90
g71
NtRp1857
(dp1858
g74
(dp1859
sg83
g1853
sg76
(lp1860
g69
(g70
g71
NtRp1861
(dp1862
g74
(dp1863
g82
I3
ssg83
g1857
sg76
(lp1864
g928
asbasbasbag69
(g85
g71
NtRp1865
(dp1866
g74
(dp1867
sg83
g1837
sg76
(lp1868
g69
(g90
g71
NtRp1869
(dp1870
g74
(dp1871
sg83
g1865
sg76
(lp1872
g69
(g70
g71
NtRp1873
(dp1874
g74
(dp1875
g82
I3
ssg83
g1869
sg76
(lp1876
g941
asbasbasbag69
(g85
g71
NtRp1877
(dp1878
g74
(dp1879
sg83
g1837
sg76
(lp1880
g69
(g90
g71
NtRp1881
(dp1882
g74
(dp1883
sg83
g1877
sg76
(lp1884
g69
(g70
g71
NtRp1885
(dp1886
g74
(dp1887
g82
I3
ssg83
g1881
sg76
(lp1888
g954
asbasbasbag69
(g85
g71
NtRp1889
(dp1890
g74
(dp1891
sg83
g1837
sg76
(lp1892
g69
(g90
g71
NtRp1893
(dp1894
g74
(dp1895
sg83
g1889
sg76
(lp1896
g69
(g70
g71
NtRp1897
(dp1898
g74
(dp1899
g82
I3
ssg83
g1893
sg76
(lp1900
g967
asbasbasbasbasbasbasbag69
(g85
g71
NtRp1901
(dp1902
g74
(dp1903
sg83
g1626
sg76
(lp1904
g69
(g90
g71
NtRp1905
(dp1906
g74
(dp1907
g94
g95
ssg83
g1901
sg76
(lp1908
g1234
asbag69
(g90
g71
NtRp1909
(dp1910
g74
(dp1911
g101
g102
ssg83
g1901
sg76
(lp1912
S':'
asbag69
(g90
g71
NtRp1913
(dp1914
g74
(dp1915
sg83
g1901
sg76
(lp1916
g69
(g70
g71
NtRp1917
(dp1918
g74
(dp1919
g82
I4
ssg83
g1913
sg76
(lp1920
g69
(g78
g71
NtRp1921
(dp1922
g74
(dp1923
g82
I3
ssg83
Nsg76
(lp1924
g69
(g85
g71
NtRp1925
(dp1926
g74
(dp1927
sg83
g1921
sg76
(lp1928
g69
(g90
g71
NtRp1929
(dp1930
g74
(dp1931
sg83
g1925
sg76
(lp1932
g69
(g70
g71
NtRp1933
(dp1934
g74
(dp1935
g82
I3
ssg83
g1929
sg76
(lp1936
S'2'
asbasbasbag69
(g85
g71
NtRp1937
(dp1938
g74
(dp1939
sg83
g1921
sg76
(lp1940
g69
(g90
g71
NtRp1941
(dp1942
g74
(dp1943
sg83
g1937
sg76
(lp1944
g69
(g70
g71
NtRp1945
(dp1946
g74
(dp1947
g82
I3
ssg83
g1941
sg76
(lp1948
S'2'
asbasbasbag69
(g85
g71
NtRp1949
(dp1950
g74
(dp1951
sg83
g1921
sg76
(lp1952
g69
(g90
g71
NtRp1953
(dp1954
g74
(dp1955
sg83
g1949
sg76
(lp1956
g69
(g70
g71
NtRp1957
(dp1958
g74
(dp1959
g82
I3
ssg83
g1953
sg76
(lp1960
S'1'
asbasbasbag69
(g85
g71
NtRp1961
(dp1962
g74
(dp1963
sg83
g1921
sg76
(lp1964
g69
(g90
g71
NtRp1965
(dp1966
g74
(dp1967
sg83
g1961
sg76
(lp1968
g69
(g70
g71
NtRp1969
(dp1970
g74
(dp1971
g82
I3
ssg83
g1965
sg76
(lp1972
S'datetime.datetime(2012, 10, 21, 16, 57, 4)'
p1973
asbasbasbag69
(g85
g71
NtRp1974
(dp1975
g74
(dp1976
sg83
g1921
sg76
(lp1977
g69
(g90
g71
NtRp1978
(dp1979
g74
(dp1980
sg83
g1974
sg76
(lp1981
g69
(g70
g71
NtRp1982
(dp1983
g74
(dp1984
g82
I3
ssg83
g1978
sg76
(lp1985
g1312
asbasbasbasbasbasbasbasbasbasbasbag69
(g85
g71
NtRp1986
(dp1987
g74
(dp1988
sg83
g79
sg76
(lp1989
g69
(g90
g71
NtRp1990
(dp1991
g74
(dp1992
g94
g95
ssg83
g1986
sg76
(lp1993
S'is_https'
p1994
asbag69
(g90
g71
NtRp1995
(dp1996
g74
(dp1997
g101
g102
ssg83
g1986
sg76
(lp1998
S':'
asbag69
(g90
g71
NtRp1999
(dp2000
g74
(dp2001
sg83
g1986
sg76
(lp2002
g69
(g70
g71
NtRp2003
(dp2004
g74
(dp2005
g82
I5
ssg83
g1999
sg76
(lp2006
g112
asbasbasbag69
(g85
g71
NtRp2007
(dp2008
g74
(dp2009
sg83
g79
sg76
(lp2010
g69
(g90
g71
NtRp2011
(dp2012
g74
(dp2013
g94
g95
ssg83
g2007
sg76
(lp2014
S'is_local'
p2015
asbag69
(g90
g71
NtRp2016
(dp2017
g74
(dp2018
g101
g102
ssg83
g2007
sg76
(lp2019
S':'
asbag69
(g90
g71
NtRp2020
(dp2021
g74
(dp2022
sg83
g2007
sg76
(lp2023
g69
(g70
g71
NtRp2024
(dp2025
g74
(dp2026
g82
I5
ssg83
g2020
sg76
(lp2027
g1421
asbasbasbag69
(g85
g71
NtRp2028
(dp2029
g74
(dp2030
sg83
g79
sg76
(lp2031
g69
(g90
g71
NtRp2032
(dp2033
g74
(dp2034
g94
g95
ssg83
g2028
sg76
(lp2035
S'is_restful'
p2036
asbag69
(g90
g71
NtRp2037
(dp2038
g74
(dp2039
g101
g102
ssg83
g2028
sg76
(lp2040
S':'
asbag69
(g90
g71
NtRp2041
(dp2042
g74
(dp2043
sg83
g2028
sg76
(lp2044
g69
(g70
g71
NtRp2045
(dp2046
g74
(dp2047
g82
I5
ssg83
g2041
sg76
(lp2048
g112
asbasbasbag69
(g85
g71
NtRp2049
(dp2050
g74
(dp2051
sg83
g79
sg76
(lp2052
g69
(g90
g71
NtRp2053
(dp2054
g74
(dp2055
g94
g95
ssg83
g2049
sg76
(lp2056
S'now'
p2057
asbag69
(g90
g71
NtRp2058
(dp2059
g74
(dp2060
g101
g102
ssg83
g2049
sg76
(lp2061
S':'
asbag69
(g90
g71
NtRp2062
(dp2063
g74
(dp2064
sg83
g2049
sg76
(lp2065
g69
(g70
g71
NtRp2066
(dp2067
g74
(dp2068
g82
I5
ssg83
g2062
sg76
(lp2069
S'datetime.datetime(2013, 2, 7, 9, 59, 38, 854207)'
p2070
asbasbasbag69
(g85
g71
NtRp2071
(dp2072
g74
(dp2073
sg83
g79
sg76
(lp2074
g69
(g90
g71
NtRp2075
(dp2076
g74
(dp2077
g94
g95
ssg83
g2071
sg76
(lp2078
S'post_vars'
p2079
asbag69
(g90
g71
NtRp2080
(dp2081
g74
(dp2082
g101
g102
ssg83
g2071
sg76
(lp2083
S':'
asbag69
(g90
g71
NtRp2084
(dp2085
g74
(dp2086
sg83
g2071
sg76
(lp2087
g69
(g70
g71
NtRp2088
(dp2089
g74
(dp2090
g82
I5
ssg83
g2084
sg76
(lp2091
g69
(g78
g71
NtRp2092
(dp2093
g74
(dp2094
g82
I4
ssg83
Nsg76
(lp2095
sbasbasbasbag69
(g85
g71
NtRp2096
(dp2097
g74
(dp2098
sg83
g79
sg76
(lp2099
g69
(g90
g71
NtRp2100
(dp2101
g74
(dp2102
g94
g95
ssg83
g2096
sg76
(lp2103
S'raw_args'
p2104
asbag69
(g90
g71
NtRp2105
(dp2106
g74
(dp2107
g101
g102
ssg83
g2096
sg76
(lp2108
S':'
asbag69
(g90
g71
NtRp2109
(dp2110
g74
(dp2111
sg83
g2096
sg76
(lp2112
g69
(g70
g71
NtRp2113
(dp2114
g74
(dp2115
g82
I5
ssg83
g2109
sg76
(lp2116
S'/131'
p2117
asbasbasbag69
(g85
g71
NtRp2118
(dp2119
g74
(dp2120
sg83
g79
sg76
(lp2121
g69
(g90
g71
NtRp2122
(dp2123
g74
(dp2124
g94
g95
ssg83
g2118
sg76
(lp2125
S'raw_extension'
p2126
asbag69
(g90
g71
NtRp2127
(dp2128
g74
(dp2129
g101
g102
ssg83
g2118
sg76
(lp2130
S':'
asbag69
(g90
g71
NtRp2131
(dp2132
g74
(dp2133
sg83
g2118
sg76
(lp2134
g69
(g70
g71
NtRp2135
(dp2136
g74
(dp2137
g82
I5
ssg83
g2131
sg76
(lp2138
S'None'
p2139
asbasbasbag69
(g85
g71
NtRp2140
(dp2141
g74
(dp2142
sg83
g79
sg76
(lp2143
g69
(g90
g71
NtRp2144
(dp2145
g74
(dp2146
g94
g95
ssg83
g2140
sg76
(lp2147
S'url'
p2148
asbag69
(g90
g71
NtRp2149
(dp2150
g74
(dp2151
g101
g102
ssg83
g2140
sg76
(lp2152
S':'
asbag69
(g90
g71
NtRp2153
(dp2154
g74
(dp2155
sg83
g2140
sg76
(lp2156
g69
(g70
g71
NtRp2157
(dp2158
g74
(dp2159
g82
I5
ssg83
g2153
sg76
(lp2160
g989
asbasbasbag69
(g85
g71
NtRp2161
(dp2162
g74
(dp2163
sg83
g79
sg76
(lp2164
g69
(g90
g71
NtRp2165
(dp2166
g74
(dp2167
g94
g95
ssg83
g2161
sg76
(lp2168
S'utcnow'
p2169
asbag69
(g90
g71
NtRp2170
(dp2171
g74
(dp2172
g101
g102
ssg83
g2161
sg76
(lp2173
S':'
asbag69
(g90
g71
NtRp2174
(dp2175
g74
(dp2176
sg83
g2161
sg76
(lp2177
g69
(g70
g71
NtRp2178
(dp2179
g74
(dp2180
g82
I5
ssg83
g2174
sg76
(lp2181
S'datetime.datetime(2013, 2, 7, 15, 59, 38, 854213)'
p2182
asbasbasbag69
(g85
g71
NtRp2183
(dp2184
g74
(dp2185
sg83
g79
sg76
(lp2186
g69
(g90
g71
NtRp2187
(dp2188
g74
(dp2189
g94
g95
ssg83
g2183
sg76
(lp2190
S'uuid'
p2191
asbag69
(g90
g71
NtRp2192
(dp2193
g74
(dp2194
g101
g102
ssg83
g2183
sg76
(lp2195
S':'
asbag69
(g90
g71
NtRp2196
(dp2197
g74
(dp2198
sg83
g2183
sg76
(lp2199
g69
(g70
g71
NtRp2200
(dp2201
g74
(dp2202
g82
I5
ssg83
g2196
sg76
(lp2203
S'Betsy/127.0.0.1.2013-02-07.09-59-38.f87f664b-aa9b-4709-b868-a25b0371259b'
p2204
asbasbasbag69
(g85
g71
NtRp2205
(dp2206
g74
(dp2207
sg83
g79
sg76
(lp2208
g69
(g90
g71
NtRp2209
(dp2210
g74
(dp2211
g94
g95
ssg83
g2205
sg76
(lp2212
S'vars'
p2213
asbag69
(g90
g71
NtRp2214
(dp2215
g74
(dp2216
g101
g102
ssg83
g2205
sg76
(lp2217
S':'
asbag69
(g90
g71
NtRp2218
(dp2219
g74
(dp2220
sg83
g2205
sg76
(lp2221
g69
(g70
g71
NtRp2222
(dp2223
g74
(dp2224
g82
I5
ssg83
g2218
sg76
(lp2225
g69
(g78
g71
NtRp2226
(dp2227
g74
(dp2228
g82
I4
ssg83
Nsg76
(lp2229
sbasbasbasbag69
(g85
g71
NtRp2230
(dp2231
g74
(dp2232
sg83
g79
sg76
(lp2233
g69
(g90
g71
NtRp2234
(dp2235
g74
(dp2236
g94
g95
ssg83
g2230
sg76
(lp2237
S'wsgi'
p2238
asbag69
(g90
g71
NtRp2239
(dp2240
g74
(dp2241
g101
g102
ssg83
g2230
sg76
(lp2242
S':'
asbag69
(g90
g71
NtRp2243
(dp2244
g74
(dp2245
sg83
g2230
sg76
(lp2246
g69
(g70
g71
NtRp2247
(dp2248
g74
(dp2249
g82
I5
ssg83
g2243
sg76
(lp2250
g69
(g78
g71
NtRp2251
(dp2252
g74
(dp2253
g82
I4
ssg83
Nsg76
(lp2254
g69
(g85
g71
NtRp2255
(dp2256
g74
(dp2257
sg83
g2251
sg76
(lp2258
g69
(g90
g71
NtRp2259
(dp2260
g74
(dp2261
g94
g95
ssg83
g2255
sg76
(lp2262
S'environ'
p2263
asbag69
(g90
g71
NtRp2264
(dp2265
g74
(dp2266
g101
g102
ssg83
g2255
sg76
(lp2267
S':'
asbag69
(g90
g71
NtRp2268
(dp2269
g74
(dp2270
sg83
g2255
sg76
(lp2271
g69
(g70
g71
NtRp2272
(dp2273
g74
(dp2274
g82
I4
ssg83
g2268
sg76
(lp2275
g69
(g78
g71
NtRp2276
(dp2277
g74
(dp2278
g82
I3
ssg83
Nsg76
(lp2279
g69
(g85
g71
NtRp2280
(dp2281
g74
(dp2282
sg83
g2276
sg76
(lp2283
g69
(g90
g71
NtRp2284
(dp2285
g74
(dp2286
g94
g95
ssg83
g2280
sg76
(lp2287
S'HTTP_ACCEPT'
p2288
asbag69
(g90
g71
NtRp2289
(dp2290
g74
(dp2291
g101
g102
ssg83
g2280
sg76
(lp2292
S':'
asbag69
(g90
g71
NtRp2293
(dp2294
g74
(dp2295
sg83
g2280
sg76
(lp2296
g69
(g70
g71
NtRp2297
(dp2298
g74
(dp2299
g82
I3
ssg83
g2293
sg76
(lp2300
g681
asbasbasbag69
(g85
g71
NtRp2301
(dp2302
g74
(dp2303
sg83
g2276
sg76
(lp2304
g69
(g90
g71
NtRp2305
(dp2306
g74
(dp2307
g94
g95
ssg83
g2301
sg76
(lp2308
S'HTTP_ACCEPT_ENCODING'
p2309
asbag69
(g90
g71
NtRp2310
(dp2311
g74
(dp2312
g101
g102
ssg83
g2301
sg76
(lp2313
S':'
asbag69
(g90
g71
NtRp2314
(dp2315
g74
(dp2316
sg83
g2301
sg76
(lp2317
g69
(g70
g71
NtRp2318
(dp2319
g74
(dp2320
g82
I3
ssg83
g2314
sg76
(lp2321
g703
asbasbasbag69
(g85
g71
NtRp2322
(dp2323
g74
(dp2324
sg83
g2276
sg76
(lp2325
g69
(g90
g71
NtRp2326
(dp2327
g74
(dp2328
g94
g95
ssg83
g2322
sg76
(lp2329
S'HTTP_ACCEPT_LANGUAGE'
p2330
asbag69
(g90
g71
NtRp2331
(dp2332
g74
(dp2333
g101
g102
ssg83
g2322
sg76
(lp2334
S':'
asbag69
(g90
g71
NtRp2335
(dp2336
g74
(dp2337
sg83
g2322
sg76
(lp2338
g69
(g70
g71
NtRp2339
(dp2340
g74
(dp2341
g82
I3
ssg83
g2335
sg76
(lp2342
g725
asbasbasbag69
(g85
g71
NtRp2343
(dp2344
g74
(dp2345
sg83
g2276
sg76
(lp2346
g69
(g90
g71
NtRp2347
(dp2348
g74
(dp2349
g94
g95
ssg83
g2343
sg76
(lp2350
S'HTTP_CONNECTION'
p2351
asbag69
(g90
g71
NtRp2352
(dp2353
g74
(dp2354
g101
g102
ssg83
g2343
sg76
(lp2355
S':'
asbag69
(g90
g71
NtRp2356
(dp2357
g74
(dp2358
sg83
g2343
sg76
(lp2359
g69
(g70
g71
NtRp2360
(dp2361
g74
(dp2362
g82
I3
ssg83
g2356
sg76
(lp2363
g747
asbasbasbag69
(g85
g71
NtRp2364
(dp2365
g74
(dp2366
sg83
g2276
sg76
(lp2367
g69
(g90
g71
NtRp2368
(dp2369
g74
(dp2370
g94
g95
ssg83
g2364
sg76
(lp2371
S'HTTP_COOKIE'
p2372
asbag69
(g90
g71
NtRp2373
(dp2374
g74
(dp2375
g101
g102
ssg83
g2364
sg76
(lp2376
S':'
asbag69
(g90
g71
NtRp2377
(dp2378
g74
(dp2379
sg83
g2364
sg76
(lp2380
g69
(g70
g71
NtRp2381
(dp2382
g74
(dp2383
g82
I3
ssg83
g2377
sg76
(lp2384
g769
asbasbasbag69
(g85
g71
NtRp2385
(dp2386
g74
(dp2387
sg83
g2276
sg76
(lp2388
g69
(g90
g71
NtRp2389
(dp2390
g74
(dp2391
g94
g95
ssg83
g2385
sg76
(lp2392
S'HTTP_HOST'
p2393
asbag69
(g90
g71
NtRp2394
(dp2395
g74
(dp2396
g101
g102
ssg83
g2385
sg76
(lp2397
S':'
asbag69
(g90
g71
NtRp2398
(dp2399
g74
(dp2400
sg83
g2385
sg76
(lp2401
g69
(g70
g71
NtRp2402
(dp2403
g74
(dp2404
g82
I3
ssg83
g2398
sg76
(lp2405
g791
asbasbasbag69
(g85
g71
NtRp2406
(dp2407
g74
(dp2408
sg83
g2276
sg76
(lp2409
g69
(g90
g71
NtRp2410
(dp2411
g74
(dp2412
g94
g95
ssg83
g2406
sg76
(lp2413
S'HTTP_REFERER'
p2414
asbag69
(g90
g71
NtRp2415
(dp2416
g74
(dp2417
g101
g102
ssg83
g2406
sg76
(lp2418
S':'
asbag69
(g90
g71
NtRp2419
(dp2420
g74
(dp2421
sg83
g2406
sg76
(lp2422
g69
(g70
g71
NtRp2423
(dp2424
g74
(dp2425
g82
I3
ssg83
g2419
sg76
(lp2426
g813
asbasbasbag69
(g85
g71
NtRp2427
(dp2428
g74
(dp2429
sg83
g2276
sg76
(lp2430
g69
(g90
g71
NtRp2431
(dp2432
g74
(dp2433
g94
g95
ssg83
g2427
sg76
(lp2434
S'HTTP_USER_AGENT'
p2435
asbag69
(g90
g71
NtRp2436
(dp2437
g74
(dp2438
g101
g102
ssg83
g2427
sg76
(lp2439
S':'
asbag69
(g90
g71
NtRp2440
(dp2441
g74
(dp2442
sg83
g2427
sg76
(lp2443
g69
(g70
g71
NtRp2444
(dp2445
g74
(dp2446
g82
I3
ssg83
g2440
sg76
(lp2447
g835
asbasbasbag69
(g85
g71
NtRp2448
(dp2449
g74
(dp2450
sg83
g2276
sg76
(lp2451
g69
(g90
g71
NtRp2452
(dp2453
g74
(dp2454
g94
g95
ssg83
g2448
sg76
(lp2455
S'PATH_INFO'
p2456
asbag69
(g90
g71
NtRp2457
(dp2458
g74
(dp2459
g101
g102
ssg83
g2448
sg76
(lp2460
S':'
asbag69
(g90
g71
NtRp2461
(dp2462
g74
(dp2463
sg83
g2448
sg76
(lp2464
g69
(g70
g71
NtRp2465
(dp2466
g74
(dp2467
g82
I3
ssg83
g2461
sg76
(lp2468
g989
asbasbasbag69
(g85
g71
NtRp2469
(dp2470
g74
(dp2471
sg83
g2276
sg76
(lp2472
g69
(g90
g71
NtRp2473
(dp2474
g74
(dp2475
g94
g95
ssg83
g2469
sg76
(lp2476
S'QUERY_STRING'
p2477
asbag69
(g90
g71
NtRp2478
(dp2479
g74
(dp2480
g101
g102
ssg83
g2469
sg76
(lp2481
S':'
asbag69
(g90
g71
NtRp2482
(dp2483
g74
(dp2484
sg83
g2469
sg76
(lp2485
g69
(g70
g71
NtRp2486
(dp2487
g74
(dp2488
g82
I3
ssg83
g2482
sg76
(lp2489
S''
asbasbasbag69
(g85
g71
NtRp2490
(dp2491
g74
(dp2492
sg83
g2276
sg76
(lp2493
g69
(g90
g71
NtRp2494
(dp2495
g74
(dp2496
g94
g95
ssg83
g2490
sg76
(lp2497
S'REMOTE_ADDR'
p2498
asbag69
(g90
g71
NtRp2499
(dp2500
g74
(dp2501
g101
g102
ssg83
g2490
sg76
(lp2502
S':'
asbag69
(g90
g71
NtRp2503
(dp2504
g74
(dp2505
sg83
g2490
sg76
(lp2506
g69
(g70
g71
NtRp2507
(dp2508
g74
(dp2509
g82
I3
ssg83
g2503
sg76
(lp2510
g237
asbasbasbag69
(g85
g71
NtRp2511
(dp2512
g74
(dp2513
sg83
g2276
sg76
(lp2514
g69
(g90
g71
NtRp2515
(dp2516
g74
(dp2517
g94
g95
ssg83
g2511
sg76
(lp2518
S'REMOTE_PORT'
p2519
asbag69
(g90
g71
NtRp2520
(dp2521
g74
(dp2522
g101
g102
ssg83
g2511
sg76
(lp2523
S':'
asbag69
(g90
g71
NtRp2524
(dp2525
g74
(dp2526
sg83
g2511
sg76
(lp2527
g69
(g70
g71
NtRp2528
(dp2529
g74
(dp2530
g82
I3
ssg83
g2524
sg76
(lp2531
g1053
asbasbasbag69
(g85
g71
NtRp2532
(dp2533
g74
(dp2534
sg83
g2276
sg76
(lp2535
g69
(g90
g71
NtRp2536
(dp2537
g74
(dp2538
g94
g95
ssg83
g2532
sg76
(lp2539
S'REQUEST_METHOD'
p2540
asbag69
(g90
g71
NtRp2541
(dp2542
g74
(dp2543
g101
g102
ssg83
g2532
sg76
(lp2544
S':'
asbag69
(g90
g71
NtRp2545
(dp2546
g74
(dp2547
sg83
g2532
sg76
(lp2548
g69
(g70
g71
NtRp2549
(dp2550
g74
(dp2551
g82
I3
ssg83
g2545
sg76
(lp2552
g1075
asbasbasbag69
(g85
g71
NtRp2553
(dp2554
g74
(dp2555
sg83
g2276
sg76
(lp2556
g69
(g90
g71
NtRp2557
(dp2558
g74
(dp2559
g94
g95
ssg83
g2553
sg76
(lp2560
S'REQUEST_URI'
p2561
asbag69
(g90
g71
NtRp2562
(dp2563
g74
(dp2564
g101
g102
ssg83
g2553
sg76
(lp2565
S':'
asbag69
(g90
g71
NtRp2566
(dp2567
g74
(dp2568
sg83
g2553
sg76
(lp2569
g69
(g70
g71
NtRp2570
(dp2571
g74
(dp2572
g82
I3
ssg83
g2566
sg76
(lp2573
g989
asbasbasbag69
(g85
g71
NtRp2574
(dp2575
g74
(dp2576
sg83
g2276
sg76
(lp2577
g69
(g90
g71
NtRp2578
(dp2579
g74
(dp2580
g94
g95
ssg83
g2574
sg76
(lp2581
S'SCRIPT_NAME'
p2582
asbag69
(g90
g71
NtRp2583
(dp2584
g74
(dp2585
g101
g102
ssg83
g2574
sg76
(lp2586
S':'
asbag69
(g90
g71
NtRp2587
(dp2588
g74
(dp2589
sg83
g2574
sg76
(lp2590
g69
(g70
g71
NtRp2591
(dp2592
g74
(dp2593
g82
I3
ssg83
g2587
sg76
(lp2594
S''
asbasbasbag69
(g85
g71
NtRp2595
(dp2596
g74
(dp2597
sg83
g2276
sg76
(lp2598
g69
(g90
g71
NtRp2599
(dp2600
g74
(dp2601
g94
g95
ssg83
g2595
sg76
(lp2602
S'SERVER_NAME'
p2603
asbag69
(g90
g71
NtRp2604
(dp2605
g74
(dp2606
g101
g102
ssg83
g2595
sg76
(lp2607
S':'
asbag69
(g90
g71
NtRp2608
(dp2609
g74
(dp2610
sg83
g2595
sg76
(lp2611
g69
(g70
g71
NtRp2612
(dp2613
g74
(dp2614
g82
I3
ssg83
g2608
sg76
(lp2615
g954
asbasbasbag69
(g85
g71
NtRp2616
(dp2617
g74
(dp2618
sg83
g2276
sg76
(lp2619
g69
(g90
g71
NtRp2620
(dp2621
g74
(dp2622
g94
g95
ssg83
g2616
sg76
(lp2623
S'SERVER_PORT'
p2624
asbag69
(g90
g71
NtRp2625
(dp2626
g74
(dp2627
g101
g102
ssg83
g2616
sg76
(lp2628
S':'
asbag69
(g90
g71
NtRp2629
(dp2630
g74
(dp2631
sg83
g2616
sg76
(lp2632
g69
(g70
g71
NtRp2633
(dp2634
g74
(dp2635
g82
I3
ssg83
g2629
sg76
(lp2636
g1160
asbasbasbag69
(g85
g71
NtRp2637
(dp2638
g74
(dp2639
sg83
g2276
sg76
(lp2640
g69
(g90
g71
NtRp2641
(dp2642
g74
(dp2643
g94
g95
ssg83
g2637
sg76
(lp2644
S'SERVER_PROTOCOL'
p2645
asbag69
(g90
g71
NtRp2646
(dp2647
g74
(dp2648
g101
g102
ssg83
g2637
sg76
(lp2649
S':'
asbag69
(g90
g71
NtRp2650
(dp2651
g74
(dp2652
sg83
g2637
sg76
(lp2653
g69
(g70
g71
NtRp2654
(dp2655
g74
(dp2656
g82
I3
ssg83
g2650
sg76
(lp2657
g1182
asbasbasbag69
(g85
g71
NtRp2658
(dp2659
g74
(dp2660
sg83
g2276
sg76
(lp2661
g69
(g90
g71
NtRp2662
(dp2663
g74
(dp2664
g94
g95
ssg83
g2658
sg76
(lp2665
S'SERVER_SOFTWARE'
p2666
asbag69
(g90
g71
NtRp2667
(dp2668
g74
(dp2669
g101
g102
ssg83
g2658
sg76
(lp2670
S':'
asbag69
(g90
g71
NtRp2671
(dp2672
g74
(dp2673
sg83
g2658
sg76
(lp2674
g69
(g70
g71
NtRp2675
(dp2676
g74
(dp2677
g82
I3
ssg83
g2671
sg76
(lp2678
g1204
asbasbasbag69
(g85
g71
NtRp2679
(dp2680
g74
(dp2681
sg83
g2276
sg76
(lp2682
g69
(g90
g71
NtRp2683
(dp2684
g74
(dp2685
g94
g95
ssg83
g2679
sg76
(lp2686
S'wsgi.errors'
p2687
asbag69
(g90
g71
NtRp2688
(dp2689
g74
(dp2690
g101
g102
ssg83
g2679
sg76
(lp2691
S':'
asbag69
(g90
g71
NtRp2692
(dp2693
g74
(dp2694
sg83
g2679
sg76
(lp2695
g69
(g70
g71
NtRp2696
(dp2697
g74
(dp2698
g82
I3
ssg83
g2692
sg76
(lp2699
S"<open file '<stderr>', mode 'w' at 0x2b62e6c3a270>"
p2700
asbasbasbag69
(g85
g71
NtRp2701
(dp2702
g74
(dp2703
sg83
g2276
sg76
(lp2704
g69
(g90
g71
NtRp2705
(dp2706
g74
(dp2707
g94
g95
ssg83
g2701
sg76
(lp2708
S'wsgi.file_wrapper'
p2709
asbag69
(g90
g71
NtRp2710
(dp2711
g74
(dp2712
g101
g102
ssg83
g2701
sg76
(lp2713
S':'
asbag69
(g90
g71
NtRp2714
(dp2715
g74
(dp2716
sg83
g2701
sg76
(lp2717
g69
(g70
g71
NtRp2718
(dp2719
g74
(dp2720
g82
I3
ssg83
g2714
sg76
(lp2721
S'<class wsgiref.util.FileWrapper at 0x16668a78>'
p2722
asbasbasbag69
(g85
g71
NtRp2723
(dp2724
g74
(dp2725
sg83
g2276
sg76
(lp2726
g69
(g90
g71
NtRp2727
(dp2728
g74
(dp2729
g94
g95
ssg83
g2723
sg76
(lp2730
S'wsgi.input'
p2731
asbag69
(g90
g71
NtRp2732
(dp2733
g74
(dp2734
g101
g102
ssg83
g2723
sg76
(lp2735
S':'
asbag69
(g90
g71
NtRp2736
(dp2737
g74
(dp2738
sg83
g2723
sg76
(lp2739
g69
(g70
g71
NtRp2740
(dp2741
g74
(dp2742
g82
I3
ssg83
g2736
sg76
(lp2743
S'<cStringIO.StringO object at 0x169ff4c8>'
p2744
asbasbasbag69
(g85
g71
NtRp2745
(dp2746
g74
(dp2747
sg83
g2276
sg76
(lp2748
g69
(g90
g71
NtRp2749
(dp2750
g74
(dp2751
g94
g95
ssg83
g2745
sg76
(lp2752
S'wsgi.multiprocess'
p2753
asbag69
(g90
g71
NtRp2754
(dp2755
g74
(dp2756
g101
g102
ssg83
g2745
sg76
(lp2757
S':'
asbag69
(g90
g71
NtRp2758
(dp2759
g74
(dp2760
sg83
g2745
sg76
(lp2761
g69
(g70
g71
NtRp2762
(dp2763
g74
(dp2764
g82
I3
ssg83
g2758
sg76
(lp2765
g112
asbasbasbag69
(g85
g71
NtRp2766
(dp2767
g74
(dp2768
sg83
g2276
sg76
(lp2769
g69
(g90
g71
NtRp2770
(dp2771
g74
(dp2772
g94
g95
ssg83
g2766
sg76
(lp2773
S'wsgi.multithread'
p2774
asbag69
(g90
g71
NtRp2775
(dp2776
g74
(dp2777
g101
g102
ssg83
g2766
sg76
(lp2778
S':'
asbag69
(g90
g71
NtRp2779
(dp2780
g74
(dp2781
sg83
g2766
sg76
(lp2782
g69
(g70
g71
NtRp2783
(dp2784
g74
(dp2785
g82
I3
ssg83
g2779
sg76
(lp2786
g1421
asbasbasbag69
(g85
g71
NtRp2787
(dp2788
g74
(dp2789
sg83
g2276
sg76
(lp2790
g69
(g90
g71
NtRp2791
(dp2792
g74
(dp2793
g94
g95
ssg83
g2787
sg76
(lp2794
S'wsgi.run_once'
p2795
asbag69
(g90
g71
NtRp2796
(dp2797
g74
(dp2798
g101
g102
ssg83
g2787
sg76
(lp2799
S':'
asbag69
(g90
g71
NtRp2800
(dp2801
g74
(dp2802
sg83
g2787
sg76
(lp2803
g69
(g70
g71
NtRp2804
(dp2805
g74
(dp2806
g82
I3
ssg83
g2800
sg76
(lp2807
g112
asbasbasbag69
(g85
g71
NtRp2808
(dp2809
g74
(dp2810
sg83
g2276
sg76
(lp2811
g69
(g90
g71
NtRp2812
(dp2813
g74
(dp2814
g94
g95
ssg83
g2808
sg76
(lp2815
S'wsgi.url_scheme'
p2816
asbag69
(g90
g71
NtRp2817
(dp2818
g74
(dp2819
g101
g102
ssg83
g2808
sg76
(lp2820
S':'
asbag69
(g90
g71
NtRp2821
(dp2822
g74
(dp2823
sg83
g2808
sg76
(lp2824
g69
(g70
g71
NtRp2825
(dp2826
g74
(dp2827
g82
I3
ssg83
g2821
sg76
(lp2828
g1464
asbasbasbag69
(g85
g71
NtRp2829
(dp2830
g74
(dp2831
sg83
g2276
sg76
(lp2832
g69
(g90
g71
NtRp2833
(dp2834
g74
(dp2835
g94
g95
ssg83
g2829
sg76
(lp2836
S'wsgi.version'
p2837
asbag69
(g90
g71
NtRp2838
(dp2839
g74
(dp2840
g101
g102
ssg83
g2829
sg76
(lp2841
S':'
asbag69
(g90
g71
NtRp2842
(dp2843
g74
(dp2844
sg83
g2829
sg76
(lp2845
g69
(g70
g71
NtRp2846
(dp2847
g74
(dp2848
g82
I3
ssg83
g2842
sg76
(lp2849
S'1'
asbasbasbasbasbasbasbasbasbasbasbasbasbsS'frames'
p2850
(lp2851
(dp2852
S'file'
p2853
S'/home/xchen/web2py/gluon/restricted.py'
p2854
sS'dump'
p2855
(dp2856
S'code'
p2857
S'\'response.write(\\\'<!DOCTYPE html>\\\\n<!-- paulirish...."></script>\\\\n</body>\\\\n</html>\\\\n\\\\n\\\', escape=False)\''
p2858
sS'layer'
p2859
S"'/home/xchen/web2py/applications/Betsy/views/default/show_job.html'"
p2860
sS'global compile2'
p2861
S'<function compile2>'
p2862
sS'ccode'
p2863
S'undefined'
p2864
ssS'lnum'
p2865
I211
sS'lines'
p2866
(dp2867
I206
S"    environment['__name__'] = '__restricted__'"
p2868
sI207
S'    try:'
p2869
sI208
S'        if isinstance(code, types.CodeType):'
p2870
sI209
S'            ccode = code'
p2871
sI210
S'        else:'
p2872
sI211
S'            ccode = compile2(code, layer)'
p2873
sI212
S'        exec ccode in environment'
p2874
sI213
S'    except HTTP:'
p2875
sI214
S'        raise'
p2876
sI215
S'    except RestrictedError:'
p2877
ssS'call'
p2878
S'(code=\'response.write(\\\'<!DOCTYPE html>\\\\n<!-- paulirish...."></script>\\\\n</body>\\\\n</html>\\\\n\\\\n\\\', escape=False)\', environment={\'A\': <class \'gluon.html.A\'>, \'Auth\': <class \'gluon.tools.Auth\'>, \'B\': <class \'gluon.html.B\'>, \'BEAUTIFY\': <class \'gluon.html.BEAUTIFY\'>, \'BODY\': <class \'gluon.html.BODY\'>, \'BR\': <class \'gluon.html.BR\'>, \'BUTTON\': <class \'gluon.html.BUTTON\'>, \'CAT\': <class \'gluon.html.CAT\'>, \'CENTER\': <class \'gluon.html.CENTER\'>, \'CLEANUP\': <class \'gluon.validators.CLEANUP\'>, ...}, layer=\'/home/xchen/web2py/applications/Betsy/views/default/show_job.html\')'
p2879
sS'func'
p2880
S'restricted'
p2881
sa(dp2882
g2853
S'/home/xchen/web2py/gluon/restricted.py'
p2883
sg2855
(dp2884
S'builtincompile'
p2885
S'<built-in function compile>'
p2886
sS'code'
p2887
S'\'response.write(\\\'<!DOCTYPE html>\\\\n<!-- paulirish...."></script>\\\\n</body>\\\\n</html>\\\\n\\\\n\\\', escape=False)\''
p2888
sS'code.rstrip'
p2889
S'<built-in method rstrip of str object>'
p2890
sS').replace'
p2891
g2864
sS'layer'
p2892
S"'/home/xchen/web2py/applications/Betsy/views/default/show_job.html'"
p2893
ssg2865
I194
sg2866
(dp2894
I192
S"    The +'\\n' is necessary else compile fails when code ends in a comment."
p2895
sI193
S'    """'
p2896
sI194
S"    return compile(code.rstrip().replace('\\r\\n', '\\n') + '\\n', layer, 'exec')"
p2897
sI195
S''
sI196
S''
sI197
S"def restricted(code, environment=None, layer='Unknown'):"
p2898
sI198
S'    """'
p2899
sI189
S''
sI190
S'def compile2(code, layer):'
p2900
sI191
S'    """'
p2901
ssg2878
S'(code=\'response.write(\\\'<!DOCTYPE html>\\\\n<!-- paulirish...."></script>\\\\n</body>\\\\n</html>\\\\n\\\\n\\\', escape=False)\', layer=\'/home/xchen/web2py/applications/Betsy/views/default/show_job.html\')'
p2902
sg2880
S'compile2'
p2903
sasS'pyver'
p2904
S'Python 2.7.3: /usr/local/bin/python'
p2905
sS'session'
p2906
g69
(g70
g71
NtRp2907
(dp2908
g74
(dp2909
sg76
(lp2910
g69
(g78
g71
NtRp2911
(dp2912
g74
(dp2913
g82
I5
ssg83
Nsg76
(lp2914
g69
(g85
g71
NtRp2915
(dp2916
g74
(dp2917
sg83
g2911
sg76
(lp2918
g69
(g90
g71
NtRp2919
(dp2920
g74
(dp2921
g94
g95
ssg83
g2915
sg76
(lp2922
S'auth'
p2923
asbag69
(g90
g71
NtRp2924
(dp2925
g74
(dp2926
g101
g102
ssg83
g2915
sg76
(lp2927
S':'
asbag69
(g90
g71
NtRp2928
(dp2929
g74
(dp2930
sg83
g2915
sg76
(lp2931
g69
(g70
g71
NtRp2932
(dp2933
g74
(dp2934
g82
I5
ssg83
g2928
sg76
(lp2935
g69
(g78
g71
NtRp2936
(dp2937
g74
(dp2938
g82
I4
ssg83
Nsg76
(lp2939
g69
(g85
g71
NtRp2940
(dp2941
g74
(dp2942
sg83
g2936
sg76
(lp2943
g69
(g90
g71
NtRp2944
(dp2945
g74
(dp2946
g94
g95
ssg83
g2940
sg76
(lp2947
S'expiration'
p2948
asbag69
(g90
g71
NtRp2949
(dp2950
g74
(dp2951
g101
g102
ssg83
g2940
sg76
(lp2952
S':'
asbag69
(g90
g71
NtRp2953
(dp2954
g74
(dp2955
sg83
g2940
sg76
(lp2956
g69
(g70
g71
NtRp2957
(dp2958
g74
(dp2959
g82
I4
ssg83
g2953
sg76
(lp2960
S'2592000'
p2961
asbasbasbag69
(g85
g71
NtRp2962
(dp2963
g74
(dp2964
sg83
g2936
sg76
(lp2965
g69
(g90
g71
NtRp2966
(dp2967
g74
(dp2968
g94
g95
ssg83
g2962
sg76
(lp2969
S'hmac_key'
p2970
asbag69
(g90
g71
NtRp2971
(dp2972
g74
(dp2973
g101
g102
ssg83
g2962
sg76
(lp2974
S':'
asbag69
(g90
g71
NtRp2975
(dp2976
g74
(dp2977
sg83
g2962
sg76
(lp2978
g69
(g70
g71
NtRp2979
(dp2980
g74
(dp2981
g82
I4
ssg83
g2975
sg76
(lp2982
S'739afc94-a36b-429c-8715-edcd03ea4351'
p2983
asbasbasbag69
(g85
g71
NtRp2984
(dp2985
g74
(dp2986
sg83
g2936
sg76
(lp2987
g69
(g90
g71
NtRp2988
(dp2989
g74
(dp2990
g94
g95
ssg83
g2984
sg76
(lp2991
S'last_visit'
p2992
asbag69
(g90
g71
NtRp2993
(dp2994
g74
(dp2995
g101
g102
ssg83
g2984
sg76
(lp2996
S':'
asbag69
(g90
g71
NtRp2997
(dp2998
g74
(dp2999
sg83
g2984
sg76
(lp3000
g69
(g70
g71
NtRp3001
(dp3002
g74
(dp3003
g82
I4
ssg83
g2997
sg76
(lp3004
S'datetime.datetime(2013, 2, 4, 10, 24, 37, 237452)'
p3005
asbasbasbag69
(g85
g71
NtRp3006
(dp3007
g74
(dp3008
sg83
g2936
sg76
(lp3009
g69
(g90
g71
NtRp3010
(dp3011
g74
(dp3012
g94
g95
ssg83
g3006
sg76
(lp3013
S'remember'
p3014
asbag69
(g90
g71
NtRp3015
(dp3016
g74
(dp3017
g101
g102
ssg83
g3006
sg76
(lp3018
S':'
asbag69
(g90
g71
NtRp3019
(dp3020
g74
(dp3021
sg83
g3006
sg76
(lp3022
g69
(g70
g71
NtRp3023
(dp3024
g74
(dp3025
g82
I4
ssg83
g3019
sg76
(lp3026
g1421
asbasbasbag69
(g85
g71
NtRp3027
(dp3028
g74
(dp3029
sg83
g2936
sg76
(lp3030
g69
(g90
g71
NtRp3031
(dp3032
g74
(dp3033
g94
g95
ssg83
g3027
sg76
(lp3034
S'user'
p3035
asbag69
(g90
g71
NtRp3036
(dp3037
g74
(dp3038
g101
g102
ssg83
g3027
sg76
(lp3039
S':'
asbag69
(g90
g71
NtRp3040
(dp3041
g74
(dp3042
sg83
g3027
sg76
(lp3043
g69
(g70
g71
NtRp3044
(dp3045
g74
(dp3046
g82
I4
ssg83
g3040
sg76
(lp3047
g69
(g78
g71
NtRp3048
(dp3049
g74
(dp3050
g82
I3
ssg83
Nsg76
(lp3051
g69
(g85
g71
NtRp3052
(dp3053
g74
(dp3054
sg83
g3048
sg76
(lp3055
g69
(g90
g71
NtRp3056
(dp3057
g74
(dp3058
g94
g95
ssg83
g3052
sg76
(lp3059
S'email'
p3060
asbag69
(g90
g71
NtRp3061
(dp3062
g74
(dp3063
g101
g102
ssg83
g3052
sg76
(lp3064
S':'
asbag69
(g90
g71
NtRp3065
(dp3066
g74
(dp3067
sg83
g3052
sg76
(lp3068
g69
(g70
g71
NtRp3069
(dp3070
g74
(dp3071
g82
I3
ssg83
g3065
sg76
(lp3072
S'xiaoling.chen@uth.tmc.edu'
p3073
asbasbasbag69
(g85
g71
NtRp3074
(dp3075
g74
(dp3076
sg83
g3048
sg76
(lp3077
g69
(g90
g71
NtRp3078
(dp3079
g74
(dp3080
g94
g95
ssg83
g3074
sg76
(lp3081
S'first_name'
p3082
asbag69
(g90
g71
NtRp3083
(dp3084
g74
(dp3085
g101
g102
ssg83
g3074
sg76
(lp3086
S':'
asbag69
(g90
g71
NtRp3087
(dp3088
g74
(dp3089
sg83
g3074
sg76
(lp3090
g69
(g70
g71
NtRp3091
(dp3092
g74
(dp3093
g82
I3
ssg83
g3087
sg76
(lp3094
S'Xiaoling'
p3095
asbasbasbag69
(g85
g71
NtRp3096
(dp3097
g74
(dp3098
sg83
g3048
sg76
(lp3099
g69
(g90
g71
NtRp3100
(dp3101
g74
(dp3102
g94
g95
ssg83
g3096
sg76
(lp3103
S'id'
p3104
asbag69
(g90
g71
NtRp3105
(dp3106
g74
(dp3107
g101
g102
ssg83
g3096
sg76
(lp3108
S':'
asbag69
(g90
g71
NtRp3109
(dp3110
g74
(dp3111
sg83
g3096
sg76
(lp3112
g69
(g70
g71
NtRp3113
(dp3114
g74
(dp3115
g82
I3
ssg83
g3109
sg76
(lp3116
S'1'
asbasbasbag69
(g85
g71
NtRp3117
(dp3118
g74
(dp3119
sg83
g3048
sg76
(lp3120
g69
(g90
g71
NtRp3121
(dp3122
g74
(dp3123
g94
g95
ssg83
g3117
sg76
(lp3124
S'last_name'
p3125
asbag69
(g90
g71
NtRp3126
(dp3127
g74
(dp3128
g101
g102
ssg83
g3117
sg76
(lp3129
S':'
asbag69
(g90
g71
NtRp3130
(dp3131
g74
(dp3132
sg83
g3117
sg76
(lp3133
g69
(g70
g71
NtRp3134
(dp3135
g74
(dp3136
g82
I3
ssg83
g3130
sg76
(lp3137
S'Chen'
p3138
asbasbasbag69
(g85
g71
NtRp3139
(dp3140
g74
(dp3141
sg83
g3048
sg76
(lp3142
g69
(g90
g71
NtRp3143
(dp3144
g74
(dp3145
g94
g95
ssg83
g3139
sg76
(lp3146
S'registration_id'
p3147
asbag69
(g90
g71
NtRp3148
(dp3149
g74
(dp3150
g101
g102
ssg83
g3139
sg76
(lp3151
S':'
asbag69
(g90
g71
NtRp3152
(dp3153
g74
(dp3154
sg83
g3139
sg76
(lp3155
g69
(g70
g71
NtRp3156
(dp3157
g74
(dp3158
g82
I3
ssg83
g3152
sg76
(lp3159
S''
asbasbasbag69
(g85
g71
NtRp3160
(dp3161
g74
(dp3162
sg83
g3048
sg76
(lp3163
g69
(g90
g71
NtRp3164
(dp3165
g74
(dp3166
g94
g95
ssg83
g3160
sg76
(lp3167
S'registration_key'
p3168
asbag69
(g90
g71
NtRp3169
(dp3170
g74
(dp3171
g101
g102
ssg83
g3160
sg76
(lp3172
S':'
asbag69
(g90
g71
NtRp3173
(dp3174
g74
(dp3175
sg83
g3160
sg76
(lp3176
g69
(g70
g71
NtRp3177
(dp3178
g74
(dp3179
g82
I3
ssg83
g3173
sg76
(lp3180
S''
asbasbasbag69
(g85
g71
NtRp3181
(dp3182
g74
(dp3183
sg83
g3048
sg76
(lp3184
g69
(g90
g71
NtRp3185
(dp3186
g74
(dp3187
g94
g95
ssg83
g3181
sg76
(lp3188
S'reset_password_key'
p3189
asbag69
(g90
g71
NtRp3190
(dp3191
g74
(dp3192
g101
g102
ssg83
g3181
sg76
(lp3193
S':'
asbag69
(g90
g71
NtRp3194
(dp3195
g74
(dp3196
sg83
g3181
sg76
(lp3197
g69
(g70
g71
NtRp3198
(dp3199
g74
(dp3200
g82
I3
ssg83
g3194
sg76
(lp3201
S''
asbasbasbasbasbasbasbag69
(g85
g71
NtRp3202
(dp3203
g74
(dp3204
sg83
g2936
sg76
(lp3205
g69
(g90
g71
NtRp3206
(dp3207
g74
(dp3208
g94
g95
ssg83
g3202
sg76
(lp3209
S'user_groups'
p3210
asbag69
(g90
g71
NtRp3211
(dp3212
g74
(dp3213
g101
g102
ssg83
g3202
sg76
(lp3214
S':'
asbag69
(g90
g71
NtRp3215
(dp3216
g74
(dp3217
sg83
g3202
sg76
(lp3218
g69
(g70
g71
NtRp3219
(dp3220
g74
(dp3221
g82
I4
ssg83
g3215
sg76
(lp3222
g69
(g78
g71
NtRp3223
(dp3224
g74
(dp3225
g82
I3
ssg83
Nsg76
(lp3226
g69
(g85
g71
NtRp3227
(dp3228
g74
(dp3229
sg83
g3223
sg76
(lp3230
g69
(g90
g71
NtRp3231
(dp3232
g74
(dp3233
g94
g95
ssg83
g3227
sg76
(lp3234
S'1'
asbag69
(g90
g71
NtRp3235
(dp3236
g74
(dp3237
g101
g102
ssg83
g3227
sg76
(lp3238
S':'
asbag69
(g90
g71
NtRp3239
(dp3240
g74
(dp3241
sg83
g3227
sg76
(lp3242
g69
(g70
g71
NtRp3243
(dp3244
g74
(dp3245
g82
I3
ssg83
g3239
sg76
(lp3246
S'user_1'
p3247
asbasbasbasbasbasbasbasbasbasbasbag69
(g85
g71
NtRp3248
(dp3249
g74
(dp3250
sg83
g2911
sg76
(lp3251
g69
(g90
g71
NtRp3252
(dp3253
g74
(dp3254
g94
g95
ssg83
g3248
sg76
(lp3255
S'cmd'
p3256
asbag69
(g90
g71
NtRp3257
(dp3258
g74
(dp3259
g101
g102
ssg83
g3248
sg76
(lp3260
S':'
asbag69
(g90
g71
NtRp3261
(dp3262
g74
(dp3263
sg83
g3248
sg76
(lp3264
g69
(g70
g71
NtRp3265
(dp3266
g74
(dp3267
g82
I5
ssg83
g3261
sg76
(lp3268
g69
(g78
g71
NtRp3269
(dp3270
g74
(dp3271
g82
I4
ssg83
Nsg76
(lp3272
g69
(g85
g71
NtRp3273
(dp3274
g74
(dp3275
sg83
g3269
sg76
(lp3276
g69
(g90
g71
NtRp3277
(dp3278
g74
(dp3279
sg83
g3273
sg76
(lp3280
g69
(g70
g71
NtRp3281
(dp3282
g74
(dp3283
g82
I4
ssg83
g3277
sg76
(lp3284
S'python'
p3285
asbasbasbag69
(g85
g71
NtRp3286
(dp3287
g74
(dp3288
sg83
g3269
sg76
(lp3289
g69
(g90
g71
NtRp3290
(dp3291
g74
(dp3292
sg83
g3286
sg76
(lp3293
g69
(g70
g71
NtRp3294
(dp3295
g74
(dp3296
g82
I4
ssg83
g3290
sg76
(lp3297
S'/home/xchen/chencode/tmp/try_parallel/queue.py'
p3298
asbasbasbag69
(g85
g71
NtRp3299
(dp3300
g74
(dp3301
sg83
g3269
sg76
(lp3302
g69
(g90
g71
NtRp3303
(dp3304
g74
(dp3305
sg83
g3299
sg76
(lp3306
g69
(g70
g71
NtRp3307
(dp3308
g74
(dp3309
g82
I4
ssg83
g3303
sg76
(lp3310
S'python /home/xchen/chencode/Betsy/scripts/run_protocol.py --protocol normalize_file --input input_signal_file:/home/xchen/chencode/upload/no_table.myfile1.aa20f767627e694e.4368616e675f415230303431302e70636c.pcl --parameters has_missing_value:zero_fill --parameters preprocess:unknown_preprocess'
p3311
asbasbasbasbasbasbasbag69
(g85
g71
NtRp3312
(dp3313
g74
(dp3314
sg83
g2911
sg76
(lp3315
g69
(g90
g71
NtRp3316
(dp3317
g74
(dp3318
g94
g95
ssg83
g3312
sg76
(lp3319
S'command'
p3320
asbag69
(g90
g71
NtRp3321
(dp3322
g74
(dp3323
g101
g102
ssg83
g3312
sg76
(lp3324
S':'
asbag69
(g90
g71
NtRp3325
(dp3326
g74
(dp3327
sg83
g3312
sg76
(lp3328
g69
(g70
g71
NtRp3329
(dp3330
g74
(dp3331
g82
I5
ssg83
g3325
sg76
(lp3332
S'run_protocol.py  --protocol normalize_file --input input_signal_file:myfile1   --parameters has_missing_value:zero_fill --parameters preprocess:unknown_preprocess'
p3333
asbasbasbag69
(g85
g71
NtRp3334
(dp3335
g74
(dp3336
sg83
g2911
sg76
(lp3337
g69
(g90
g71
NtRp3338
(dp3339
g74
(dp3340
g94
g95
ssg83
g3334
sg76
(lp3341
S'flash'
p3342
asbag69
(g90
g71
NtRp3343
(dp3344
g74
(dp3345
g101
g102
ssg83
g3334
sg76
(lp3346
S':'
asbag69
(g90
g71
NtRp3347
(dp3348
g74
(dp3349
sg83
g3334
sg76
(lp3350
g69
(g70
g71
NtRp3351
(dp3352
g74
(dp3353
g82
I5
ssg83
g3347
sg76
(lp3354
S'None'
p3355
asbasbasbag69
(g85
g71
NtRp3356
(dp3357
g74
(dp3358
sg83
g2911
sg76
(lp3359
g69
(g90
g71
NtRp3360
(dp3361
g74
(dp3362
g94
g95
ssg83
g3356
sg76
(lp3363
S'last_orderby'
p3364
asbag69
(g90
g71
NtRp3365
(dp3366
g74
(dp3367
g101
g102
ssg83
g3356
sg76
(lp3368
S':'
asbag69
(g90
g71
NtRp3369
(dp3370
g74
(dp3371
sg83
g3356
sg76
(lp3372
g69
(g70
g71
NtRp3373
(dp3374
g74
(dp3375
g82
I5
ssg83
g3369
sg76
(lp3376
S'None'
p3377
asbasbasbag69
(g85
g71
NtRp3378
(dp3379
g74
(dp3380
sg83
g2911
sg76
(lp3381
g69
(g90
g71
NtRp3382
(dp3383
g74
(dp3384
g94
g95
ssg83
g3378
sg76
(lp3385
S'last_query'
p3386
asbag69
(g90
g71
NtRp3387
(dp3388
g74
(dp3389
g101
g102
ssg83
g3378
sg76
(lp3390
S':'
asbag69
(g90
g71
NtRp3391
(dp3392
g74
(dp3393
sg83
g3378
sg76
(lp3394
g69
(g70
g71
NtRp3395
(dp3396
g74
(dp3397
g82
I5
ssg83
g3391
sg76
(lp3398
S'db.status.id>0'
p3399
asbasbasbag69
(g85
g71
NtRp3400
(dp3401
g74
(dp3402
sg83
g2911
sg76
(lp3403
g69
(g90
g71
NtRp3404
(dp3405
g74
(dp3406
g94
g95
ssg83
g3400
sg76
(lp3407
S'myfile1'
p3408
asbag69
(g90
g71
NtRp3409
(dp3410
g74
(dp3411
g101
g102
ssg83
g3400
sg76
(lp3412
S':'
asbag69
(g90
g71
NtRp3413
(dp3414
g74
(dp3415
sg83
g3400
sg76
(lp3416
g69
(g70
g71
NtRp3417
(dp3418
g74
(dp3419
g82
I5
ssg83
g3413
sg76
(lp3420
S'no_table.myfile1.aa20f767627e694e.4368616e675f415230303431302e70636c.pcl'
p3421
asbasbasbag69
(g85
g71
NtRp3422
(dp3423
g74
(dp3424
sg83
g2911
sg76
(lp3425
g69
(g90
g71
NtRp3426
(dp3427
g74
(dp3428
g94
g95
ssg83
g3422
sg76
(lp3429
S'myfile2'
p3430
asbag69
(g90
g71
NtRp3431
(dp3432
g74
(dp3433
g101
g102
ssg83
g3422
sg76
(lp3434
S':'
asbag69
(g90
g71
NtRp3435
(dp3436
g74
(dp3437
sg83
g3422
sg76
(lp3438
g69
(g70
g71
NtRp3439
(dp3440
g74
(dp3441
g82
I5
ssg83
g3435
sg76
(lp3442
S''
asbasbasbag69
(g85
g71
NtRp3443
(dp3444
g74
(dp3445
sg83
g2911
sg76
(lp3446
g69
(g90
g71
NtRp3447
(dp3448
g74
(dp3449
g94
g95
ssg83
g3443
sg76
(lp3450
S'myfile3'
p3451
asbag69
(g90
g71
NtRp3452
(dp3453
g74
(dp3454
g101
g102
ssg83
g3443
sg76
(lp3455
S':'
asbag69
(g90
g71
NtRp3456
(dp3457
g74
(dp3458
sg83
g3443
sg76
(lp3459
g69
(g70
g71
NtRp3460
(dp3461
g74
(dp3462
g82
I5
ssg83
g3456
sg76
(lp3463
S''
asbasbasbag69
(g85
g71
NtRp3464
(dp3465
g74
(dp3466
sg83
g2911
sg76
(lp3467
g69
(g90
g71
NtRp3468
(dp3469
g74
(dp3470
g94
g95
ssg83
g3464
sg76
(lp3471
S'myfile4'
p3472
asbag69
(g90
g71
NtRp3473
(dp3474
g74
(dp3475
g101
g102
ssg83
g3464
sg76
(lp3476
S':'
asbag69
(g90
g71
NtRp3477
(dp3478
g74
(dp3479
sg83
g3464
sg76
(lp3480
g69
(g70
g71
NtRp3481
(dp3482
g74
(dp3483
g82
I5
ssg83
g3477
sg76
(lp3484
S''
asbasbasbag69
(g85
g71
NtRp3485
(dp3486
g74
(dp3487
sg83
g2911
sg76
(lp3488
g69
(g90
g71
NtRp3489
(dp3490
g74
(dp3491
g94
g95
ssg83
g3485
sg76
(lp3492
S'myfile5'
p3493
asbag69
(g90
g71
NtRp3494
(dp3495
g74
(dp3496
g101
g102
ssg83
g3485
sg76
(lp3497
S':'
asbag69
(g90
g71
NtRp3498
(dp3499
g74
(dp3500
sg83
g3485
sg76
(lp3501
g69
(g70
g71
NtRp3502
(dp3503
g74
(dp3504
g82
I5
ssg83
g3498
sg76
(lp3505
S''
asbasbasbag69
(g85
g71
NtRp3506
(dp3507
g74
(dp3508
sg83
g2911
sg76
(lp3509
g69
(g90
g71
NtRp3510
(dp3511
g74
(dp3512
g94
g95
ssg83
g3506
sg76
(lp3513
S'myfile6'
p3514
asbag69
(g90
g71
NtRp3515
(dp3516
g74
(dp3517
g101
g102
ssg83
g3506
sg76
(lp3518
S':'
asbag69
(g90
g71
NtRp3519
(dp3520
g74
(dp3521
sg83
g3506
sg76
(lp3522
g69
(g70
g71
NtRp3523
(dp3524
g74
(dp3525
g82
I5
ssg83
g3519
sg76
(lp3526
S''
asbasbasbag69
(g85
g71
NtRp3527
(dp3528
g74
(dp3529
sg83
g2911
sg76
(lp3530
g69
(g90
g71
NtRp3531
(dp3532
g74
(dp3533
g94
g95
ssg83
g3527
sg76
(lp3534
S'output'
p3535
asbag69
(g90
g71
NtRp3536
(dp3537
g74
(dp3538
g101
g102
ssg83
g3527
sg76
(lp3539
S':'
asbag69
(g90
g71
NtRp3540
(dp3541
g74
(dp3542
sg83
g3527
sg76
(lp3543
g69
(g70
g71
NtRp3544
(dp3545
g74
(dp3546
g82
I5
ssg83
g3540
sg76
(lp3547
g69
(g78
g71
NtRp3548
(dp3549
g74
(dp3550
g82
I4
ssg83
Nsg76
(lp3551
g69
(g85
g71
NtRp3552
(dp3553
g74
(dp3554
sg83
g3548
sg76
(lp3555
g69
(g90
g71
NtRp3556
(dp3557
g74
(dp3558
sg83
g3552
sg76
(lp3559
g69
(g70
g71
NtRp3560
(dp3561
g74
(dp3562
g82
I4
ssg83
g3556
sg76
(lp3563
S'Jobnumber\tJobname\tStatus\tStarted\tEnded\tSubmitted\tCommand'
p3564
asbasbasbag69
(g85
g71
NtRp3565
(dp3566
g74
(dp3567
sg83
g3548
sg76
(lp3568
g69
(g90
g71
NtRp3569
(dp3570
g74
(dp3571
sg83
g3565
sg76
(lp3572
g69
(g70
g71
NtRp3573
(dp3574
g74
(dp3575
g82
I4
ssg83
g3569
sg76
(lp3576
S'241\tF8QMFC\tkilled\tNA\t01/30/13:10:54:58\t01/30/13:10:54:41\tpython run_command.py'
p3577
asbasbasbag69
(g85
g71
NtRp3578
(dp3579
g74
(dp3580
sg83
g3548
sg76
(lp3581
g69
(g90
g71
NtRp3582
(dp3583
g74
(dp3584
sg83
g3578
sg76
(lp3585
g69
(g70
g71
NtRp3586
(dp3587
g74
(dp3588
g82
I4
ssg83
g3582
sg76
(lp3589
S'242\t1\tkilled\tNA\t01/30/13:10:56:50\t01/30/13:10:55:43\tpython run_command.py'
p3590
asbasbasbag69
(g85
g71
NtRp3591
(dp3592
g74
(dp3593
sg83
g3548
sg76
(lp3594
g69
(g90
g71
NtRp3595
(dp3596
g74
(dp3597
sg83
g3591
sg76
(lp3598
g69
(g70
g71
NtRp3599
(dp3600
g74
(dp3601
g82
I4
ssg83
g3595
sg76
(lp3602
S'243\t1JCM7W\tcompleted\tNA\t01/31/13:11:02:08\t01/30/13:16:23:56\tpython /home/xchen/chencode/Betsy/scripts/run_protocol.py --protocol normalize_file --input input_signal_file:/home/xchen/chencode/upload/no_table.myfile1.bc230362ce4171ba.616c6c5f616d6c5f747261696e5f66696c742e676374.gct --parameters has_missing_value:zero_fill --parameters preprocess:unknown_preprocess'
p3603
asbasbasbag69
(g85
g71
NtRp3604
(dp3605
g74
(dp3606
sg83
g3548
sg76
(lp3607
g69
(g90
g71
NtRp3608
(dp3609
g74
(dp3610
sg83
g3604
sg76
(lp3611
g69
(g70
g71
NtRp3612
(dp3613
g74
(dp3614
g82
I4
ssg83
g3608
sg76
(lp3615
S'244\tMD5OVN\tcompleted\tNA\t01/31/13:11:02:08\t01/30/13:16:26:25\tpython /home/xchen/chencode/Betsy/scripts/run_protocol.py --protocol normalize_file --input input_signal_file:/home/xchen/chencode/upload/no_table.myfile1.ac92b1b80e18666e.7369676e616c5f756e6c6f67747261696e2e70636c.pcl --parameters has_missing_value:zero_fill --parameters preprocess:unknown_preprocess'
p3616
asbasbasbag69
(g85
g71
NtRp3617
(dp3618
g74
(dp3619
sg83
g3548
sg76
(lp3620
g69
(g90
g71
NtRp3621
(dp3622
g74
(dp3623
sg83
g3617
sg76
(lp3624
g69
(g70
g71
NtRp3625
(dp3626
g74
(dp3627
g82
I4
ssg83
g3621
sg76
(lp3628
S'245\t2XXAAY\tcompleted\t01/31/13:11:02:08\t01/31/13:11:36:29\t01/31/13:11:02:08\tpython /home/xchen/chencode/Betsy/scripts/python run_command.py /home/xchen/chencode/upload/no_table.myfile1.9c934921a246486e.6a6f627175657565.txt'
p3629
asbasbasbag69
(g85
g71
NtRp3630
(dp3631
g74
(dp3632
sg83
g3548
sg76
(lp3633
g69
(g90
g71
NtRp3634
(dp3635
g74
(dp3636
sg83
g3630
sg76
(lp3637
g69
(g70
g71
NtRp3638
(dp3639
g74
(dp3640
g82
I4
ssg83
g3634
sg76
(lp3641
S'254\tKQFWA9\tcompleted\tNA\t02/04/13:15:52:33\t01/31/13:12:50:49\tpython /home/xchen/chencode/Betsy/scripts/python run_command.py /home/xchen/chencode/upload/no_table.myfile1.9c934921a246486e.6a6f627175657565.txt'
p3642
asbasbasbag69
(g85
g71
NtRp3643
(dp3644
g74
(dp3645
sg83
g3548
sg76
(lp3646
g69
(g90
g71
NtRp3647
(dp3648
g74
(dp3649
sg83
g3643
sg76
(lp3650
g69
(g70
g71
NtRp3651
(dp3652
g74
(dp3653
g82
I4
ssg83
g3647
sg76
(lp3654
S'255\t5O5TN9\tcompleted\tNA\t02/04/13:15:52:33\t01/31/13:13:38:12\tpython /home/xchen/chencode/Betsy/scripts/python run_command.py /home/xchen/chencode/upload/no_table.myfile1.9c934921a246486e.6a6f627175657565.txt'
p3655
asbasbasbag69
(g85
g71
NtRp3656
(dp3657
g74
(dp3658
sg83
g3548
sg76
(lp3659
g69
(g90
g71
NtRp3660
(dp3661
g74
(dp3662
sg83
g3656
sg76
(lp3663
g69
(g70
g71
NtRp3664
(dp3665
g74
(dp3666
g82
I4
ssg83
g3660
sg76
(lp3667
S'256\t66OKZZ\tcompleted\tNA\t02/04/13:15:52:33\t01/31/13:15:20:40\tpython /home/xchen/chencode/Betsy/scripts/run_rule.py --plin input_signal_file([contents,[a],status,given],[]) --plout signal_raw([contents,[a],format,tdf,is_logged,unknown_logged,preprocess,unknown_preprocess,predataset,no_predataset],A)'
p3668
asbasbasbag69
(g85
g71
NtRp3669
(dp3670
g74
(dp3671
sg83
g3548
sg76
(lp3672
g69
(g90
g71
NtRp3673
(dp3674
g74
(dp3675
sg83
g3669
sg76
(lp3676
g69
(g70
g71
NtRp3677
(dp3678
g74
(dp3679
g82
I4
ssg83
g3673
sg76
(lp3680
S''
asbasbasbasbasbasbasbasbasbsS'etype'
p3681
S"<type 'exceptions.SyntaxError'>"
p3682
sS'date'
p3683
S'Thu Feb  7 09:59:38 2013'
p3684
sS'response'
p3685
g69
(g70
g71
NtRp3686
(dp3687
g74
(dp3688
sg76
(lp3689
g69
(g78
g71
NtRp3690
(dp3691
g74
(dp3692
g82
I5
ssg83
Nsg76
(lp3693
g69
(g85
g71
NtRp3694
(dp3695
g74
(dp3696
sg83
g3690
sg76
(lp3697
g69
(g90
g71
NtRp3698
(dp3699
g74
(dp3700
g94
g95
ssg83
g3694
sg76
(lp3701
g180
asbag69
(g90
g71
NtRp3702
(dp3703
g74
(dp3704
g101
g102
ssg83
g3694
sg76
(lp3705
S':'
asbag69
(g90
g71
NtRp3706
(dp3707
g74
(dp3708
sg83
g3694
sg76
(lp3709
g69
(g70
g71
NtRp3710
(dp3711
g74
(dp3712
g82
I5
ssg83
g3706
sg76
(lp3713
S'<cStringIO.StringO object at 0x169ff2d0>'
p3714
asbasbasbag69
(g85
g71
NtRp3715
(dp3716
g74
(dp3717
sg83
g3690
sg76
(lp3718
g69
(g90
g71
NtRp3719
(dp3720
g74
(dp3721
g94
g95
ssg83
g3715
sg76
(lp3722
g268
asbag69
(g90
g71
NtRp3723
(dp3724
g74
(dp3725
g101
g102
ssg83
g3715
sg76
(lp3726
S':'
asbag69
(g90
g71
NtRp3727
(dp3728
g74
(dp3729
sg83
g3715
sg76
(lp3730
g69
(g70
g71
NtRp3731
(dp3732
g74
(dp3733
g82
I5
ssg83
g3727
sg76
(lp3734
g69
(g78
g71
NtRp3735
(dp3736
g74
(dp3737
g82
I4
ssg83
Nsg76
(lp3738
g69
(g85
g71
NtRp3739
(dp3740
g74
(dp3741
sg83
g3735
sg76
(lp3742
g69
(g90
g71
NtRp3743
(dp3744
g74
(dp3745
g94
g95
ssg83
g3739
sg76
(lp3746
S'session_id_betsy'
p3747
asbag69
(g90
g71
NtRp3748
(dp3749
g74
(dp3750
g101
g102
ssg83
g3739
sg76
(lp3751
S':'
asbag69
(g90
g71
NtRp3752
(dp3753
g74
(dp3754
sg83
g3739
sg76
(lp3755
g69
(g70
g71
NtRp3756
(dp3757
g74
(dp3758
g82
I4
ssg83
g3752
sg76
(lp3759
g306
ag69
(g78
g71
NtRp3760
(dp3761
g74
(dp3762
g82
I3
ssg83
Nsg76
(lp3763
g69
(g85
g71
NtRp3764
(dp3765
g74
(dp3766
sg83
g3760
sg76
(lp3767
g69
(g90
g71
NtRp3768
(dp3769
g74
(dp3770
g94
g95
ssg83
g3764
sg76
(lp3771
g319
asbag69
(g90
g71
NtRp3772
(dp3773
g74
(dp3774
g101
g102
ssg83
g3764
sg76
(lp3775
S':'
asbag69
(g90
g71
NtRp3776
(dp3777
g74
(dp3778
sg83
g3764
sg76
(lp3779
g69
(g70
g71
NtRp3780
(dp3781
g74
(dp3782
g82
I3
ssg83
g3776
sg76
(lp3783
S''
asbasbasbag69
(g85
g71
NtRp3784
(dp3785
g74
(dp3786
sg83
g3760
sg76
(lp3787
g69
(g90
g71
NtRp3788
(dp3789
g74
(dp3790
g94
g95
ssg83
g3784
sg76
(lp3791
g340
asbag69
(g90
g71
NtRp3792
(dp3793
g74
(dp3794
g101
g102
ssg83
g3784
sg76
(lp3795
S':'
asbag69
(g90
g71
NtRp3796
(dp3797
g74
(dp3798
sg83
g3784
sg76
(lp3799
g69
(g70
g71
NtRp3800
(dp3801
g74
(dp3802
g82
I3
ssg83
g3796
sg76
(lp3803
S''
asbasbasbag69
(g85
g71
NtRp3804
(dp3805
g74
(dp3806
sg83
g3760
sg76
(lp3807
g69
(g90
g71
NtRp3808
(dp3809
g74
(dp3810
g94
g95
ssg83
g3804
sg76
(lp3811
g361
asbag69
(g90
g71
NtRp3812
(dp3813
g74
(dp3814
g101
g102
ssg83
g3804
sg76
(lp3815
S':'
asbag69
(g90
g71
NtRp3816
(dp3817
g74
(dp3818
sg83
g3804
sg76
(lp3819
g69
(g70
g71
NtRp3820
(dp3821
g74
(dp3822
g82
I3
ssg83
g3816
sg76
(lp3823
S'2592000'
p3824
asbasbasbag69
(g85
g71
NtRp3825
(dp3826
g74
(dp3827
sg83
g3760
sg76
(lp3828
g69
(g90
g71
NtRp3829
(dp3830
g74
(dp3831
g94
g95
ssg83
g3825
sg76
(lp3832
g382
asbag69
(g90
g71
NtRp3833
(dp3834
g74
(dp3835
g101
g102
ssg83
g3825
sg76
(lp3836
S':'
asbag69
(g90
g71
NtRp3837
(dp3838
g74
(dp3839
sg83
g3825
sg76
(lp3840
g69
(g70
g71
NtRp3841
(dp3842
g74
(dp3843
g82
I3
ssg83
g3837
sg76
(lp3844
S''
asbasbasbag69
(g85
g71
NtRp3845
(dp3846
g74
(dp3847
sg83
g3760
sg76
(lp3848
g69
(g90
g71
NtRp3849
(dp3850
g74
(dp3851
g94
g95
ssg83
g3845
sg76
(lp3852
g403
asbag69
(g90
g71
NtRp3853
(dp3854
g74
(dp3855
g101
g102
ssg83
g3845
sg76
(lp3856
S':'
asbag69
(g90
g71
NtRp3857
(dp3858
g74
(dp3859
sg83
g3845
sg76
(lp3860
g69
(g70
g71
NtRp3861
(dp3862
g74
(dp3863
g82
I3
ssg83
g3857
sg76
(lp3864
S''
asbasbasbag69
(g85
g71
NtRp3865
(dp3866
g74
(dp3867
sg83
g3760
sg76
(lp3868
g69
(g90
g71
NtRp3869
(dp3870
g74
(dp3871
g94
g95
ssg83
g3865
sg76
(lp3872
g424
asbag69
(g90
g71
NtRp3873
(dp3874
g74
(dp3875
g101
g102
ssg83
g3865
sg76
(lp3876
S':'
asbag69
(g90
g71
NtRp3877
(dp3878
g74
(dp3879
sg83
g3865
sg76
(lp3880
g69
(g70
g71
NtRp3881
(dp3882
g74
(dp3883
g82
I3
ssg83
g3877
sg76
(lp3884
S'/'
asbasbasbag69
(g85
g71
NtRp3885
(dp3886
g74
(dp3887
sg83
g3760
sg76
(lp3888
g69
(g90
g71
NtRp3889
(dp3890
g74
(dp3891
g94
g95
ssg83
g3885
sg76
(lp3892
g445
asbag69
(g90
g71
NtRp3893
(dp3894
g74
(dp3895
g101
g102
ssg83
g3885
sg76
(lp3896
S':'
asbag69
(g90
g71
NtRp3897
(dp3898
g74
(dp3899
sg83
g3885
sg76
(lp3900
g69
(g70
g71
NtRp3901
(dp3902
g74
(dp3903
g82
I3
ssg83
g3897
sg76
(lp3904
S''
asbasbasbag69
(g85
g71
NtRp3905
(dp3906
g74
(dp3907
sg83
g3760
sg76
(lp3908
g69
(g90
g71
NtRp3909
(dp3910
g74
(dp3911
g94
g95
ssg83
g3905
sg76
(lp3912
g466
asbag69
(g90
g71
NtRp3913
(dp3914
g74
(dp3915
g101
g102
ssg83
g3905
sg76
(lp3916
S':'
asbag69
(g90
g71
NtRp3917
(dp3918
g74
(dp3919
sg83
g3905
sg76
(lp3920
g69
(g70
g71
NtRp3921
(dp3922
g74
(dp3923
g82
I3
ssg83
g3917
sg76
(lp3924
S''
asbasbasbasbasbasbasbasbasbasbasbag69
(g85
g71
NtRp3925
(dp3926
g74
(dp3927
sg83
g3690
sg76
(lp3928
g69
(g90
g71
NtRp3929
(dp3930
g74
(dp3931
g94
g95
ssg83
g3925
sg76
(lp3932
S'delimiters'
p3933
asbag69
(g90
g71
NtRp3934
(dp3935
g74
(dp3936
g101
g102
ssg83
g3925
sg76
(lp3937
S':'
asbag69
(g90
g71
NtRp3938
(dp3939
g74
(dp3940
sg83
g3925
sg76
(lp3941
g69
(g70
g71
NtRp3942
(dp3943
g74
(dp3944
g82
I5
ssg83
g3938
sg76
(lp3945
g69
(g78
g71
NtRp3946
(dp3947
g74
(dp3948
g82
I4
ssg83
Nsg76
(lp3949
g69
(g85
g71
NtRp3950
(dp3951
g74
(dp3952
sg83
g3946
sg76
(lp3953
g69
(g90
g71
NtRp3954
(dp3955
g74
(dp3956
sg83
g3950
sg76
(lp3957
g69
(g70
g71
NtRp3958
(dp3959
g74
(dp3960
g82
I4
ssg83
g3954
sg76
(lp3961
S'{{'
p3962
asbasbasbag69
(g85
g71
NtRp3963
(dp3964
g74
(dp3965
sg83
g3946
sg76
(lp3966
g69
(g90
g71
NtRp3967
(dp3968
g74
(dp3969
sg83
g3963
sg76
(lp3970
g69
(g70
g71
NtRp3971
(dp3972
g74
(dp3973
g82
I4
ssg83
g3967
sg76
(lp3974
S'}}'
p3975
asbasbasbasbasbasbasbag69
(g85
g71
NtRp3976
(dp3977
g74
(dp3978
sg83
g3690
sg76
(lp3979
g69
(g90
g71
NtRp3980
(dp3981
g74
(dp3982
g94
g95
ssg83
g3976
sg76
(lp3983
S'files'
p3984
asbag69
(g90
g71
NtRp3985
(dp3986
g74
(dp3987
g101
g102
ssg83
g3976
sg76
(lp3988
S':'
asbag69
(g90
g71
NtRp3989
(dp3990
g74
(dp3991
sg83
g3976
sg76
(lp3992
g69
(g70
g71
NtRp3993
(dp3994
g74
(dp3995
g82
I5
ssg83
g3989
sg76
(lp3996
g69
(g78
g71
NtRp3997
(dp3998
g74
(dp3999
g82
I4
ssg83
Nsg76
(lp4000
sbasbasbasbag69
(g85
g71
NtRp4001
(dp4002
g74
(dp4003
sg83
g3690
sg76
(lp4004
g69
(g90
g71
NtRp4005
(dp4006
g74
(dp4007
g94
g95
ssg83
g4001
sg76
(lp4008
S'flash'
p4009
asbag69
(g90
g71
NtRp4010
(dp4011
g74
(dp4012
g101
g102
ssg83
g4001
sg76
(lp4013
S':'
asbag69
(g90
g71
NtRp4014
(dp4015
g74
(dp4016
sg83
g4001
sg76
(lp4017
g69
(g70
g71
NtRp4018
(dp4019
g74
(dp4020
g82
I5
ssg83
g4014
sg76
(lp4021
S''
asbasbasbag69
(g85
g71
NtRp4022
(dp4023
g74
(dp4024
sg83
g3690
sg76
(lp4025
g69
(g90
g71
NtRp4026
(dp4027
g74
(dp4028
g94
g95
ssg83
g4022
sg76
(lp4029
S'generic_patterns'
p4030
asbag69
(g90
g71
NtRp4031
(dp4032
g74
(dp4033
g101
g102
ssg83
g4022
sg76
(lp4034
S':'
asbag69
(g90
g71
NtRp4035
(dp4036
g74
(dp4037
sg83
g4022
sg76
(lp4038
g69
(g70
g71
NtRp4039
(dp4040
g74
(dp4041
g82
I5
ssg83
g4035
sg76
(lp4042
g69
(g78
g71
NtRp4043
(dp4044
g74
(dp4045
g82
I4
ssg83
Nsg76
(lp4046
g69
(g85
g71
NtRp4047
(dp4048
g74
(dp4049
sg83
g4043
sg76
(lp4050
g69
(g90
g71
NtRp4051
(dp4052
g74
(dp4053
sg83
g4047
sg76
(lp4054
g69
(g70
g71
NtRp4055
(dp4056
g74
(dp4057
g82
I4
ssg83
g4051
sg76
(lp4058
S'*'
asbasbasbasbasbasbasbag69
(g85
g71
NtRp4059
(dp4060
g74
(dp4061
sg83
g3690
sg76
(lp4062
g69
(g90
g71
NtRp4063
(dp4064
g74
(dp4065
g94
g95
ssg83
g4059
sg76
(lp4066
S'google_analytics_id'
p4067
asbag69
(g90
g71
NtRp4068
(dp4069
g74
(dp4070
g101
g102
ssg83
g4059
sg76
(lp4071
S':'
asbag69
(g90
g71
NtRp4072
(dp4073
g74
(dp4074
sg83
g4059
sg76
(lp4075
g69
(g70
g71
NtRp4076
(dp4077
g74
(dp4078
g82
I5
ssg83
g4072
sg76
(lp4079
S'None'
p4080
asbasbasbag69
(g85
g71
NtRp4081
(dp4082
g74
(dp4083
sg83
g3690
sg76
(lp4084
g69
(g90
g71
NtRp4085
(dp4086
g74
(dp4087
g94
g95
ssg83
g4081
sg76
(lp4088
S'headers'
p4089
asbag69
(g90
g71
NtRp4090
(dp4091
g74
(dp4092
g101
g102
ssg83
g4081
sg76
(lp4093
S':'
asbag69
(g90
g71
NtRp4094
(dp4095
g74
(dp4096
sg83
g4081
sg76
(lp4097
g69
(g70
g71
NtRp4098
(dp4099
g74
(dp4100
g82
I5
ssg83
g4094
sg76
(lp4101
g69
(g78
g71
NtRp4102
(dp4103
g74
(dp4104
g82
I4
ssg83
Nsg76
(lp4105
g69
(g85
g71
NtRp4106
(dp4107
g74
(dp4108
sg83
g4102
sg76
(lp4109
g69
(g90
g71
NtRp4110
(dp4111
g74
(dp4112
g94
g95
ssg83
g4106
sg76
(lp4113
S'X-Powered-By'
p4114
asbag69
(g90
g71
NtRp4115
(dp4116
g74
(dp4117
g101
g102
ssg83
g4106
sg76
(lp4118
S':'
asbag69
(g90
g71
NtRp4119
(dp4120
g74
(dp4121
sg83
g4106
sg76
(lp4122
g69
(g70
g71
NtRp4123
(dp4124
g74
(dp4125
g82
I4
ssg83
g4119
sg76
(lp4126
S'web2py'
p4127
asbasbasbasbasbasbasbag69
(g85
g71
NtRp4128
(dp4129
g74
(dp4130
sg83
g3690
sg76
(lp4131
g69
(g90
g71
NtRp4132
(dp4133
g74
(dp4134
g94
g95
ssg83
g4128
sg76
(lp4135
S'menu'
p4136
asbag69
(g90
g71
NtRp4137
(dp4138
g74
(dp4139
g101
g102
ssg83
g4128
sg76
(lp4140
S':'
asbag69
(g90
g71
NtRp4141
(dp4142
g74
(dp4143
sg83
g4128
sg76
(lp4144
g69
(g70
g71
NtRp4145
(dp4146
g74
(dp4147
g82
I5
ssg83
g4141
sg76
(lp4148
g69
(g78
g71
NtRp4149
(dp4150
g74
(dp4151
g82
I4
ssg83
Nsg76
(lp4152
g69
(g85
g71
NtRp4153
(dp4154
g74
(dp4155
sg83
g4149
sg76
(lp4156
g69
(g90
g71
NtRp4157
(dp4158
g74
(dp4159
sg83
g4153
sg76
(lp4160
g69
(g70
g71
NtRp4161
(dp4162
g74
(dp4163
g82
I4
ssg83
g4157
sg76
(lp4164
g69
(g78
g71
NtRp4165
(dp4166
g74
(dp4167
g82
I3
ssg83
Nsg76
(lp4168
g69
(g85
g71
NtRp4169
(dp4170
g74
(dp4171
sg83
g4165
sg76
(lp4172
g69
(g90
g71
NtRp4173
(dp4174
g74
(dp4175
sg83
g4169
sg76
(lp4176
g69
(g70
g71
NtRp4177
(dp4178
g74
(dp4179
g82
I3
ssg83
g4173
sg76
(lp4180
cgluon.languages
lazyT_unpickle
p4181
(S's\x04\x00\x00\x00Home'
tRp4182
asbasbasbag69
(g85
g71
NtRp4183
(dp4184
g74
(dp4185
sg83
g4165
sg76
(lp4186
g69
(g90
g71
NtRp4187
(dp4188
g74
(dp4189
sg83
g4183
sg76
(lp4190
g69
(g70
g71
NtRp4191
(dp4192
g74
(dp4193
g82
I3
ssg83
g4187
sg76
(lp4194
g112
asbasbasbag69
(g85
g71
NtRp4195
(dp4196
g74
(dp4197
sg83
g4165
sg76
(lp4198
g69
(g90
g71
NtRp4199
(dp4200
g74
(dp4201
sg83
g4195
sg76
(lp4202
g69
(g70
g71
NtRp4203
(dp4204
g74
(dp4205
g82
I3
ssg83
g4199
sg76
(lp4206
S'/Betsy/default/index'
p4207
asbasbasbag69
(g85
g71
NtRp4208
(dp4209
g74
(dp4210
sg83
g4165
sg76
(lp4211
g69
(g90
g71
NtRp4212
(dp4213
g74
(dp4214
sg83
g4208
sg76
(lp4215
g69
(g70
g71
NtRp4216
(dp4217
g74
(dp4218
g82
I3
ssg83
g4212
sg76
(lp4219
g69
(g78
g71
NtRp4220
(dp4221
g74
(dp4222
g82
I2
ssg83
Nsg76
(lp4223
sbasbasbasbasbasbasbasbag69
(g85
g71
NtRp4224
(dp4225
g74
(dp4226
sg83
g4149
sg76
(lp4227
g69
(g90
g71
NtRp4228
(dp4229
g74
(dp4230
sg83
g4224
sg76
(lp4231
g69
(g70
g71
NtRp4232
(dp4233
g74
(dp4234
g82
I4
ssg83
g4228
sg76
(lp4235
g69
(g78
g71
NtRp4236
(dp4237
g74
(dp4238
g82
I3
ssg83
Nsg76
(lp4239
g69
(g85
g71
NtRp4240
(dp4241
g74
(dp4242
sg83
g4236
sg76
(lp4243
g69
(g90
g71
NtRp4244
(dp4245
g74
(dp4246
sg83
g4240
sg76
(lp4247
g69
(g70
g71
NtRp4248
(dp4249
g74
(dp4250
g82
I3
ssg83
g4244
sg76
(lp4251
g69
(cgluon.html
SPAN
p4252
g71
NtRp4253
(dp4254
g74
(dp4255
S'_class'
p4256
S'highlighted'
p4257
ssg83
Nsg76
(lp4258
g4127
asbasbasbasbag69
(g85
g71
NtRp4259
(dp4260
g74
(dp4261
sg83
g4236
sg76
(lp4262
g69
(g90
g71
NtRp4263
(dp4264
g74
(dp4265
sg83
g4259
sg76
(lp4266
g69
(g70
g71
NtRp4267
(dp4268
g74
(dp4269
g82
I3
ssg83
g4263
sg76
(lp4270
g112
asbasbasbag69
(g85
g71
NtRp4271
(dp4272
g74
(dp4273
sg83
g4236
sg76
(lp4274
g69
(g90
g71
NtRp4275
(dp4276
g74
(dp4277
sg83
g4271
sg76
(lp4278
g69
(g70
g71
NtRp4279
(dp4280
g74
(dp4281
g82
I3
ssg83
g4275
sg76
(lp4282
S'http://web2py.com'
p4283
asbasbasbag69
(g85
g71
NtRp4284
(dp4285
g74
(dp4286
sg83
g4236
sg76
(lp4287
g69
(g90
g71
NtRp4288
(dp4289
g74
(dp4290
sg83
g4284
sg76
(lp4291
g69
(g70
g71
NtRp4292
(dp4293
g74
(dp4294
g82
I3
ssg83
g4288
sg76
(lp4295
g69
(g78
g71
NtRp4296
(dp4297
g74
(dp4298
g82
I2
ssg83
Nsg76
(lp4299
g69
(g85
g71
NtRp4300
(dp4301
g74
(dp4302
sg83
g4296
sg76
(lp4303
g69
(g90
g71
NtRp4304
(dp4305
g74
(dp4306
sg83
g4300
sg76
(lp4307
g69
(g70
g71
NtRp4308
(dp4309
g74
(dp4310
g82
I2
ssg83
g4304
sg76
(lp4311
g69
(g78
g71
NtRp4312
(dp4313
g74
(dp4314
g82
I1
ssg83
Nsg76
(lp4315
g69
(g85
g71
NtRp4316
(dp4317
g74
(dp4318
sg83
g4312
sg76
(lp4319
g69
(g90
g71
NtRp4320
(dp4321
g74
(dp4322
sg83
g4316
sg76
(lp4323
g69
(g70
g71
NtRp4324
(dp4325
g74
(dp4326
g82
I1
ssg83
g4320
sg76
(lp4327
g4181
(S's\x08\x00\x00\x00My Sites'
tRp4328
asbasbasbag69
(g85
g71
NtRp4329
(dp4330
g74
(dp4331
sg83
g4312
sg76
(lp4332
g69
(g90
g71
NtRp4333
(dp4334
g74
(dp4335
sg83
g4329
sg76
(lp4336
g69
(g70
g71
NtRp4337
(dp4338
g74
(dp4339
g82
I1
ssg83
g4333
sg76
(lp4340
I00
asbasbasbag69
(g85
g71
NtRp4341
(dp4342
g74
(dp4343
sg83
g4312
sg76
(lp4344
g69
(g90
g71
NtRp4345
(dp4346
g74
(dp4347
sg83
g4341
sg76
(lp4348
g69
(g70
g71
NtRp4349
(dp4350
g74
(dp4351
g82
I1
ssg83
g4345
sg76
(lp4352
S'/admin/default/site'
p4353
asbasbasbasbasbasbasbag69
(g85
g71
NtRp4354
(dp4355
g74
(dp4356
sg83
g4296
sg76
(lp4357
g69
(g90
g71
NtRp4358
(dp4359
g74
(dp4360
sg83
g4354
sg76
(lp4361
g69
(g70
g71
NtRp4362
(dp4363
g74
(dp4364
g82
I2
ssg83
g4358
sg76
(lp4365
g69
(g78
g71
NtRp4366
(dp4367
g74
(dp4368
g82
I1
ssg83
Nsg76
(lp4369
g69
(g85
g71
NtRp4370
(dp4371
g74
(dp4372
sg83
g4366
sg76
(lp4373
g69
(g90
g71
NtRp4374
(dp4375
g74
(dp4376
sg83
g4370
sg76
(lp4377
g69
(g70
g71
NtRp4378
(dp4379
g74
(dp4380
g82
I1
ssg83
g4374
sg76
(lp4381
g4181
(S's\x08\x00\x00\x00This App'
tRp4382
asbasbasbag69
(g85
g71
NtRp4383
(dp4384
g74
(dp4385
sg83
g4366
sg76
(lp4386
g69
(g90
g71
NtRp4387
(dp4388
g74
(dp4389
sg83
g4383
sg76
(lp4390
g69
(g70
g71
NtRp4391
(dp4392
g74
(dp4393
g82
I1
ssg83
g4387
sg76
(lp4394
I00
asbasbasbag69
(g85
g71
NtRp4395
(dp4396
g74
(dp4397
sg83
g4366
sg76
(lp4398
g69
(g90
g71
NtRp4399
(dp4400
g74
(dp4401
sg83
g4395
sg76
(lp4402
g69
(g70
g71
NtRp4403
(dp4404
g74
(dp4405
g82
I1
ssg83
g4399
sg76
(lp4406
S'/admin/default/design/Betsy'
p4407
asbasbasbag69
(g85
g71
NtRp4408
(dp4409
g74
(dp4410
sg83
g4366
sg76
(lp4411
g69
(g90
g71
NtRp4412
(dp4413
g74
(dp4414
sg83
g4408
sg76
(lp4415
g69
(g70
g71
NtRp4416
(dp4417
g74
(dp4418
g82
I1
ssg83
g4412
sg76
(lp4419
(lp4420
(g4181
(S's\n\x00\x00\x00Controller'
tRp4421
I00
S'/admin/default/edit/Betsy/controllers/default.py'
tp4422
a(g4181
(S's\x04\x00\x00\x00View'
tRp4423
I00
S'/admin/default/edit/Betsy/views/default/show_job.html'
tp4424
a(g4181
(S's\x06\x00\x00\x00Layout'
tRp4425
I00
S'/admin/default/edit/Betsy/views/layout.html'
tp4426
a(g4181
(S's\n\x00\x00\x00Stylesheet'
tRp4427
I00
S'/admin/default/edit/Betsy/static/css/web2py.css'
tp4428
a(g4181
(S's\x08\x00\x00\x00DB Model'
tRp4429
I00
S'/admin/default/edit/Betsy/models/db.py'
tp4430
a(g4181
(S's\n\x00\x00\x00Menu Model'
tRp4431
I00
S'/admin/default/edit/Betsy/models/menu.py'
tp4432
a(g4181
(S's\x08\x00\x00\x00Database'
tRp4433
I00
S'/Betsy/appadmin/index'
tp4434
a(g4181
(S's\x06\x00\x00\x00Errors'
tRp4435
I00
S'/admin/default/errors/Betsy'
tp4436
a(g4181
(S's\x05\x00\x00\x00About'
tRp4437
I00
S'/admin/default/about/Betsy'
tp4438
aasbasbasbasbasbasbasbag69
(g85
g71
NtRp4439
(dp4440
g74
(dp4441
sg83
g4296
sg76
(lp4442
g69
(g90
g71
NtRp4443
(dp4444
g74
(dp4445
sg83
g4439
sg76
(lp4446
g69
(g70
g71
NtRp4447
(dp4448
g74
(dp4449
g82
I2
ssg83
g4443
sg76
(lp4450
g69
(g78
g71
NtRp4451
(dp4452
g74
(dp4453
g82
I1
ssg83
Nsg76
(lp4454
g69
(g85
g71
NtRp4455
(dp4456
g74
(dp4457
sg83
g4451
sg76
(lp4458
g69
(g90
g71
NtRp4459
(dp4460
g74
(dp4461
sg83
g4455
sg76
(lp4462
g69
(g70
g71
NtRp4463
(dp4464
g74
(dp4465
g82
I1
ssg83
g4459
sg76
(lp4466
S'web2py.com'
p4467
asbasbasbag69
(g85
g71
NtRp4468
(dp4469
g74
(dp4470
sg83
g4451
sg76
(lp4471
g69
(g90
g71
NtRp4472
(dp4473
g74
(dp4474
sg83
g4468
sg76
(lp4475
g69
(g70
g71
NtRp4476
(dp4477
g74
(dp4478
g82
I1
ssg83
g4472
sg76
(lp4479
I00
asbasbasbag69
(g85
g71
NtRp4480
(dp4481
g74
(dp4482
sg83
g4451
sg76
(lp4483
g69
(g90
g71
NtRp4484
(dp4485
g74
(dp4486
sg83
g4480
sg76
(lp4487
g69
(g70
g71
NtRp4488
(dp4489
g74
(dp4490
g82
I1
ssg83
g4484
sg76
(lp4491
S'http://www.web2py.com'
p4492
asbasbasbag69
(g85
g71
NtRp4493
(dp4494
g74
(dp4495
sg83
g4451
sg76
(lp4496
g69
(g90
g71
NtRp4497
(dp4498
g74
(dp4499
sg83
g4493
sg76
(lp4500
g69
(g70
g71
NtRp4501
(dp4502
g74
(dp4503
g82
I1
ssg83
g4497
sg76
(lp4504
(lp4505
(g4181
(S's\x08\x00\x00\x00Download'
tRp4506
I00
S'http://www.web2py.com/examples/default/download'
p4507
tp4508
a(g4181
(S's\x07\x00\x00\x00Support'
tRp4509
I00
S'http://www.web2py.com/examples/default/support'
p4510
tp4511
a(g4181
(S's\x04\x00\x00\x00Demo'
tRp4512
I00
S'http://web2py.com/demo_admin'
p4513
tp4514
a(g4181
(S's\x0e\x00\x00\x00Quick Examples'
tRp4515
I00
S'http://web2py.com/examples/default/examples'
p4516
tp4517
a(g4181
(S's\x03\x00\x00\x00FAQ'
tRp4518
I00
S'http://web2py.com/AlterEgo'
p4519
tp4520
a(g4181
(S's\x06\x00\x00\x00Videos'
tRp4521
I00
S'http://www.web2py.com/examples/default/videos/'
p4522
tp4523
a(g4181
(S's\x11\x00\x00\x00Free Applications'
tRp4524
I00
S'http://web2py.com/appliances'
p4525
tp4526
a(g4181
(S's\x07\x00\x00\x00Plugins'
tRp4527
I00
S'http://web2py.com/plugins'
p4528
tp4529
a(g4181
(S's\x07\x00\x00\x00Layouts'
tRp4530
I00
S'http://web2py.com/layouts'
p4531
tp4532
a(g4181
(S's\x07\x00\x00\x00Recipes'
tRp4533
I00
S'http://web2pyslices.com/'
p4534
tp4535
a(g4181
(S's\x08\x00\x00\x00Semantic'
tRp4536
I00
S'http://web2py.com/semantic'
p4537
tp4538
aasbasbasbasbasbasbasbag69
(g85
g71
NtRp4539
(dp4540
g74
(dp4541
sg83
g4296
sg76
(lp4542
g69
(g90
g71
NtRp4543
(dp4544
g74
(dp4545
sg83
g4539
sg76
(lp4546
g69
(g70
g71
NtRp4547
(dp4548
g74
(dp4549
g82
I2
ssg83
g4543
sg76
(lp4550
g69
(g78
g71
NtRp4551
(dp4552
g74
(dp4553
g82
I1
ssg83
Nsg76
(lp4554
g69
(g85
g71
NtRp4555
(dp4556
g74
(dp4557
sg83
g4551
sg76
(lp4558
g69
(g90
g71
NtRp4559
(dp4560
g74
(dp4561
sg83
g4555
sg76
(lp4562
g69
(g70
g71
NtRp4563
(dp4564
g74
(dp4565
g82
I1
ssg83
g4559
sg76
(lp4566
g4181
(S's\r\x00\x00\x00Documentation'
tRp4567
asbasbasbag69
(g85
g71
NtRp4568
(dp4569
g74
(dp4570
sg83
g4551
sg76
(lp4571
g69
(g90
g71
NtRp4572
(dp4573
g74
(dp4574
sg83
g4568
sg76
(lp4575
g69
(g70
g71
NtRp4576
(dp4577
g74
(dp4578
g82
I1
ssg83
g4572
sg76
(lp4579
I00
asbasbasbag69
(g85
g71
NtRp4580
(dp4581
g74
(dp4582
sg83
g4551
sg76
(lp4583
g69
(g90
g71
NtRp4584
(dp4585
g74
(dp4586
sg83
g4580
sg76
(lp4587
g69
(g70
g71
NtRp4588
(dp4589
g74
(dp4590
g82
I1
ssg83
g4584
sg76
(lp4591
S'http://www.web2py.com/book'
p4592
asbasbasbag69
(g85
g71
NtRp4593
(dp4594
g74
(dp4595
sg83
g4551
sg76
(lp4596
g69
(g90
g71
NtRp4597
(dp4598
g74
(dp4599
sg83
g4593
sg76
(lp4600
g69
(g70
g71
NtRp4601
(dp4602
g74
(dp4603
g82
I1
ssg83
g4597
sg76
(lp4604
(lp4605
(g4181
(S's\x07\x00\x00\x00Preface'
tRp4606
I00
S'http://www.web2py.com/book/default/chapter/00'
p4607
tp4608
a(g4181
(S's\x0c\x00\x00\x00Introduction'
tRp4609
I00
S'http://www.web2py.com/book/default/chapter/01'
p4610
tp4611
a(g4181
(S's\x06\x00\x00\x00Python'
tRp4612
I00
S'http://www.web2py.com/book/default/chapter/02'
p4613
tp4614
a(g4181
(S's\x08\x00\x00\x00Overview'
tRp4615
I00
S'http://www.web2py.com/book/default/chapter/03'
p4616
tp4617
a(g4181
(S's\x08\x00\x00\x00The Core'
tRp4618
I00
S'http://www.web2py.com/book/default/chapter/04'
p4619
tp4620
a(g4181
(S's\t\x00\x00\x00The Views'
tRp4621
I00
S'http://www.web2py.com/book/default/chapter/05'
p4622
tp4623
a(g4181
(S's\x08\x00\x00\x00Database'
tRp4624
I00
S'http://www.web2py.com/book/default/chapter/06'
p4625
tp4626
a(g4181
(S's\x14\x00\x00\x00Forms and Validators'
tRp4627
I00
S'http://www.web2py.com/book/default/chapter/07'
p4628
tp4629
a(g4181
(S's\r\x00\x00\x00Email and SMS'
tRp4630
I00
S'http://www.web2py.com/book/default/chapter/08'
p4631
tp4632
a(g4181
(S's\x0e\x00\x00\x00Access Control'
tRp4633
I00
S'http://www.web2py.com/book/default/chapter/09'
p4634
tp4635
a(g4181
(S's\x08\x00\x00\x00Services'
tRp4636
I00
S'http://www.web2py.com/book/default/chapter/10'
p4637
tp4638
a(g4181
(S's\x0c\x00\x00\x00Ajax Recipes'
tRp4639
I00
S'http://www.web2py.com/book/default/chapter/11'
p4640
tp4641
a(g4181
(S's\x16\x00\x00\x00Components and Plugins'
tRp4642
I00
S'http://www.web2py.com/book/default/chapter/12'
p4643
tp4644
a(g4181
(S's\x12\x00\x00\x00Deployment Recipes'
tRp4645
I00
S'http://www.web2py.com/book/default/chapter/13'
p4646
tp4647
a(g4181
(S's\r\x00\x00\x00Other Recipes'
tRp4648
I00
S'http://www.web2py.com/book/default/chapter/14'
p4649
tp4650
a(g4181
(S's\r\x00\x00\x00Buy this book'
tRp4651
I00
S'http://stores.lulu.com/web2py'
p4652
tp4653
aasbasbasbasbasbasbasbag69
(g85
g71
NtRp4654
(dp4655
g74
(dp4656
sg83
g4296
sg76
(lp4657
g69
(g90
g71
NtRp4658
(dp4659
g74
(dp4660
sg83
g4654
sg76
(lp4661
g69
(g70
g71
NtRp4662
(dp4663
g74
(dp4664
g82
I2
ssg83
g4658
sg76
(lp4665
g69
(g78
g71
NtRp4666
(dp4667
g74
(dp4668
g82
I1
ssg83
Nsg76
(lp4669
g69
(g85
g71
NtRp4670
(dp4671
g74
(dp4672
sg83
g4666
sg76
(lp4673
g69
(g90
g71
NtRp4674
(dp4675
g74
(dp4676
sg83
g4670
sg76
(lp4677
g69
(g70
g71
NtRp4678
(dp4679
g74
(dp4680
g82
I1
ssg83
g4674
sg76
(lp4681
g4181
(S's\t\x00\x00\x00Community'
tRp4682
asbasbasbag69
(g85
g71
NtRp4683
(dp4684
g74
(dp4685
sg83
g4666
sg76
(lp4686
g69
(g90
g71
NtRp4687
(dp4688
g74
(dp4689
sg83
g4683
sg76
(lp4690
g69
(g70
g71
NtRp4691
(dp4692
g74
(dp4693
g82
I1
ssg83
g4687
sg76
(lp4694
I00
asbasbasbag69
(g85
g71
NtRp4695
(dp4696
g74
(dp4697
sg83
g4666
sg76
(lp4698
g69
(g90
g71
NtRp4699
(dp4700
g74
(dp4701
sg83
g4695
sg76
(lp4702
g69
(g70
g71
NtRp4703
(dp4704
g74
(dp4705
g82
I1
ssg83
g4699
sg76
(lp4706
Nasbasbasbag69
(g85
g71
NtRp4707
(dp4708
g74
(dp4709
sg83
g4666
sg76
(lp4710
g69
(g90
g71
NtRp4711
(dp4712
g74
(dp4713
sg83
g4707
sg76
(lp4714
g69
(g70
g71
NtRp4715
(dp4716
g74
(dp4717
g82
I1
ssg83
g4711
sg76
(lp4718
(lp4719
(g4181
(S's\x06\x00\x00\x00Groups'
tRp4720
I00
S'http://www.web2py.com/examples/default/usergroups'
p4721
tp4722
a(g4181
(S's\x07\x00\x00\x00Twitter'
tRp4723
I00
S'http://twitter.com/web2py'
p4724
tp4725
a(g4181
(S's\t\x00\x00\x00Live Chat'
tRp4726
I00
S'http://webchat.freenode.net/?channels=web2py'
p4727
tp4728
aasbasbasbasbasbasbasbag69
(g85
g71
NtRp4729
(dp4730
g74
(dp4731
sg83
g4296
sg76
(lp4732
g69
(g90
g71
NtRp4733
(dp4734
g74
(dp4735
sg83
g4729
sg76
(lp4736
g69
(g70
g71
NtRp4737
(dp4738
g74
(dp4739
g82
I2
ssg83
g4733
sg76
(lp4740
g69
(g78
g71
NtRp4741
(dp4742
g74
(dp4743
g82
I1
ssg83
Nsg76
(lp4744
g69
(g85
g71
NtRp4745
(dp4746
g74
(dp4747
sg83
g4741
sg76
(lp4748
g69
(g90
g71
NtRp4749
(dp4750
g74
(dp4751
sg83
g4745
sg76
(lp4752
g69
(g70
g71
NtRp4753
(dp4754
g74
(dp4755
g82
I1
ssg83
g4749
sg76
(lp4756
g4181
(S's\x07\x00\x00\x00Plugins'
tRp4757
asbasbasbag69
(g85
g71
NtRp4758
(dp4759
g74
(dp4760
sg83
g4741
sg76
(lp4761
g69
(g90
g71
NtRp4762
(dp4763
g74
(dp4764
sg83
g4758
sg76
(lp4765
g69
(g70
g71
NtRp4766
(dp4767
g74
(dp4768
g82
I1
ssg83
g4762
sg76
(lp4769
I00
asbasbasbag69
(g85
g71
NtRp4770
(dp4771
g74
(dp4772
sg83
g4741
sg76
(lp4773
g69
(g90
g71
NtRp4774
(dp4775
g74
(dp4776
sg83
g4770
sg76
(lp4777
g69
(g70
g71
NtRp4778
(dp4779
g74
(dp4780
g82
I1
ssg83
g4774
sg76
(lp4781
Nasbasbasbag69
(g85
g71
NtRp4782
(dp4783
g74
(dp4784
sg83
g4741
sg76
(lp4785
g69
(g90
g71
NtRp4786
(dp4787
g74
(dp4788
sg83
g4782
sg76
(lp4789
g69
(g70
g71
NtRp4790
(dp4791
g74
(dp4792
g82
I1
ssg83
g4786
sg76
(lp4793
(lp4794
(S'plugin_wiki'
p4795
I00
S'http://web2py.com/examples/default/download'
p4796
tp4797
a(g4181
(S's\r\x00\x00\x00Other Plugins'
tRp4798
I00
g4528
tp4799
a(g4181
(S's\x0e\x00\x00\x00Layout Plugins'
tRp4800
I00
g4531
tp4801
aasbasbasbasbasbasbasbasbasbasbasbasbasbasbasbasbasbasbasbag69
(g85
g71
NtRp4802
(dp4803
g74
(dp4804
sg83
g3690
sg76
(lp4805
g69
(g90
g71
NtRp4806
(dp4807
g74
(dp4808
g94
g95
ssg83
g4802
sg76
(lp4809
S'meta'
p4810
asbag69
(g90
g71
NtRp4811
(dp4812
g74
(dp4813
g101
g102
ssg83
g4802
sg76
(lp4814
S':'
asbag69
(g90
g71
NtRp4815
(dp4816
g74
(dp4817
sg83
g4802
sg76
(lp4818
g69
(g70
g71
NtRp4819
(dp4820
g74
(dp4821
g82
I5
ssg83
g4815
sg76
(lp4822
g69
(g78
g71
NtRp4823
(dp4824
g74
(dp4825
g82
I4
ssg83
Nsg76
(lp4826
g69
(g85
g71
NtRp4827
(dp4828
g74
(dp4829
sg83
g4823
sg76
(lp4830
g69
(g90
g71
NtRp4831
(dp4832
g74
(dp4833
g94
g95
ssg83
g4827
sg76
(lp4834
S'author'
p4835
asbag69
(g90
g71
NtRp4836
(dp4837
g74
(dp4838
g101
g102
ssg83
g4827
sg76
(lp4839
S':'
asbag69
(g90
g71
NtRp4840
(dp4841
g74
(dp4842
sg83
g4827
sg76
(lp4843
g69
(g70
g71
NtRp4844
(dp4845
g74
(dp4846
g82
I4
ssg83
g4840
sg76
(lp4847
S'Your Name <you@example.com>'
p4848
asbasbasbag69
(g85
g71
NtRp4849
(dp4850
g74
(dp4851
sg83
g4823
sg76
(lp4852
g69
(g90
g71
NtRp4853
(dp4854
g74
(dp4855
g94
g95
ssg83
g4849
sg76
(lp4856
S'description'
p4857
asbag69
(g90
g71
NtRp4858
(dp4859
g74
(dp4860
g101
g102
ssg83
g4849
sg76
(lp4861
S':'
asbag69
(g90
g71
NtRp4862
(dp4863
g74
(dp4864
sg83
g4849
sg76
(lp4865
g69
(g70
g71
NtRp4866
(dp4867
g74
(dp4868
g82
I4
ssg83
g4862
sg76
(lp4869
S'a cool new app'
p4870
asbasbasbag69
(g85
g71
NtRp4871
(dp4872
g74
(dp4873
sg83
g4823
sg76
(lp4874
g69
(g90
g71
NtRp4875
(dp4876
g74
(dp4877
g94
g95
ssg83
g4871
sg76
(lp4878
S'generator'
p4879
asbag69
(g90
g71
NtRp4880
(dp4881
g74
(dp4882
g101
g102
ssg83
g4871
sg76
(lp4883
S':'
asbag69
(g90
g71
NtRp4884
(dp4885
g74
(dp4886
sg83
g4871
sg76
(lp4887
g69
(g70
g71
NtRp4888
(dp4889
g74
(dp4890
g82
I4
ssg83
g4884
sg76
(lp4891
S'Web2py Web Framework'
p4892
asbasbasbag69
(g85
g71
NtRp4893
(dp4894
g74
(dp4895
sg83
g4823
sg76
(lp4896
g69
(g90
g71
NtRp4897
(dp4898
g74
(dp4899
g94
g95
ssg83
g4893
sg76
(lp4900
S'keywords'
p4901
asbag69
(g90
g71
NtRp4902
(dp4903
g74
(dp4904
g101
g102
ssg83
g4893
sg76
(lp4905
S':'
asbag69
(g90
g71
NtRp4906
(dp4907
g74
(dp4908
sg83
g4893
sg76
(lp4909
g69
(g70
g71
NtRp4910
(dp4911
g74
(dp4912
g82
I4
ssg83
g4906
sg76
(lp4913
S'web2py, python, framework'
p4914
asbasbasbasbasbasbasbag69
(g85
g71
NtRp4915
(dp4916
g74
(dp4917
sg83
g3690
sg76
(lp4918
g69
(g90
g71
NtRp4919
(dp4920
g74
(dp4921
g94
g95
ssg83
g4915
sg76
(lp4922
S'models_to_run'
p4923
asbag69
(g90
g71
NtRp4924
(dp4925
g74
(dp4926
g101
g102
ssg83
g4915
sg76
(lp4927
S':'
asbag69
(g90
g71
NtRp4928
(dp4929
g74
(dp4930
sg83
g4915
sg76
(lp4931
g69
(g70
g71
NtRp4932
(dp4933
g74
(dp4934
g82
I5
ssg83
g4928
sg76
(lp4935
g69
(g78
g71
NtRp4936
(dp4937
g74
(dp4938
g82
I4
ssg83
Nsg76
(lp4939
g69
(g85
g71
NtRp4940
(dp4941
g74
(dp4942
sg83
g4936
sg76
(lp4943
g69
(g90
g71
NtRp4944
(dp4945
g74
(dp4946
sg83
g4940
sg76
(lp4947
g69
(g70
g71
NtRp4948
(dp4949
g74
(dp4950
g82
I4
ssg83
g4944
sg76
(lp4951
S'^\\w+\\.py$'
p4952
asbasbasbag69
(g85
g71
NtRp4953
(dp4954
g74
(dp4955
sg83
g4936
sg76
(lp4956
g69
(g90
g71
NtRp4957
(dp4958
g74
(dp4959
sg83
g4953
sg76
(lp4960
g69
(g70
g71
NtRp4961
(dp4962
g74
(dp4963
g82
I4
ssg83
g4957
sg76
(lp4964
S'^default/\\w+\\.py$'
p4965
asbasbasbag69
(g85
g71
NtRp4966
(dp4967
g74
(dp4968
sg83
g4936
sg76
(lp4969
g69
(g90
g71
NtRp4970
(dp4971
g74
(dp4972
sg83
g4966
sg76
(lp4973
g69
(g70
g71
NtRp4974
(dp4975
g74
(dp4976
g82
I4
ssg83
g4970
sg76
(lp4977
S'^default/show_job/\\w+\\.py$'
p4978
asbasbasbasbasbasbasbag69
(g85
g71
NtRp4979
(dp4980
g74
(dp4981
sg83
g3690
sg76
(lp4982
g69
(g90
g71
NtRp4983
(dp4984
g74
(dp4985
g94
g95
ssg83
g4979
sg76
(lp4986
S'postprocessing'
p4987
asbag69
(g90
g71
NtRp4988
(dp4989
g74
(dp4990
g101
g102
ssg83
g4979
sg76
(lp4991
S':'
asbag69
(g90
g71
NtRp4992
(dp4993
g74
(dp4994
sg83
g4979
sg76
(lp4995
g69
(g70
g71
NtRp4996
(dp4997
g74
(dp4998
g82
I5
ssg83
g4992
sg76
(lp4999
g69
(g78
g71
NtRp5000
(dp5001
g74
(dp5002
g82
I4
ssg83
Nsg76
(lp5003
sbasbasbasbag69
(g85
g71
NtRp5004
(dp5005
g74
(dp5006
sg83
g3690
sg76
(lp5007
g69
(g90
g71
NtRp5008
(dp5009
g74
(dp5010
g94
g95
ssg83
g5004
sg76
(lp5011
S'session_cookie_expires'
p5012
asbag69
(g90
g71
NtRp5013
(dp5014
g74
(dp5015
g101
g102
ssg83
g5004
sg76
(lp5016
S':'
asbag69
(g90
g71
NtRp5017
(dp5018
g74
(dp5019
sg83
g5004
sg76
(lp5020
g69
(g70
g71
NtRp5021
(dp5022
g74
(dp5023
g82
I5
ssg83
g5017
sg76
(lp5024
S'None'
p5025
asbasbasbag69
(g85
g71
NtRp5026
(dp5027
g74
(dp5028
sg83
g3690
sg76
(lp5029
g69
(g90
g71
NtRp5030
(dp5031
g74
(dp5032
g94
g95
ssg83
g5026
sg76
(lp5033
S'session_data_name'
p5034
asbag69
(g90
g71
NtRp5035
(dp5036
g74
(dp5037
g101
g102
ssg83
g5026
sg76
(lp5038
S':'
asbag69
(g90
g71
NtRp5039
(dp5040
g74
(dp5041
sg83
g5026
sg76
(lp5042
g69
(g70
g71
NtRp5043
(dp5044
g74
(dp5045
g82
I5
ssg83
g5039
sg76
(lp5046
S'session_data_betsy'
p5047
asbasbasbag69
(g85
g71
NtRp5048
(dp5049
g74
(dp5050
sg83
g3690
sg76
(lp5051
g69
(g90
g71
NtRp5052
(dp5053
g74
(dp5054
g94
g95
ssg83
g5048
sg76
(lp5055
S'session_file'
p5056
asbag69
(g90
g71
NtRp5057
(dp5058
g74
(dp5059
g101
g102
ssg83
g5048
sg76
(lp5060
S':'
asbag69
(g90
g71
NtRp5061
(dp5062
g74
(dp5063
sg83
g5048
sg76
(lp5064
g69
(g70
g71
NtRp5065
(dp5066
g74
(dp5067
g82
I5
ssg83
g5061
sg76
(lp5068
S"<open file '/home/xchen/web2py/applications/Betsy/sessions/127.0.0.1-70d52105-0f5d-4884-a4e3-dce6830f30e0', mode 'rb+' at 0x169e20c0>"
p5069
asbasbasbag69
(g85
g71
NtRp5070
(dp5071
g74
(dp5072
sg83
g3690
sg76
(lp5073
g69
(g90
g71
NtRp5074
(dp5075
g74
(dp5076
g94
g95
ssg83
g5070
sg76
(lp5077
S'session_filename'
p5078
asbag69
(g90
g71
NtRp5079
(dp5080
g74
(dp5081
g101
g102
ssg83
g5070
sg76
(lp5082
S':'
asbag69
(g90
g71
NtRp5083
(dp5084
g74
(dp5085
sg83
g5070
sg76
(lp5086
g69
(g70
g71
NtRp5087
(dp5088
g74
(dp5089
g82
I5
ssg83
g5083
sg76
(lp5090
S'/home/xchen/web2py/applications/Betsy/sessions/127.0.0.1-70d52105-0f5d-4884-a4e3-dce6830f30e0'
p5091
asbasbasbag69
(g85
g71
NtRp5092
(dp5093
g74
(dp5094
sg83
g3690
sg76
(lp5095
g69
(g90
g71
NtRp5096
(dp5097
g74
(dp5098
g94
g95
ssg83
g5092
sg76
(lp5099
S'session_id'
p5100
asbag69
(g90
g71
NtRp5101
(dp5102
g74
(dp5103
g101
g102
ssg83
g5092
sg76
(lp5104
S':'
asbag69
(g90
g71
NtRp5105
(dp5106
g74
(dp5107
sg83
g5092
sg76
(lp5108
g69
(g70
g71
NtRp5109
(dp5110
g74
(dp5111
g82
I5
ssg83
g5105
sg76
(lp5112
g306
asbasbasbag69
(g85
g71
NtRp5113
(dp5114
g74
(dp5115
sg83
g3690
sg76
(lp5116
g69
(g90
g71
NtRp5117
(dp5118
g74
(dp5119
g94
g95
ssg83
g5113
sg76
(lp5120
S'session_id_name'
p5121
asbag69
(g90
g71
NtRp5122
(dp5123
g74
(dp5124
g101
g102
ssg83
g5113
sg76
(lp5125
S':'
asbag69
(g90
g71
NtRp5126
(dp5127
g74
(dp5128
sg83
g5113
sg76
(lp5129
g69
(g70
g71
NtRp5130
(dp5131
g74
(dp5132
g82
I5
ssg83
g5126
sg76
(lp5133
g3747
asbasbasbag69
(g85
g71
NtRp5134
(dp5135
g74
(dp5136
sg83
g3690
sg76
(lp5137
g69
(g90
g71
NtRp5138
(dp5139
g74
(dp5140
g94
g95
ssg83
g5134
sg76
(lp5141
S'session_locked'
p5142
asbag69
(g90
g71
NtRp5143
(dp5144
g74
(dp5145
g101
g102
ssg83
g5134
sg76
(lp5146
S':'
asbag69
(g90
g71
NtRp5147
(dp5148
g74
(dp5149
sg83
g5134
sg76
(lp5150
g69
(g70
g71
NtRp5151
(dp5152
g74
(dp5153
g82
I5
ssg83
g5147
sg76
(lp5154
g1421
asbasbasbag69
(g85
g71
NtRp5155
(dp5156
g74
(dp5157
sg83
g3690
sg76
(lp5158
g69
(g90
g71
NtRp5159
(dp5160
g74
(dp5161
g94
g95
ssg83
g5155
sg76
(lp5162
S'session_new'
p5163
asbag69
(g90
g71
NtRp5164
(dp5165
g74
(dp5166
g101
g102
ssg83
g5155
sg76
(lp5167
S':'
asbag69
(g90
g71
NtRp5168
(dp5169
g74
(dp5170
sg83
g5155
sg76
(lp5171
g69
(g70
g71
NtRp5172
(dp5173
g74
(dp5174
g82
I5
ssg83
g5168
sg76
(lp5175
g112
asbasbasbag69
(g85
g71
NtRp5176
(dp5177
g74
(dp5178
sg83
g3690
sg76
(lp5179
g69
(g90
g71
NtRp5180
(dp5181
g74
(dp5182
g94
g95
ssg83
g5176
sg76
(lp5183
S'session_storage_type'
p5184
asbag69
(g90
g71
NtRp5185
(dp5186
g74
(dp5187
g101
g102
ssg83
g5176
sg76
(lp5188
S':'
asbag69
(g90
g71
NtRp5189
(dp5190
g74
(dp5191
sg83
g5176
sg76
(lp5192
g69
(g70
g71
NtRp5193
(dp5194
g74
(dp5195
g82
I5
ssg83
g5189
sg76
(lp5196
g2853
asbasbasbag69
(g85
g71
NtRp5197
(dp5198
g74
(dp5199
sg83
g3690
sg76
(lp5200
g69
(g90
g71
NtRp5201
(dp5202
g74
(dp5203
g94
g95
ssg83
g5197
sg76
(lp5204
S'status'
p5205
asbag69
(g90
g71
NtRp5206
(dp5207
g74
(dp5208
g101
g102
ssg83
g5197
sg76
(lp5209
S':'
asbag69
(g90
g71
NtRp5210
(dp5211
g74
(dp5212
sg83
g5197
sg76
(lp5213
g69
(g70
g71
NtRp5214
(dp5215
g74
(dp5216
g82
I5
ssg83
g5210
sg76
(lp5217
S'200'
p5218
asbasbasbag69
(g85
g71
NtRp5219
(dp5220
g74
(dp5221
sg83
g3690
sg76
(lp5222
g69
(g90
g71
NtRp5223
(dp5224
g74
(dp5225
g94
g95
ssg83
g5219
sg76
(lp5226
S'subtitle'
p5227
asbag69
(g90
g71
NtRp5228
(dp5229
g74
(dp5230
g101
g102
ssg83
g5219
sg76
(lp5231
S':'
asbag69
(g90
g71
NtRp5232
(dp5233
g74
(dp5234
sg83
g5219
sg76
(lp5235
g69
(g70
g71
NtRp5236
(dp5237
g74
(dp5238
g82
I5
ssg83
g5232
sg76
(lp5239
g4181
(S's\r\x00\x00\x00customize me!'
tRp5240
asbasbasbag69
(g85
g71
NtRp5241
(dp5242
g74
(dp5243
sg83
g3690
sg76
(lp5244
g69
(g90
g71
NtRp5245
(dp5246
g74
(dp5247
g94
g95
ssg83
g5241
sg76
(lp5248
S'title'
p5249
asbag69
(g90
g71
NtRp5250
(dp5251
g74
(dp5252
g101
g102
ssg83
g5241
sg76
(lp5253
S':'
asbag69
(g90
g71
NtRp5254
(dp5255
g74
(dp5256
sg83
g5241
sg76
(lp5257
g69
(g70
g71
NtRp5258
(dp5259
g74
(dp5260
g82
I5
ssg83
g5254
sg76
(lp5261
S'Betsy'
p5262
asbasbasbag69
(g85
g71
NtRp5263
(dp5264
g74
(dp5265
sg83
g3690
sg76
(lp5266
g69
(g90
g71
NtRp5267
(dp5268
g74
(dp5269
g94
g95
ssg83
g5263
sg76
(lp5270
S'view'
p5271
asbag69
(g90
g71
NtRp5272
(dp5273
g74
(dp5274
g101
g102
ssg83
g5263
sg76
(lp5275
S':'
asbag69
(g90
g71
NtRp5276
(dp5277
g74
(dp5278
sg83
g5263
sg76
(lp5279
g69
(g70
g71
NtRp5280
(dp5281
g74
(dp5282
g82
I5
ssg83
g5276
sg76
(lp5283
S'default/show_job.html'
p5284
asbasbasbasbasbsS'locals'
p5285
(dp5286
g4
S"'/home/xchen/web2py/applications/Betsy/views/default/show_job.html'"
p5287
sg6
S'\'response.write(\\\'<!DOCTYPE html>\\\\n<!-- paulirish...."></script>\\\\n</body>\\\\n</html>\\\\n\\\\n\\\', escape=False)\''
p5288
sssS'traceback'
p5289
S'Traceback (most recent call last):\n  File "/home/xchen/web2py/gluon/restricted.py", line 211, in restricted\n    ccode = compile2(code, layer)\n  File "/home/xchen/web2py/gluon/restricted.py", line 194, in compile2\n    return compile(code.rstrip().replace(\'\\r\\n\', \'\\n\') + \'\\n\', layer, \'exec\')\n  File "/home/xchen/web2py/applications/Betsy/views/default/show_job.html", line 90\n    response.write(\'\\n\\t\', escape=False)\n           ^\nSyntaxError: invalid syntax\n'
p5290
s.