(dp1
S'output'
p2
S"<type 'exceptions.KeyError'> 'form_classification'"
p3
sS'layer'
p4
S'/home/xchen/web2py/applications/Betsy/views/default/index.html'
p5
sS'code'
p6
S'response.write(\'<!DOCTYPE html>\\n<!-- paulirish.com/2008/conditional-stylesheets-vs-css-hacks-answer-neither/ -->\\n<!--[if lt IE 7]><html class="ie ie6 ie-lte9 ie-lte8 ie-lte7 no-js" lang="\', escape=False)\nresponse.write(T.accepted_language or \'en\')\nresponse.write(\'"> <![endif]-->\\n<!--[if IE 7]><html class="ie ie7 ie-lte9 ie-lte8 ie-lte7 no-js" lang="\', escape=False)\nresponse.write(T.accepted_language or \'en\')\nresponse.write(\'"> <![endif]-->\\n<!--[if IE 8]><html class="ie ie8 ie-lte9 ie-lte8 no-js" lang="\', escape=False)\nresponse.write(T.accepted_language or \'en\')\nresponse.write(\'"> <![endif]-->\\n<!--[if IE 9]><html class="ie9 ie-lte9 no-js" lang="\', escape=False)\nresponse.write(T.accepted_language or \'en\')\nresponse.write(\'"> <![endif]-->\\n<!--[if (gt IE 9)|!(IE)]><!--> <html class="no-js" lang="\', escape=False)\nresponse.write(T.accepted_language or \'en\')\nresponse.write(\'"> <!--<![endif]-->\\n<head>\\n  <meta charset="utf-8" />\\n  <!-- www.phpied.com/conditional-comments-block-downloads/ -->\\n  <!-- Always force latest IE rendering engine\\n       (even in intranet) & Chrome Frame\\n       Remove this if you use the .htaccess -->\\n  <!--[if IE]>\\n      <meta http-equiv="X-UA-Compatible" content="IE=edge\', escape=False)\nresponse.write(not request.is_local and \',chrome=1\' or \'\')\nresponse.write(\'">\\n      <![endif]-->\\n\\n  <title>\', escape=False)\nresponse.write(response.title or request.application)\nresponse.write(\'</title>\\n\\n  <!-- http://dev.w3.org/html5/markup/meta.name.html -->\\n  <meta name="application-name" content="\', escape=False)\nresponse.write(request.application)\nresponse.write(\'" />\\n\\n  <!-- Speaking of Google, don\\\'t forget to set your site up:\\n       http://google.com/webmasters -->\\n  <meta name="google-site-verification" content="" />\\n\\n  <!--  Mobile Viewport Fix\\n        j.mp/mobileviewport & davidbcalhoun.com/2010/viewport-metatag\\n        device-width: Occupy full width of the screen in its current orientation\\n        initial-scale = 1.0 retains dimensions instead of zooming out if page height > device height\\n        user-scalable = yes allows the user to zoom in -->\\n  <meta name="viewport" content="width=device-width, initial-scale=1.0">\\n\\n  <link rel="shortcut icon" href="\', escape=False)\nresponse.write(URL(\'static\',\'images/favicon.ico\'))\nresponse.write(\'" type="image/x-icon">\\n  <link rel="apple-touch-icon" href="\', escape=False)\nresponse.write(URL(\'static\',\'images/favicon.png\'))\nresponse.write(\'">\\n\\n  <!-- All JavaScript at the bottom, except for Modernizr which enables\\n       HTML5 elements & feature detects -->\\n  <script src="\', escape=False)\nresponse.write(URL(\'static\',\'js/modernizr.custom.js\'))\nresponse.write(\'"></script>\\n\\n  <!-- include stylesheets -->\\n  \', escape=False)\nresponse.files.append(URL(\'static\',\'css/web2py.css\'))\nresponse.files.append(URL(\'static\',\'css/bootstrap.min.css\'))\nresponse.files.append(URL(\'static\',\'css/bootstrap-responsive.min.css\'))\nresponse.files.append(URL(\'static\',\'css/web2py_bootstrap.css\'))\nresponse.write(\'\\n\\n  \', escape=False)\nresponse.write(\'<script type="text/javascript"><!--\\n    // These variables are used by the web2py_ajax_init function in web2py_ajax.js (which is loaded below).\\n    var w2p_ajax_confirm_message = "\', escape=False)\nresponse.write(T(\'Are you sure you want to delete this object?\'))\nresponse.write(\'";\\n    var w2p_ajax_date_format = "\', escape=False)\nresponse.write(T(\'%Y-%m-%d\'))\nresponse.write(\'";\\n    var w2p_ajax_datetime_format = "\', escape=False)\nresponse.write(T(\'%Y-%m-%d %H:%M:%S\'))\nresponse.write(\'";\\n    //--></script>\\n\', escape=False)\nresponse.files.insert(0,URL(\'static\',\'js/jquery.js\'))\nresponse.files.insert(1,URL(\'static\',\'css/calendar.css\'))\nresponse.files.insert(2,URL(\'static\',\'js/calendar.js\'))\nresponse.files.insert(3,URL(\'static\',\'js/web2py.js\'))\nresponse.include_meta()\nresponse.include_files()\nresponse.write(\'\\n\', escape=False)\nresponse.write(\'\\n\\n  \', escape=False)\n# using sidebars need to know what sidebar you want to use\nleft_sidebar_enabled = globals().get(\'left_sidebar_enabled\',False)\nright_sidebar_enabled = globals().get(\'right_sidebar_enabled\',False)\nmiddle_columns = {0:\'span12\',1:\'span9\',2:\'span6\'}[\n(left_sidebar_enabled and 1 or 0)+(right_sidebar_enabled and 1 or 0)]\nresponse.write(\'\\n\\n  <!-- uncomment here to load jquery-ui\\n       <link rel="stylesheet" href="http://ajax.googleapis.com/ajax/libs/jqueryui/1.8.16/themes/base/jquery-ui.css" type="text/css" media="all" />\\n       <script src="http://ajax.googleapis.com/ajax/libs/jqueryui/1.8.16/jquery-ui.min.js" type="text/javascript"></script>\\n       uncomment to load jquery-ui //-->\\n  <noscript><link href="\', escape=False)\nresponse.write(URL(\'static\', \'css/web2py_bootstrap_nojs.css\'))\nresponse.write(\'" rel="stylesheet" type="text/css" /></noscript>\\n  \', escape=False)\nresponse.write(\'\\n</head>\\n\\n<body>\\n  <!-- Navbar ================================================== -->\\n  <div class="navbar navbar-inverse navbar-fixed-top">\\n    <div class="flash">\', escape=False)\nresponse.write(response.flash or \'\')\nresponse.write(\'</div>\\n    <div class="navbar-inner">\\n      <div class="container">\\n        <!-- the next tag is necessary for bootstrap menus, do not remove -->\\n        <button type="button" class="btn btn-navbar" data-toggle="collapse" data-target=".nav-collapse">\\n          <span class="icon-bar"></span>\\n          <span class="icon-bar"></span>\\n          <span class="icon-bar"></span>\\n        </button>\\n        <a class="brand" href="http://www.web2py.com/"><b>web<span>2</span>py</b>&trade;&nbsp;</a>\\n        <ul id="navbar" class="nav pull-right">\', escape=False)\nresponse.write(\'auth\' in globals() and auth.navbar(mode="dropdown") or \'\')\nresponse.write(\'</ul>\\n        <div class="nav-collapse">\\n          \', escape=False)\nis_mobile=request.user_agent().is_mobile\nresponse.write(\'\\n          \', escape=False)\nif response.menu:\n    response.write(\'\\n          \', escape=False)\n    response.write(MENU(response.menu, _class=\'mobile-menu nav\' if is_mobile else \'nav\',mobile=is_mobile,li_class=\'dropdown\',ul_class=\'dropdown-menu\'))\n    response.write(\'\\n          \', escape=False)\n    pass\nresponse.write(\'\\n        </div><!--/.nav-collapse -->\\n      </div>\\n    </div>\\n  </div><!--/top navbar -->\\n\\n  <div class="container">\\n    <!-- Masthead ================================================== -->\\n    <header class="mastheader row" id="header">\\n        <div class="span12">\\n            <div class="page-header">\\n                <h1>\\n                    \', escape=False)\nresponse.write(response.title or request.application)\nresponse.write(\'\\n                    <small>\', escape=False)\nresponse.write(response.subtitle or \'\')\nresponse.write(\'</small>\\n                </h1>\\n            </div>\\n        </div>\\n    </header>\\n\\n    <section id="main" class="main row">\\n        \', escape=False)\nif left_sidebar_enabled:\n    response.write(\'\\n        <div class="span3 left-sidebar">\\n            \', escape=False)\n    response.write(\'\\n            <h3>Left Sidebar</h3>\\n            <p></p>\\n            \', escape=False)\n    response.write(\'\\n        </div>\\n        \', escape=False)\n    pass\nresponse.write(\'\\n\\n        <div class="\', escape=False)\nresponse.write(middle_columns)\nresponse.write(\'">\\n            \', escape=False)\nresponse.write(\'\\n            \', escape=False)\nresponse.write(\'\\n\', escape=False)\nfor label in labels:\n    response.write(\'\\n<h1>\', escape=False)\n    response.write(vars()[\'form_\'+label])\n    response.write(\'</h1>\\n\', escape=False)\n    pass\nresponse.write(\'\\n\', escape=False)\nresponse.write(\'\\n            \', escape=False)\nresponse.write(\'\\n        </div>\\n\\n        \', escape=False)\nif right_sidebar_enabled:\n    response.write(\'\\n        <div class="span3">\\n            \', escape=False)\n    response.write(\'\\n            <h3>Right Sidebar</h3>\\n            <p></p>\\n            \', escape=False)\n    response.write(\'\\n        </div>\\n        \', escape=False)\n    pass\nresponse.write(\'\\n    </section><!--/main-->\\n\\n    <!-- Footer ================================================== -->\\n    <div class="row">\\n        <footer class="footer span12" id="footer">\\n            <div class="footer-content">\\n                \', escape=False)\nresponse.write(\' <!-- this is default footer -->\\n                <div class="copyright pull-left">\', escape=False)\nresponse.write(T(\'Copyright\'))\nresponse.write(\' &#169; \', escape=False)\nresponse.write(request.now.year)\nresponse.write(\'</div>\\n                <div id="poweredBy" class="pull-right">\\n                    \', escape=False)\nresponse.write(T(\'Powered by\'))\nresponse.write(\'\\n                    <a href="http://www.web2py.com/">web2py</a>\\n                </div>\\n                \', escape=False)\nresponse.write(\'\\n            </div>\\n        </footer>\\n    </div>\\n\\n  </div> <!-- /container -->\\n\\n  <!-- The javascript =============================================\\n       (Placed at the end of the document so the pages load faster) -->\\n  <script src="\', escape=False)\nresponse.write(URL(\'static\',\'js/bootstrap.min.js\'))\nresponse.write(\'"></script>\\n  <script src="\', escape=False)\nresponse.write(URL(\'static\',\'js/web2py_bootstrap.js\'))\nresponse.write(\'"></script>\\n  <!--[if lt IE 7 ]>\\n      <script src="\', escape=False)\nresponse.write(URL(\'static\',\'js/dd_belatedpng.js\'))\nresponse.write(\'"></script>\\n      <script> DD_belatedPNG.fix(\\\'img, .png_bg\\\'); //fix any <img> or .png_bg background-images </script>\\n      <![endif]-->\\n  \', escape=False)\nif response.google_analytics_id:\n    response.write(\'<script type="text/javascript"> var _gaq = _gaq || []; _gaq.push([\\\'_setAccount\\\', \\\'\', escape=False)\n    response.write(response.google_analytics_id)\n    response.write("\']); _gaq.push([\'_trackPageview\']); (function() { var ga = document.createElement(\'script\'); ga.type = \'text/javascript\'; ga.async = true; ga.src = (\'https:\' == document.location.protocol ? \'https://ssl\' : \'http://www\') + \'.google-analytics.com/ga.js\'; var s = document.getElementsByTagName(\'script\')[0]; s.parentNode.insertBefore(ga, s); })(); </script> ", escape=False)\n    pass\nresponse.write(\'\\n  <script src="\', escape=False)\nresponse.write(URL(\'static\',\'js/share.js\',vars=dict(static=URL(\'static\',\'images\'))))\nresponse.write(\'"></script>\\n</body>\\n</html>\\n\\n\', escape=False)'
p7
sS'snapshot'
p8
(dp9
S'exception'
p10
(dp11
S'__hash__'
p12
S"<method-wrapper '__hash__' of exceptions.KeyError object>"
p13
sS'__setattr__'
p14
S"<method-wrapper '__setattr__' of exceptions.KeyError object>"
p15
sS'__reduce_ex__'
p16
S'<built-in method __reduce_ex__ of exceptions.KeyError object>'
p17
sS'__getslice__'
p18
S"<method-wrapper '__getslice__' of exceptions.KeyError object>"
p19
sS'__getitem__'
p20
S"<method-wrapper '__getitem__' of exceptions.KeyError object>"
p21
sS'__setstate__'
p22
S'<built-in method __setstate__ of exceptions.KeyError object>'
p23
sS'args'
p24
S"('form_classification',)"
p25
sS'__reduce__'
p26
S'<built-in method __reduce__ of exceptions.KeyError object>'
p27
sS'__str__'
p28
S"<method-wrapper '__str__' of exceptions.KeyError object>"
p29
sS'__format__'
p30
S'<built-in method __format__ of exceptions.KeyError object>'
p31
sS'__getattribute__'
p32
S"<method-wrapper '__getattribute__' of exceptions.KeyError object>"
p33
sS'__class__'
p34
S"<type 'exceptions.KeyError'>"
p35
sS'__unicode__'
p36
S'<built-in method __unicode__ of exceptions.KeyError object>'
p37
sS'__delattr__'
p38
S"<method-wrapper '__delattr__' of exceptions.KeyError object>"
p39
sS'__subclasshook__'
p40
S'<built-in method __subclasshook__ of type object>'
p41
sS'__repr__'
p42
S"<method-wrapper '__repr__' of exceptions.KeyError object>"
p43
sS'__dict__'
p44
S'{}'
p45
sS'__sizeof__'
p46
S'<built-in method __sizeof__ of exceptions.KeyError object>'
p47
sS'__doc__'
p48
S"'Mapping key not found.'"
p49
sS'__init__'
p50
S"<method-wrapper '__init__' of exceptions.KeyError object>"
p51
sS'__new__'
p52
S'<built-in method __new__ of type object>'
p53
ssS'evalue'
p54
S"'form_classification'"
p55
sS'request'
p56
ccopy_reg
_reconstructor
p57
(cgluon.html
BEAUTIFY
p58
c__builtin__
object
p59
NtRp60
(dp61
S'attributes'
p62
(dp63
sS'components'
p64
(lp65
g57
(cgluon.html
TABLE
p66
g59
NtRp67
(dp68
g62
(dp69
S'level'
p70
I5
ssS'parent'
p71
Nsg64
(lp72
g57
(cgluon.html
TR
p73
g59
NtRp74
(dp75
g62
(dp76
sg71
g67
sg64
(lp77
g57
(cgluon.html
TD
p78
g59
NtRp79
(dp80
g62
(dp81
S'_style'
p82
S'font-weight:bold;vertical-align:top'
p83
ssg71
g74
sg64
(lp84
S'ajax'
p85
asbag57
(g78
g59
NtRp86
(dp87
g62
(dp88
S'_valign'
p89
S'top'
p90
ssg71
g74
sg64
(lp91
S':'
asbag57
(g78
g59
NtRp92
(dp93
g62
(dp94
sg71
g74
sg64
(lp95
g57
(g58
g59
NtRp96
(dp97
g62
(dp98
g70
I5
ssg71
g92
sg64
(lp99
S'False'
p100
asbasbasbag57
(g73
g59
NtRp101
(dp102
g62
(dp103
sg71
g67
sg64
(lp104
g57
(g78
g59
NtRp105
(dp106
g62
(dp107
g82
g83
ssg71
g101
sg64
(lp108
S'application'
p109
asbag57
(g78
g59
NtRp110
(dp111
g62
(dp112
g89
g90
ssg71
g101
sg64
(lp113
S':'
asbag57
(g78
g59
NtRp114
(dp115
g62
(dp116
sg71
g101
sg64
(lp117
g57
(g58
g59
NtRp118
(dp119
g62
(dp120
g70
I5
ssg71
g114
sg64
(lp121
S'Betsy'
p122
asbasbasbag57
(g73
g59
NtRp123
(dp124
g62
(dp125
sg71
g67
sg64
(lp126
g57
(g78
g59
NtRp127
(dp128
g62
(dp129
g82
g83
ssg71
g123
sg64
(lp130
g24
asbag57
(g78
g59
NtRp131
(dp132
g62
(dp133
g89
g90
ssg71
g123
sg64
(lp134
S':'
asbag57
(g78
g59
NtRp135
(dp136
g62
(dp137
sg71
g123
sg64
(lp138
g57
(g58
g59
NtRp139
(dp140
g62
(dp141
g70
I5
ssg71
g135
sg64
(lp142
g57
(g66
g59
NtRp143
(dp144
g62
(dp145
g70
I4
ssg71
Nsg64
(lp146
sbasbasbasbag57
(g73
g59
NtRp147
(dp148
g62
(dp149
sg71
g67
sg64
(lp150
g57
(g78
g59
NtRp151
(dp152
g62
(dp153
g82
g83
ssg71
g147
sg64
(lp154
S'body'
p155
asbag57
(g78
g59
NtRp156
(dp157
g62
(dp158
g89
g90
ssg71
g147
sg64
(lp159
S':'
asbag57
(g78
g59
NtRp160
(dp161
g62
(dp162
sg71
g147
sg64
(lp163
g57
(g58
g59
NtRp164
(dp165
g62
(dp166
g70
I5
ssg71
g160
sg64
(lp167
S'<cStringIO.StringO object at 0xa4c1458>'
p168
asbasbasbag57
(g73
g59
NtRp169
(dp170
g62
(dp171
sg71
g67
sg64
(lp172
g57
(g78
g59
NtRp173
(dp174
g62
(dp175
g82
g83
ssg71
g169
sg64
(lp176
S'cid'
p177
asbag57
(g78
g59
NtRp178
(dp179
g62
(dp180
g89
g90
ssg71
g169
sg64
(lp181
S':'
asbag57
(g78
g59
NtRp182
(dp183
g62
(dp184
sg71
g169
sg64
(lp185
g57
(g58
g59
NtRp186
(dp187
g62
(dp188
g70
I5
ssg71
g182
sg64
(lp189
S'None'
p190
asbasbasbag57
(g73
g59
NtRp191
(dp192
g62
(dp193
sg71
g67
sg64
(lp194
g57
(g78
g59
NtRp195
(dp196
g62
(dp197
g82
g83
ssg71
g191
sg64
(lp198
S'client'
p199
asbag57
(g78
g59
NtRp200
(dp201
g62
(dp202
g89
g90
ssg71
g191
sg64
(lp203
S':'
asbag57
(g78
g59
NtRp204
(dp205
g62
(dp206
sg71
g191
sg64
(lp207
g57
(g58
g59
NtRp208
(dp209
g62
(dp210
g70
I5
ssg71
g204
sg64
(lp211
S'127.0.0.1'
p212
asbasbasbag57
(g73
g59
NtRp213
(dp214
g62
(dp215
sg71
g67
sg64
(lp216
g57
(g78
g59
NtRp217
(dp218
g62
(dp219
g82
g83
ssg71
g213
sg64
(lp220
S'controller'
p221
asbag57
(g78
g59
NtRp222
(dp223
g62
(dp224
g89
g90
ssg71
g213
sg64
(lp225
S':'
asbag57
(g78
g59
NtRp226
(dp227
g62
(dp228
sg71
g213
sg64
(lp229
g57
(g58
g59
NtRp230
(dp231
g62
(dp232
g70
I5
ssg71
g226
sg64
(lp233
S'default'
p234
asbasbasbag57
(g73
g59
NtRp235
(dp236
g62
(dp237
sg71
g67
sg64
(lp238
g57
(g78
g59
NtRp239
(dp240
g62
(dp241
g82
g83
ssg71
g235
sg64
(lp242
S'cookies'
p243
asbag57
(g78
g59
NtRp244
(dp245
g62
(dp246
g89
g90
ssg71
g235
sg64
(lp247
S':'
asbag57
(g78
g59
NtRp248
(dp249
g62
(dp250
sg71
g235
sg64
(lp251
g57
(g58
g59
NtRp252
(dp253
g62
(dp254
g70
I5
ssg71
g248
sg64
(lp255
g57
(g66
g59
NtRp256
(dp257
g62
(dp258
g70
I4
ssg71
Nsg64
(lp259
g57
(g73
g59
NtRp260
(dp261
g62
(dp262
sg71
g256
sg64
(lp263
g57
(g78
g59
NtRp264
(dp265
g62
(dp266
g82
g83
ssg71
g260
sg64
(lp267
S'session_id_admin'
p268
asbag57
(g78
g59
NtRp269
(dp270
g62
(dp271
g89
g90
ssg71
g260
sg64
(lp272
S':'
asbag57
(g78
g59
NtRp273
(dp274
g62
(dp275
sg71
g260
sg64
(lp276
g57
(g58
g59
NtRp277
(dp278
g62
(dp279
g70
I4
ssg71
g273
sg64
(lp280
S'127.0.0.1-98d061fe-e8d1-4dfd-ac05-3b319761a2f7'
p281
ag57
(g66
g59
NtRp282
(dp283
g62
(dp284
g70
I3
ssg71
Nsg64
(lp285
g57
(g73
g59
NtRp286
(dp287
g62
(dp288
sg71
g282
sg64
(lp289
g57
(g78
g59
NtRp290
(dp291
g62
(dp292
g82
g83
ssg71
g286
sg64
(lp293
S'comment'
p294
asbag57
(g78
g59
NtRp295
(dp296
g62
(dp297
g89
g90
ssg71
g286
sg64
(lp298
S':'
asbag57
(g78
g59
NtRp299
(dp300
g62
(dp301
sg71
g286
sg64
(lp302
g57
(g58
g59
NtRp303
(dp304
g62
(dp305
g70
I3
ssg71
g299
sg64
(lp306
S''
asbasbasbag57
(g73
g59
NtRp307
(dp308
g62
(dp309
sg71
g282
sg64
(lp310
g57
(g78
g59
NtRp311
(dp312
g62
(dp313
g82
g83
ssg71
g307
sg64
(lp314
S'domain'
p315
asbag57
(g78
g59
NtRp316
(dp317
g62
(dp318
g89
g90
ssg71
g307
sg64
(lp319
S':'
asbag57
(g78
g59
NtRp320
(dp321
g62
(dp322
sg71
g307
sg64
(lp323
g57
(g58
g59
NtRp324
(dp325
g62
(dp326
g70
I3
ssg71
g320
sg64
(lp327
S''
asbasbasbag57
(g73
g59
NtRp328
(dp329
g62
(dp330
sg71
g282
sg64
(lp331
g57
(g78
g59
NtRp332
(dp333
g62
(dp334
g82
g83
ssg71
g328
sg64
(lp335
S'expires'
p336
asbag57
(g78
g59
NtRp337
(dp338
g62
(dp339
g89
g90
ssg71
g328
sg64
(lp340
S':'
asbag57
(g78
g59
NtRp341
(dp342
g62
(dp343
sg71
g328
sg64
(lp344
g57
(g58
g59
NtRp345
(dp346
g62
(dp347
g70
I3
ssg71
g341
sg64
(lp348
S''
asbasbasbag57
(g73
g59
NtRp349
(dp350
g62
(dp351
sg71
g282
sg64
(lp352
g57
(g78
g59
NtRp353
(dp354
g62
(dp355
g82
g83
ssg71
g349
sg64
(lp356
S'httponly'
p357
asbag57
(g78
g59
NtRp358
(dp359
g62
(dp360
g89
g90
ssg71
g349
sg64
(lp361
S':'
asbag57
(g78
g59
NtRp362
(dp363
g62
(dp364
sg71
g349
sg64
(lp365
g57
(g58
g59
NtRp366
(dp367
g62
(dp368
g70
I3
ssg71
g362
sg64
(lp369
S''
asbasbasbag57
(g73
g59
NtRp370
(dp371
g62
(dp372
sg71
g282
sg64
(lp373
g57
(g78
g59
NtRp374
(dp375
g62
(dp376
g82
g83
ssg71
g370
sg64
(lp377
S'max-age'
p378
asbag57
(g78
g59
NtRp379
(dp380
g62
(dp381
g89
g90
ssg71
g370
sg64
(lp382
S':'
asbag57
(g78
g59
NtRp383
(dp384
g62
(dp385
sg71
g370
sg64
(lp386
g57
(g58
g59
NtRp387
(dp388
g62
(dp389
g70
I3
ssg71
g383
sg64
(lp390
S''
asbasbasbag57
(g73
g59
NtRp391
(dp392
g62
(dp393
sg71
g282
sg64
(lp394
g57
(g78
g59
NtRp395
(dp396
g62
(dp397
g82
g83
ssg71
g391
sg64
(lp398
S'path'
p399
asbag57
(g78
g59
NtRp400
(dp401
g62
(dp402
g89
g90
ssg71
g391
sg64
(lp403
S':'
asbag57
(g78
g59
NtRp404
(dp405
g62
(dp406
sg71
g391
sg64
(lp407
g57
(g58
g59
NtRp408
(dp409
g62
(dp410
g70
I3
ssg71
g404
sg64
(lp411
S''
asbasbasbag57
(g73
g59
NtRp412
(dp413
g62
(dp414
sg71
g282
sg64
(lp415
g57
(g78
g59
NtRp416
(dp417
g62
(dp418
g82
g83
ssg71
g412
sg64
(lp419
S'secure'
p420
asbag57
(g78
g59
NtRp421
(dp422
g62
(dp423
g89
g90
ssg71
g412
sg64
(lp424
S':'
asbag57
(g78
g59
NtRp425
(dp426
g62
(dp427
sg71
g412
sg64
(lp428
g57
(g58
g59
NtRp429
(dp430
g62
(dp431
g70
I3
ssg71
g425
sg64
(lp432
S''
asbasbasbag57
(g73
g59
NtRp433
(dp434
g62
(dp435
sg71
g282
sg64
(lp436
g57
(g78
g59
NtRp437
(dp438
g62
(dp439
g82
g83
ssg71
g433
sg64
(lp440
S'version'
p441
asbag57
(g78
g59
NtRp442
(dp443
g62
(dp444
g89
g90
ssg71
g433
sg64
(lp445
S':'
asbag57
(g78
g59
NtRp446
(dp447
g62
(dp448
sg71
g433
sg64
(lp449
g57
(g58
g59
NtRp450
(dp451
g62
(dp452
g70
I3
ssg71
g446
sg64
(lp453
S''
asbasbasbasbasbasbasbag57
(g73
g59
NtRp454
(dp455
g62
(dp456
sg71
g256
sg64
(lp457
g57
(g78
g59
NtRp458
(dp459
g62
(dp460
g82
g83
ssg71
g454
sg64
(lp461
S'session_id_betsy'
p462
asbag57
(g78
g59
NtRp463
(dp464
g62
(dp465
g89
g90
ssg71
g454
sg64
(lp466
S':'
asbag57
(g78
g59
NtRp467
(dp468
g62
(dp469
sg71
g454
sg64
(lp470
g57
(g58
g59
NtRp471
(dp472
g62
(dp473
g70
I4
ssg71
g467
sg64
(lp474
S'127.0.0.1-70d52105-0f5d-4884-a4e3-dce6830f30e0'
p475
ag57
(g66
g59
NtRp476
(dp477
g62
(dp478
g70
I3
ssg71
Nsg64
(lp479
g57
(g73
g59
NtRp480
(dp481
g62
(dp482
sg71
g476
sg64
(lp483
g57
(g78
g59
NtRp484
(dp485
g62
(dp486
g82
g83
ssg71
g480
sg64
(lp487
g294
asbag57
(g78
g59
NtRp488
(dp489
g62
(dp490
g89
g90
ssg71
g480
sg64
(lp491
S':'
asbag57
(g78
g59
NtRp492
(dp493
g62
(dp494
sg71
g480
sg64
(lp495
g57
(g58
g59
NtRp496
(dp497
g62
(dp498
g70
I3
ssg71
g492
sg64
(lp499
S''
asbasbasbag57
(g73
g59
NtRp500
(dp501
g62
(dp502
sg71
g476
sg64
(lp503
g57
(g78
g59
NtRp504
(dp505
g62
(dp506
g82
g83
ssg71
g500
sg64
(lp507
g315
asbag57
(g78
g59
NtRp508
(dp509
g62
(dp510
g89
g90
ssg71
g500
sg64
(lp511
S':'
asbag57
(g78
g59
NtRp512
(dp513
g62
(dp514
sg71
g500
sg64
(lp515
g57
(g58
g59
NtRp516
(dp517
g62
(dp518
g70
I3
ssg71
g512
sg64
(lp519
S''
asbasbasbag57
(g73
g59
NtRp520
(dp521
g62
(dp522
sg71
g476
sg64
(lp523
g57
(g78
g59
NtRp524
(dp525
g62
(dp526
g82
g83
ssg71
g520
sg64
(lp527
g336
asbag57
(g78
g59
NtRp528
(dp529
g62
(dp530
g89
g90
ssg71
g520
sg64
(lp531
S':'
asbag57
(g78
g59
NtRp532
(dp533
g62
(dp534
sg71
g520
sg64
(lp535
g57
(g58
g59
NtRp536
(dp537
g62
(dp538
g70
I3
ssg71
g532
sg64
(lp539
S''
asbasbasbag57
(g73
g59
NtRp540
(dp541
g62
(dp542
sg71
g476
sg64
(lp543
g57
(g78
g59
NtRp544
(dp545
g62
(dp546
g82
g83
ssg71
g540
sg64
(lp547
g357
asbag57
(g78
g59
NtRp548
(dp549
g62
(dp550
g89
g90
ssg71
g540
sg64
(lp551
S':'
asbag57
(g78
g59
NtRp552
(dp553
g62
(dp554
sg71
g540
sg64
(lp555
g57
(g58
g59
NtRp556
(dp557
g62
(dp558
g70
I3
ssg71
g552
sg64
(lp559
S''
asbasbasbag57
(g73
g59
NtRp560
(dp561
g62
(dp562
sg71
g476
sg64
(lp563
g57
(g78
g59
NtRp564
(dp565
g62
(dp566
g82
g83
ssg71
g560
sg64
(lp567
g378
asbag57
(g78
g59
NtRp568
(dp569
g62
(dp570
g89
g90
ssg71
g560
sg64
(lp571
S':'
asbag57
(g78
g59
NtRp572
(dp573
g62
(dp574
sg71
g560
sg64
(lp575
g57
(g58
g59
NtRp576
(dp577
g62
(dp578
g70
I3
ssg71
g572
sg64
(lp579
S''
asbasbasbag57
(g73
g59
NtRp580
(dp581
g62
(dp582
sg71
g476
sg64
(lp583
g57
(g78
g59
NtRp584
(dp585
g62
(dp586
g82
g83
ssg71
g580
sg64
(lp587
g399
asbag57
(g78
g59
NtRp588
(dp589
g62
(dp590
g89
g90
ssg71
g580
sg64
(lp591
S':'
asbag57
(g78
g59
NtRp592
(dp593
g62
(dp594
sg71
g580
sg64
(lp595
g57
(g58
g59
NtRp596
(dp597
g62
(dp598
g70
I3
ssg71
g592
sg64
(lp599
S''
asbasbasbag57
(g73
g59
NtRp600
(dp601
g62
(dp602
sg71
g476
sg64
(lp603
g57
(g78
g59
NtRp604
(dp605
g62
(dp606
g82
g83
ssg71
g600
sg64
(lp607
g420
asbag57
(g78
g59
NtRp608
(dp609
g62
(dp610
g89
g90
ssg71
g600
sg64
(lp611
S':'
asbag57
(g78
g59
NtRp612
(dp613
g62
(dp614
sg71
g600
sg64
(lp615
g57
(g58
g59
NtRp616
(dp617
g62
(dp618
g70
I3
ssg71
g612
sg64
(lp619
S''
asbasbasbag57
(g73
g59
NtRp620
(dp621
g62
(dp622
sg71
g476
sg64
(lp623
g57
(g78
g59
NtRp624
(dp625
g62
(dp626
g82
g83
ssg71
g620
sg64
(lp627
g441
asbag57
(g78
g59
NtRp628
(dp629
g62
(dp630
g89
g90
ssg71
g620
sg64
(lp631
S':'
asbag57
(g78
g59
NtRp632
(dp633
g62
(dp634
sg71
g620
sg64
(lp635
g57
(g58
g59
NtRp636
(dp637
g62
(dp638
g70
I3
ssg71
g632
sg64
(lp639
S''
asbasbasbasbasbasbasbag57
(g73
g59
NtRp640
(dp641
g62
(dp642
sg71
g256
sg64
(lp643
g57
(g78
g59
NtRp644
(dp645
g62
(dp646
g82
g83
ssg71
g640
sg64
(lp647
S'session_id_dna'
p648
asbag57
(g78
g59
NtRp649
(dp650
g62
(dp651
g89
g90
ssg71
g640
sg64
(lp652
S':'
asbag57
(g78
g59
NtRp653
(dp654
g62
(dp655
sg71
g640
sg64
(lp656
g57
(g58
g59
NtRp657
(dp658
g62
(dp659
g70
I4
ssg71
g653
sg64
(lp660
S'127.0.0.1-f8a42f51-ac9d-4f9e-838b-5950c42ae328'
p661
ag57
(g66
g59
NtRp662
(dp663
g62
(dp664
g70
I3
ssg71
Nsg64
(lp665
g57
(g73
g59
NtRp666
(dp667
g62
(dp668
sg71
g662
sg64
(lp669
g57
(g78
g59
NtRp670
(dp671
g62
(dp672
g82
g83
ssg71
g666
sg64
(lp673
g294
asbag57
(g78
g59
NtRp674
(dp675
g62
(dp676
g89
g90
ssg71
g666
sg64
(lp677
S':'
asbag57
(g78
g59
NtRp678
(dp679
g62
(dp680
sg71
g666
sg64
(lp681
g57
(g58
g59
NtRp682
(dp683
g62
(dp684
g70
I3
ssg71
g678
sg64
(lp685
S''
asbasbasbag57
(g73
g59
NtRp686
(dp687
g62
(dp688
sg71
g662
sg64
(lp689
g57
(g78
g59
NtRp690
(dp691
g62
(dp692
g82
g83
ssg71
g686
sg64
(lp693
g315
asbag57
(g78
g59
NtRp694
(dp695
g62
(dp696
g89
g90
ssg71
g686
sg64
(lp697
S':'
asbag57
(g78
g59
NtRp698
(dp699
g62
(dp700
sg71
g686
sg64
(lp701
g57
(g58
g59
NtRp702
(dp703
g62
(dp704
g70
I3
ssg71
g698
sg64
(lp705
S''
asbasbasbag57
(g73
g59
NtRp706
(dp707
g62
(dp708
sg71
g662
sg64
(lp709
g57
(g78
g59
NtRp710
(dp711
g62
(dp712
g82
g83
ssg71
g706
sg64
(lp713
g336
asbag57
(g78
g59
NtRp714
(dp715
g62
(dp716
g89
g90
ssg71
g706
sg64
(lp717
S':'
asbag57
(g78
g59
NtRp718
(dp719
g62
(dp720
sg71
g706
sg64
(lp721
g57
(g58
g59
NtRp722
(dp723
g62
(dp724
g70
I3
ssg71
g718
sg64
(lp725
S''
asbasbasbag57
(g73
g59
NtRp726
(dp727
g62
(dp728
sg71
g662
sg64
(lp729
g57
(g78
g59
NtRp730
(dp731
g62
(dp732
g82
g83
ssg71
g726
sg64
(lp733
g357
asbag57
(g78
g59
NtRp734
(dp735
g62
(dp736
g89
g90
ssg71
g726
sg64
(lp737
S':'
asbag57
(g78
g59
NtRp738
(dp739
g62
(dp740
sg71
g726
sg64
(lp741
g57
(g58
g59
NtRp742
(dp743
g62
(dp744
g70
I3
ssg71
g738
sg64
(lp745
S''
asbasbasbag57
(g73
g59
NtRp746
(dp747
g62
(dp748
sg71
g662
sg64
(lp749
g57
(g78
g59
NtRp750
(dp751
g62
(dp752
g82
g83
ssg71
g746
sg64
(lp753
g378
asbag57
(g78
g59
NtRp754
(dp755
g62
(dp756
g89
g90
ssg71
g746
sg64
(lp757
S':'
asbag57
(g78
g59
NtRp758
(dp759
g62
(dp760
sg71
g746
sg64
(lp761
g57
(g58
g59
NtRp762
(dp763
g62
(dp764
g70
I3
ssg71
g758
sg64
(lp765
S''
asbasbasbag57
(g73
g59
NtRp766
(dp767
g62
(dp768
sg71
g662
sg64
(lp769
g57
(g78
g59
NtRp770
(dp771
g62
(dp772
g82
g83
ssg71
g766
sg64
(lp773
g399
asbag57
(g78
g59
NtRp774
(dp775
g62
(dp776
g89
g90
ssg71
g766
sg64
(lp777
S':'
asbag57
(g78
g59
NtRp778
(dp779
g62
(dp780
sg71
g766
sg64
(lp781
g57
(g58
g59
NtRp782
(dp783
g62
(dp784
g70
I3
ssg71
g778
sg64
(lp785
S''
asbasbasbag57
(g73
g59
NtRp786
(dp787
g62
(dp788
sg71
g662
sg64
(lp789
g57
(g78
g59
NtRp790
(dp791
g62
(dp792
g82
g83
ssg71
g786
sg64
(lp793
g420
asbag57
(g78
g59
NtRp794
(dp795
g62
(dp796
g89
g90
ssg71
g786
sg64
(lp797
S':'
asbag57
(g78
g59
NtRp798
(dp799
g62
(dp800
sg71
g786
sg64
(lp801
g57
(g58
g59
NtRp802
(dp803
g62
(dp804
g70
I3
ssg71
g798
sg64
(lp805
S''
asbasbasbag57
(g73
g59
NtRp806
(dp807
g62
(dp808
sg71
g662
sg64
(lp809
g57
(g78
g59
NtRp810
(dp811
g62
(dp812
g82
g83
ssg71
g806
sg64
(lp813
g441
asbag57
(g78
g59
NtRp814
(dp815
g62
(dp816
g89
g90
ssg71
g806
sg64
(lp817
S':'
asbag57
(g78
g59
NtRp818
(dp819
g62
(dp820
sg71
g806
sg64
(lp821
g57
(g58
g59
NtRp822
(dp823
g62
(dp824
g70
I3
ssg71
g818
sg64
(lp825
S''
asbasbasbasbasbasbasbasbasbasbasbag57
(g73
g59
NtRp826
(dp827
g62
(dp828
sg71
g67
sg64
(lp829
g57
(g78
g59
NtRp830
(dp831
g62
(dp832
g82
g83
ssg71
g826
sg64
(lp833
S'env'
p834
asbag57
(g78
g59
NtRp835
(dp836
g62
(dp837
g89
g90
ssg71
g826
sg64
(lp838
S':'
asbag57
(g78
g59
NtRp839
(dp840
g62
(dp841
sg71
g826
sg64
(lp842
g57
(g58
g59
NtRp843
(dp844
g62
(dp845
g70
I5
ssg71
g839
sg64
(lp846
g57
(g66
g59
NtRp847
(dp848
g62
(dp849
g70
I4
ssg71
Nsg64
(lp850
g57
(g73
g59
NtRp851
(dp852
g62
(dp853
sg71
g847
sg64
(lp854
g57
(g78
g59
NtRp855
(dp856
g62
(dp857
g82
g83
ssg71
g851
sg64
(lp858
S'app_folders'
p859
asbag57
(g78
g59
NtRp860
(dp861
g62
(dp862
g89
g90
ssg71
g851
sg64
(lp863
S':'
asbag57
(g78
g59
NtRp864
(dp865
g62
(dp866
sg71
g851
sg64
(lp867
g57
(g58
g59
NtRp868
(dp869
g62
(dp870
g70
I4
ssg71
g864
sg64
(lp871
S"set(['/home/xchen/web2py/applications/Betsy/', '/home/xchen/web2py/applications/dna/', '/home/xchen/web2py/applications/admin/'])"
p872
asbasbasbag57
(g73
g59
NtRp873
(dp874
g62
(dp875
sg71
g847
sg64
(lp876
g57
(g78
g59
NtRp877
(dp878
g62
(dp879
g82
g83
ssg71
g873
sg64
(lp880
S'applications_parent'
p881
asbag57
(g78
g59
NtRp882
(dp883
g62
(dp884
g89
g90
ssg71
g873
sg64
(lp885
S':'
asbag57
(g78
g59
NtRp886
(dp887
g62
(dp888
sg71
g873
sg64
(lp889
g57
(g58
g59
NtRp890
(dp891
g62
(dp892
g70
I4
ssg71
g886
sg64
(lp893
S'/home/xchen/web2py'
p894
asbasbasbag57
(g73
g59
NtRp895
(dp896
g62
(dp897
sg71
g847
sg64
(lp898
g57
(g78
g59
NtRp899
(dp900
g62
(dp901
g82
g83
ssg71
g895
sg64
(lp902
S'cmd_args'
p903
asbag57
(g78
g59
NtRp904
(dp905
g62
(dp906
g89
g90
ssg71
g895
sg64
(lp907
S':'
asbag57
(g78
g59
NtRp908
(dp909
g62
(dp910
sg71
g895
sg64
(lp911
g57
(g58
g59
NtRp912
(dp913
g62
(dp914
g70
I4
ssg71
g908
sg64
(lp915
g57
(g66
g59
NtRp916
(dp917
g62
(dp918
g70
I3
ssg71
Nsg64
(lp919
sbasbasbasbag57
(g73
g59
NtRp920
(dp921
g62
(dp922
sg71
g847
sg64
(lp923
g57
(g78
g59
NtRp924
(dp925
g62
(dp926
g82
g83
ssg71
g920
sg64
(lp927
S'cmd_options'
p928
asbag57
(g78
g59
NtRp929
(dp930
g62
(dp931
g89
g90
ssg71
g920
sg64
(lp932
S':'
asbag57
(g78
g59
NtRp933
(dp934
g62
(dp935
sg71
g920
sg64
(lp936
g57
(g58
g59
NtRp937
(dp938
g62
(dp939
g70
I4
ssg71
g933
sg64
(lp940
S"<Values at 0x83fae18: {'verbose': False, 'ip': '127.0.0.1', 'with_scheduler': False, 'ips': [], 'shutdown_timeout': 5, 'taskbar': False, 'port': 8080, 'maxthreads': None, 'softcron': False, 'server_name': 'unicron.shis.uth.tmc.edu', 'bpython': False, 'nogui': False, 'pid_filename': 'httpserver.pid', 'extcron': False, 'runcron': False, 'run_system_tests': False, 'test': None, 'folder': '/home/xchen/web2py', 'config': '', 'minthreads': None, 'winservice': '', 'shell': None, 'run': '', 'log_filename': 'httpserver.log', 'debuglevel': 30, 'args': [''], 'socket_timeout': 5, 'ssl_ca_certificate': None, 'scheduler': None, 'profiler_filename': None, 'ssl_private_key': '', 'scheduler_groups': None, 'password': 'baby2008', 'request_queue_size': 5, 'ssl_certificate': '', 'cronjob': False, 'numthreads': None, 'quiet': False, 'interfaces': None, 'import_models': False, 'timeout': 10, 'plain': False, 'nobanner': False}>"
p941
asbasbasbag57
(g73
g59
NtRp942
(dp943
g62
(dp944
sg71
g847
sg64
(lp945
g57
(g78
g59
NtRp946
(dp947
g62
(dp948
g82
g83
ssg71
g942
sg64
(lp949
S'db_sessions'
p950
asbag57
(g78
g59
NtRp951
(dp952
g62
(dp953
g89
g90
ssg71
g942
sg64
(lp954
S':'
asbag57
(g78
g59
NtRp955
(dp956
g62
(dp957
sg71
g942
sg64
(lp958
g57
(g58
g59
NtRp959
(dp960
g62
(dp961
g70
I4
ssg71
g955
sg64
(lp962
S'set([])'
p963
asbasbasbag57
(g73
g59
NtRp964
(dp965
g62
(dp966
sg71
g847
sg64
(lp967
g57
(g78
g59
NtRp968
(dp969
g62
(dp970
g82
g83
ssg71
g964
sg64
(lp971
S'debugging'
p972
asbag57
(g78
g59
NtRp973
(dp974
g62
(dp975
g89
g90
ssg71
g964
sg64
(lp976
S':'
asbag57
(g78
g59
NtRp977
(dp978
g62
(dp979
sg71
g964
sg64
(lp980
g57
(g58
g59
NtRp981
(dp982
g62
(dp983
g70
I4
ssg71
g977
sg64
(lp984
g100
asbasbasbag57
(g73
g59
NtRp985
(dp986
g62
(dp987
sg71
g847
sg64
(lp988
g57
(g78
g59
NtRp989
(dp990
g62
(dp991
g82
g83
ssg71
g985
sg64
(lp992
S'gluon_parent'
p993
asbag57
(g78
g59
NtRp994
(dp995
g62
(dp996
g89
g90
ssg71
g985
sg64
(lp997
S':'
asbag57
(g78
g59
NtRp998
(dp999
g62
(dp1000
sg71
g985
sg64
(lp1001
g57
(g58
g59
NtRp1002
(dp1003
g62
(dp1004
g70
I4
ssg71
g998
sg64
(lp1005
S'/home/xchen/web2py'
p1006
asbasbasbag57
(g73
g59
NtRp1007
(dp1008
g62
(dp1009
sg71
g847
sg64
(lp1010
g57
(g78
g59
NtRp1011
(dp1012
g62
(dp1013
g82
g83
ssg71
g1007
sg64
(lp1014
S'http_accept'
p1015
asbag57
(g78
g59
NtRp1016
(dp1017
g62
(dp1018
g89
g90
ssg71
g1007
sg64
(lp1019
S':'
asbag57
(g78
g59
NtRp1020
(dp1021
g62
(dp1022
sg71
g1007
sg64
(lp1023
g57
(g58
g59
NtRp1024
(dp1025
g62
(dp1026
g70
I4
ssg71
g1020
sg64
(lp1027
S'text/html,application/xhtml+xml,application/xml;q=0.9,*/*;q=0.8'
p1028
asbasbasbag57
(g73
g59
NtRp1029
(dp1030
g62
(dp1031
sg71
g847
sg64
(lp1032
g57
(g78
g59
NtRp1033
(dp1034
g62
(dp1035
g82
g83
ssg71
g1029
sg64
(lp1036
S'http_accept_encoding'
p1037
asbag57
(g78
g59
NtRp1038
(dp1039
g62
(dp1040
g89
g90
ssg71
g1029
sg64
(lp1041
S':'
asbag57
(g78
g59
NtRp1042
(dp1043
g62
(dp1044
sg71
g1029
sg64
(lp1045
g57
(g58
g59
NtRp1046
(dp1047
g62
(dp1048
g70
I4
ssg71
g1042
sg64
(lp1049
S'gzip, deflate'
p1050
asbasbasbag57
(g73
g59
NtRp1051
(dp1052
g62
(dp1053
sg71
g847
sg64
(lp1054
g57
(g78
g59
NtRp1055
(dp1056
g62
(dp1057
g82
g83
ssg71
g1051
sg64
(lp1058
S'http_accept_language'
p1059
asbag57
(g78
g59
NtRp1060
(dp1061
g62
(dp1062
g89
g90
ssg71
g1051
sg64
(lp1063
S':'
asbag57
(g78
g59
NtRp1064
(dp1065
g62
(dp1066
sg71
g1051
sg64
(lp1067
g57
(g58
g59
NtRp1068
(dp1069
g62
(dp1070
g70
I4
ssg71
g1064
sg64
(lp1071
S'en-US,en;q=0.5'
p1072
asbasbasbag57
(g73
g59
NtRp1073
(dp1074
g62
(dp1075
sg71
g847
sg64
(lp1076
g57
(g78
g59
NtRp1077
(dp1078
g62
(dp1079
g82
g83
ssg71
g1073
sg64
(lp1080
S'http_cache_control'
p1081
asbag57
(g78
g59
NtRp1082
(dp1083
g62
(dp1084
g89
g90
ssg71
g1073
sg64
(lp1085
S':'
asbag57
(g78
g59
NtRp1086
(dp1087
g62
(dp1088
sg71
g1073
sg64
(lp1089
g57
(g58
g59
NtRp1090
(dp1091
g62
(dp1092
g70
I4
ssg71
g1086
sg64
(lp1093
S'max-age=0'
p1094
asbasbasbag57
(g73
g59
NtRp1095
(dp1096
g62
(dp1097
sg71
g847
sg64
(lp1098
g57
(g78
g59
NtRp1099
(dp1100
g62
(dp1101
g82
g83
ssg71
g1095
sg64
(lp1102
S'http_connection'
p1103
asbag57
(g78
g59
NtRp1104
(dp1105
g62
(dp1106
g89
g90
ssg71
g1095
sg64
(lp1107
S':'
asbag57
(g78
g59
NtRp1108
(dp1109
g62
(dp1110
sg71
g1095
sg64
(lp1111
g57
(g58
g59
NtRp1112
(dp1113
g62
(dp1114
g70
I4
ssg71
g1108
sg64
(lp1115
S'keep-alive'
p1116
asbasbasbag57
(g73
g59
NtRp1117
(dp1118
g62
(dp1119
sg71
g847
sg64
(lp1120
g57
(g78
g59
NtRp1121
(dp1122
g62
(dp1123
g82
g83
ssg71
g1117
sg64
(lp1124
S'http_cookie'
p1125
asbag57
(g78
g59
NtRp1126
(dp1127
g62
(dp1128
g89
g90
ssg71
g1117
sg64
(lp1129
S':'
asbag57
(g78
g59
NtRp1130
(dp1131
g62
(dp1132
sg71
g1117
sg64
(lp1133
g57
(g58
g59
NtRp1134
(dp1135
g62
(dp1136
g70
I4
ssg71
g1130
sg64
(lp1137
S'session_id_betsy=127.0.0.1-70d52105-0f5d-4884-a4e3-dce6830f30e0; session_id_admin=127.0.0.1-98d061fe-e8d1-4dfd-ac05-3b319761a2f7; session_id_dna=127.0.0.1-f8a42f51-ac9d-4f9e-838b-5950c42ae328'
p1138
asbasbasbag57
(g73
g59
NtRp1139
(dp1140
g62
(dp1141
sg71
g847
sg64
(lp1142
g57
(g78
g59
NtRp1143
(dp1144
g62
(dp1145
g82
g83
ssg71
g1139
sg64
(lp1146
S'http_host'
p1147
asbag57
(g78
g59
NtRp1148
(dp1149
g62
(dp1150
g89
g90
ssg71
g1139
sg64
(lp1151
S':'
asbag57
(g78
g59
NtRp1152
(dp1153
g62
(dp1154
sg71
g1139
sg64
(lp1155
g57
(g58
g59
NtRp1156
(dp1157
g62
(dp1158
g70
I4
ssg71
g1152
sg64
(lp1159
S'localhost:8080'
p1160
asbasbasbag57
(g73
g59
NtRp1161
(dp1162
g62
(dp1163
sg71
g847
sg64
(lp1164
g57
(g78
g59
NtRp1165
(dp1166
g62
(dp1167
g82
g83
ssg71
g1161
sg64
(lp1168
S'http_user_agent'
p1169
asbag57
(g78
g59
NtRp1170
(dp1171
g62
(dp1172
g89
g90
ssg71
g1161
sg64
(lp1173
S':'
asbag57
(g78
g59
NtRp1174
(dp1175
g62
(dp1176
sg71
g1161
sg64
(lp1177
g57
(g58
g59
NtRp1178
(dp1179
g62
(dp1180
g70
I4
ssg71
g1174
sg64
(lp1181
S'Mozilla/5.0 (Macintosh; Intel Mac OS X 10.6; rv:19.0) Gecko/20100101 Firefox/19.0'
p1182
asbasbasbag57
(g73
g59
NtRp1183
(dp1184
g62
(dp1185
sg71
g847
sg64
(lp1186
g57
(g78
g59
NtRp1187
(dp1188
g62
(dp1189
g82
g83
ssg71
g1183
sg64
(lp1190
S'is_jython'
p1191
asbag57
(g78
g59
NtRp1192
(dp1193
g62
(dp1194
g89
g90
ssg71
g1183
sg64
(lp1195
S':'
asbag57
(g78
g59
NtRp1196
(dp1197
g62
(dp1198
sg71
g1183
sg64
(lp1199
g57
(g58
g59
NtRp1200
(dp1201
g62
(dp1202
g70
I4
ssg71
g1196
sg64
(lp1203
g100
asbasbasbag57
(g73
g59
NtRp1204
(dp1205
g62
(dp1206
sg71
g847
sg64
(lp1207
g57
(g78
g59
NtRp1208
(dp1209
g62
(dp1210
g82
g83
ssg71
g1204
sg64
(lp1211
S'is_pypy'
p1212
asbag57
(g78
g59
NtRp1213
(dp1214
g62
(dp1215
g89
g90
ssg71
g1204
sg64
(lp1216
S':'
asbag57
(g78
g59
NtRp1217
(dp1218
g62
(dp1219
sg71
g1204
sg64
(lp1220
g57
(g58
g59
NtRp1221
(dp1222
g62
(dp1223
g70
I4
ssg71
g1217
sg64
(lp1224
g100
asbasbasbag57
(g73
g59
NtRp1225
(dp1226
g62
(dp1227
sg71
g847
sg64
(lp1228
g57
(g78
g59
NtRp1229
(dp1230
g62
(dp1231
g82
g83
ssg71
g1225
sg64
(lp1232
S'local_hosts'
p1233
asbag57
(g78
g59
NtRp1234
(dp1235
g62
(dp1236
g89
g90
ssg71
g1225
sg64
(lp1237
S':'
asbag57
(g78
g59
NtRp1238
(dp1239
g62
(dp1240
sg71
g1225
sg64
(lp1241
g57
(g58
g59
NtRp1242
(dp1243
g62
(dp1244
g70
I4
ssg71
g1238
sg64
(lp1245
g57
(g66
g59
NtRp1246
(dp1247
g62
(dp1248
g70
I3
ssg71
Nsg64
(lp1249
g57
(g73
g59
NtRp1250
(dp1251
g62
(dp1252
sg71
g1246
sg64
(lp1253
g57
(g78
g59
NtRp1254
(dp1255
g62
(dp1256
sg71
g1250
sg64
(lp1257
g57
(g58
g59
NtRp1258
(dp1259
g62
(dp1260
g70
I3
ssg71
g1254
sg64
(lp1261
S'127.0.0.1'
p1262
asbasbasbag57
(g73
g59
NtRp1263
(dp1264
g62
(dp1265
sg71
g1246
sg64
(lp1266
g57
(g78
g59
NtRp1267
(dp1268
g62
(dp1269
sg71
g1263
sg64
(lp1270
g57
(g58
g59
NtRp1271
(dp1272
g62
(dp1273
g70
I3
ssg71
g1267
sg64
(lp1274
S'::ffff:127.0.0.1'
p1275
asbasbasbag57
(g73
g59
NtRp1276
(dp1277
g62
(dp1278
sg71
g1246
sg64
(lp1279
g57
(g78
g59
NtRp1280
(dp1281
g62
(dp1282
sg71
g1276
sg64
(lp1283
g57
(g58
g59
NtRp1284
(dp1285
g62
(dp1286
g70
I3
ssg71
g1280
sg64
(lp1287
S'unicron.shis.uth.tmc.edu'
p1288
asbasbasbag57
(g73
g59
NtRp1289
(dp1290
g62
(dp1291
sg71
g1246
sg64
(lp1292
g57
(g78
g59
NtRp1293
(dp1294
g62
(dp1295
sg71
g1289
sg64
(lp1296
g57
(g58
g59
NtRp1297
(dp1298
g62
(dp1299
g70
I3
ssg71
g1293
sg64
(lp1300
S'unicron.shis.uth.tmc.edu'
p1301
asbasbasbag57
(g73
g59
NtRp1302
(dp1303
g62
(dp1304
sg71
g1246
sg64
(lp1305
g57
(g78
g59
NtRp1306
(dp1307
g62
(dp1308
sg71
g1302
sg64
(lp1309
g57
(g58
g59
NtRp1310
(dp1311
g62
(dp1312
g70
I3
ssg71
g1306
sg64
(lp1313
S'127.0.0.1'
p1314
asbasbasbasbasbasbasbag57
(g73
g59
NtRp1315
(dp1316
g62
(dp1317
sg71
g847
sg64
(lp1318
g57
(g78
g59
NtRp1319
(dp1320
g62
(dp1321
g82
g83
ssg71
g1315
sg64
(lp1322
S'path_info'
p1323
asbag57
(g78
g59
NtRp1324
(dp1325
g62
(dp1326
g89
g90
ssg71
g1315
sg64
(lp1327
S':'
asbag57
(g78
g59
NtRp1328
(dp1329
g62
(dp1330
sg71
g1315
sg64
(lp1331
g57
(g58
g59
NtRp1332
(dp1333
g62
(dp1334
g70
I4
ssg71
g1328
sg64
(lp1335
S'/Betsy/default/index'
p1336
asbasbasbag57
(g73
g59
NtRp1337
(dp1338
g62
(dp1339
sg71
g847
sg64
(lp1340
g57
(g78
g59
NtRp1341
(dp1342
g62
(dp1343
g82
g83
ssg71
g1337
sg64
(lp1344
S'query_string'
p1345
asbag57
(g78
g59
NtRp1346
(dp1347
g62
(dp1348
g89
g90
ssg71
g1337
sg64
(lp1349
S':'
asbag57
(g78
g59
NtRp1350
(dp1351
g62
(dp1352
sg71
g1337
sg64
(lp1353
g57
(g58
g59
NtRp1354
(dp1355
g62
(dp1356
g70
I4
ssg71
g1350
sg64
(lp1357
S''
asbasbasbag57
(g73
g59
NtRp1358
(dp1359
g62
(dp1360
sg71
g847
sg64
(lp1361
g57
(g78
g59
NtRp1362
(dp1363
g62
(dp1364
g82
g83
ssg71
g1358
sg64
(lp1365
S'remote_addr'
p1366
asbag57
(g78
g59
NtRp1367
(dp1368
g62
(dp1369
g89
g90
ssg71
g1358
sg64
(lp1370
S':'
asbag57
(g78
g59
NtRp1371
(dp1372
g62
(dp1373
sg71
g1358
sg64
(lp1374
g57
(g58
g59
NtRp1375
(dp1376
g62
(dp1377
g70
I4
ssg71
g1371
sg64
(lp1378
g212
asbasbasbag57
(g73
g59
NtRp1379
(dp1380
g62
(dp1381
sg71
g847
sg64
(lp1382
g57
(g78
g59
NtRp1383
(dp1384
g62
(dp1385
g82
g83
ssg71
g1379
sg64
(lp1386
S'remote_port'
p1387
asbag57
(g78
g59
NtRp1388
(dp1389
g62
(dp1390
g89
g90
ssg71
g1379
sg64
(lp1391
S':'
asbag57
(g78
g59
NtRp1392
(dp1393
g62
(dp1394
sg71
g1379
sg64
(lp1395
g57
(g58
g59
NtRp1396
(dp1397
g62
(dp1398
g70
I4
ssg71
g1392
sg64
(lp1399
S'40156'
p1400
asbasbasbag57
(g73
g59
NtRp1401
(dp1402
g62
(dp1403
sg71
g847
sg64
(lp1404
g57
(g78
g59
NtRp1405
(dp1406
g62
(dp1407
g82
g83
ssg71
g1401
sg64
(lp1408
S'request_method'
p1409
asbag57
(g78
g59
NtRp1410
(dp1411
g62
(dp1412
g89
g90
ssg71
g1401
sg64
(lp1413
S':'
asbag57
(g78
g59
NtRp1414
(dp1415
g62
(dp1416
sg71
g1401
sg64
(lp1417
g57
(g58
g59
NtRp1418
(dp1419
g62
(dp1420
g70
I4
ssg71
g1414
sg64
(lp1421
S'GET'
p1422
asbasbasbag57
(g73
g59
NtRp1423
(dp1424
g62
(dp1425
sg71
g847
sg64
(lp1426
g57
(g78
g59
NtRp1427
(dp1428
g62
(dp1429
g82
g83
ssg71
g1423
sg64
(lp1430
S'request_uri'
p1431
asbag57
(g78
g59
NtRp1432
(dp1433
g62
(dp1434
g89
g90
ssg71
g1423
sg64
(lp1435
S':'
asbag57
(g78
g59
NtRp1436
(dp1437
g62
(dp1438
sg71
g1423
sg64
(lp1439
g57
(g58
g59
NtRp1440
(dp1441
g62
(dp1442
g70
I4
ssg71
g1436
sg64
(lp1443
g1336
asbasbasbag57
(g73
g59
NtRp1444
(dp1445
g62
(dp1446
sg71
g847
sg64
(lp1447
g57
(g78
g59
NtRp1448
(dp1449
g62
(dp1450
g82
g83
ssg71
g1444
sg64
(lp1451
S'script_name'
p1452
asbag57
(g78
g59
NtRp1453
(dp1454
g62
(dp1455
g89
g90
ssg71
g1444
sg64
(lp1456
S':'
asbag57
(g78
g59
NtRp1457
(dp1458
g62
(dp1459
sg71
g1444
sg64
(lp1460
g57
(g58
g59
NtRp1461
(dp1462
g62
(dp1463
g70
I4
ssg71
g1457
sg64
(lp1464
S''
asbasbasbag57
(g73
g59
NtRp1465
(dp1466
g62
(dp1467
sg71
g847
sg64
(lp1468
g57
(g78
g59
NtRp1469
(dp1470
g62
(dp1471
g82
g83
ssg71
g1465
sg64
(lp1472
S'server_name'
p1473
asbag57
(g78
g59
NtRp1474
(dp1475
g62
(dp1476
g89
g90
ssg71
g1465
sg64
(lp1477
S':'
asbag57
(g78
g59
NtRp1478
(dp1479
g62
(dp1480
sg71
g1465
sg64
(lp1481
g57
(g58
g59
NtRp1482
(dp1483
g62
(dp1484
g70
I4
ssg71
g1478
sg64
(lp1485
g1301
asbasbasbag57
(g73
g59
NtRp1486
(dp1487
g62
(dp1488
sg71
g847
sg64
(lp1489
g57
(g78
g59
NtRp1490
(dp1491
g62
(dp1492
g82
g83
ssg71
g1486
sg64
(lp1493
S'server_port'
p1494
asbag57
(g78
g59
NtRp1495
(dp1496
g62
(dp1497
g89
g90
ssg71
g1486
sg64
(lp1498
S':'
asbag57
(g78
g59
NtRp1499
(dp1500
g62
(dp1501
sg71
g1486
sg64
(lp1502
g57
(g58
g59
NtRp1503
(dp1504
g62
(dp1505
g70
I4
ssg71
g1499
sg64
(lp1506
S'8080'
p1507
asbasbasbag57
(g73
g59
NtRp1508
(dp1509
g62
(dp1510
sg71
g847
sg64
(lp1511
g57
(g78
g59
NtRp1512
(dp1513
g62
(dp1514
g82
g83
ssg71
g1508
sg64
(lp1515
S'server_protocol'
p1516
asbag57
(g78
g59
NtRp1517
(dp1518
g62
(dp1519
g89
g90
ssg71
g1508
sg64
(lp1520
S':'
asbag57
(g78
g59
NtRp1521
(dp1522
g62
(dp1523
sg71
g1508
sg64
(lp1524
g57
(g58
g59
NtRp1525
(dp1526
g62
(dp1527
g70
I4
ssg71
g1521
sg64
(lp1528
S'HTTP/1.1'
p1529
asbasbasbag57
(g73
g59
NtRp1530
(dp1531
g62
(dp1532
sg71
g847
sg64
(lp1533
g57
(g78
g59
NtRp1534
(dp1535
g62
(dp1536
g82
g83
ssg71
g1530
sg64
(lp1537
S'server_software'
p1538
asbag57
(g78
g59
NtRp1539
(dp1540
g62
(dp1541
g89
g90
ssg71
g1530
sg64
(lp1542
S':'
asbag57
(g78
g59
NtRp1543
(dp1544
g62
(dp1545
sg71
g1530
sg64
(lp1546
g57
(g58
g59
NtRp1547
(dp1548
g62
(dp1549
g70
I4
ssg71
g1543
sg64
(lp1550
S'Rocket 1.2.5'
p1551
asbasbasbag57
(g73
g59
NtRp1552
(dp1553
g62
(dp1554
sg71
g847
sg64
(lp1555
g57
(g78
g59
NtRp1556
(dp1557
g62
(dp1558
g82
g83
ssg71
g1552
sg64
(lp1559
S'web2py_path'
p1560
asbag57
(g78
g59
NtRp1561
(dp1562
g62
(dp1563
g89
g90
ssg71
g1552
sg64
(lp1564
S':'
asbag57
(g78
g59
NtRp1565
(dp1566
g62
(dp1567
sg71
g1552
sg64
(lp1568
g57
(g58
g59
NtRp1569
(dp1570
g62
(dp1571
g70
I4
ssg71
g1565
sg64
(lp1572
g894
asbasbasbag57
(g73
g59
NtRp1573
(dp1574
g62
(dp1575
sg71
g847
sg64
(lp1576
g57
(g78
g59
NtRp1577
(dp1578
g62
(dp1579
g82
g83
ssg71
g1573
sg64
(lp1580
S'web2py_version'
p1581
asbag57
(g78
g59
NtRp1582
(dp1583
g62
(dp1584
g89
g90
ssg71
g1573
sg64
(lp1585
S':'
asbag57
(g78
g59
NtRp1586
(dp1587
g62
(dp1588
sg71
g1573
sg64
(lp1589
g57
(g58
g59
NtRp1590
(dp1591
g62
(dp1592
g70
I4
ssg71
g1586
sg64
(lp1593
g57
(g66
g59
NtRp1594
(dp1595
g62
(dp1596
g70
I3
ssg71
Nsg64
(lp1597
g57
(g73
g59
NtRp1598
(dp1599
g62
(dp1600
sg71
g1594
sg64
(lp1601
g57
(g78
g59
NtRp1602
(dp1603
g62
(dp1604
sg71
g1598
sg64
(lp1605
g57
(g58
g59
NtRp1606
(dp1607
g62
(dp1608
g70
I3
ssg71
g1602
sg64
(lp1609
S'2'
asbasbasbag57
(g73
g59
NtRp1610
(dp1611
g62
(dp1612
sg71
g1594
sg64
(lp1613
g57
(g78
g59
NtRp1614
(dp1615
g62
(dp1616
sg71
g1610
sg64
(lp1617
g57
(g58
g59
NtRp1618
(dp1619
g62
(dp1620
g70
I3
ssg71
g1614
sg64
(lp1621
S'2'
asbasbasbag57
(g73
g59
NtRp1622
(dp1623
g62
(dp1624
sg71
g1594
sg64
(lp1625
g57
(g78
g59
NtRp1626
(dp1627
g62
(dp1628
sg71
g1622
sg64
(lp1629
g57
(g58
g59
NtRp1630
(dp1631
g62
(dp1632
g70
I3
ssg71
g1626
sg64
(lp1633
S'1'
asbasbasbag57
(g73
g59
NtRp1634
(dp1635
g62
(dp1636
sg71
g1594
sg64
(lp1637
g57
(g78
g59
NtRp1638
(dp1639
g62
(dp1640
sg71
g1634
sg64
(lp1641
g57
(g58
g59
NtRp1642
(dp1643
g62
(dp1644
g70
I3
ssg71
g1638
sg64
(lp1645
S'datetime.datetime(2012, 10, 21, 16, 57, 4)'
p1646
asbasbasbag57
(g73
g59
NtRp1647
(dp1648
g62
(dp1649
sg71
g1594
sg64
(lp1650
g57
(g78
g59
NtRp1651
(dp1652
g62
(dp1653
sg71
g1647
sg64
(lp1654
g57
(g58
g59
NtRp1655
(dp1656
g62
(dp1657
g70
I3
ssg71
g1651
sg64
(lp1658
S'stable'
p1659
asbasbasbasbasbasbasbag57
(g73
g59
NtRp1660
(dp1661
g62
(dp1662
sg71
g847
sg64
(lp1663
g57
(g78
g59
NtRp1664
(dp1665
g62
(dp1666
g82
g83
ssg71
g1660
sg64
(lp1667
S'wsgi_errors'
p1668
asbag57
(g78
g59
NtRp1669
(dp1670
g62
(dp1671
g89
g90
ssg71
g1660
sg64
(lp1672
S':'
asbag57
(g78
g59
NtRp1673
(dp1674
g62
(dp1675
sg71
g1660
sg64
(lp1676
g57
(g58
g59
NtRp1677
(dp1678
g62
(dp1679
g70
I4
ssg71
g1673
sg64
(lp1680
S"<open file '<stderr>', mode 'w' at 0x2b1211efd270>"
p1681
asbasbasbag57
(g73
g59
NtRp1682
(dp1683
g62
(dp1684
sg71
g847
sg64
(lp1685
g57
(g78
g59
NtRp1686
(dp1687
g62
(dp1688
g82
g83
ssg71
g1682
sg64
(lp1689
S'wsgi_file_wrapper'
p1690
asbag57
(g78
g59
NtRp1691
(dp1692
g62
(dp1693
g89
g90
ssg71
g1682
sg64
(lp1694
S':'
asbag57
(g78
g59
NtRp1695
(dp1696
g62
(dp1697
sg71
g1682
sg64
(lp1698
g57
(g58
g59
NtRp1699
(dp1700
g62
(dp1701
g70
I4
ssg71
g1695
sg64
(lp1702
S'<class wsgiref.util.FileWrapper at 0x8359a78>'
p1703
asbasbasbag57
(g73
g59
NtRp1704
(dp1705
g62
(dp1706
sg71
g847
sg64
(lp1707
g57
(g78
g59
NtRp1708
(dp1709
g62
(dp1710
g82
g83
ssg71
g1704
sg64
(lp1711
S'wsgi_input'
p1712
asbag57
(g78
g59
NtRp1713
(dp1714
g62
(dp1715
g89
g90
ssg71
g1704
sg64
(lp1716
S':'
asbag57
(g78
g59
NtRp1717
(dp1718
g62
(dp1719
sg71
g1704
sg64
(lp1720
g57
(g58
g59
NtRp1721
(dp1722
g62
(dp1723
g70
I4
ssg71
g1717
sg64
(lp1724
S'<socket._fileobject object at 0x96d2ad0>'
p1725
asbasbasbag57
(g73
g59
NtRp1726
(dp1727
g62
(dp1728
sg71
g847
sg64
(lp1729
g57
(g78
g59
NtRp1730
(dp1731
g62
(dp1732
g82
g83
ssg71
g1726
sg64
(lp1733
S'wsgi_multiprocess'
p1734
asbag57
(g78
g59
NtRp1735
(dp1736
g62
(dp1737
g89
g90
ssg71
g1726
sg64
(lp1738
S':'
asbag57
(g78
g59
NtRp1739
(dp1740
g62
(dp1741
sg71
g1726
sg64
(lp1742
g57
(g58
g59
NtRp1743
(dp1744
g62
(dp1745
g70
I4
ssg71
g1739
sg64
(lp1746
g100
asbasbasbag57
(g73
g59
NtRp1747
(dp1748
g62
(dp1749
sg71
g847
sg64
(lp1750
g57
(g78
g59
NtRp1751
(dp1752
g62
(dp1753
g82
g83
ssg71
g1747
sg64
(lp1754
S'wsgi_multithread'
p1755
asbag57
(g78
g59
NtRp1756
(dp1757
g62
(dp1758
g89
g90
ssg71
g1747
sg64
(lp1759
S':'
asbag57
(g78
g59
NtRp1760
(dp1761
g62
(dp1762
sg71
g1747
sg64
(lp1763
g57
(g58
g59
NtRp1764
(dp1765
g62
(dp1766
g70
I4
ssg71
g1760
sg64
(lp1767
S'True'
p1768
asbasbasbag57
(g73
g59
NtRp1769
(dp1770
g62
(dp1771
sg71
g847
sg64
(lp1772
g57
(g78
g59
NtRp1773
(dp1774
g62
(dp1775
g82
g83
ssg71
g1769
sg64
(lp1776
S'wsgi_run_once'
p1777
asbag57
(g78
g59
NtRp1778
(dp1779
g62
(dp1780
g89
g90
ssg71
g1769
sg64
(lp1781
S':'
asbag57
(g78
g59
NtRp1782
(dp1783
g62
(dp1784
sg71
g1769
sg64
(lp1785
g57
(g58
g59
NtRp1786
(dp1787
g62
(dp1788
g70
I4
ssg71
g1782
sg64
(lp1789
g100
asbasbasbag57
(g73
g59
NtRp1790
(dp1791
g62
(dp1792
sg71
g847
sg64
(lp1793
g57
(g78
g59
NtRp1794
(dp1795
g62
(dp1796
g82
g83
ssg71
g1790
sg64
(lp1797
S'wsgi_url_scheme'
p1798
asbag57
(g78
g59
NtRp1799
(dp1800
g62
(dp1801
g89
g90
ssg71
g1790
sg64
(lp1802
S':'
asbag57
(g78
g59
NtRp1803
(dp1804
g62
(dp1805
sg71
g1790
sg64
(lp1806
g57
(g58
g59
NtRp1807
(dp1808
g62
(dp1809
g70
I4
ssg71
g1803
sg64
(lp1810
S'http'
p1811
asbasbasbag57
(g73
g59
NtRp1812
(dp1813
g62
(dp1814
sg71
g847
sg64
(lp1815
g57
(g78
g59
NtRp1816
(dp1817
g62
(dp1818
g82
g83
ssg71
g1812
sg64
(lp1819
S'wsgi_version'
p1820
asbag57
(g78
g59
NtRp1821
(dp1822
g62
(dp1823
g89
g90
ssg71
g1812
sg64
(lp1824
S':'
asbag57
(g78
g59
NtRp1825
(dp1826
g62
(dp1827
sg71
g1812
sg64
(lp1828
g57
(g58
g59
NtRp1829
(dp1830
g62
(dp1831
g70
I4
ssg71
g1825
sg64
(lp1832
g57
(g66
g59
NtRp1833
(dp1834
g62
(dp1835
g70
I3
ssg71
Nsg64
(lp1836
g57
(g73
g59
NtRp1837
(dp1838
g62
(dp1839
sg71
g1833
sg64
(lp1840
g57
(g78
g59
NtRp1841
(dp1842
g62
(dp1843
sg71
g1837
sg64
(lp1844
g57
(g58
g59
NtRp1845
(dp1846
g62
(dp1847
g70
I3
ssg71
g1841
sg64
(lp1848
S'1'
asbasbasbag57
(g73
g59
NtRp1849
(dp1850
g62
(dp1851
sg71
g1833
sg64
(lp1852
g57
(g78
g59
NtRp1853
(dp1854
g62
(dp1855
sg71
g1849
sg64
(lp1856
g57
(g58
g59
NtRp1857
(dp1858
g62
(dp1859
g70
I3
ssg71
g1853
sg64
(lp1860
S'0'
asbasbasbasbasbasbasbasbasbasbasbag57
(g73
g59
NtRp1861
(dp1862
g62
(dp1863
sg71
g67
sg64
(lp1864
g57
(g78
g59
NtRp1865
(dp1866
g62
(dp1867
g82
g83
ssg71
g1861
sg64
(lp1868
S'extension'
p1869
asbag57
(g78
g59
NtRp1870
(dp1871
g62
(dp1872
g89
g90
ssg71
g1861
sg64
(lp1873
S':'
asbag57
(g78
g59
NtRp1874
(dp1875
g62
(dp1876
sg71
g1861
sg64
(lp1877
g57
(g58
g59
NtRp1878
(dp1879
g62
(dp1880
g70
I5
ssg71
g1874
sg64
(lp1881
S'html'
p1882
asbasbasbag57
(g73
g59
NtRp1883
(dp1884
g62
(dp1885
sg71
g67
sg64
(lp1886
g57
(g78
g59
NtRp1887
(dp1888
g62
(dp1889
g82
g83
ssg71
g1883
sg64
(lp1890
S'folder'
p1891
asbag57
(g78
g59
NtRp1892
(dp1893
g62
(dp1894
g89
g90
ssg71
g1883
sg64
(lp1895
S':'
asbag57
(g78
g59
NtRp1896
(dp1897
g62
(dp1898
sg71
g1883
sg64
(lp1899
g57
(g58
g59
NtRp1900
(dp1901
g62
(dp1902
g70
I5
ssg71
g1896
sg64
(lp1903
S'/home/xchen/web2py/applications/Betsy/'
p1904
asbasbasbag57
(g73
g59
NtRp1905
(dp1906
g62
(dp1907
sg71
g67
sg64
(lp1908
g57
(g78
g59
NtRp1909
(dp1910
g62
(dp1911
g82
g83
ssg71
g1905
sg64
(lp1912
S'function'
p1913
asbag57
(g78
g59
NtRp1914
(dp1915
g62
(dp1916
g89
g90
ssg71
g1905
sg64
(lp1917
S':'
asbag57
(g78
g59
NtRp1918
(dp1919
g62
(dp1920
sg71
g1905
sg64
(lp1921
g57
(g58
g59
NtRp1922
(dp1923
g62
(dp1924
g70
I5
ssg71
g1918
sg64
(lp1925
S'index'
p1926
asbasbasbag57
(g73
g59
NtRp1927
(dp1928
g62
(dp1929
sg71
g67
sg64
(lp1930
g57
(g78
g59
NtRp1931
(dp1932
g62
(dp1933
g82
g83
ssg71
g1927
sg64
(lp1934
S'get_vars'
p1935
asbag57
(g78
g59
NtRp1936
(dp1937
g62
(dp1938
g89
g90
ssg71
g1927
sg64
(lp1939
S':'
asbag57
(g78
g59
NtRp1940
(dp1941
g62
(dp1942
sg71
g1927
sg64
(lp1943
g57
(g58
g59
NtRp1944
(dp1945
g62
(dp1946
g70
I5
ssg71
g1940
sg64
(lp1947
g57
(g66
g59
NtRp1948
(dp1949
g62
(dp1950
g70
I4
ssg71
Nsg64
(lp1951
sbasbasbasbag57
(g73
g59
NtRp1952
(dp1953
g62
(dp1954
sg71
g67
sg64
(lp1955
g57
(g78
g59
NtRp1956
(dp1957
g62
(dp1958
g82
g83
ssg71
g1952
sg64
(lp1959
S'global_settings'
p1960
asbag57
(g78
g59
NtRp1961
(dp1962
g62
(dp1963
g89
g90
ssg71
g1952
sg64
(lp1964
S':'
asbag57
(g78
g59
NtRp1965
(dp1966
g62
(dp1967
sg71
g1952
sg64
(lp1968
g57
(g58
g59
NtRp1969
(dp1970
g62
(dp1971
g70
I5
ssg71
g1965
sg64
(lp1972
g57
(g66
g59
NtRp1973
(dp1974
g62
(dp1975
g70
I4
ssg71
Nsg64
(lp1976
g57
(g73
g59
NtRp1977
(dp1978
g62
(dp1979
sg71
g1973
sg64
(lp1980
g57
(g78
g59
NtRp1981
(dp1982
g62
(dp1983
g82
g83
ssg71
g1977
sg64
(lp1984
g859
asbag57
(g78
g59
NtRp1985
(dp1986
g62
(dp1987
g89
g90
ssg71
g1977
sg64
(lp1988
S':'
asbag57
(g78
g59
NtRp1989
(dp1990
g62
(dp1991
sg71
g1977
sg64
(lp1992
g57
(g58
g59
NtRp1993
(dp1994
g62
(dp1995
g70
I4
ssg71
g1989
sg64
(lp1996
S"set(['/home/xchen/web2py/applications/Betsy/', '/home/xchen/web2py/applications/dna/', '/home/xchen/web2py/applications/admin/'])"
p1997
asbasbasbag57
(g73
g59
NtRp1998
(dp1999
g62
(dp2000
sg71
g1973
sg64
(lp2001
g57
(g78
g59
NtRp2002
(dp2003
g62
(dp2004
g82
g83
ssg71
g1998
sg64
(lp2005
g881
asbag57
(g78
g59
NtRp2006
(dp2007
g62
(dp2008
g89
g90
ssg71
g1998
sg64
(lp2009
S':'
asbag57
(g78
g59
NtRp2010
(dp2011
g62
(dp2012
sg71
g1998
sg64
(lp2013
g57
(g58
g59
NtRp2014
(dp2015
g62
(dp2016
g70
I4
ssg71
g2010
sg64
(lp2017
g894
asbasbasbag57
(g73
g59
NtRp2018
(dp2019
g62
(dp2020
sg71
g1973
sg64
(lp2021
g57
(g78
g59
NtRp2022
(dp2023
g62
(dp2024
g82
g83
ssg71
g2018
sg64
(lp2025
g903
asbag57
(g78
g59
NtRp2026
(dp2027
g62
(dp2028
g89
g90
ssg71
g2018
sg64
(lp2029
S':'
asbag57
(g78
g59
NtRp2030
(dp2031
g62
(dp2032
sg71
g2018
sg64
(lp2033
g57
(g58
g59
NtRp2034
(dp2035
g62
(dp2036
g70
I4
ssg71
g2030
sg64
(lp2037
g57
(g66
g59
NtRp2038
(dp2039
g62
(dp2040
g70
I3
ssg71
Nsg64
(lp2041
sbasbasbasbag57
(g73
g59
NtRp2042
(dp2043
g62
(dp2044
sg71
g1973
sg64
(lp2045
g57
(g78
g59
NtRp2046
(dp2047
g62
(dp2048
g82
g83
ssg71
g2042
sg64
(lp2049
g928
asbag57
(g78
g59
NtRp2050
(dp2051
g62
(dp2052
g89
g90
ssg71
g2042
sg64
(lp2053
S':'
asbag57
(g78
g59
NtRp2054
(dp2055
g62
(dp2056
sg71
g2042
sg64
(lp2057
g57
(g58
g59
NtRp2058
(dp2059
g62
(dp2060
g70
I4
ssg71
g2054
sg64
(lp2061
S"<Values at 0x83fae18: {'verbose': False, 'ip': '127.0.0.1', 'with_scheduler': False, 'ips': [], 'shutdown_timeout': 5, 'taskbar': False, 'port': 8080, 'maxthreads': None, 'softcron': False, 'server_name': 'unicron.shis.uth.tmc.edu', 'bpython': False, 'nogui': False, 'pid_filename': 'httpserver.pid', 'extcron': False, 'runcron': False, 'run_system_tests': False, 'test': None, 'folder': '/home/xchen/web2py', 'config': '', 'minthreads': None, 'winservice': '', 'shell': None, 'run': '', 'log_filename': 'httpserver.log', 'debuglevel': 30, 'args': [''], 'socket_timeout': 5, 'ssl_ca_certificate': None, 'scheduler': None, 'profiler_filename': None, 'ssl_private_key': '', 'scheduler_groups': None, 'password': 'baby2008', 'request_queue_size': 5, 'ssl_certificate': '', 'cronjob': False, 'numthreads': None, 'quiet': False, 'interfaces': None, 'import_models': False, 'timeout': 10, 'plain': False, 'nobanner': False}>"
p2062
asbasbasbag57
(g73
g59
NtRp2063
(dp2064
g62
(dp2065
sg71
g1973
sg64
(lp2066
g57
(g78
g59
NtRp2067
(dp2068
g62
(dp2069
g82
g83
ssg71
g2063
sg64
(lp2070
g950
asbag57
(g78
g59
NtRp2071
(dp2072
g62
(dp2073
g89
g90
ssg71
g2063
sg64
(lp2074
S':'
asbag57
(g78
g59
NtRp2075
(dp2076
g62
(dp2077
sg71
g2063
sg64
(lp2078
g57
(g58
g59
NtRp2079
(dp2080
g62
(dp2081
g70
I4
ssg71
g2075
sg64
(lp2082
S'set([])'
p2083
asbasbasbag57
(g73
g59
NtRp2084
(dp2085
g62
(dp2086
sg71
g1973
sg64
(lp2087
g57
(g78
g59
NtRp2088
(dp2089
g62
(dp2090
g82
g83
ssg71
g2084
sg64
(lp2091
g972
asbag57
(g78
g59
NtRp2092
(dp2093
g62
(dp2094
g89
g90
ssg71
g2084
sg64
(lp2095
S':'
asbag57
(g78
g59
NtRp2096
(dp2097
g62
(dp2098
sg71
g2084
sg64
(lp2099
g57
(g58
g59
NtRp2100
(dp2101
g62
(dp2102
g70
I4
ssg71
g2096
sg64
(lp2103
g100
asbasbasbag57
(g73
g59
NtRp2104
(dp2105
g62
(dp2106
sg71
g1973
sg64
(lp2107
g57
(g78
g59
NtRp2108
(dp2109
g62
(dp2110
g82
g83
ssg71
g2104
sg64
(lp2111
g993
asbag57
(g78
g59
NtRp2112
(dp2113
g62
(dp2114
g89
g90
ssg71
g2104
sg64
(lp2115
S':'
asbag57
(g78
g59
NtRp2116
(dp2117
g62
(dp2118
sg71
g2104
sg64
(lp2119
g57
(g58
g59
NtRp2120
(dp2121
g62
(dp2122
g70
I4
ssg71
g2116
sg64
(lp2123
g1006
asbasbasbag57
(g73
g59
NtRp2124
(dp2125
g62
(dp2126
sg71
g1973
sg64
(lp2127
g57
(g78
g59
NtRp2128
(dp2129
g62
(dp2130
g82
g83
ssg71
g2124
sg64
(lp2131
g1191
asbag57
(g78
g59
NtRp2132
(dp2133
g62
(dp2134
g89
g90
ssg71
g2124
sg64
(lp2135
S':'
asbag57
(g78
g59
NtRp2136
(dp2137
g62
(dp2138
sg71
g2124
sg64
(lp2139
g57
(g58
g59
NtRp2140
(dp2141
g62
(dp2142
g70
I4
ssg71
g2136
sg64
(lp2143
g100
asbasbasbag57
(g73
g59
NtRp2144
(dp2145
g62
(dp2146
sg71
g1973
sg64
(lp2147
g57
(g78
g59
NtRp2148
(dp2149
g62
(dp2150
g82
g83
ssg71
g2144
sg64
(lp2151
g1212
asbag57
(g78
g59
NtRp2152
(dp2153
g62
(dp2154
g89
g90
ssg71
g2144
sg64
(lp2155
S':'
asbag57
(g78
g59
NtRp2156
(dp2157
g62
(dp2158
sg71
g2144
sg64
(lp2159
g57
(g58
g59
NtRp2160
(dp2161
g62
(dp2162
g70
I4
ssg71
g2156
sg64
(lp2163
g100
asbasbasbag57
(g73
g59
NtRp2164
(dp2165
g62
(dp2166
sg71
g1973
sg64
(lp2167
g57
(g78
g59
NtRp2168
(dp2169
g62
(dp2170
g82
g83
ssg71
g2164
sg64
(lp2171
g1233
asbag57
(g78
g59
NtRp2172
(dp2173
g62
(dp2174
g89
g90
ssg71
g2164
sg64
(lp2175
S':'
asbag57
(g78
g59
NtRp2176
(dp2177
g62
(dp2178
sg71
g2164
sg64
(lp2179
g57
(g58
g59
NtRp2180
(dp2181
g62
(dp2182
g70
I4
ssg71
g2176
sg64
(lp2183
g57
(g66
g59
NtRp2184
(dp2185
g62
(dp2186
g70
I3
ssg71
Nsg64
(lp2187
g57
(g73
g59
NtRp2188
(dp2189
g62
(dp2190
sg71
g2184
sg64
(lp2191
g57
(g78
g59
NtRp2192
(dp2193
g62
(dp2194
sg71
g2188
sg64
(lp2195
g57
(g58
g59
NtRp2196
(dp2197
g62
(dp2198
g70
I3
ssg71
g2192
sg64
(lp2199
g1262
asbasbasbag57
(g73
g59
NtRp2200
(dp2201
g62
(dp2202
sg71
g2184
sg64
(lp2203
g57
(g78
g59
NtRp2204
(dp2205
g62
(dp2206
sg71
g2200
sg64
(lp2207
g57
(g58
g59
NtRp2208
(dp2209
g62
(dp2210
g70
I3
ssg71
g2204
sg64
(lp2211
g1275
asbasbasbag57
(g73
g59
NtRp2212
(dp2213
g62
(dp2214
sg71
g2184
sg64
(lp2215
g57
(g78
g59
NtRp2216
(dp2217
g62
(dp2218
sg71
g2212
sg64
(lp2219
g57
(g58
g59
NtRp2220
(dp2221
g62
(dp2222
g70
I3
ssg71
g2216
sg64
(lp2223
g1288
asbasbasbag57
(g73
g59
NtRp2224
(dp2225
g62
(dp2226
sg71
g2184
sg64
(lp2227
g57
(g78
g59
NtRp2228
(dp2229
g62
(dp2230
sg71
g2224
sg64
(lp2231
g57
(g58
g59
NtRp2232
(dp2233
g62
(dp2234
g70
I3
ssg71
g2228
sg64
(lp2235
g1301
asbasbasbag57
(g73
g59
NtRp2236
(dp2237
g62
(dp2238
sg71
g2184
sg64
(lp2239
g57
(g78
g59
NtRp2240
(dp2241
g62
(dp2242
sg71
g2236
sg64
(lp2243
g57
(g58
g59
NtRp2244
(dp2245
g62
(dp2246
g70
I3
ssg71
g2240
sg64
(lp2247
g1314
asbasbasbasbasbasbasbag57
(g73
g59
NtRp2248
(dp2249
g62
(dp2250
sg71
g1973
sg64
(lp2251
g57
(g78
g59
NtRp2252
(dp2253
g62
(dp2254
g82
g83
ssg71
g2248
sg64
(lp2255
g1581
asbag57
(g78
g59
NtRp2256
(dp2257
g62
(dp2258
g89
g90
ssg71
g2248
sg64
(lp2259
S':'
asbag57
(g78
g59
NtRp2260
(dp2261
g62
(dp2262
sg71
g2248
sg64
(lp2263
g57
(g58
g59
NtRp2264
(dp2265
g62
(dp2266
g70
I4
ssg71
g2260
sg64
(lp2267
g57
(g66
g59
NtRp2268
(dp2269
g62
(dp2270
g70
I3
ssg71
Nsg64
(lp2271
g57
(g73
g59
NtRp2272
(dp2273
g62
(dp2274
sg71
g2268
sg64
(lp2275
g57
(g78
g59
NtRp2276
(dp2277
g62
(dp2278
sg71
g2272
sg64
(lp2279
g57
(g58
g59
NtRp2280
(dp2281
g62
(dp2282
g70
I3
ssg71
g2276
sg64
(lp2283
S'2'
asbasbasbag57
(g73
g59
NtRp2284
(dp2285
g62
(dp2286
sg71
g2268
sg64
(lp2287
g57
(g78
g59
NtRp2288
(dp2289
g62
(dp2290
sg71
g2284
sg64
(lp2291
g57
(g58
g59
NtRp2292
(dp2293
g62
(dp2294
g70
I3
ssg71
g2288
sg64
(lp2295
S'2'
asbasbasbag57
(g73
g59
NtRp2296
(dp2297
g62
(dp2298
sg71
g2268
sg64
(lp2299
g57
(g78
g59
NtRp2300
(dp2301
g62
(dp2302
sg71
g2296
sg64
(lp2303
g57
(g58
g59
NtRp2304
(dp2305
g62
(dp2306
g70
I3
ssg71
g2300
sg64
(lp2307
S'1'
asbasbasbag57
(g73
g59
NtRp2308
(dp2309
g62
(dp2310
sg71
g2268
sg64
(lp2311
g57
(g78
g59
NtRp2312
(dp2313
g62
(dp2314
sg71
g2308
sg64
(lp2315
g57
(g58
g59
NtRp2316
(dp2317
g62
(dp2318
g70
I3
ssg71
g2312
sg64
(lp2319
S'datetime.datetime(2012, 10, 21, 16, 57, 4)'
p2320
asbasbasbag57
(g73
g59
NtRp2321
(dp2322
g62
(dp2323
sg71
g2268
sg64
(lp2324
g57
(g78
g59
NtRp2325
(dp2326
g62
(dp2327
sg71
g2321
sg64
(lp2328
g57
(g58
g59
NtRp2329
(dp2330
g62
(dp2331
g70
I3
ssg71
g2325
sg64
(lp2332
g1659
asbasbasbasbasbasbasbasbasbasbasbag57
(g73
g59
NtRp2333
(dp2334
g62
(dp2335
sg71
g67
sg64
(lp2336
g57
(g78
g59
NtRp2337
(dp2338
g62
(dp2339
g82
g83
ssg71
g2333
sg64
(lp2340
S'is_https'
p2341
asbag57
(g78
g59
NtRp2342
(dp2343
g62
(dp2344
g89
g90
ssg71
g2333
sg64
(lp2345
S':'
asbag57
(g78
g59
NtRp2346
(dp2347
g62
(dp2348
sg71
g2333
sg64
(lp2349
g57
(g58
g59
NtRp2350
(dp2351
g62
(dp2352
g70
I5
ssg71
g2346
sg64
(lp2353
g100
asbasbasbag57
(g73
g59
NtRp2354
(dp2355
g62
(dp2356
sg71
g67
sg64
(lp2357
g57
(g78
g59
NtRp2358
(dp2359
g62
(dp2360
g82
g83
ssg71
g2354
sg64
(lp2361
S'is_local'
p2362
asbag57
(g78
g59
NtRp2363
(dp2364
g62
(dp2365
g89
g90
ssg71
g2354
sg64
(lp2366
S':'
asbag57
(g78
g59
NtRp2367
(dp2368
g62
(dp2369
sg71
g2354
sg64
(lp2370
g57
(g58
g59
NtRp2371
(dp2372
g62
(dp2373
g70
I5
ssg71
g2367
sg64
(lp2374
g1768
asbasbasbag57
(g73
g59
NtRp2375
(dp2376
g62
(dp2377
sg71
g67
sg64
(lp2378
g57
(g78
g59
NtRp2379
(dp2380
g62
(dp2381
g82
g83
ssg71
g2375
sg64
(lp2382
S'is_restful'
p2383
asbag57
(g78
g59
NtRp2384
(dp2385
g62
(dp2386
g89
g90
ssg71
g2375
sg64
(lp2387
S':'
asbag57
(g78
g59
NtRp2388
(dp2389
g62
(dp2390
sg71
g2375
sg64
(lp2391
g57
(g58
g59
NtRp2392
(dp2393
g62
(dp2394
g70
I5
ssg71
g2388
sg64
(lp2395
g100
asbasbasbag57
(g73
g59
NtRp2396
(dp2397
g62
(dp2398
sg71
g67
sg64
(lp2399
g57
(g78
g59
NtRp2400
(dp2401
g62
(dp2402
g82
g83
ssg71
g2396
sg64
(lp2403
S'now'
p2404
asbag57
(g78
g59
NtRp2405
(dp2406
g62
(dp2407
g89
g90
ssg71
g2396
sg64
(lp2408
S':'
asbag57
(g78
g59
NtRp2409
(dp2410
g62
(dp2411
sg71
g2396
sg64
(lp2412
g57
(g58
g59
NtRp2413
(dp2414
g62
(dp2415
g70
I5
ssg71
g2409
sg64
(lp2416
S'datetime.datetime(2013, 2, 20, 11, 55, 28, 248811)'
p2417
asbasbasbag57
(g73
g59
NtRp2418
(dp2419
g62
(dp2420
sg71
g67
sg64
(lp2421
g57
(g78
g59
NtRp2422
(dp2423
g62
(dp2424
g82
g83
ssg71
g2418
sg64
(lp2425
S'post_vars'
p2426
asbag57
(g78
g59
NtRp2427
(dp2428
g62
(dp2429
g89
g90
ssg71
g2418
sg64
(lp2430
S':'
asbag57
(g78
g59
NtRp2431
(dp2432
g62
(dp2433
sg71
g2418
sg64
(lp2434
g57
(g58
g59
NtRp2435
(dp2436
g62
(dp2437
g70
I5
ssg71
g2431
sg64
(lp2438
g57
(g66
g59
NtRp2439
(dp2440
g62
(dp2441
g70
I4
ssg71
Nsg64
(lp2442
sbasbasbasbag57
(g73
g59
NtRp2443
(dp2444
g62
(dp2445
sg71
g67
sg64
(lp2446
g57
(g78
g59
NtRp2447
(dp2448
g62
(dp2449
g82
g83
ssg71
g2443
sg64
(lp2450
S'raw_args'
p2451
asbag57
(g78
g59
NtRp2452
(dp2453
g62
(dp2454
g89
g90
ssg71
g2443
sg64
(lp2455
S':'
asbag57
(g78
g59
NtRp2456
(dp2457
g62
(dp2458
sg71
g2443
sg64
(lp2459
g57
(g58
g59
NtRp2460
(dp2461
g62
(dp2462
g70
I5
ssg71
g2456
sg64
(lp2463
S''
asbasbasbag57
(g73
g59
NtRp2464
(dp2465
g62
(dp2466
sg71
g67
sg64
(lp2467
g57
(g78
g59
NtRp2468
(dp2469
g62
(dp2470
g82
g83
ssg71
g2464
sg64
(lp2471
S'raw_extension'
p2472
asbag57
(g78
g59
NtRp2473
(dp2474
g62
(dp2475
g89
g90
ssg71
g2464
sg64
(lp2476
S':'
asbag57
(g78
g59
NtRp2477
(dp2478
g62
(dp2479
sg71
g2464
sg64
(lp2480
g57
(g58
g59
NtRp2481
(dp2482
g62
(dp2483
g70
I5
ssg71
g2477
sg64
(lp2484
S'None'
p2485
asbasbasbag57
(g73
g59
NtRp2486
(dp2487
g62
(dp2488
sg71
g67
sg64
(lp2489
g57
(g78
g59
NtRp2490
(dp2491
g62
(dp2492
g82
g83
ssg71
g2486
sg64
(lp2493
S'url'
p2494
asbag57
(g78
g59
NtRp2495
(dp2496
g62
(dp2497
g89
g90
ssg71
g2486
sg64
(lp2498
S':'
asbag57
(g78
g59
NtRp2499
(dp2500
g62
(dp2501
sg71
g2486
sg64
(lp2502
g57
(g58
g59
NtRp2503
(dp2504
g62
(dp2505
g70
I5
ssg71
g2499
sg64
(lp2506
g1336
asbasbasbag57
(g73
g59
NtRp2507
(dp2508
g62
(dp2509
sg71
g67
sg64
(lp2510
g57
(g78
g59
NtRp2511
(dp2512
g62
(dp2513
g82
g83
ssg71
g2507
sg64
(lp2514
S'utcnow'
p2515
asbag57
(g78
g59
NtRp2516
(dp2517
g62
(dp2518
g89
g90
ssg71
g2507
sg64
(lp2519
S':'
asbag57
(g78
g59
NtRp2520
(dp2521
g62
(dp2522
sg71
g2507
sg64
(lp2523
g57
(g58
g59
NtRp2524
(dp2525
g62
(dp2526
g70
I5
ssg71
g2520
sg64
(lp2527
S'datetime.datetime(2013, 2, 20, 17, 55, 28, 248819)'
p2528
asbasbasbag57
(g73
g59
NtRp2529
(dp2530
g62
(dp2531
sg71
g67
sg64
(lp2532
g57
(g78
g59
NtRp2533
(dp2534
g62
(dp2535
g82
g83
ssg71
g2529
sg64
(lp2536
S'uuid'
p2537
asbag57
(g78
g59
NtRp2538
(dp2539
g62
(dp2540
g89
g90
ssg71
g2529
sg64
(lp2541
S':'
asbag57
(g78
g59
NtRp2542
(dp2543
g62
(dp2544
sg71
g2529
sg64
(lp2545
g57
(g58
g59
NtRp2546
(dp2547
g62
(dp2548
g70
I5
ssg71
g2542
sg64
(lp2549
S'Betsy/127.0.0.1.2013-02-20.11-55-28.dff6346d-d966-4ea6-9665-76debd7bc05b'
p2550
asbasbasbag57
(g73
g59
NtRp2551
(dp2552
g62
(dp2553
sg71
g67
sg64
(lp2554
g57
(g78
g59
NtRp2555
(dp2556
g62
(dp2557
g82
g83
ssg71
g2551
sg64
(lp2558
S'vars'
p2559
asbag57
(g78
g59
NtRp2560
(dp2561
g62
(dp2562
g89
g90
ssg71
g2551
sg64
(lp2563
S':'
asbag57
(g78
g59
NtRp2564
(dp2565
g62
(dp2566
sg71
g2551
sg64
(lp2567
g57
(g58
g59
NtRp2568
(dp2569
g62
(dp2570
g70
I5
ssg71
g2564
sg64
(lp2571
g57
(g66
g59
NtRp2572
(dp2573
g62
(dp2574
g70
I4
ssg71
Nsg64
(lp2575
sbasbasbasbag57
(g73
g59
NtRp2576
(dp2577
g62
(dp2578
sg71
g67
sg64
(lp2579
g57
(g78
g59
NtRp2580
(dp2581
g62
(dp2582
g82
g83
ssg71
g2576
sg64
(lp2583
S'wsgi'
p2584
asbag57
(g78
g59
NtRp2585
(dp2586
g62
(dp2587
g89
g90
ssg71
g2576
sg64
(lp2588
S':'
asbag57
(g78
g59
NtRp2589
(dp2590
g62
(dp2591
sg71
g2576
sg64
(lp2592
g57
(g58
g59
NtRp2593
(dp2594
g62
(dp2595
g70
I5
ssg71
g2589
sg64
(lp2596
g57
(g66
g59
NtRp2597
(dp2598
g62
(dp2599
g70
I4
ssg71
Nsg64
(lp2600
g57
(g73
g59
NtRp2601
(dp2602
g62
(dp2603
sg71
g2597
sg64
(lp2604
g57
(g78
g59
NtRp2605
(dp2606
g62
(dp2607
g82
g83
ssg71
g2601
sg64
(lp2608
S'environ'
p2609
asbag57
(g78
g59
NtRp2610
(dp2611
g62
(dp2612
g89
g90
ssg71
g2601
sg64
(lp2613
S':'
asbag57
(g78
g59
NtRp2614
(dp2615
g62
(dp2616
sg71
g2601
sg64
(lp2617
g57
(g58
g59
NtRp2618
(dp2619
g62
(dp2620
g70
I4
ssg71
g2614
sg64
(lp2621
g57
(g66
g59
NtRp2622
(dp2623
g62
(dp2624
g70
I3
ssg71
Nsg64
(lp2625
g57
(g73
g59
NtRp2626
(dp2627
g62
(dp2628
sg71
g2622
sg64
(lp2629
g57
(g78
g59
NtRp2630
(dp2631
g62
(dp2632
g82
g83
ssg71
g2626
sg64
(lp2633
S'HTTP_ACCEPT'
p2634
asbag57
(g78
g59
NtRp2635
(dp2636
g62
(dp2637
g89
g90
ssg71
g2626
sg64
(lp2638
S':'
asbag57
(g78
g59
NtRp2639
(dp2640
g62
(dp2641
sg71
g2626
sg64
(lp2642
g57
(g58
g59
NtRp2643
(dp2644
g62
(dp2645
g70
I3
ssg71
g2639
sg64
(lp2646
g1028
asbasbasbag57
(g73
g59
NtRp2647
(dp2648
g62
(dp2649
sg71
g2622
sg64
(lp2650
g57
(g78
g59
NtRp2651
(dp2652
g62
(dp2653
g82
g83
ssg71
g2647
sg64
(lp2654
S'HTTP_ACCEPT_ENCODING'
p2655
asbag57
(g78
g59
NtRp2656
(dp2657
g62
(dp2658
g89
g90
ssg71
g2647
sg64
(lp2659
S':'
asbag57
(g78
g59
NtRp2660
(dp2661
g62
(dp2662
sg71
g2647
sg64
(lp2663
g57
(g58
g59
NtRp2664
(dp2665
g62
(dp2666
g70
I3
ssg71
g2660
sg64
(lp2667
g1050
asbasbasbag57
(g73
g59
NtRp2668
(dp2669
g62
(dp2670
sg71
g2622
sg64
(lp2671
g57
(g78
g59
NtRp2672
(dp2673
g62
(dp2674
g82
g83
ssg71
g2668
sg64
(lp2675
S'HTTP_ACCEPT_LANGUAGE'
p2676
asbag57
(g78
g59
NtRp2677
(dp2678
g62
(dp2679
g89
g90
ssg71
g2668
sg64
(lp2680
S':'
asbag57
(g78
g59
NtRp2681
(dp2682
g62
(dp2683
sg71
g2668
sg64
(lp2684
g57
(g58
g59
NtRp2685
(dp2686
g62
(dp2687
g70
I3
ssg71
g2681
sg64
(lp2688
g1072
asbasbasbag57
(g73
g59
NtRp2689
(dp2690
g62
(dp2691
sg71
g2622
sg64
(lp2692
g57
(g78
g59
NtRp2693
(dp2694
g62
(dp2695
g82
g83
ssg71
g2689
sg64
(lp2696
S'HTTP_CACHE_CONTROL'
p2697
asbag57
(g78
g59
NtRp2698
(dp2699
g62
(dp2700
g89
g90
ssg71
g2689
sg64
(lp2701
S':'
asbag57
(g78
g59
NtRp2702
(dp2703
g62
(dp2704
sg71
g2689
sg64
(lp2705
g57
(g58
g59
NtRp2706
(dp2707
g62
(dp2708
g70
I3
ssg71
g2702
sg64
(lp2709
g1094
asbasbasbag57
(g73
g59
NtRp2710
(dp2711
g62
(dp2712
sg71
g2622
sg64
(lp2713
g57
(g78
g59
NtRp2714
(dp2715
g62
(dp2716
g82
g83
ssg71
g2710
sg64
(lp2717
S'HTTP_CONNECTION'
p2718
asbag57
(g78
g59
NtRp2719
(dp2720
g62
(dp2721
g89
g90
ssg71
g2710
sg64
(lp2722
S':'
asbag57
(g78
g59
NtRp2723
(dp2724
g62
(dp2725
sg71
g2710
sg64
(lp2726
g57
(g58
g59
NtRp2727
(dp2728
g62
(dp2729
g70
I3
ssg71
g2723
sg64
(lp2730
g1116
asbasbasbag57
(g73
g59
NtRp2731
(dp2732
g62
(dp2733
sg71
g2622
sg64
(lp2734
g57
(g78
g59
NtRp2735
(dp2736
g62
(dp2737
g82
g83
ssg71
g2731
sg64
(lp2738
S'HTTP_COOKIE'
p2739
asbag57
(g78
g59
NtRp2740
(dp2741
g62
(dp2742
g89
g90
ssg71
g2731
sg64
(lp2743
S':'
asbag57
(g78
g59
NtRp2744
(dp2745
g62
(dp2746
sg71
g2731
sg64
(lp2747
g57
(g58
g59
NtRp2748
(dp2749
g62
(dp2750
g70
I3
ssg71
g2744
sg64
(lp2751
g1138
asbasbasbag57
(g73
g59
NtRp2752
(dp2753
g62
(dp2754
sg71
g2622
sg64
(lp2755
g57
(g78
g59
NtRp2756
(dp2757
g62
(dp2758
g82
g83
ssg71
g2752
sg64
(lp2759
S'HTTP_HOST'
p2760
asbag57
(g78
g59
NtRp2761
(dp2762
g62
(dp2763
g89
g90
ssg71
g2752
sg64
(lp2764
S':'
asbag57
(g78
g59
NtRp2765
(dp2766
g62
(dp2767
sg71
g2752
sg64
(lp2768
g57
(g58
g59
NtRp2769
(dp2770
g62
(dp2771
g70
I3
ssg71
g2765
sg64
(lp2772
g1160
asbasbasbag57
(g73
g59
NtRp2773
(dp2774
g62
(dp2775
sg71
g2622
sg64
(lp2776
g57
(g78
g59
NtRp2777
(dp2778
g62
(dp2779
g82
g83
ssg71
g2773
sg64
(lp2780
S'HTTP_USER_AGENT'
p2781
asbag57
(g78
g59
NtRp2782
(dp2783
g62
(dp2784
g89
g90
ssg71
g2773
sg64
(lp2785
S':'
asbag57
(g78
g59
NtRp2786
(dp2787
g62
(dp2788
sg71
g2773
sg64
(lp2789
g57
(g58
g59
NtRp2790
(dp2791
g62
(dp2792
g70
I3
ssg71
g2786
sg64
(lp2793
g1182
asbasbasbag57
(g73
g59
NtRp2794
(dp2795
g62
(dp2796
sg71
g2622
sg64
(lp2797
g57
(g78
g59
NtRp2798
(dp2799
g62
(dp2800
g82
g83
ssg71
g2794
sg64
(lp2801
S'PATH_INFO'
p2802
asbag57
(g78
g59
NtRp2803
(dp2804
g62
(dp2805
g89
g90
ssg71
g2794
sg64
(lp2806
S':'
asbag57
(g78
g59
NtRp2807
(dp2808
g62
(dp2809
sg71
g2794
sg64
(lp2810
g57
(g58
g59
NtRp2811
(dp2812
g62
(dp2813
g70
I3
ssg71
g2807
sg64
(lp2814
g1336
asbasbasbag57
(g73
g59
NtRp2815
(dp2816
g62
(dp2817
sg71
g2622
sg64
(lp2818
g57
(g78
g59
NtRp2819
(dp2820
g62
(dp2821
g82
g83
ssg71
g2815
sg64
(lp2822
S'QUERY_STRING'
p2823
asbag57
(g78
g59
NtRp2824
(dp2825
g62
(dp2826
g89
g90
ssg71
g2815
sg64
(lp2827
S':'
asbag57
(g78
g59
NtRp2828
(dp2829
g62
(dp2830
sg71
g2815
sg64
(lp2831
g57
(g58
g59
NtRp2832
(dp2833
g62
(dp2834
g70
I3
ssg71
g2828
sg64
(lp2835
S''
asbasbasbag57
(g73
g59
NtRp2836
(dp2837
g62
(dp2838
sg71
g2622
sg64
(lp2839
g57
(g78
g59
NtRp2840
(dp2841
g62
(dp2842
g82
g83
ssg71
g2836
sg64
(lp2843
S'REMOTE_ADDR'
p2844
asbag57
(g78
g59
NtRp2845
(dp2846
g62
(dp2847
g89
g90
ssg71
g2836
sg64
(lp2848
S':'
asbag57
(g78
g59
NtRp2849
(dp2850
g62
(dp2851
sg71
g2836
sg64
(lp2852
g57
(g58
g59
NtRp2853
(dp2854
g62
(dp2855
g70
I3
ssg71
g2849
sg64
(lp2856
g212
asbasbasbag57
(g73
g59
NtRp2857
(dp2858
g62
(dp2859
sg71
g2622
sg64
(lp2860
g57
(g78
g59
NtRp2861
(dp2862
g62
(dp2863
g82
g83
ssg71
g2857
sg64
(lp2864
S'REMOTE_PORT'
p2865
asbag57
(g78
g59
NtRp2866
(dp2867
g62
(dp2868
g89
g90
ssg71
g2857
sg64
(lp2869
S':'
asbag57
(g78
g59
NtRp2870
(dp2871
g62
(dp2872
sg71
g2857
sg64
(lp2873
g57
(g58
g59
NtRp2874
(dp2875
g62
(dp2876
g70
I3
ssg71
g2870
sg64
(lp2877
g1400
asbasbasbag57
(g73
g59
NtRp2878
(dp2879
g62
(dp2880
sg71
g2622
sg64
(lp2881
g57
(g78
g59
NtRp2882
(dp2883
g62
(dp2884
g82
g83
ssg71
g2878
sg64
(lp2885
S'REQUEST_METHOD'
p2886
asbag57
(g78
g59
NtRp2887
(dp2888
g62
(dp2889
g89
g90
ssg71
g2878
sg64
(lp2890
S':'
asbag57
(g78
g59
NtRp2891
(dp2892
g62
(dp2893
sg71
g2878
sg64
(lp2894
g57
(g58
g59
NtRp2895
(dp2896
g62
(dp2897
g70
I3
ssg71
g2891
sg64
(lp2898
g1422
asbasbasbag57
(g73
g59
NtRp2899
(dp2900
g62
(dp2901
sg71
g2622
sg64
(lp2902
g57
(g78
g59
NtRp2903
(dp2904
g62
(dp2905
g82
g83
ssg71
g2899
sg64
(lp2906
S'REQUEST_URI'
p2907
asbag57
(g78
g59
NtRp2908
(dp2909
g62
(dp2910
g89
g90
ssg71
g2899
sg64
(lp2911
S':'
asbag57
(g78
g59
NtRp2912
(dp2913
g62
(dp2914
sg71
g2899
sg64
(lp2915
g57
(g58
g59
NtRp2916
(dp2917
g62
(dp2918
g70
I3
ssg71
g2912
sg64
(lp2919
g1336
asbasbasbag57
(g73
g59
NtRp2920
(dp2921
g62
(dp2922
sg71
g2622
sg64
(lp2923
g57
(g78
g59
NtRp2924
(dp2925
g62
(dp2926
g82
g83
ssg71
g2920
sg64
(lp2927
S'SCRIPT_NAME'
p2928
asbag57
(g78
g59
NtRp2929
(dp2930
g62
(dp2931
g89
g90
ssg71
g2920
sg64
(lp2932
S':'
asbag57
(g78
g59
NtRp2933
(dp2934
g62
(dp2935
sg71
g2920
sg64
(lp2936
g57
(g58
g59
NtRp2937
(dp2938
g62
(dp2939
g70
I3
ssg71
g2933
sg64
(lp2940
S''
asbasbasbag57
(g73
g59
NtRp2941
(dp2942
g62
(dp2943
sg71
g2622
sg64
(lp2944
g57
(g78
g59
NtRp2945
(dp2946
g62
(dp2947
g82
g83
ssg71
g2941
sg64
(lp2948
S'SERVER_NAME'
p2949
asbag57
(g78
g59
NtRp2950
(dp2951
g62
(dp2952
g89
g90
ssg71
g2941
sg64
(lp2953
S':'
asbag57
(g78
g59
NtRp2954
(dp2955
g62
(dp2956
sg71
g2941
sg64
(lp2957
g57
(g58
g59
NtRp2958
(dp2959
g62
(dp2960
g70
I3
ssg71
g2954
sg64
(lp2961
g1301
asbasbasbag57
(g73
g59
NtRp2962
(dp2963
g62
(dp2964
sg71
g2622
sg64
(lp2965
g57
(g78
g59
NtRp2966
(dp2967
g62
(dp2968
g82
g83
ssg71
g2962
sg64
(lp2969
S'SERVER_PORT'
p2970
asbag57
(g78
g59
NtRp2971
(dp2972
g62
(dp2973
g89
g90
ssg71
g2962
sg64
(lp2974
S':'
asbag57
(g78
g59
NtRp2975
(dp2976
g62
(dp2977
sg71
g2962
sg64
(lp2978
g57
(g58
g59
NtRp2979
(dp2980
g62
(dp2981
g70
I3
ssg71
g2975
sg64
(lp2982
g1507
asbasbasbag57
(g73
g59
NtRp2983
(dp2984
g62
(dp2985
sg71
g2622
sg64
(lp2986
g57
(g78
g59
NtRp2987
(dp2988
g62
(dp2989
g82
g83
ssg71
g2983
sg64
(lp2990
S'SERVER_PROTOCOL'
p2991
asbag57
(g78
g59
NtRp2992
(dp2993
g62
(dp2994
g89
g90
ssg71
g2983
sg64
(lp2995
S':'
asbag57
(g78
g59
NtRp2996
(dp2997
g62
(dp2998
sg71
g2983
sg64
(lp2999
g57
(g58
g59
NtRp3000
(dp3001
g62
(dp3002
g70
I3
ssg71
g2996
sg64
(lp3003
g1529
asbasbasbag57
(g73
g59
NtRp3004
(dp3005
g62
(dp3006
sg71
g2622
sg64
(lp3007
g57
(g78
g59
NtRp3008
(dp3009
g62
(dp3010
g82
g83
ssg71
g3004
sg64
(lp3011
S'SERVER_SOFTWARE'
p3012
asbag57
(g78
g59
NtRp3013
(dp3014
g62
(dp3015
g89
g90
ssg71
g3004
sg64
(lp3016
S':'
asbag57
(g78
g59
NtRp3017
(dp3018
g62
(dp3019
sg71
g3004
sg64
(lp3020
g57
(g58
g59
NtRp3021
(dp3022
g62
(dp3023
g70
I3
ssg71
g3017
sg64
(lp3024
g1551
asbasbasbag57
(g73
g59
NtRp3025
(dp3026
g62
(dp3027
sg71
g2622
sg64
(lp3028
g57
(g78
g59
NtRp3029
(dp3030
g62
(dp3031
g82
g83
ssg71
g3025
sg64
(lp3032
S'wsgi.errors'
p3033
asbag57
(g78
g59
NtRp3034
(dp3035
g62
(dp3036
g89
g90
ssg71
g3025
sg64
(lp3037
S':'
asbag57
(g78
g59
NtRp3038
(dp3039
g62
(dp3040
sg71
g3025
sg64
(lp3041
g57
(g58
g59
NtRp3042
(dp3043
g62
(dp3044
g70
I3
ssg71
g3038
sg64
(lp3045
S"<open file '<stderr>', mode 'w' at 0x2b1211efd270>"
p3046
asbasbasbag57
(g73
g59
NtRp3047
(dp3048
g62
(dp3049
sg71
g2622
sg64
(lp3050
g57
(g78
g59
NtRp3051
(dp3052
g62
(dp3053
g82
g83
ssg71
g3047
sg64
(lp3054
S'wsgi.file_wrapper'
p3055
asbag57
(g78
g59
NtRp3056
(dp3057
g62
(dp3058
g89
g90
ssg71
g3047
sg64
(lp3059
S':'
asbag57
(g78
g59
NtRp3060
(dp3061
g62
(dp3062
sg71
g3047
sg64
(lp3063
g57
(g58
g59
NtRp3064
(dp3065
g62
(dp3066
g70
I3
ssg71
g3060
sg64
(lp3067
S'<class wsgiref.util.FileWrapper at 0x8359a78>'
p3068
asbasbasbag57
(g73
g59
NtRp3069
(dp3070
g62
(dp3071
sg71
g2622
sg64
(lp3072
g57
(g78
g59
NtRp3073
(dp3074
g62
(dp3075
g82
g83
ssg71
g3069
sg64
(lp3076
S'wsgi.input'
p3077
asbag57
(g78
g59
NtRp3078
(dp3079
g62
(dp3080
g89
g90
ssg71
g3069
sg64
(lp3081
S':'
asbag57
(g78
g59
NtRp3082
(dp3083
g62
(dp3084
sg71
g3069
sg64
(lp3085
g57
(g58
g59
NtRp3086
(dp3087
g62
(dp3088
g70
I3
ssg71
g3082
sg64
(lp3089
S'<cStringIO.StringO object at 0xa4c1458>'
p3090
asbasbasbag57
(g73
g59
NtRp3091
(dp3092
g62
(dp3093
sg71
g2622
sg64
(lp3094
g57
(g78
g59
NtRp3095
(dp3096
g62
(dp3097
g82
g83
ssg71
g3091
sg64
(lp3098
S'wsgi.multiprocess'
p3099
asbag57
(g78
g59
NtRp3100
(dp3101
g62
(dp3102
g89
g90
ssg71
g3091
sg64
(lp3103
S':'
asbag57
(g78
g59
NtRp3104
(dp3105
g62
(dp3106
sg71
g3091
sg64
(lp3107
g57
(g58
g59
NtRp3108
(dp3109
g62
(dp3110
g70
I3
ssg71
g3104
sg64
(lp3111
g100
asbasbasbag57
(g73
g59
NtRp3112
(dp3113
g62
(dp3114
sg71
g2622
sg64
(lp3115
g57
(g78
g59
NtRp3116
(dp3117
g62
(dp3118
g82
g83
ssg71
g3112
sg64
(lp3119
S'wsgi.multithread'
p3120
asbag57
(g78
g59
NtRp3121
(dp3122
g62
(dp3123
g89
g90
ssg71
g3112
sg64
(lp3124
S':'
asbag57
(g78
g59
NtRp3125
(dp3126
g62
(dp3127
sg71
g3112
sg64
(lp3128
g57
(g58
g59
NtRp3129
(dp3130
g62
(dp3131
g70
I3
ssg71
g3125
sg64
(lp3132
g1768
asbasbasbag57
(g73
g59
NtRp3133
(dp3134
g62
(dp3135
sg71
g2622
sg64
(lp3136
g57
(g78
g59
NtRp3137
(dp3138
g62
(dp3139
g82
g83
ssg71
g3133
sg64
(lp3140
S'wsgi.run_once'
p3141
asbag57
(g78
g59
NtRp3142
(dp3143
g62
(dp3144
g89
g90
ssg71
g3133
sg64
(lp3145
S':'
asbag57
(g78
g59
NtRp3146
(dp3147
g62
(dp3148
sg71
g3133
sg64
(lp3149
g57
(g58
g59
NtRp3150
(dp3151
g62
(dp3152
g70
I3
ssg71
g3146
sg64
(lp3153
g100
asbasbasbag57
(g73
g59
NtRp3154
(dp3155
g62
(dp3156
sg71
g2622
sg64
(lp3157
g57
(g78
g59
NtRp3158
(dp3159
g62
(dp3160
g82
g83
ssg71
g3154
sg64
(lp3161
S'wsgi.url_scheme'
p3162
asbag57
(g78
g59
NtRp3163
(dp3164
g62
(dp3165
g89
g90
ssg71
g3154
sg64
(lp3166
S':'
asbag57
(g78
g59
NtRp3167
(dp3168
g62
(dp3169
sg71
g3154
sg64
(lp3170
g57
(g58
g59
NtRp3171
(dp3172
g62
(dp3173
g70
I3
ssg71
g3167
sg64
(lp3174
g1811
asbasbasbag57
(g73
g59
NtRp3175
(dp3176
g62
(dp3177
sg71
g2622
sg64
(lp3178
g57
(g78
g59
NtRp3179
(dp3180
g62
(dp3181
g82
g83
ssg71
g3175
sg64
(lp3182
S'wsgi.version'
p3183
asbag57
(g78
g59
NtRp3184
(dp3185
g62
(dp3186
g89
g90
ssg71
g3175
sg64
(lp3187
S':'
asbag57
(g78
g59
NtRp3188
(dp3189
g62
(dp3190
sg71
g3175
sg64
(lp3191
g57
(g58
g59
NtRp3192
(dp3193
g62
(dp3194
g70
I3
ssg71
g3188
sg64
(lp3195
S'1'
asbasbasbasbasbasbasbasbasbasbasbasbasbsS'frames'
p3196
(lp3197
(dp3198
S'file'
p3199
S'/home/xchen/web2py/gluon/restricted.py'
p3200
sS'dump'
p3201
(dp3202
S'environment'
p3203
S"{'A': <class 'gluon.html.A'>, 'Auth': <class 'gluon.tools.Auth'>, 'B': <class 'gluon.html.B'>, 'BEAUTIFY': <class 'gluon.html.BEAUTIFY'>, 'BODY': <class 'gluon.html.BODY'>, 'BR': <class 'gluon.html.BR'>, 'BUTTON': <class 'gluon.html.BUTTON'>, 'CAT': <class 'gluon.html.CAT'>, 'CENTER': <class 'gluon.html.CENTER'>, 'CLEANUP': <class 'gluon.validators.CLEANUP'>, ...}"
p3204
sS'ccode'
p3205
S'<code object <module> at 0x98bceb0, file "/home/...ications/Betsy/views/default/index.html", line 1>'
p3206
ssS'lnum'
p3207
I212
sS'lines'
p3208
(dp3209
I207
S'    try:'
p3210
sI208
S'        if isinstance(code, types.CodeType):'
p3211
sI209
S'            ccode = code'
p3212
sI210
S'        else:'
p3213
sI211
S'            ccode = compile2(code, layer)'
p3214
sI212
S'        exec ccode in environment'
p3215
sI213
S'    except HTTP:'
p3216
sI214
S'        raise'
p3217
sI215
S'    except RestrictedError:'
p3218
sI216
S'        # do not encapsulate (obfuscate) the original RestrictedError'
p3219
ssS'call'
p3220
S'(code=\'response.write(\\\'<!DOCTYPE html>\\\\n<!-- paulirish...."></script>\\\\n</body>\\\\n</html>\\\\n\\\\n\\\', escape=False)\', environment={\'A\': <class \'gluon.html.A\'>, \'Auth\': <class \'gluon.tools.Auth\'>, \'B\': <class \'gluon.html.B\'>, \'BEAUTIFY\': <class \'gluon.html.BEAUTIFY\'>, \'BODY\': <class \'gluon.html.BODY\'>, \'BR\': <class \'gluon.html.BR\'>, \'BUTTON\': <class \'gluon.html.BUTTON\'>, \'CAT\': <class \'gluon.html.CAT\'>, \'CENTER\': <class \'gluon.html.CENTER\'>, \'CLEANUP\': <class \'gluon.validators.CLEANUP\'>, ...}, layer=\'/home/xchen/web2py/applications/Betsy/views/default/index.html\')'
p3221
sS'func'
p3222
S'restricted'
p3223
sa(dp3224
g3199
S'/home/xchen/web2py/applications/Betsy/views/default/index.html'
p3225
sg3201
(dp3226
sg3207
I81
sg3208
(dp3227
I72
S"    response.write('\\n        </div>\\n        ', escape=False)"
p3228
sI73
S'    pass'
p3229
sI74
S'response.write(\'\\n\\n        <div class="\', escape=False)'
p3230
sI75
S'response.write(middle_columns)'
p3231
sI76
S'response.write(\'">\\n            \', escape=False)'
p3232
sI77
S"response.write('\\n            ', escape=False)"
p3233
sI78
S"response.write('\\n', escape=False)"
p3234
sI79
S'for label in labels:'
p3235
sI80
S"    response.write('\\n<h1>', escape=False)"
p3236
sI81
S"    response.write(vars()['form_'+label])"
p3237
sI82
S"    response.write('</h1>\\n', escape=False)"
p3238
sI83
S'    pass'
p3239
sI84
S"response.write('\\n', escape=False)"
p3240
sI85
S"response.write('\\n            ', escape=False)"
p3241
sI86
S"response.write('\\n        </div>\\n\\n        ', escape=False)"
p3242
sI87
S'if right_sidebar_enabled:'
p3243
sI88
S'    response.write(\'\\n        <div class="span3">\\n            \', escape=False)'
p3244
sI89
S"    response.write('\\n            <h3>Right Sidebar</h3>\\n            <p></p>\\n            ', escape=False)"
p3245
sI90
S"    response.write('\\n        </div>\\n        ', escape=False)"
p3246
sI91
S'    pass'
p3247
ssg3220
S'()'
p3248
sg3222
S'<module>'
p3249
sasS'pyver'
p3250
S'Python 2.7.3: /usr/local/bin/python'
p3251
sS'session'
p3252
g57
(g58
g59
NtRp3253
(dp3254
g62
(dp3255
sg64
(lp3256
g57
(g66
g59
NtRp3257
(dp3258
g62
(dp3259
g70
I5
ssg71
Nsg64
(lp3260
g57
(g73
g59
NtRp3261
(dp3262
g62
(dp3263
sg71
g3257
sg64
(lp3264
g57
(g78
g59
NtRp3265
(dp3266
g62
(dp3267
g82
g83
ssg71
g3261
sg64
(lp3268
S'auth'
p3269
asbag57
(g78
g59
NtRp3270
(dp3271
g62
(dp3272
g89
g90
ssg71
g3261
sg64
(lp3273
S':'
asbag57
(g78
g59
NtRp3274
(dp3275
g62
(dp3276
sg71
g3261
sg64
(lp3277
g57
(g58
g59
NtRp3278
(dp3279
g62
(dp3280
g70
I5
ssg71
g3274
sg64
(lp3281
g57
(g66
g59
NtRp3282
(dp3283
g62
(dp3284
g70
I4
ssg71
Nsg64
(lp3285
g57
(g73
g59
NtRp3286
(dp3287
g62
(dp3288
sg71
g3282
sg64
(lp3289
g57
(g78
g59
NtRp3290
(dp3291
g62
(dp3292
g82
g83
ssg71
g3286
sg64
(lp3293
S'expiration'
p3294
asbag57
(g78
g59
NtRp3295
(dp3296
g62
(dp3297
g89
g90
ssg71
g3286
sg64
(lp3298
S':'
asbag57
(g78
g59
NtRp3299
(dp3300
g62
(dp3301
sg71
g3286
sg64
(lp3302
g57
(g58
g59
NtRp3303
(dp3304
g62
(dp3305
g70
I4
ssg71
g3299
sg64
(lp3306
S'2592000'
p3307
asbasbasbag57
(g73
g59
NtRp3308
(dp3309
g62
(dp3310
sg71
g3282
sg64
(lp3311
g57
(g78
g59
NtRp3312
(dp3313
g62
(dp3314
g82
g83
ssg71
g3308
sg64
(lp3315
S'hmac_key'
p3316
asbag57
(g78
g59
NtRp3317
(dp3318
g62
(dp3319
g89
g90
ssg71
g3308
sg64
(lp3320
S':'
asbag57
(g78
g59
NtRp3321
(dp3322
g62
(dp3323
sg71
g3308
sg64
(lp3324
g57
(g58
g59
NtRp3325
(dp3326
g62
(dp3327
g70
I4
ssg71
g3321
sg64
(lp3328
S'739afc94-a36b-429c-8715-edcd03ea4351'
p3329
asbasbasbag57
(g73
g59
NtRp3330
(dp3331
g62
(dp3332
sg71
g3282
sg64
(lp3333
g57
(g78
g59
NtRp3334
(dp3335
g62
(dp3336
g82
g83
ssg71
g3330
sg64
(lp3337
S'last_visit'
p3338
asbag57
(g78
g59
NtRp3339
(dp3340
g62
(dp3341
g89
g90
ssg71
g3330
sg64
(lp3342
S':'
asbag57
(g78
g59
NtRp3343
(dp3344
g62
(dp3345
sg71
g3330
sg64
(lp3346
g57
(g58
g59
NtRp3347
(dp3348
g62
(dp3349
g70
I4
ssg71
g3343
sg64
(lp3350
S'datetime.datetime(2013, 2, 4, 10, 24, 37, 237452)'
p3351
asbasbasbag57
(g73
g59
NtRp3352
(dp3353
g62
(dp3354
sg71
g3282
sg64
(lp3355
g57
(g78
g59
NtRp3356
(dp3357
g62
(dp3358
g82
g83
ssg71
g3352
sg64
(lp3359
S'remember'
p3360
asbag57
(g78
g59
NtRp3361
(dp3362
g62
(dp3363
g89
g90
ssg71
g3352
sg64
(lp3364
S':'
asbag57
(g78
g59
NtRp3365
(dp3366
g62
(dp3367
sg71
g3352
sg64
(lp3368
g57
(g58
g59
NtRp3369
(dp3370
g62
(dp3371
g70
I4
ssg71
g3365
sg64
(lp3372
g1768
asbasbasbag57
(g73
g59
NtRp3373
(dp3374
g62
(dp3375
sg71
g3282
sg64
(lp3376
g57
(g78
g59
NtRp3377
(dp3378
g62
(dp3379
g82
g83
ssg71
g3373
sg64
(lp3380
S'user'
p3381
asbag57
(g78
g59
NtRp3382
(dp3383
g62
(dp3384
g89
g90
ssg71
g3373
sg64
(lp3385
S':'
asbag57
(g78
g59
NtRp3386
(dp3387
g62
(dp3388
sg71
g3373
sg64
(lp3389
g57
(g58
g59
NtRp3390
(dp3391
g62
(dp3392
g70
I4
ssg71
g3386
sg64
(lp3393
g57
(g66
g59
NtRp3394
(dp3395
g62
(dp3396
g70
I3
ssg71
Nsg64
(lp3397
g57
(g73
g59
NtRp3398
(dp3399
g62
(dp3400
sg71
g3394
sg64
(lp3401
g57
(g78
g59
NtRp3402
(dp3403
g62
(dp3404
g82
g83
ssg71
g3398
sg64
(lp3405
S'email'
p3406
asbag57
(g78
g59
NtRp3407
(dp3408
g62
(dp3409
g89
g90
ssg71
g3398
sg64
(lp3410
S':'
asbag57
(g78
g59
NtRp3411
(dp3412
g62
(dp3413
sg71
g3398
sg64
(lp3414
g57
(g58
g59
NtRp3415
(dp3416
g62
(dp3417
g70
I3
ssg71
g3411
sg64
(lp3418
S'xiaoling.chen@uth.tmc.edu'
p3419
asbasbasbag57
(g73
g59
NtRp3420
(dp3421
g62
(dp3422
sg71
g3394
sg64
(lp3423
g57
(g78
g59
NtRp3424
(dp3425
g62
(dp3426
g82
g83
ssg71
g3420
sg64
(lp3427
S'first_name'
p3428
asbag57
(g78
g59
NtRp3429
(dp3430
g62
(dp3431
g89
g90
ssg71
g3420
sg64
(lp3432
S':'
asbag57
(g78
g59
NtRp3433
(dp3434
g62
(dp3435
sg71
g3420
sg64
(lp3436
g57
(g58
g59
NtRp3437
(dp3438
g62
(dp3439
g70
I3
ssg71
g3433
sg64
(lp3440
S'Xiaoling'
p3441
asbasbasbag57
(g73
g59
NtRp3442
(dp3443
g62
(dp3444
sg71
g3394
sg64
(lp3445
g57
(g78
g59
NtRp3446
(dp3447
g62
(dp3448
g82
g83
ssg71
g3442
sg64
(lp3449
S'id'
p3450
asbag57
(g78
g59
NtRp3451
(dp3452
g62
(dp3453
g89
g90
ssg71
g3442
sg64
(lp3454
S':'
asbag57
(g78
g59
NtRp3455
(dp3456
g62
(dp3457
sg71
g3442
sg64
(lp3458
g57
(g58
g59
NtRp3459
(dp3460
g62
(dp3461
g70
I3
ssg71
g3455
sg64
(lp3462
S'1'
asbasbasbag57
(g73
g59
NtRp3463
(dp3464
g62
(dp3465
sg71
g3394
sg64
(lp3466
g57
(g78
g59
NtRp3467
(dp3468
g62
(dp3469
g82
g83
ssg71
g3463
sg64
(lp3470
S'last_name'
p3471
asbag57
(g78
g59
NtRp3472
(dp3473
g62
(dp3474
g89
g90
ssg71
g3463
sg64
(lp3475
S':'
asbag57
(g78
g59
NtRp3476
(dp3477
g62
(dp3478
sg71
g3463
sg64
(lp3479
g57
(g58
g59
NtRp3480
(dp3481
g62
(dp3482
g70
I3
ssg71
g3476
sg64
(lp3483
S'Chen'
p3484
asbasbasbag57
(g73
g59
NtRp3485
(dp3486
g62
(dp3487
sg71
g3394
sg64
(lp3488
g57
(g78
g59
NtRp3489
(dp3490
g62
(dp3491
g82
g83
ssg71
g3485
sg64
(lp3492
S'registration_id'
p3493
asbag57
(g78
g59
NtRp3494
(dp3495
g62
(dp3496
g89
g90
ssg71
g3485
sg64
(lp3497
S':'
asbag57
(g78
g59
NtRp3498
(dp3499
g62
(dp3500
sg71
g3485
sg64
(lp3501
g57
(g58
g59
NtRp3502
(dp3503
g62
(dp3504
g70
I3
ssg71
g3498
sg64
(lp3505
S''
asbasbasbag57
(g73
g59
NtRp3506
(dp3507
g62
(dp3508
sg71
g3394
sg64
(lp3509
g57
(g78
g59
NtRp3510
(dp3511
g62
(dp3512
g82
g83
ssg71
g3506
sg64
(lp3513
S'registration_key'
p3514
asbag57
(g78
g59
NtRp3515
(dp3516
g62
(dp3517
g89
g90
ssg71
g3506
sg64
(lp3518
S':'
asbag57
(g78
g59
NtRp3519
(dp3520
g62
(dp3521
sg71
g3506
sg64
(lp3522
g57
(g58
g59
NtRp3523
(dp3524
g62
(dp3525
g70
I3
ssg71
g3519
sg64
(lp3526
S''
asbasbasbag57
(g73
g59
NtRp3527
(dp3528
g62
(dp3529
sg71
g3394
sg64
(lp3530
g57
(g78
g59
NtRp3531
(dp3532
g62
(dp3533
g82
g83
ssg71
g3527
sg64
(lp3534
S'reset_password_key'
p3535
asbag57
(g78
g59
NtRp3536
(dp3537
g62
(dp3538
g89
g90
ssg71
g3527
sg64
(lp3539
S':'
asbag57
(g78
g59
NtRp3540
(dp3541
g62
(dp3542
sg71
g3527
sg64
(lp3543
g57
(g58
g59
NtRp3544
(dp3545
g62
(dp3546
g70
I3
ssg71
g3540
sg64
(lp3547
S''
asbasbasbasbasbasbasbag57
(g73
g59
NtRp3548
(dp3549
g62
(dp3550
sg71
g3282
sg64
(lp3551
g57
(g78
g59
NtRp3552
(dp3553
g62
(dp3554
g82
g83
ssg71
g3548
sg64
(lp3555
S'user_groups'
p3556
asbag57
(g78
g59
NtRp3557
(dp3558
g62
(dp3559
g89
g90
ssg71
g3548
sg64
(lp3560
S':'
asbag57
(g78
g59
NtRp3561
(dp3562
g62
(dp3563
sg71
g3548
sg64
(lp3564
g57
(g58
g59
NtRp3565
(dp3566
g62
(dp3567
g70
I4
ssg71
g3561
sg64
(lp3568
g57
(g66
g59
NtRp3569
(dp3570
g62
(dp3571
g70
I3
ssg71
Nsg64
(lp3572
g57
(g73
g59
NtRp3573
(dp3574
g62
(dp3575
sg71
g3569
sg64
(lp3576
g57
(g78
g59
NtRp3577
(dp3578
g62
(dp3579
g82
g83
ssg71
g3573
sg64
(lp3580
S'1'
asbag57
(g78
g59
NtRp3581
(dp3582
g62
(dp3583
g89
g90
ssg71
g3573
sg64
(lp3584
S':'
asbag57
(g78
g59
NtRp3585
(dp3586
g62
(dp3587
sg71
g3573
sg64
(lp3588
g57
(g58
g59
NtRp3589
(dp3590
g62
(dp3591
g70
I3
ssg71
g3585
sg64
(lp3592
S'user_1'
p3593
asbasbasbasbasbasbasbasbasbasbasbag57
(g73
g59
NtRp3594
(dp3595
g62
(dp3596
sg71
g3257
sg64
(lp3597
g57
(g78
g59
NtRp3598
(dp3599
g62
(dp3600
g82
g83
ssg71
g3594
sg64
(lp3601
S'cmd'
p3602
asbag57
(g78
g59
NtRp3603
(dp3604
g62
(dp3605
g89
g90
ssg71
g3594
sg64
(lp3606
S':'
asbag57
(g78
g59
NtRp3607
(dp3608
g62
(dp3609
sg71
g3594
sg64
(lp3610
g57
(g58
g59
NtRp3611
(dp3612
g62
(dp3613
g70
I5
ssg71
g3607
sg64
(lp3614
g57
(g66
g59
NtRp3615
(dp3616
g62
(dp3617
g70
I4
ssg71
Nsg64
(lp3618
g57
(g73
g59
NtRp3619
(dp3620
g62
(dp3621
sg71
g3615
sg64
(lp3622
g57
(g78
g59
NtRp3623
(dp3624
g62
(dp3625
sg71
g3619
sg64
(lp3626
g57
(g58
g59
NtRp3627
(dp3628
g62
(dp3629
g70
I4
ssg71
g3623
sg64
(lp3630
S'python'
p3631
asbasbasbag57
(g73
g59
NtRp3632
(dp3633
g62
(dp3634
sg71
g3615
sg64
(lp3635
g57
(g78
g59
NtRp3636
(dp3637
g62
(dp3638
sg71
g3632
sg64
(lp3639
g57
(g58
g59
NtRp3640
(dp3641
g62
(dp3642
g70
I4
ssg71
g3636
sg64
(lp3643
S'/home/xchen/chencode/tmp/try_parallel/queue.py'
p3644
asbasbasbag57
(g73
g59
NtRp3645
(dp3646
g62
(dp3647
sg71
g3615
sg64
(lp3648
g57
(g78
g59
NtRp3649
(dp3650
g62
(dp3651
sg71
g3645
sg64
(lp3652
g57
(g58
g59
NtRp3653
(dp3654
g62
(dp3655
g70
I4
ssg71
g3649
sg64
(lp3656
S'python /home/xchen/chencode/Betsy/scripts/run_protocol.py --protocol normalize_file --input input_signal_file:/home/xchen/chencode/upload/no_table.myfile1.a8dd7d225fa076b2.4368616e675f415230303431302e70636c.pcl --parameters has_missing_value:zero_fill --parameters preprocess:unknown_preprocess'
p3657
asbasbasbasbasbasbasbag57
(g73
g59
NtRp3658
(dp3659
g62
(dp3660
sg71
g3257
sg64
(lp3661
g57
(g78
g59
NtRp3662
(dp3663
g62
(dp3664
g82
g83
ssg71
g3658
sg64
(lp3665
S'command'
p3666
asbag57
(g78
g59
NtRp3667
(dp3668
g62
(dp3669
g89
g90
ssg71
g3658
sg64
(lp3670
S':'
asbag57
(g78
g59
NtRp3671
(dp3672
g62
(dp3673
sg71
g3658
sg64
(lp3674
g57
(g58
g59
NtRp3675
(dp3676
g62
(dp3677
g70
I5
ssg71
g3671
sg64
(lp3678
S'--input input_signal_file:myfile1 --parameters has_missing_value:zero_fill'
p3679
asbasbasbag57
(g73
g59
NtRp3680
(dp3681
g62
(dp3682
sg71
g3257
sg64
(lp3683
g57
(g78
g59
NtRp3684
(dp3685
g62
(dp3686
g82
g83
ssg71
g3680
sg64
(lp3687
S'flash'
p3688
asbag57
(g78
g59
NtRp3689
(dp3690
g62
(dp3691
g89
g90
ssg71
g3680
sg64
(lp3692
S':'
asbag57
(g78
g59
NtRp3693
(dp3694
g62
(dp3695
sg71
g3680
sg64
(lp3696
g57
(g58
g59
NtRp3697
(dp3698
g62
(dp3699
g70
I5
ssg71
g3693
sg64
(lp3700
S'None'
p3701
asbasbasbag57
(g73
g59
NtRp3702
(dp3703
g62
(dp3704
sg71
g3257
sg64
(lp3705
g57
(g78
g59
NtRp3706
(dp3707
g62
(dp3708
g82
g83
ssg71
g3702
sg64
(lp3709
S'input_file'
p3710
asbag57
(g78
g59
NtRp3711
(dp3712
g62
(dp3713
g89
g90
ssg71
g3702
sg64
(lp3714
S':'
asbag57
(g78
g59
NtRp3715
(dp3716
g62
(dp3717
sg71
g3702
sg64
(lp3718
g57
(g58
g59
NtRp3719
(dp3720
g62
(dp3721
g70
I5
ssg71
g3715
sg64
(lp3722
g57
(g66
g59
NtRp3723
(dp3724
g62
(dp3725
g70
I4
ssg71
Nsg64
(lp3726
g57
(g73
g59
NtRp3727
(dp3728
g62
(dp3729
sg71
g3723
sg64
(lp3730
g57
(g78
g59
NtRp3731
(dp3732
g62
(dp3733
sg71
g3727
sg64
(lp3734
g57
(g58
g59
NtRp3735
(dp3736
g62
(dp3737
g70
I4
ssg71
g3731
sg64
(lp3738
S'--input'
p3739
asbasbasbag57
(g73
g59
NtRp3740
(dp3741
g62
(dp3742
sg71
g3723
sg64
(lp3743
g57
(g78
g59
NtRp3744
(dp3745
g62
(dp3746
sg71
g3740
sg64
(lp3747
g57
(g58
g59
NtRp3748
(dp3749
g62
(dp3750
g70
I4
ssg71
g3744
sg64
(lp3751
S'input_signal_file:b:/home/xchen/chencode/upload/no_table.myfile1_path.9c338a1a4f9e9ddb.65722e6c322e6d6173352e747261696e31.txt'
p3752
asbasbasbag57
(g73
g59
NtRp3753
(dp3754
g62
(dp3755
sg71
g3723
sg64
(lp3756
g57
(g78
g59
NtRp3757
(dp3758
g62
(dp3759
sg71
g3753
sg64
(lp3760
g57
(g58
g59
NtRp3761
(dp3762
g62
(dp3763
g70
I4
ssg71
g3757
sg64
(lp3764
g3739
asbasbasbag57
(g73
g59
NtRp3765
(dp3766
g62
(dp3767
sg71
g3723
sg64
(lp3768
g57
(g78
g59
NtRp3769
(dp3770
g62
(dp3771
sg71
g3765
sg64
(lp3772
g57
(g58
g59
NtRp3773
(dp3774
g62
(dp3775
g70
I4
ssg71
g3769
sg64
(lp3776
S'input_signal_file:a:/home/xchen/chencode/upload/no_table.myfile0_path.a58698429ae0d97a.65722e6c322e6d6173352e747261696e30.txt'
p3777
asbasbasbasbasbasbasbag57
(g73
g59
NtRp3778
(dp3779
g62
(dp3780
sg71
g3257
sg64
(lp3781
g57
(g78
g59
NtRp3782
(dp3783
g62
(dp3784
g82
g83
ssg71
g3778
sg64
(lp3785
S'last_orderby'
p3786
asbag57
(g78
g59
NtRp3787
(dp3788
g62
(dp3789
g89
g90
ssg71
g3778
sg64
(lp3790
S':'
asbag57
(g78
g59
NtRp3791
(dp3792
g62
(dp3793
sg71
g3778
sg64
(lp3794
g57
(g58
g59
NtRp3795
(dp3796
g62
(dp3797
g70
I5
ssg71
g3791
sg64
(lp3798
S'None'
p3799
asbasbasbag57
(g73
g59
NtRp3800
(dp3801
g62
(dp3802
sg71
g3257
sg64
(lp3803
g57
(g78
g59
NtRp3804
(dp3805
g62
(dp3806
g82
g83
ssg71
g3800
sg64
(lp3807
S'last_query'
p3808
asbag57
(g78
g59
NtRp3809
(dp3810
g62
(dp3811
g89
g90
ssg71
g3800
sg64
(lp3812
S':'
asbag57
(g78
g59
NtRp3813
(dp3814
g62
(dp3815
sg71
g3800
sg64
(lp3816
g57
(g58
g59
NtRp3817
(dp3818
g62
(dp3819
g70
I5
ssg71
g3813
sg64
(lp3820
S'db.status.id>0'
p3821
asbasbasbag57
(g73
g59
NtRp3822
(dp3823
g62
(dp3824
sg71
g3257
sg64
(lp3825
g57
(g78
g59
NtRp3826
(dp3827
g62
(dp3828
g82
g83
ssg71
g3822
sg64
(lp3829
S'myfile0'
p3830
asbag57
(g78
g59
NtRp3831
(dp3832
g62
(dp3833
g89
g90
ssg71
g3822
sg64
(lp3834
S':'
asbag57
(g78
g59
NtRp3835
(dp3836
g62
(dp3837
sg71
g3822
sg64
(lp3838
g57
(g58
g59
NtRp3839
(dp3840
g62
(dp3841
g70
I5
ssg71
g3835
sg64
(lp3842
S'gse_id'
p3843
asbasbasbag57
(g73
g59
NtRp3844
(dp3845
g62
(dp3846
sg71
g3257
sg64
(lp3847
g57
(g78
g59
NtRp3848
(dp3849
g62
(dp3850
g82
g83
ssg71
g3844
sg64
(lp3851
S'myfile1'
p3852
asbag57
(g78
g59
NtRp3853
(dp3854
g62
(dp3855
g89
g90
ssg71
g3844
sg64
(lp3856
S':'
asbag57
(g78
g59
NtRp3857
(dp3858
g62
(dp3859
sg71
g3844
sg64
(lp3860
g57
(g58
g59
NtRp3861
(dp3862
g62
(dp3863
g70
I5
ssg71
g3857
sg64
(lp3864
S''
asbasbasbag57
(g73
g59
NtRp3865
(dp3866
g62
(dp3867
sg71
g3257
sg64
(lp3868
g57
(g78
g59
NtRp3869
(dp3870
g62
(dp3871
g82
g83
ssg71
g3865
sg64
(lp3872
S'myfile2'
p3873
asbag57
(g78
g59
NtRp3874
(dp3875
g62
(dp3876
g89
g90
ssg71
g3865
sg64
(lp3877
S':'
asbag57
(g78
g59
NtRp3878
(dp3879
g62
(dp3880
sg71
g3865
sg64
(lp3881
g57
(g58
g59
NtRp3882
(dp3883
g62
(dp3884
g70
I5
ssg71
g3878
sg64
(lp3885
S''
asbasbasbag57
(g73
g59
NtRp3886
(dp3887
g62
(dp3888
sg71
g3257
sg64
(lp3889
g57
(g78
g59
NtRp3890
(dp3891
g62
(dp3892
g82
g83
ssg71
g3886
sg64
(lp3893
S'myfile3'
p3894
asbag57
(g78
g59
NtRp3895
(dp3896
g62
(dp3897
g89
g90
ssg71
g3886
sg64
(lp3898
S':'
asbag57
(g78
g59
NtRp3899
(dp3900
g62
(dp3901
sg71
g3886
sg64
(lp3902
g57
(g58
g59
NtRp3903
(dp3904
g62
(dp3905
g70
I5
ssg71
g3899
sg64
(lp3906
S''
asbasbasbag57
(g73
g59
NtRp3907
(dp3908
g62
(dp3909
sg71
g3257
sg64
(lp3910
g57
(g78
g59
NtRp3911
(dp3912
g62
(dp3913
g82
g83
ssg71
g3907
sg64
(lp3914
S'myfile4'
p3915
asbag57
(g78
g59
NtRp3916
(dp3917
g62
(dp3918
g89
g90
ssg71
g3907
sg64
(lp3919
S':'
asbag57
(g78
g59
NtRp3920
(dp3921
g62
(dp3922
sg71
g3907
sg64
(lp3923
g57
(g58
g59
NtRp3924
(dp3925
g62
(dp3926
g70
I5
ssg71
g3920
sg64
(lp3927
S''
asbasbasbag57
(g73
g59
NtRp3928
(dp3929
g62
(dp3930
sg71
g3257
sg64
(lp3931
g57
(g78
g59
NtRp3932
(dp3933
g62
(dp3934
g82
g83
ssg71
g3928
sg64
(lp3935
S'myfile5'
p3936
asbag57
(g78
g59
NtRp3937
(dp3938
g62
(dp3939
g89
g90
ssg71
g3928
sg64
(lp3940
S':'
asbag57
(g78
g59
NtRp3941
(dp3942
g62
(dp3943
sg71
g3928
sg64
(lp3944
g57
(g58
g59
NtRp3945
(dp3946
g62
(dp3947
g70
I5
ssg71
g3941
sg64
(lp3948
S''
asbasbasbag57
(g73
g59
NtRp3949
(dp3950
g62
(dp3951
sg71
g3257
sg64
(lp3952
g57
(g78
g59
NtRp3953
(dp3954
g62
(dp3955
g82
g83
ssg71
g3949
sg64
(lp3956
S'myfile6'
p3957
asbag57
(g78
g59
NtRp3958
(dp3959
g62
(dp3960
g89
g90
ssg71
g3949
sg64
(lp3961
S':'
asbag57
(g78
g59
NtRp3962
(dp3963
g62
(dp3964
sg71
g3949
sg64
(lp3965
g57
(g58
g59
NtRp3966
(dp3967
g62
(dp3968
g70
I5
ssg71
g3962
sg64
(lp3969
S'None'
p3970
asbasbasbag57
(g73
g59
NtRp3971
(dp3972
g62
(dp3973
sg71
g3257
sg64
(lp3974
g57
(g78
g59
NtRp3975
(dp3976
g62
(dp3977
g82
g83
ssg71
g3971
sg64
(lp3978
S'output'
p3979
asbag57
(g78
g59
NtRp3980
(dp3981
g62
(dp3982
g89
g90
ssg71
g3971
sg64
(lp3983
S':'
asbag57
(g78
g59
NtRp3984
(dp3985
g62
(dp3986
sg71
g3971
sg64
(lp3987
g57
(g58
g59
NtRp3988
(dp3989
g62
(dp3990
g70
I5
ssg71
g3984
sg64
(lp3991
g57
(g66
g59
NtRp3992
(dp3993
g62
(dp3994
g70
I4
ssg71
Nsg64
(lp3995
sbasbasbasbag57
(g73
g59
NtRp3996
(dp3997
g62
(dp3998
sg71
g3257
sg64
(lp3999
g57
(g78
g59
NtRp4000
(dp4001
g62
(dp4002
g82
g83
ssg71
g3996
sg64
(lp4003
S'parameters'
p4004
asbag57
(g78
g59
NtRp4005
(dp4006
g62
(dp4007
g89
g90
ssg71
g3996
sg64
(lp4008
S':'
asbag57
(g78
g59
NtRp4009
(dp4010
g62
(dp4011
sg71
g3996
sg64
(lp4012
g57
(g58
g59
NtRp4013
(dp4014
g62
(dp4015
g70
I5
ssg71
g4009
sg64
(lp4016
g57
(g66
g59
NtRp4017
(dp4018
g62
(dp4019
g70
I4
ssg71
Nsg64
(lp4020
g57
(g73
g59
NtRp4021
(dp4022
g62
(dp4023
sg71
g4017
sg64
(lp4024
g57
(g78
g59
NtRp4025
(dp4026
g62
(dp4027
sg71
g4021
sg64
(lp4028
g57
(g58
g59
NtRp4029
(dp4030
g62
(dp4031
g70
I4
ssg71
g4025
sg64
(lp4032
S'--parameters'
p4033
asbasbasbag57
(g73
g59
NtRp4034
(dp4035
g62
(dp4036
sg71
g4017
sg64
(lp4037
g57
(g78
g59
NtRp4038
(dp4039
g62
(dp4040
sg71
g4034
sg64
(lp4041
g57
(g58
g59
NtRp4042
(dp4043
g62
(dp4044
g70
I4
ssg71
g4038
sg64
(lp4045
S'gene_center:no_gene_center'
p4046
asbasbasbag57
(g73
g59
NtRp4047
(dp4048
g62
(dp4049
sg71
g4017
sg64
(lp4050
g57
(g78
g59
NtRp4051
(dp4052
g62
(dp4053
sg71
g4047
sg64
(lp4054
g57
(g58
g59
NtRp4055
(dp4056
g62
(dp4057
g70
I4
ssg71
g4051
sg64
(lp4058
g4033
asbasbasbag57
(g73
g59
NtRp4059
(dp4060
g62
(dp4061
sg71
g4017
sg64
(lp4062
g57
(g78
g59
NtRp4063
(dp4064
g62
(dp4065
sg71
g4059
sg64
(lp4066
g57
(g58
g59
NtRp4067
(dp4068
g62
(dp4069
g70
I4
ssg71
g4063
sg64
(lp4070
S'gene_order:no_order'
p4071
asbasbasbag57
(g73
g59
NtRp4072
(dp4073
g62
(dp4074
sg71
g4017
sg64
(lp4075
g57
(g78
g59
NtRp4076
(dp4077
g62
(dp4078
sg71
g4072
sg64
(lp4079
g57
(g58
g59
NtRp4080
(dp4081
g62
(dp4082
g70
I4
ssg71
g4076
sg64
(lp4083
g4033
asbasbasbag57
(g73
g59
NtRp4084
(dp4085
g62
(dp4086
sg71
g4017
sg64
(lp4087
g57
(g78
g59
NtRp4088
(dp4089
g62
(dp4090
sg71
g4084
sg64
(lp4091
g57
(g58
g59
NtRp4092
(dp4093
g62
(dp4094
g70
I4
ssg71
g4088
sg64
(lp4095
S'contents:a,b'
p4096
asbasbasbag57
(g73
g59
NtRp4097
(dp4098
g62
(dp4099
sg71
g4017
sg64
(lp4100
g57
(g78
g59
NtRp4101
(dp4102
g62
(dp4103
sg71
g4097
sg64
(lp4104
g57
(g58
g59
NtRp4105
(dp4106
g62
(dp4107
g70
I4
ssg71
g4101
sg64
(lp4108
g4033
asbasbasbag57
(g73
g59
NtRp4109
(dp4110
g62
(dp4111
sg71
g4017
sg64
(lp4112
g57
(g78
g59
NtRp4113
(dp4114
g62
(dp4115
sg71
g4109
sg64
(lp4116
g57
(g58
g59
NtRp4117
(dp4118
g62
(dp4119
g70
I4
ssg71
g4113
sg64
(lp4120
S'gene_normalize:no_gene_normalize'
p4121
asbasbasbag57
(g73
g59
NtRp4122
(dp4123
g62
(dp4124
sg71
g4017
sg64
(lp4125
g57
(g78
g59
NtRp4126
(dp4127
g62
(dp4128
sg71
g4122
sg64
(lp4129
g57
(g58
g59
NtRp4130
(dp4131
g62
(dp4132
g70
I4
ssg71
g4126
sg64
(lp4133
g4033
asbasbasbag57
(g73
g59
NtRp4134
(dp4135
g62
(dp4136
sg71
g4017
sg64
(lp4137
g57
(g78
g59
NtRp4138
(dp4139
g62
(dp4140
sg71
g4134
sg64
(lp4141
g57
(g58
g59
NtRp4142
(dp4143
g62
(dp4144
g70
I4
ssg71
g4138
sg64
(lp4145
S'combat:no_combat'
p4146
asbasbasbag57
(g73
g59
NtRp4147
(dp4148
g62
(dp4149
sg71
g4017
sg64
(lp4150
g57
(g78
g59
NtRp4151
(dp4152
g62
(dp4153
sg71
g4147
sg64
(lp4154
g57
(g58
g59
NtRp4155
(dp4156
g62
(dp4157
g70
I4
ssg71
g4151
sg64
(lp4158
g4033
asbasbasbag57
(g73
g59
NtRp4159
(dp4160
g62
(dp4161
sg71
g4017
sg64
(lp4162
g57
(g78
g59
NtRp4163
(dp4164
g62
(dp4165
sg71
g4159
sg64
(lp4166
g57
(g58
g59
NtRp4167
(dp4168
g62
(dp4169
g70
I4
ssg71
g4163
sg64
(lp4170
S'quantile:no_quantile'
p4171
asbasbasbag57
(g73
g59
NtRp4172
(dp4173
g62
(dp4174
sg71
g4017
sg64
(lp4175
g57
(g78
g59
NtRp4176
(dp4177
g62
(dp4178
sg71
g4172
sg64
(lp4179
g57
(g58
g59
NtRp4180
(dp4181
g62
(dp4182
g70
I4
ssg71
g4176
sg64
(lp4183
g4033
asbasbasbag57
(g73
g59
NtRp4184
(dp4185
g62
(dp4186
sg71
g4017
sg64
(lp4187
g57
(g78
g59
NtRp4188
(dp4189
g62
(dp4190
sg71
g4184
sg64
(lp4191
g57
(g58
g59
NtRp4192
(dp4193
g62
(dp4194
g70
I4
ssg71
g4188
sg64
(lp4195
S'predataset:no_predataset'
p4196
asbasbasbag57
(g73
g59
NtRp4197
(dp4198
g62
(dp4199
sg71
g4017
sg64
(lp4200
g57
(g78
g59
NtRp4201
(dp4202
g62
(dp4203
sg71
g4197
sg64
(lp4204
g57
(g58
g59
NtRp4205
(dp4206
g62
(dp4207
g70
I4
ssg71
g4201
sg64
(lp4208
g4033
asbasbasbag57
(g73
g59
NtRp4209
(dp4210
g62
(dp4211
sg71
g4017
sg64
(lp4212
g57
(g78
g59
NtRp4213
(dp4214
g62
(dp4215
sg71
g4209
sg64
(lp4216
g57
(g58
g59
NtRp4217
(dp4218
g62
(dp4219
g70
I4
ssg71
g4213
sg64
(lp4220
S'dwd:no_dwd'
p4221
asbasbasbag57
(g73
g59
NtRp4222
(dp4223
g62
(dp4224
sg71
g4017
sg64
(lp4225
g57
(g78
g59
NtRp4226
(dp4227
g62
(dp4228
sg71
g4222
sg64
(lp4229
g57
(g58
g59
NtRp4230
(dp4231
g62
(dp4232
g70
I4
ssg71
g4226
sg64
(lp4233
g4033
asbasbasbag57
(g73
g59
NtRp4234
(dp4235
g62
(dp4236
sg71
g4017
sg64
(lp4237
g57
(g78
g59
NtRp4238
(dp4239
g62
(dp4240
sg71
g4234
sg64
(lp4241
g57
(g58
g59
NtRp4242
(dp4243
g62
(dp4244
g70
I4
ssg71
g4238
sg64
(lp4245
S'preprocess:unknown_preprocess'
p4246
asbasbasbag57
(g73
g59
NtRp4247
(dp4248
g62
(dp4249
sg71
g4017
sg64
(lp4250
g57
(g78
g59
NtRp4251
(dp4252
g62
(dp4253
sg71
g4247
sg64
(lp4254
g57
(g58
g59
NtRp4255
(dp4256
g62
(dp4257
g70
I4
ssg71
g4251
sg64
(lp4258
g4033
asbasbasbag57
(g73
g59
NtRp4259
(dp4260
g62
(dp4261
sg71
g4017
sg64
(lp4262
g57
(g78
g59
NtRp4263
(dp4264
g62
(dp4265
sg71
g4259
sg64
(lp4266
g57
(g58
g59
NtRp4267
(dp4268
g62
(dp4269
g70
I4
ssg71
g4263
sg64
(lp4270
S'unique_genes:no_unique_genes'
p4271
asbasbasbag57
(g73
g59
NtRp4272
(dp4273
g62
(dp4274
sg71
g4017
sg64
(lp4275
g57
(g78
g59
NtRp4276
(dp4277
g62
(dp4278
sg71
g4272
sg64
(lp4279
g57
(g58
g59
NtRp4280
(dp4281
g62
(dp4282
g70
I4
ssg71
g4276
sg64
(lp4283
g4033
asbasbasbag57
(g73
g59
NtRp4284
(dp4285
g62
(dp4286
sg71
g4017
sg64
(lp4287
g57
(g78
g59
NtRp4288
(dp4289
g62
(dp4290
sg71
g4284
sg64
(lp4291
g57
(g58
g59
NtRp4292
(dp4293
g62
(dp4294
g70
I4
ssg71
g4288
sg64
(lp4295
S'rename_sample:no_rename'
p4296
asbasbasbag57
(g73
g59
NtRp4297
(dp4298
g62
(dp4299
sg71
g4017
sg64
(lp4300
g57
(g78
g59
NtRp4301
(dp4302
g62
(dp4303
sg71
g4297
sg64
(lp4304
g57
(g58
g59
NtRp4305
(dp4306
g62
(dp4307
g70
I4
ssg71
g4301
sg64
(lp4308
g4033
asbasbasbag57
(g73
g59
NtRp4309
(dp4310
g62
(dp4311
sg71
g4017
sg64
(lp4312
g57
(g78
g59
NtRp4313
(dp4314
g62
(dp4315
sg71
g4309
sg64
(lp4316
g57
(g58
g59
NtRp4317
(dp4318
g62
(dp4319
g70
I4
ssg71
g4313
sg64
(lp4320
S'shiftscale:no_shiftscale'
p4321
asbasbasbag57
(g73
g59
NtRp4322
(dp4323
g62
(dp4324
sg71
g4017
sg64
(lp4325
g57
(g78
g59
NtRp4326
(dp4327
g62
(dp4328
sg71
g4322
sg64
(lp4329
g57
(g58
g59
NtRp4330
(dp4331
g62
(dp4332
g70
I4
ssg71
g4326
sg64
(lp4333
g4033
asbasbasbag57
(g73
g59
NtRp4334
(dp4335
g62
(dp4336
sg71
g4017
sg64
(lp4337
g57
(g78
g59
NtRp4338
(dp4339
g62
(dp4340
sg71
g4334
sg64
(lp4341
g57
(g58
g59
NtRp4342
(dp4343
g62
(dp4344
g70
I4
ssg71
g4338
sg64
(lp4345
S'has_missing_value:zero_fill'
p4346
asbasbasbag57
(g73
g59
NtRp4347
(dp4348
g62
(dp4349
sg71
g4017
sg64
(lp4350
g57
(g78
g59
NtRp4351
(dp4352
g62
(dp4353
sg71
g4347
sg64
(lp4354
g57
(g58
g59
NtRp4355
(dp4356
g62
(dp4357
g70
I4
ssg71
g4351
sg64
(lp4358
g4033
asbasbasbag57
(g73
g59
NtRp4359
(dp4360
g62
(dp4361
sg71
g4017
sg64
(lp4362
g57
(g78
g59
NtRp4363
(dp4364
g62
(dp4365
sg71
g4359
sg64
(lp4366
g57
(g58
g59
NtRp4367
(dp4368
g62
(dp4369
g70
I4
ssg71
g4363
sg64
(lp4370
S'format:tdf'
p4371
asbasbasbag57
(g73
g59
NtRp4372
(dp4373
g62
(dp4374
sg71
g4017
sg64
(lp4375
g57
(g78
g59
NtRp4376
(dp4377
g62
(dp4378
sg71
g4372
sg64
(lp4379
g57
(g58
g59
NtRp4380
(dp4381
g62
(dp4382
g70
I4
ssg71
g4376
sg64
(lp4383
g4033
asbasbasbag57
(g73
g59
NtRp4384
(dp4385
g62
(dp4386
sg71
g4017
sg64
(lp4387
g57
(g78
g59
NtRp4388
(dp4389
g62
(dp4390
sg71
g4384
sg64
(lp4391
g57
(g58
g59
NtRp4392
(dp4393
g62
(dp4394
g70
I4
ssg71
g4388
sg64
(lp4395
S'num_features:0'
p4396
asbasbasbag57
(g73
g59
NtRp4397
(dp4398
g62
(dp4399
sg71
g4017
sg64
(lp4400
g57
(g78
g59
NtRp4401
(dp4402
g62
(dp4403
sg71
g4397
sg64
(lp4404
g57
(g58
g59
NtRp4405
(dp4406
g62
(dp4407
g70
I4
ssg71
g4401
sg64
(lp4408
g4033
asbasbasbag57
(g73
g59
NtRp4409
(dp4410
g62
(dp4411
sg71
g4017
sg64
(lp4412
g57
(g78
g59
NtRp4413
(dp4414
g62
(dp4415
sg71
g4409
sg64
(lp4416
g57
(g58
g59
NtRp4417
(dp4418
g62
(dp4419
g70
I4
ssg71
g4413
sg64
(lp4420
S'filter:0'
p4421
asbasbasbag57
(g73
g59
NtRp4422
(dp4423
g62
(dp4424
sg71
g4017
sg64
(lp4425
g57
(g78
g59
NtRp4426
(dp4427
g62
(dp4428
sg71
g4422
sg64
(lp4429
g57
(g58
g59
NtRp4430
(dp4431
g62
(dp4432
g70
I4
ssg71
g4426
sg64
(lp4433
g4033
asbasbasbag57
(g73
g59
NtRp4434
(dp4435
g62
(dp4436
sg71
g4017
sg64
(lp4437
g57
(g78
g59
NtRp4438
(dp4439
g62
(dp4440
sg71
g4434
sg64
(lp4441
g57
(g58
g59
NtRp4442
(dp4443
g62
(dp4444
g70
I4
ssg71
g4438
sg64
(lp4445
S'is_logged:logged'
p4446
asbasbasbag57
(g73
g59
NtRp4447
(dp4448
g62
(dp4449
sg71
g4017
sg64
(lp4450
g57
(g78
g59
NtRp4451
(dp4452
g62
(dp4453
sg71
g4447
sg64
(lp4454
g57
(g58
g59
NtRp4455
(dp4456
g62
(dp4457
g70
I4
ssg71
g4451
sg64
(lp4458
g4033
asbasbasbag57
(g73
g59
NtRp4459
(dp4460
g62
(dp4461
sg71
g4017
sg64
(lp4462
g57
(g78
g59
NtRp4463
(dp4464
g62
(dp4465
sg71
g4459
sg64
(lp4466
g57
(g58
g59
NtRp4467
(dp4468
g62
(dp4469
g70
I4
ssg71
g4463
sg64
(lp4470
S'bfrm:no_bfrm'
p4471
asbasbasbasbasbasbasbag57
(g73
g59
NtRp4472
(dp4473
g62
(dp4474
sg71
g3257
sg64
(lp4475
g57
(g78
g59
NtRp4476
(dp4477
g62
(dp4478
g82
g83
ssg71
g4472
sg64
(lp4479
S'protocol'
p4480
asbag57
(g78
g59
NtRp4481
(dp4482
g62
(dp4483
g89
g90
ssg71
g4472
sg64
(lp4484
S':'
asbag57
(g78
g59
NtRp4485
(dp4486
g62
(dp4487
sg71
g4472
sg64
(lp4488
g57
(g58
g59
NtRp4489
(dp4490
g62
(dp4491
g70
I5
ssg71
g4485
sg64
(lp4492
S'normalize_file'
p4493
asbasbasbasbasbsS'etype'
p4494
S"<type 'exceptions.KeyError'>"
p4495
sS'date'
p4496
S'Wed Feb 20 11:55:28 2013'
p4497
sS'response'
p4498
g57
(g58
g59
NtRp4499
(dp4500
g62
(dp4501
sg64
(lp4502
g57
(g66
g59
NtRp4503
(dp4504
g62
(dp4505
g70
I5
ssg71
Nsg64
(lp4506
g57
(g73
g59
NtRp4507
(dp4508
g62
(dp4509
sg71
g4503
sg64
(lp4510
g57
(g78
g59
NtRp4511
(dp4512
g62
(dp4513
g82
g83
ssg71
g4507
sg64
(lp4514
g155
asbag57
(g78
g59
NtRp4515
(dp4516
g62
(dp4517
g89
g90
ssg71
g4507
sg64
(lp4518
S':'
asbag57
(g78
g59
NtRp4519
(dp4520
g62
(dp4521
sg71
g4507
sg64
(lp4522
g57
(g58
g59
NtRp4523
(dp4524
g62
(dp4525
g70
I5
ssg71
g4519
sg64
(lp4526
S'<cStringIO.StringO object at 0x953f3e8>'
p4527
asbasbasbag57
(g73
g59
NtRp4528
(dp4529
g62
(dp4530
sg71
g4503
sg64
(lp4531
g57
(g78
g59
NtRp4532
(dp4533
g62
(dp4534
g82
g83
ssg71
g4528
sg64
(lp4535
g243
asbag57
(g78
g59
NtRp4536
(dp4537
g62
(dp4538
g89
g90
ssg71
g4528
sg64
(lp4539
S':'
asbag57
(g78
g59
NtRp4540
(dp4541
g62
(dp4542
sg71
g4528
sg64
(lp4543
g57
(g58
g59
NtRp4544
(dp4545
g62
(dp4546
g70
I5
ssg71
g4540
sg64
(lp4547
g57
(g66
g59
NtRp4548
(dp4549
g62
(dp4550
g70
I4
ssg71
Nsg64
(lp4551
g57
(g73
g59
NtRp4552
(dp4553
g62
(dp4554
sg71
g4548
sg64
(lp4555
g57
(g78
g59
NtRp4556
(dp4557
g62
(dp4558
g82
g83
ssg71
g4552
sg64
(lp4559
S'session_id_betsy'
p4560
asbag57
(g78
g59
NtRp4561
(dp4562
g62
(dp4563
g89
g90
ssg71
g4552
sg64
(lp4564
S':'
asbag57
(g78
g59
NtRp4565
(dp4566
g62
(dp4567
sg71
g4552
sg64
(lp4568
g57
(g58
g59
NtRp4569
(dp4570
g62
(dp4571
g70
I4
ssg71
g4565
sg64
(lp4572
g475
ag57
(g66
g59
NtRp4573
(dp4574
g62
(dp4575
g70
I3
ssg71
Nsg64
(lp4576
g57
(g73
g59
NtRp4577
(dp4578
g62
(dp4579
sg71
g4573
sg64
(lp4580
g57
(g78
g59
NtRp4581
(dp4582
g62
(dp4583
g82
g83
ssg71
g4577
sg64
(lp4584
g294
asbag57
(g78
g59
NtRp4585
(dp4586
g62
(dp4587
g89
g90
ssg71
g4577
sg64
(lp4588
S':'
asbag57
(g78
g59
NtRp4589
(dp4590
g62
(dp4591
sg71
g4577
sg64
(lp4592
g57
(g58
g59
NtRp4593
(dp4594
g62
(dp4595
g70
I3
ssg71
g4589
sg64
(lp4596
S''
asbasbasbag57
(g73
g59
NtRp4597
(dp4598
g62
(dp4599
sg71
g4573
sg64
(lp4600
g57
(g78
g59
NtRp4601
(dp4602
g62
(dp4603
g82
g83
ssg71
g4597
sg64
(lp4604
g315
asbag57
(g78
g59
NtRp4605
(dp4606
g62
(dp4607
g89
g90
ssg71
g4597
sg64
(lp4608
S':'
asbag57
(g78
g59
NtRp4609
(dp4610
g62
(dp4611
sg71
g4597
sg64
(lp4612
g57
(g58
g59
NtRp4613
(dp4614
g62
(dp4615
g70
I3
ssg71
g4609
sg64
(lp4616
S''
asbasbasbag57
(g73
g59
NtRp4617
(dp4618
g62
(dp4619
sg71
g4573
sg64
(lp4620
g57
(g78
g59
NtRp4621
(dp4622
g62
(dp4623
g82
g83
ssg71
g4617
sg64
(lp4624
g336
asbag57
(g78
g59
NtRp4625
(dp4626
g62
(dp4627
g89
g90
ssg71
g4617
sg64
(lp4628
S':'
asbag57
(g78
g59
NtRp4629
(dp4630
g62
(dp4631
sg71
g4617
sg64
(lp4632
g57
(g58
g59
NtRp4633
(dp4634
g62
(dp4635
g70
I3
ssg71
g4629
sg64
(lp4636
S'2592000'
p4637
asbasbasbag57
(g73
g59
NtRp4638
(dp4639
g62
(dp4640
sg71
g4573
sg64
(lp4641
g57
(g78
g59
NtRp4642
(dp4643
g62
(dp4644
g82
g83
ssg71
g4638
sg64
(lp4645
g357
asbag57
(g78
g59
NtRp4646
(dp4647
g62
(dp4648
g89
g90
ssg71
g4638
sg64
(lp4649
S':'
asbag57
(g78
g59
NtRp4650
(dp4651
g62
(dp4652
sg71
g4638
sg64
(lp4653
g57
(g58
g59
NtRp4654
(dp4655
g62
(dp4656
g70
I3
ssg71
g4650
sg64
(lp4657
S''
asbasbasbag57
(g73
g59
NtRp4658
(dp4659
g62
(dp4660
sg71
g4573
sg64
(lp4661
g57
(g78
g59
NtRp4662
(dp4663
g62
(dp4664
g82
g83
ssg71
g4658
sg64
(lp4665
g378
asbag57
(g78
g59
NtRp4666
(dp4667
g62
(dp4668
g89
g90
ssg71
g4658
sg64
(lp4669
S':'
asbag57
(g78
g59
NtRp4670
(dp4671
g62
(dp4672
sg71
g4658
sg64
(lp4673
g57
(g58
g59
NtRp4674
(dp4675
g62
(dp4676
g70
I3
ssg71
g4670
sg64
(lp4677
S''
asbasbasbag57
(g73
g59
NtRp4678
(dp4679
g62
(dp4680
sg71
g4573
sg64
(lp4681
g57
(g78
g59
NtRp4682
(dp4683
g62
(dp4684
g82
g83
ssg71
g4678
sg64
(lp4685
g399
asbag57
(g78
g59
NtRp4686
(dp4687
g62
(dp4688
g89
g90
ssg71
g4678
sg64
(lp4689
S':'
asbag57
(g78
g59
NtRp4690
(dp4691
g62
(dp4692
sg71
g4678
sg64
(lp4693
g57
(g58
g59
NtRp4694
(dp4695
g62
(dp4696
g70
I3
ssg71
g4690
sg64
(lp4697
S'/'
asbasbasbag57
(g73
g59
NtRp4698
(dp4699
g62
(dp4700
sg71
g4573
sg64
(lp4701
g57
(g78
g59
NtRp4702
(dp4703
g62
(dp4704
g82
g83
ssg71
g4698
sg64
(lp4705
g420
asbag57
(g78
g59
NtRp4706
(dp4707
g62
(dp4708
g89
g90
ssg71
g4698
sg64
(lp4709
S':'
asbag57
(g78
g59
NtRp4710
(dp4711
g62
(dp4712
sg71
g4698
sg64
(lp4713
g57
(g58
g59
NtRp4714
(dp4715
g62
(dp4716
g70
I3
ssg71
g4710
sg64
(lp4717
S''
asbasbasbag57
(g73
g59
NtRp4718
(dp4719
g62
(dp4720
sg71
g4573
sg64
(lp4721
g57
(g78
g59
NtRp4722
(dp4723
g62
(dp4724
g82
g83
ssg71
g4718
sg64
(lp4725
g441
asbag57
(g78
g59
NtRp4726
(dp4727
g62
(dp4728
g89
g90
ssg71
g4718
sg64
(lp4729
S':'
asbag57
(g78
g59
NtRp4730
(dp4731
g62
(dp4732
sg71
g4718
sg64
(lp4733
g57
(g58
g59
NtRp4734
(dp4735
g62
(dp4736
g70
I3
ssg71
g4730
sg64
(lp4737
S''
asbasbasbasbasbasbasbasbasbasbasbag57
(g73
g59
NtRp4738
(dp4739
g62
(dp4740
sg71
g4503
sg64
(lp4741
g57
(g78
g59
NtRp4742
(dp4743
g62
(dp4744
g82
g83
ssg71
g4738
sg64
(lp4745
S'delimiters'
p4746
asbag57
(g78
g59
NtRp4747
(dp4748
g62
(dp4749
g89
g90
ssg71
g4738
sg64
(lp4750
S':'
asbag57
(g78
g59
NtRp4751
(dp4752
g62
(dp4753
sg71
g4738
sg64
(lp4754
g57
(g58
g59
NtRp4755
(dp4756
g62
(dp4757
g70
I5
ssg71
g4751
sg64
(lp4758
g57
(g66
g59
NtRp4759
(dp4760
g62
(dp4761
g70
I4
ssg71
Nsg64
(lp4762
g57
(g73
g59
NtRp4763
(dp4764
g62
(dp4765
sg71
g4759
sg64
(lp4766
g57
(g78
g59
NtRp4767
(dp4768
g62
(dp4769
sg71
g4763
sg64
(lp4770
g57
(g58
g59
NtRp4771
(dp4772
g62
(dp4773
g70
I4
ssg71
g4767
sg64
(lp4774
S'{{'
p4775
asbasbasbag57
(g73
g59
NtRp4776
(dp4777
g62
(dp4778
sg71
g4759
sg64
(lp4779
g57
(g78
g59
NtRp4780
(dp4781
g62
(dp4782
sg71
g4776
sg64
(lp4783
g57
(g58
g59
NtRp4784
(dp4785
g62
(dp4786
g70
I4
ssg71
g4780
sg64
(lp4787
S'}}'
p4788
asbasbasbasbasbasbasbag57
(g73
g59
NtRp4789
(dp4790
g62
(dp4791
sg71
g4503
sg64
(lp4792
g57
(g78
g59
NtRp4793
(dp4794
g62
(dp4795
g82
g83
ssg71
g4789
sg64
(lp4796
S'files'
p4797
asbag57
(g78
g59
NtRp4798
(dp4799
g62
(dp4800
g89
g90
ssg71
g4789
sg64
(lp4801
S':'
asbag57
(g78
g59
NtRp4802
(dp4803
g62
(dp4804
sg71
g4789
sg64
(lp4805
g57
(g58
g59
NtRp4806
(dp4807
g62
(dp4808
g70
I5
ssg71
g4802
sg64
(lp4809
g57
(g66
g59
NtRp4810
(dp4811
g62
(dp4812
g70
I4
ssg71
Nsg64
(lp4813
g57
(g73
g59
NtRp4814
(dp4815
g62
(dp4816
sg71
g4810
sg64
(lp4817
g57
(g78
g59
NtRp4818
(dp4819
g62
(dp4820
sg71
g4814
sg64
(lp4821
g57
(g58
g59
NtRp4822
(dp4823
g62
(dp4824
g70
I4
ssg71
g4818
sg64
(lp4825
S'/Betsy/static/js/jquery.js'
p4826
asbasbasbag57
(g73
g59
NtRp4827
(dp4828
g62
(dp4829
sg71
g4810
sg64
(lp4830
g57
(g78
g59
NtRp4831
(dp4832
g62
(dp4833
sg71
g4827
sg64
(lp4834
g57
(g58
g59
NtRp4835
(dp4836
g62
(dp4837
g70
I4
ssg71
g4831
sg64
(lp4838
S'/Betsy/static/css/calendar.css'
p4839
asbasbasbag57
(g73
g59
NtRp4840
(dp4841
g62
(dp4842
sg71
g4810
sg64
(lp4843
g57
(g78
g59
NtRp4844
(dp4845
g62
(dp4846
sg71
g4840
sg64
(lp4847
g57
(g58
g59
NtRp4848
(dp4849
g62
(dp4850
g70
I4
ssg71
g4844
sg64
(lp4851
S'/Betsy/static/js/calendar.js'
p4852
asbasbasbag57
(g73
g59
NtRp4853
(dp4854
g62
(dp4855
sg71
g4810
sg64
(lp4856
g57
(g78
g59
NtRp4857
(dp4858
g62
(dp4859
sg71
g4853
sg64
(lp4860
g57
(g58
g59
NtRp4861
(dp4862
g62
(dp4863
g70
I4
ssg71
g4857
sg64
(lp4864
S'/Betsy/static/js/web2py.js'
p4865
asbasbasbag57
(g73
g59
NtRp4866
(dp4867
g62
(dp4868
sg71
g4810
sg64
(lp4869
g57
(g78
g59
NtRp4870
(dp4871
g62
(dp4872
sg71
g4866
sg64
(lp4873
g57
(g58
g59
NtRp4874
(dp4875
g62
(dp4876
g70
I4
ssg71
g4870
sg64
(lp4877
S'/Betsy/static/css/web2py.css'
p4878
asbasbasbag57
(g73
g59
NtRp4879
(dp4880
g62
(dp4881
sg71
g4810
sg64
(lp4882
g57
(g78
g59
NtRp4883
(dp4884
g62
(dp4885
sg71
g4879
sg64
(lp4886
g57
(g58
g59
NtRp4887
(dp4888
g62
(dp4889
g70
I4
ssg71
g4883
sg64
(lp4890
S'/Betsy/static/css/bootstrap.min.css'
p4891
asbasbasbag57
(g73
g59
NtRp4892
(dp4893
g62
(dp4894
sg71
g4810
sg64
(lp4895
g57
(g78
g59
NtRp4896
(dp4897
g62
(dp4898
sg71
g4892
sg64
(lp4899
g57
(g58
g59
NtRp4900
(dp4901
g62
(dp4902
g70
I4
ssg71
g4896
sg64
(lp4903
S'/Betsy/static/css/bootstrap-responsive.min.css'
p4904
asbasbasbag57
(g73
g59
NtRp4905
(dp4906
g62
(dp4907
sg71
g4810
sg64
(lp4908
g57
(g78
g59
NtRp4909
(dp4910
g62
(dp4911
sg71
g4905
sg64
(lp4912
g57
(g58
g59
NtRp4913
(dp4914
g62
(dp4915
g70
I4
ssg71
g4909
sg64
(lp4916
S'/Betsy/static/css/web2py_bootstrap.css'
p4917
asbasbasbasbasbasbasbag57
(g73
g59
NtRp4918
(dp4919
g62
(dp4920
sg71
g4503
sg64
(lp4921
g57
(g78
g59
NtRp4922
(dp4923
g62
(dp4924
g82
g83
ssg71
g4918
sg64
(lp4925
S'flash'
p4926
asbag57
(g78
g59
NtRp4927
(dp4928
g62
(dp4929
g89
g90
ssg71
g4918
sg64
(lp4930
S':'
asbag57
(g78
g59
NtRp4931
(dp4932
g62
(dp4933
sg71
g4918
sg64
(lp4934
g57
(g58
g59
NtRp4935
(dp4936
g62
(dp4937
g70
I5
ssg71
g4931
sg64
(lp4938
S''
asbasbasbag57
(g73
g59
NtRp4939
(dp4940
g62
(dp4941
sg71
g4503
sg64
(lp4942
g57
(g78
g59
NtRp4943
(dp4944
g62
(dp4945
g82
g83
ssg71
g4939
sg64
(lp4946
S'generic_patterns'
p4947
asbag57
(g78
g59
NtRp4948
(dp4949
g62
(dp4950
g89
g90
ssg71
g4939
sg64
(lp4951
S':'
asbag57
(g78
g59
NtRp4952
(dp4953
g62
(dp4954
sg71
g4939
sg64
(lp4955
g57
(g58
g59
NtRp4956
(dp4957
g62
(dp4958
g70
I5
ssg71
g4952
sg64
(lp4959
g57
(g66
g59
NtRp4960
(dp4961
g62
(dp4962
g70
I4
ssg71
Nsg64
(lp4963
g57
(g73
g59
NtRp4964
(dp4965
g62
(dp4966
sg71
g4960
sg64
(lp4967
g57
(g78
g59
NtRp4968
(dp4969
g62
(dp4970
sg71
g4964
sg64
(lp4971
g57
(g58
g59
NtRp4972
(dp4973
g62
(dp4974
g70
I4
ssg71
g4968
sg64
(lp4975
S'*'
asbasbasbasbasbasbasbag57
(g73
g59
NtRp4976
(dp4977
g62
(dp4978
sg71
g4503
sg64
(lp4979
g57
(g78
g59
NtRp4980
(dp4981
g62
(dp4982
g82
g83
ssg71
g4976
sg64
(lp4983
S'google_analytics_id'
p4984
asbag57
(g78
g59
NtRp4985
(dp4986
g62
(dp4987
g89
g90
ssg71
g4976
sg64
(lp4988
S':'
asbag57
(g78
g59
NtRp4989
(dp4990
g62
(dp4991
sg71
g4976
sg64
(lp4992
g57
(g58
g59
NtRp4993
(dp4994
g62
(dp4995
g70
I5
ssg71
g4989
sg64
(lp4996
S'None'
p4997
asbasbasbag57
(g73
g59
NtRp4998
(dp4999
g62
(dp5000
sg71
g4503
sg64
(lp5001
g57
(g78
g59
NtRp5002
(dp5003
g62
(dp5004
g82
g83
ssg71
g4998
sg64
(lp5005
S'headers'
p5006
asbag57
(g78
g59
NtRp5007
(dp5008
g62
(dp5009
g89
g90
ssg71
g4998
sg64
(lp5010
S':'
asbag57
(g78
g59
NtRp5011
(dp5012
g62
(dp5013
sg71
g4998
sg64
(lp5014
g57
(g58
g59
NtRp5015
(dp5016
g62
(dp5017
g70
I5
ssg71
g5011
sg64
(lp5018
g57
(g66
g59
NtRp5019
(dp5020
g62
(dp5021
g70
I4
ssg71
Nsg64
(lp5022
g57
(g73
g59
NtRp5023
(dp5024
g62
(dp5025
sg71
g5019
sg64
(lp5026
g57
(g78
g59
NtRp5027
(dp5028
g62
(dp5029
g82
g83
ssg71
g5023
sg64
(lp5030
S'X-Powered-By'
p5031
asbag57
(g78
g59
NtRp5032
(dp5033
g62
(dp5034
g89
g90
ssg71
g5023
sg64
(lp5035
S':'
asbag57
(g78
g59
NtRp5036
(dp5037
g62
(dp5038
sg71
g5023
sg64
(lp5039
g57
(g58
g59
NtRp5040
(dp5041
g62
(dp5042
g70
I4
ssg71
g5036
sg64
(lp5043
S'web2py'
p5044
asbasbasbasbasbasbasbag57
(g73
g59
NtRp5045
(dp5046
g62
(dp5047
sg71
g4503
sg64
(lp5048
g57
(g78
g59
NtRp5049
(dp5050
g62
(dp5051
g82
g83
ssg71
g5045
sg64
(lp5052
S'menu'
p5053
asbag57
(g78
g59
NtRp5054
(dp5055
g62
(dp5056
g89
g90
ssg71
g5045
sg64
(lp5057
S':'
asbag57
(g78
g59
NtRp5058
(dp5059
g62
(dp5060
sg71
g5045
sg64
(lp5061
g57
(g58
g59
NtRp5062
(dp5063
g62
(dp5064
g70
I5
ssg71
g5058
sg64
(lp5065
g57
(g66
g59
NtRp5066
(dp5067
g62
(dp5068
g70
I4
ssg71
Nsg64
(lp5069
g57
(g73
g59
NtRp5070
(dp5071
g62
(dp5072
sg71
g5066
sg64
(lp5073
g57
(g78
g59
NtRp5074
(dp5075
g62
(dp5076
sg71
g5070
sg64
(lp5077
g57
(g58
g59
NtRp5078
(dp5079
g62
(dp5080
g70
I4
ssg71
g5074
sg64
(lp5081
g57
(g66
g59
NtRp5082
(dp5083
g62
(dp5084
g70
I3
ssg71
Nsg64
(lp5085
g57
(g73
g59
NtRp5086
(dp5087
g62
(dp5088
sg71
g5082
sg64
(lp5089
g57
(g78
g59
NtRp5090
(dp5091
g62
(dp5092
sg71
g5086
sg64
(lp5093
g57
(g58
g59
NtRp5094
(dp5095
g62
(dp5096
g70
I3
ssg71
g5090
sg64
(lp5097
cgluon.languages
lazyT_unpickle
p5098
(S's\x04\x00\x00\x00Home'
tRp5099
asbasbasbag57
(g73
g59
NtRp5100
(dp5101
g62
(dp5102
sg71
g5082
sg64
(lp5103
g57
(g78
g59
NtRp5104
(dp5105
g62
(dp5106
sg71
g5100
sg64
(lp5107
g57
(g58
g59
NtRp5108
(dp5109
g62
(dp5110
g70
I3
ssg71
g5104
sg64
(lp5111
g100
asbasbasbag57
(g73
g59
NtRp5112
(dp5113
g62
(dp5114
sg71
g5082
sg64
(lp5115
g57
(g78
g59
NtRp5116
(dp5117
g62
(dp5118
sg71
g5112
sg64
(lp5119
g57
(g58
g59
NtRp5120
(dp5121
g62
(dp5122
g70
I3
ssg71
g5116
sg64
(lp5123
S'/Betsy/default/index'
p5124
asbasbasbag57
(g73
g59
NtRp5125
(dp5126
g62
(dp5127
sg71
g5082
sg64
(lp5128
g57
(g78
g59
NtRp5129
(dp5130
g62
(dp5131
sg71
g5125
sg64
(lp5132
g57
(g58
g59
NtRp5133
(dp5134
g62
(dp5135
g70
I3
ssg71
g5129
sg64
(lp5136
g57
(g66
g59
NtRp5137
(dp5138
g62
(dp5139
g70
I2
ssg71
Nsg64
(lp5140
sbasbasbasbasbasbasbasbag57
(g73
g59
NtRp5141
(dp5142
g62
(dp5143
sg71
g5066
sg64
(lp5144
g57
(g78
g59
NtRp5145
(dp5146
g62
(dp5147
sg71
g5141
sg64
(lp5148
g57
(g58
g59
NtRp5149
(dp5150
g62
(dp5151
g70
I4
ssg71
g5145
sg64
(lp5152
g57
(g66
g59
NtRp5153
(dp5154
g62
(dp5155
g70
I3
ssg71
Nsg64
(lp5156
g57
(g73
g59
NtRp5157
(dp5158
g62
(dp5159
sg71
g5153
sg64
(lp5160
g57
(g78
g59
NtRp5161
(dp5162
g62
(dp5163
sg71
g5157
sg64
(lp5164
g57
(g58
g59
NtRp5165
(dp5166
g62
(dp5167
g70
I3
ssg71
g5161
sg64
(lp5168
g57
(cgluon.html
SPAN
p5169
g59
NtRp5170
(dp5171
g62
(dp5172
S'_class'
p5173
S'highlighted'
p5174
ssg71
g57
(cgluon.html
A
p5175
g59
NtRp5176
(dp5177
g62
(dp5178
S'_href'
p5179
S'http://web2py.com'
p5180
ssg71
g57
(cgluon.html
LI
p5181
g59
NtRp5182
(dp5183
g62
(dp5184
g5173
S'dropdown'
p5185
ssg71
g57
(cgluon.html
UL
p5186
g59
NtRp5187
(dp5188
g62
(dp5189
S'li_class'
p5190
g5185
sS'mobile'
p5191
I00
sg5173
S'nav'
p5192
sS'ul_class'
p5193
S'dropdown-menu'
p5194
sS'li_active'
p5195
S'web2py-menu-active'
p5196
ssg71
Nsg64
(lp5197
g57
(g5181
g59
NtRp5198
(dp5199
g62
(dp5200
sg71
g5187
sg64
(lp5201
g57
(g5175
g59
NtRp5202
(dp5203
g62
(dp5204
g5179
g5124
ssg71
g5198
sg64
(lp5205
g5099
asbasbag5182
asbsg64
(lp5206
g5176
ag57
(g5186
g59
NtRp5207
(dp5208
g62
(dp5209
g5173
g5194
ssg71
g5182
sg64
(lp5210
g57
(g5181
g59
NtRp5211
(dp5212
g62
(dp5213
sg71
g5207
sg64
(lp5214
g57
(g5175
g59
NtRp5215
(dp5216
g62
(dp5217
g5179
S'/admin/default/site'
p5218
ssg71
g5211
sg64
(lp5219
g5098
(S's\x08\x00\x00\x00My Sites'
tRp5220
asbasbag57
(g5181
g59
NtRp5221
(dp5222
g62
(dp5223
g5173
g5185
ssg71
g5207
sg64
(lp5224
g57
(g5175
g59
NtRp5225
(dp5226
g62
(dp5227
g5179
S'/admin/default/design/Betsy'
p5228
ssg71
g5221
sg64
(lp5229
g5098
(S's\x08\x00\x00\x00This App'
tRp5230
asbag57
(g5186
g59
NtRp5231
(dp5232
g62
(dp5233
g5173
g5194
ssg71
g5221
sg64
(lp5234
g57
(g5181
g59
NtRp5235
(dp5236
g62
(dp5237
sg71
g5231
sg64
(lp5238
g57
(g5175
g59
NtRp5239
(dp5240
g62
(dp5241
g5179
S'/admin/default/edit/Betsy/controllers/default.py'
p5242
ssg71
g5235
sg64
(lp5243
g5098
(S's\n\x00\x00\x00Controller'
tRp5244
asbasbag57
(g5181
g59
NtRp5245
(dp5246
g62
(dp5247
sg71
g5231
sg64
(lp5248
g57
(g5175
g59
NtRp5249
(dp5250
g62
(dp5251
g5179
S'/admin/default/edit/Betsy/views/default/index.html'
p5252
ssg71
g5245
sg64
(lp5253
g5098
(S's\x04\x00\x00\x00View'
tRp5254
asbasbag57
(g5181
g59
NtRp5255
(dp5256
g62
(dp5257
sg71
g5231
sg64
(lp5258
g57
(g5175
g59
NtRp5259
(dp5260
g62
(dp5261
g5179
S'/admin/default/edit/Betsy/views/layout.html'
p5262
ssg71
g5255
sg64
(lp5263
g5098
(S's\x06\x00\x00\x00Layout'
tRp5264
asbasbag57
(g5181
g59
NtRp5265
(dp5266
g62
(dp5267
sg71
g5231
sg64
(lp5268
g57
(g5175
g59
NtRp5269
(dp5270
g62
(dp5271
g5179
S'/admin/default/edit/Betsy/static/css/web2py.css'
p5272
ssg71
g5265
sg64
(lp5273
g5098
(S's\n\x00\x00\x00Stylesheet'
tRp5274
asbasbag57
(g5181
g59
NtRp5275
(dp5276
g62
(dp5277
sg71
g5231
sg64
(lp5278
g57
(g5175
g59
NtRp5279
(dp5280
g62
(dp5281
g5179
S'/admin/default/edit/Betsy/models/db.py'
p5282
ssg71
g5275
sg64
(lp5283
g5098
(S's\x08\x00\x00\x00DB Model'
tRp5284
asbasbag57
(g5181
g59
NtRp5285
(dp5286
g62
(dp5287
sg71
g5231
sg64
(lp5288
g57
(g5175
g59
NtRp5289
(dp5290
g62
(dp5291
g5179
S'/admin/default/edit/Betsy/models/menu.py'
p5292
ssg71
g5285
sg64
(lp5293
g5098
(S's\n\x00\x00\x00Menu Model'
tRp5294
asbasbag57
(g5181
g59
NtRp5295
(dp5296
g62
(dp5297
sg71
g5231
sg64
(lp5298
g57
(g5175
g59
NtRp5299
(dp5300
g62
(dp5301
g5179
S'/Betsy/appadmin/index'
p5302
ssg71
g5295
sg64
(lp5303
g5098
(S's\x08\x00\x00\x00Database'
tRp5304
asbasbag57
(g5181
g59
NtRp5305
(dp5306
g62
(dp5307
sg71
g5231
sg64
(lp5308
g57
(g5175
g59
NtRp5309
(dp5310
g62
(dp5311
g5179
S'/admin/default/errors/Betsy'
p5312
ssg71
g5305
sg64
(lp5313
g5098
(S's\x06\x00\x00\x00Errors'
tRp5314
asbasbag57
(g5181
g59
NtRp5315
(dp5316
g62
(dp5317
sg71
g5231
sg64
(lp5318
g57
(g5175
g59
NtRp5319
(dp5320
g62
(dp5321
g5179
S'/admin/default/about/Betsy'
p5322
ssg71
g5315
sg64
(lp5323
g5098
(S's\x05\x00\x00\x00About'
tRp5324
asbasbasbasbag57
(g5181
g59
NtRp5325
(dp5326
g62
(dp5327
g5173
g5185
ssg71
g5207
sg64
(lp5328
g57
(g5175
g59
NtRp5329
(dp5330
g62
(dp5331
g5179
S'http://www.web2py.com'
p5332
ssg71
g5325
sg64
(lp5333
S'web2py.com'
p5334
asbag57
(g5186
g59
NtRp5335
(dp5336
g62
(dp5337
g5173
g5194
ssg71
g5325
sg64
(lp5338
g57
(g5181
g59
NtRp5339
(dp5340
g62
(dp5341
sg71
g5335
sg64
(lp5342
g57
(g5175
g59
NtRp5343
(dp5344
g62
(dp5345
g5179
S'http://www.web2py.com/examples/default/download'
p5346
ssg71
g5339
sg64
(lp5347
g5098
(S's\x08\x00\x00\x00Download'
tRp5348
asbasbag57
(g5181
g59
NtRp5349
(dp5350
g62
(dp5351
sg71
g5335
sg64
(lp5352
g57
(g5175
g59
NtRp5353
(dp5354
g62
(dp5355
g5179
S'http://www.web2py.com/examples/default/support'
p5356
ssg71
g5349
sg64
(lp5357
g5098
(S's\x07\x00\x00\x00Support'
tRp5358
asbasbag57
(g5181
g59
NtRp5359
(dp5360
g62
(dp5361
sg71
g5335
sg64
(lp5362
g57
(g5175
g59
NtRp5363
(dp5364
g62
(dp5365
g5179
S'http://web2py.com/demo_admin'
p5366
ssg71
g5359
sg64
(lp5367
g5098
(S's\x04\x00\x00\x00Demo'
tRp5368
asbasbag57
(g5181
g59
NtRp5369
(dp5370
g62
(dp5371
sg71
g5335
sg64
(lp5372
g57
(g5175
g59
NtRp5373
(dp5374
g62
(dp5375
g5179
S'http://web2py.com/examples/default/examples'
p5376
ssg71
g5369
sg64
(lp5377
g5098
(S's\x0e\x00\x00\x00Quick Examples'
tRp5378
asbasbag57
(g5181
g59
NtRp5379
(dp5380
g62
(dp5381
sg71
g5335
sg64
(lp5382
g57
(g5175
g59
NtRp5383
(dp5384
g62
(dp5385
g5179
S'http://web2py.com/AlterEgo'
p5386
ssg71
g5379
sg64
(lp5387
g5098
(S's\x03\x00\x00\x00FAQ'
tRp5388
asbasbag57
(g5181
g59
NtRp5389
(dp5390
g62
(dp5391
sg71
g5335
sg64
(lp5392
g57
(g5175
g59
NtRp5393
(dp5394
g62
(dp5395
g5179
S'http://www.web2py.com/examples/default/videos/'
p5396
ssg71
g5389
sg64
(lp5397
g5098
(S's\x06\x00\x00\x00Videos'
tRp5398
asbasbag57
(g5181
g59
NtRp5399
(dp5400
g62
(dp5401
sg71
g5335
sg64
(lp5402
g57
(g5175
g59
NtRp5403
(dp5404
g62
(dp5405
g5179
S'http://web2py.com/appliances'
p5406
ssg71
g5399
sg64
(lp5407
g5098
(S's\x11\x00\x00\x00Free Applications'
tRp5408
asbasbag57
(g5181
g59
NtRp5409
(dp5410
g62
(dp5411
sg71
g5335
sg64
(lp5412
g57
(g5175
g59
NtRp5413
(dp5414
g62
(dp5415
g5179
S'http://web2py.com/plugins'
p5416
ssg71
g5409
sg64
(lp5417
g5098
(S's\x07\x00\x00\x00Plugins'
tRp5418
asbasbag57
(g5181
g59
NtRp5419
(dp5420
g62
(dp5421
sg71
g5335
sg64
(lp5422
g57
(g5175
g59
NtRp5423
(dp5424
g62
(dp5425
g5179
S'http://web2py.com/layouts'
p5426
ssg71
g5419
sg64
(lp5427
g5098
(S's\x07\x00\x00\x00Layouts'
tRp5428
asbasbag57
(g5181
g59
NtRp5429
(dp5430
g62
(dp5431
sg71
g5335
sg64
(lp5432
g57
(g5175
g59
NtRp5433
(dp5434
g62
(dp5435
g5179
S'http://web2pyslices.com/'
p5436
ssg71
g5429
sg64
(lp5437
g5098
(S's\x07\x00\x00\x00Recipes'
tRp5438
asbasbag57
(g5181
g59
NtRp5439
(dp5440
g62
(dp5441
sg71
g5335
sg64
(lp5442
g57
(g5175
g59
NtRp5443
(dp5444
g62
(dp5445
g5179
S'http://web2py.com/semantic'
p5446
ssg71
g5439
sg64
(lp5447
g5098
(S's\x08\x00\x00\x00Semantic'
tRp5448
asbasbasbasbag57
(g5181
g59
NtRp5449
(dp5450
g62
(dp5451
g5173
g5185
ssg71
g5207
sg64
(lp5452
g57
(g5175
g59
NtRp5453
(dp5454
g62
(dp5455
g5179
S'http://www.web2py.com/book'
p5456
ssg71
g5449
sg64
(lp5457
g5098
(S's\r\x00\x00\x00Documentation'
tRp5458
asbag57
(g5186
g59
NtRp5459
(dp5460
g62
(dp5461
g5173
g5194
ssg71
g5449
sg64
(lp5462
g57
(g5181
g59
NtRp5463
(dp5464
g62
(dp5465
sg71
g5459
sg64
(lp5466
g57
(g5175
g59
NtRp5467
(dp5468
g62
(dp5469
g5179
S'http://www.web2py.com/book/default/chapter/00'
p5470
ssg71
g5463
sg64
(lp5471
g5098
(S's\x07\x00\x00\x00Preface'
tRp5472
asbasbag57
(g5181
g59
NtRp5473
(dp5474
g62
(dp5475
sg71
g5459
sg64
(lp5476
g57
(g5175
g59
NtRp5477
(dp5478
g62
(dp5479
g5179
S'http://www.web2py.com/book/default/chapter/01'
p5480
ssg71
g5473
sg64
(lp5481
g5098
(S's\x0c\x00\x00\x00Introduction'
tRp5482
asbasbag57
(g5181
g59
NtRp5483
(dp5484
g62
(dp5485
sg71
g5459
sg64
(lp5486
g57
(g5175
g59
NtRp5487
(dp5488
g62
(dp5489
g5179
S'http://www.web2py.com/book/default/chapter/02'
p5490
ssg71
g5483
sg64
(lp5491
g5098
(S's\x06\x00\x00\x00Python'
tRp5492
asbasbag57
(g5181
g59
NtRp5493
(dp5494
g62
(dp5495
sg71
g5459
sg64
(lp5496
g57
(g5175
g59
NtRp5497
(dp5498
g62
(dp5499
g5179
S'http://www.web2py.com/book/default/chapter/03'
p5500
ssg71
g5493
sg64
(lp5501
g5098
(S's\x08\x00\x00\x00Overview'
tRp5502
asbasbag57
(g5181
g59
NtRp5503
(dp5504
g62
(dp5505
sg71
g5459
sg64
(lp5506
g57
(g5175
g59
NtRp5507
(dp5508
g62
(dp5509
g5179
S'http://www.web2py.com/book/default/chapter/04'
p5510
ssg71
g5503
sg64
(lp5511
g5098
(S's\x08\x00\x00\x00The Core'
tRp5512
asbasbag57
(g5181
g59
NtRp5513
(dp5514
g62
(dp5515
sg71
g5459
sg64
(lp5516
g57
(g5175
g59
NtRp5517
(dp5518
g62
(dp5519
g5179
S'http://www.web2py.com/book/default/chapter/05'
p5520
ssg71
g5513
sg64
(lp5521
g5098
(S's\t\x00\x00\x00The Views'
tRp5522
asbasbag57
(g5181
g59
NtRp5523
(dp5524
g62
(dp5525
sg71
g5459
sg64
(lp5526
g57
(g5175
g59
NtRp5527
(dp5528
g62
(dp5529
g5179
S'http://www.web2py.com/book/default/chapter/06'
p5530
ssg71
g5523
sg64
(lp5531
g5098
(S's\x08\x00\x00\x00Database'
tRp5532
asbasbag57
(g5181
g59
NtRp5533
(dp5534
g62
(dp5535
sg71
g5459
sg64
(lp5536
g57
(g5175
g59
NtRp5537
(dp5538
g62
(dp5539
g5179
S'http://www.web2py.com/book/default/chapter/07'
p5540
ssg71
g5533
sg64
(lp5541
g5098
(S's\x14\x00\x00\x00Forms and Validators'
tRp5542
asbasbag57
(g5181
g59
NtRp5543
(dp5544
g62
(dp5545
sg71
g5459
sg64
(lp5546
g57
(g5175
g59
NtRp5547
(dp5548
g62
(dp5549
g5179
S'http://www.web2py.com/book/default/chapter/08'
p5550
ssg71
g5543
sg64
(lp5551
g5098
(S's\r\x00\x00\x00Email and SMS'
tRp5552
asbasbag57
(g5181
g59
NtRp5553
(dp5554
g62
(dp5555
sg71
g5459
sg64
(lp5556
g57
(g5175
g59
NtRp5557
(dp5558
g62
(dp5559
g5179
S'http://www.web2py.com/book/default/chapter/09'
p5560
ssg71
g5553
sg64
(lp5561
g5098
(S's\x0e\x00\x00\x00Access Control'
tRp5562
asbasbag57
(g5181
g59
NtRp5563
(dp5564
g62
(dp5565
sg71
g5459
sg64
(lp5566
g57
(g5175
g59
NtRp5567
(dp5568
g62
(dp5569
g5179
S'http://www.web2py.com/book/default/chapter/10'
p5570
ssg71
g5563
sg64
(lp5571
g5098
(S's\x08\x00\x00\x00Services'
tRp5572
asbasbag57
(g5181
g59
NtRp5573
(dp5574
g62
(dp5575
sg71
g5459
sg64
(lp5576
g57
(g5175
g59
NtRp5577
(dp5578
g62
(dp5579
g5179
S'http://www.web2py.com/book/default/chapter/11'
p5580
ssg71
g5573
sg64
(lp5581
g5098
(S's\x0c\x00\x00\x00Ajax Recipes'
tRp5582
asbasbag57
(g5181
g59
NtRp5583
(dp5584
g62
(dp5585
sg71
g5459
sg64
(lp5586
g57
(g5175
g59
NtRp5587
(dp5588
g62
(dp5589
g5179
S'http://www.web2py.com/book/default/chapter/12'
p5590
ssg71
g5583
sg64
(lp5591
g5098
(S's\x16\x00\x00\x00Components and Plugins'
tRp5592
asbasbag57
(g5181
g59
NtRp5593
(dp5594
g62
(dp5595
sg71
g5459
sg64
(lp5596
g57
(g5175
g59
NtRp5597
(dp5598
g62
(dp5599
g5179
S'http://www.web2py.com/book/default/chapter/13'
p5600
ssg71
g5593
sg64
(lp5601
g5098
(S's\x12\x00\x00\x00Deployment Recipes'
tRp5602
asbasbag57
(g5181
g59
NtRp5603
(dp5604
g62
(dp5605
sg71
g5459
sg64
(lp5606
g57
(g5175
g59
NtRp5607
(dp5608
g62
(dp5609
g5179
S'http://www.web2py.com/book/default/chapter/14'
p5610
ssg71
g5603
sg64
(lp5611
g5098
(S's\r\x00\x00\x00Other Recipes'
tRp5612
asbasbag57
(g5181
g59
NtRp5613
(dp5614
g62
(dp5615
sg71
g5459
sg64
(lp5616
g57
(g5175
g59
NtRp5617
(dp5618
g62
(dp5619
g5179
S'http://stores.lulu.com/web2py'
p5620
ssg71
g5613
sg64
(lp5621
g5098
(S's\r\x00\x00\x00Buy this book'
tRp5622
asbasbasbasbag57
(g5181
g59
NtRp5623
(dp5624
g62
(dp5625
g5173
g5185
ssg71
g5207
sg64
(lp5626
g57
(g5175
g59
NtRp5627
(dp5628
g62
(dp5629
S'_onclick'
p5630
S'javascript:void(0);return false;'
p5631
sg5179
S'#'
ssg71
g5623
sg64
(lp5632
g5098
(S's\t\x00\x00\x00Community'
tRp5633
asbag57
(g5186
g59
NtRp5634
(dp5635
g62
(dp5636
g5173
g5194
ssg71
g5623
sg64
(lp5637
g57
(g5181
g59
NtRp5638
(dp5639
g62
(dp5640
sg71
g5634
sg64
(lp5641
g57
(g5175
g59
NtRp5642
(dp5643
g62
(dp5644
g5179
S'http://www.web2py.com/examples/default/usergroups'
p5645
ssg71
g5638
sg64
(lp5646
g5098
(S's\x06\x00\x00\x00Groups'
tRp5647
asbasbag57
(g5181
g59
NtRp5648
(dp5649
g62
(dp5650
sg71
g5634
sg64
(lp5651
g57
(g5175
g59
NtRp5652
(dp5653
g62
(dp5654
g5179
S'http://twitter.com/web2py'
p5655
ssg71
g5648
sg64
(lp5656
g5098
(S's\x07\x00\x00\x00Twitter'
tRp5657
asbasbag57
(g5181
g59
NtRp5658
(dp5659
g62
(dp5660
sg71
g5634
sg64
(lp5661
g57
(g5175
g59
NtRp5662
(dp5663
g62
(dp5664
g5179
S'http://webchat.freenode.net/?channels=web2py'
p5665
ssg71
g5658
sg64
(lp5666
g5098
(S's\t\x00\x00\x00Live Chat'
tRp5667
asbasbasbasbag57
(g5181
g59
NtRp5668
(dp5669
g62
(dp5670
g5173
g5185
ssg71
g5207
sg64
(lp5671
g57
(g5175
g59
NtRp5672
(dp5673
g62
(dp5674
g5630
g5631
sg5179
S'#'
ssg71
g5668
sg64
(lp5675
g5098
(S's\x07\x00\x00\x00Plugins'
tRp5676
asbag57
(g5186
g59
NtRp5677
(dp5678
g62
(dp5679
g5173
g5194
ssg71
g5668
sg64
(lp5680
g57
(g5181
g59
NtRp5681
(dp5682
g62
(dp5683
sg71
g5677
sg64
(lp5684
g57
(g5175
g59
NtRp5685
(dp5686
g62
(dp5687
g5179
S'http://web2py.com/examples/default/download'
p5688
ssg71
g5681
sg64
(lp5689
S'plugin_wiki'
p5690
asbasbag57
(g5181
g59
NtRp5691
(dp5692
g62
(dp5693
sg71
g5677
sg64
(lp5694
g57
(g5175
g59
NtRp5695
(dp5696
g62
(dp5697
g5179
g5416
ssg71
g5691
sg64
(lp5698
g5098
(S's\r\x00\x00\x00Other Plugins'
tRp5699
asbasbag57
(g5181
g59
NtRp5700
(dp5701
g62
(dp5702
sg71
g5677
sg64
(lp5703
g57
(g5175
g59
NtRp5704
(dp5705
g62
(dp5706
g5179
g5426
ssg71
g5700
sg64
(lp5707
g5098
(S's\x0e\x00\x00\x00Layout Plugins'
tRp5708
asbasbasbasbasbasbsg64
(lp5709
g5170
asbsg64
(lp5710
g5044
asbasbasbasbag57
(g73
g59
NtRp5711
(dp5712
g62
(dp5713
sg71
g5153
sg64
(lp5714
g57
(g78
g59
NtRp5715
(dp5716
g62
(dp5717
sg71
g5711
sg64
(lp5718
g57
(g58
g59
NtRp5719
(dp5720
g62
(dp5721
g70
I3
ssg71
g5715
sg64
(lp5722
g100
asbasbasbag57
(g73
g59
NtRp5723
(dp5724
g62
(dp5725
sg71
g5153
sg64
(lp5726
g57
(g78
g59
NtRp5727
(dp5728
g62
(dp5729
sg71
g5723
sg64
(lp5730
g57
(g58
g59
NtRp5731
(dp5732
g62
(dp5733
g70
I3
ssg71
g5727
sg64
(lp5734
g5180
asbasbasbag57
(g73
g59
NtRp5735
(dp5736
g62
(dp5737
sg71
g5153
sg64
(lp5738
g57
(g78
g59
NtRp5739
(dp5740
g62
(dp5741
sg71
g5735
sg64
(lp5742
g57
(g58
g59
NtRp5743
(dp5744
g62
(dp5745
g70
I3
ssg71
g5739
sg64
(lp5746
g57
(g66
g59
NtRp5747
(dp5748
g62
(dp5749
g70
I2
ssg71
Nsg64
(lp5750
g57
(g73
g59
NtRp5751
(dp5752
g62
(dp5753
sg71
g5747
sg64
(lp5754
g57
(g78
g59
NtRp5755
(dp5756
g62
(dp5757
sg71
g5751
sg64
(lp5758
g57
(g58
g59
NtRp5759
(dp5760
g62
(dp5761
g70
I2
ssg71
g5755
sg64
(lp5762
g57
(g66
g59
NtRp5763
(dp5764
g62
(dp5765
g70
I1
ssg71
Nsg64
(lp5766
g57
(g73
g59
NtRp5767
(dp5768
g62
(dp5769
sg71
g5763
sg64
(lp5770
g57
(g78
g59
NtRp5771
(dp5772
g62
(dp5773
sg71
g5767
sg64
(lp5774
g57
(g58
g59
NtRp5775
(dp5776
g62
(dp5777
g70
I1
ssg71
g5771
sg64
(lp5778
g5220
asbasbasbag57
(g73
g59
NtRp5779
(dp5780
g62
(dp5781
sg71
g5763
sg64
(lp5782
g57
(g78
g59
NtRp5783
(dp5784
g62
(dp5785
sg71
g5779
sg64
(lp5786
g57
(g58
g59
NtRp5787
(dp5788
g62
(dp5789
g70
I1
ssg71
g5783
sg64
(lp5790
I00
asbasbasbag57
(g73
g59
NtRp5791
(dp5792
g62
(dp5793
sg71
g5763
sg64
(lp5794
g57
(g78
g59
NtRp5795
(dp5796
g62
(dp5797
sg71
g5791
sg64
(lp5798
g57
(g58
g59
NtRp5799
(dp5800
g62
(dp5801
g70
I1
ssg71
g5795
sg64
(lp5802
g5218
asbasbasbasbasbasbasbag57
(g73
g59
NtRp5803
(dp5804
g62
(dp5805
sg71
g5747
sg64
(lp5806
g57
(g78
g59
NtRp5807
(dp5808
g62
(dp5809
sg71
g5803
sg64
(lp5810
g57
(g58
g59
NtRp5811
(dp5812
g62
(dp5813
g70
I2
ssg71
g5807
sg64
(lp5814
g57
(g66
g59
NtRp5815
(dp5816
g62
(dp5817
g70
I1
ssg71
Nsg64
(lp5818
g57
(g73
g59
NtRp5819
(dp5820
g62
(dp5821
sg71
g5815
sg64
(lp5822
g57
(g78
g59
NtRp5823
(dp5824
g62
(dp5825
sg71
g5819
sg64
(lp5826
g57
(g58
g59
NtRp5827
(dp5828
g62
(dp5829
g70
I1
ssg71
g5823
sg64
(lp5830
g5230
asbasbasbag57
(g73
g59
NtRp5831
(dp5832
g62
(dp5833
sg71
g5815
sg64
(lp5834
g57
(g78
g59
NtRp5835
(dp5836
g62
(dp5837
sg71
g5831
sg64
(lp5838
g57
(g58
g59
NtRp5839
(dp5840
g62
(dp5841
g70
I1
ssg71
g5835
sg64
(lp5842
I00
asbasbasbag57
(g73
g59
NtRp5843
(dp5844
g62
(dp5845
sg71
g5815
sg64
(lp5846
g57
(g78
g59
NtRp5847
(dp5848
g62
(dp5849
sg71
g5843
sg64
(lp5850
g57
(g58
g59
NtRp5851
(dp5852
g62
(dp5853
g70
I1
ssg71
g5847
sg64
(lp5854
g5228
asbasbasbag57
(g73
g59
NtRp5855
(dp5856
g62
(dp5857
sg71
g5815
sg64
(lp5858
g57
(g78
g59
NtRp5859
(dp5860
g62
(dp5861
sg71
g5855
sg64
(lp5862
g57
(g58
g59
NtRp5863
(dp5864
g62
(dp5865
g70
I1
ssg71
g5859
sg64
(lp5866
(lp5867
(g5244
I00
g5242
tp5868
a(g5254
I00
g5252
tp5869
a(g5264
I00
g5262
tp5870
a(g5274
I00
g5272
tp5871
a(g5284
I00
g5282
tp5872
a(g5294
I00
g5292
tp5873
a(g5304
I00
g5302
tp5874
a(g5314
I00
g5312
tp5875
a(g5324
I00
g5322
tp5876
aasbasbasbasbasbasbasbag57
(g73
g59
NtRp5877
(dp5878
g62
(dp5879
sg71
g5747
sg64
(lp5880
g57
(g78
g59
NtRp5881
(dp5882
g62
(dp5883
sg71
g5877
sg64
(lp5884
g57
(g58
g59
NtRp5885
(dp5886
g62
(dp5887
g70
I2
ssg71
g5881
sg64
(lp5888
g57
(g66
g59
NtRp5889
(dp5890
g62
(dp5891
g70
I1
ssg71
Nsg64
(lp5892
g57
(g73
g59
NtRp5893
(dp5894
g62
(dp5895
sg71
g5889
sg64
(lp5896
g57
(g78
g59
NtRp5897
(dp5898
g62
(dp5899
sg71
g5893
sg64
(lp5900
g57
(g58
g59
NtRp5901
(dp5902
g62
(dp5903
g70
I1
ssg71
g5897
sg64
(lp5904
g5334
asbasbasbag57
(g73
g59
NtRp5905
(dp5906
g62
(dp5907
sg71
g5889
sg64
(lp5908
g57
(g78
g59
NtRp5909
(dp5910
g62
(dp5911
sg71
g5905
sg64
(lp5912
g57
(g58
g59
NtRp5913
(dp5914
g62
(dp5915
g70
I1
ssg71
g5909
sg64
(lp5916
I00
asbasbasbag57
(g73
g59
NtRp5917
(dp5918
g62
(dp5919
sg71
g5889
sg64
(lp5920
g57
(g78
g59
NtRp5921
(dp5922
g62
(dp5923
sg71
g5917
sg64
(lp5924
g57
(g58
g59
NtRp5925
(dp5926
g62
(dp5927
g70
I1
ssg71
g5921
sg64
(lp5928
g5332
asbasbasbag57
(g73
g59
NtRp5929
(dp5930
g62
(dp5931
sg71
g5889
sg64
(lp5932
g57
(g78
g59
NtRp5933
(dp5934
g62
(dp5935
sg71
g5929
sg64
(lp5936
g57
(g58
g59
NtRp5937
(dp5938
g62
(dp5939
g70
I1
ssg71
g5933
sg64
(lp5940
(lp5941
(g5348
I00
g5346
tp5942
a(g5358
I00
g5356
tp5943
a(g5368
I00
g5366
tp5944
a(g5378
I00
g5376
tp5945
a(g5388
I00
g5386
tp5946
a(g5398
I00
g5396
tp5947
a(g5408
I00
g5406
tp5948
a(g5418
I00
g5416
tp5949
a(g5428
I00
g5426
tp5950
a(g5438
I00
g5436
tp5951
a(g5448
I00
g5446
tp5952
aasbasbasbasbasbasbasbag57
(g73
g59
NtRp5953
(dp5954
g62
(dp5955
sg71
g5747
sg64
(lp5956
g57
(g78
g59
NtRp5957
(dp5958
g62
(dp5959
sg71
g5953
sg64
(lp5960
g57
(g58
g59
NtRp5961
(dp5962
g62
(dp5963
g70
I2
ssg71
g5957
sg64
(lp5964
g57
(g66
g59
NtRp5965
(dp5966
g62
(dp5967
g70
I1
ssg71
Nsg64
(lp5968
g57
(g73
g59
NtRp5969
(dp5970
g62
(dp5971
sg71
g5965
sg64
(lp5972
g57
(g78
g59
NtRp5973
(dp5974
g62
(dp5975
sg71
g5969
sg64
(lp5976
g57
(g58
g59
NtRp5977
(dp5978
g62
(dp5979
g70
I1
ssg71
g5973
sg64
(lp5980
g5458
asbasbasbag57
(g73
g59
NtRp5981
(dp5982
g62
(dp5983
sg71
g5965
sg64
(lp5984
g57
(g78
g59
NtRp5985
(dp5986
g62
(dp5987
sg71
g5981
sg64
(lp5988
g57
(g58
g59
NtRp5989
(dp5990
g62
(dp5991
g70
I1
ssg71
g5985
sg64
(lp5992
I00
asbasbasbag57
(g73
g59
NtRp5993
(dp5994
g62
(dp5995
sg71
g5965
sg64
(lp5996
g57
(g78
g59
NtRp5997
(dp5998
g62
(dp5999
sg71
g5993
sg64
(lp6000
g57
(g58
g59
NtRp6001
(dp6002
g62
(dp6003
g70
I1
ssg71
g5997
sg64
(lp6004
g5456
asbasbasbag57
(g73
g59
NtRp6005
(dp6006
g62
(dp6007
sg71
g5965
sg64
(lp6008
g57
(g78
g59
NtRp6009
(dp6010
g62
(dp6011
sg71
g6005
sg64
(lp6012
g57
(g58
g59
NtRp6013
(dp6014
g62
(dp6015
g70
I1
ssg71
g6009
sg64
(lp6016
(lp6017
(g5472
I00
g5470
tp6018
a(g5482
I00
g5480
tp6019
a(g5492
I00
g5490
tp6020
a(g5502
I00
g5500
tp6021
a(g5512
I00
g5510
tp6022
a(g5522
I00
g5520
tp6023
a(g5532
I00
g5530
tp6024
a(g5542
I00
g5540
tp6025
a(g5552
I00
g5550
tp6026
a(g5562
I00
g5560
tp6027
a(g5572
I00
g5570
tp6028
a(g5582
I00
g5580
tp6029
a(g5592
I00
g5590
tp6030
a(g5602
I00
g5600
tp6031
a(g5612
I00
g5610
tp6032
a(g5622
I00
g5620
tp6033
aasbasbasbasbasbasbasbag57
(g73
g59
NtRp6034
(dp6035
g62
(dp6036
sg71
g5747
sg64
(lp6037
g57
(g78
g59
NtRp6038
(dp6039
g62
(dp6040
sg71
g6034
sg64
(lp6041
g57
(g58
g59
NtRp6042
(dp6043
g62
(dp6044
g70
I2
ssg71
g6038
sg64
(lp6045
g57
(g66
g59
NtRp6046
(dp6047
g62
(dp6048
g70
I1
ssg71
Nsg64
(lp6049
g57
(g73
g59
NtRp6050
(dp6051
g62
(dp6052
sg71
g6046
sg64
(lp6053
g57
(g78
g59
NtRp6054
(dp6055
g62
(dp6056
sg71
g6050
sg64
(lp6057
g57
(g58
g59
NtRp6058
(dp6059
g62
(dp6060
g70
I1
ssg71
g6054
sg64
(lp6061
g5633
asbasbasbag57
(g73
g59
NtRp6062
(dp6063
g62
(dp6064
sg71
g6046
sg64
(lp6065
g57
(g78
g59
NtRp6066
(dp6067
g62
(dp6068
sg71
g6062
sg64
(lp6069
g57
(g58
g59
NtRp6070
(dp6071
g62
(dp6072
g70
I1
ssg71
g6066
sg64
(lp6073
I00
asbasbasbag57
(g73
g59
NtRp6074
(dp6075
g62
(dp6076
sg71
g6046
sg64
(lp6077
g57
(g78
g59
NtRp6078
(dp6079
g62
(dp6080
sg71
g6074
sg64
(lp6081
g57
(g58
g59
NtRp6082
(dp6083
g62
(dp6084
g70
I1
ssg71
g6078
sg64
(lp6085
Nasbasbasbag57
(g73
g59
NtRp6086
(dp6087
g62
(dp6088
sg71
g6046
sg64
(lp6089
g57
(g78
g59
NtRp6090
(dp6091
g62
(dp6092
sg71
g6086
sg64
(lp6093
g57
(g58
g59
NtRp6094
(dp6095
g62
(dp6096
g70
I1
ssg71
g6090
sg64
(lp6097
(lp6098
(g5647
I00
g5645
tp6099
a(g5657
I00
g5655
tp6100
a(g5667
I00
g5665
tp6101
aasbasbasbasbasbasbasbag57
(g73
g59
NtRp6102
(dp6103
g62
(dp6104
sg71
g5747
sg64
(lp6105
g57
(g78
g59
NtRp6106
(dp6107
g62
(dp6108
sg71
g6102
sg64
(lp6109
g57
(g58
g59
NtRp6110
(dp6111
g62
(dp6112
g70
I2
ssg71
g6106
sg64
(lp6113
g57
(g66
g59
NtRp6114
(dp6115
g62
(dp6116
g70
I1
ssg71
Nsg64
(lp6117
g57
(g73
g59
NtRp6118
(dp6119
g62
(dp6120
sg71
g6114
sg64
(lp6121
g57
(g78
g59
NtRp6122
(dp6123
g62
(dp6124
sg71
g6118
sg64
(lp6125
g57
(g58
g59
NtRp6126
(dp6127
g62
(dp6128
g70
I1
ssg71
g6122
sg64
(lp6129
g5676
asbasbasbag57
(g73
g59
NtRp6130
(dp6131
g62
(dp6132
sg71
g6114
sg64
(lp6133
g57
(g78
g59
NtRp6134
(dp6135
g62
(dp6136
sg71
g6130
sg64
(lp6137
g57
(g58
g59
NtRp6138
(dp6139
g62
(dp6140
g70
I1
ssg71
g6134
sg64
(lp6141
I00
asbasbasbag57
(g73
g59
NtRp6142
(dp6143
g62
(dp6144
sg71
g6114
sg64
(lp6145
g57
(g78
g59
NtRp6146
(dp6147
g62
(dp6148
sg71
g6142
sg64
(lp6149
g57
(g58
g59
NtRp6150
(dp6151
g62
(dp6152
g70
I1
ssg71
g6146
sg64
(lp6153
Nasbasbasbag57
(g73
g59
NtRp6154
(dp6155
g62
(dp6156
sg71
g6114
sg64
(lp6157
g57
(g78
g59
NtRp6158
(dp6159
g62
(dp6160
sg71
g6154
sg64
(lp6161
g57
(g58
g59
NtRp6162
(dp6163
g62
(dp6164
g70
I1
ssg71
g6158
sg64
(lp6165
(lp6166
(g5690
I00
g5688
tp6167
a(g5699
I00
g5416
tp6168
a(g5708
I00
g5426
tp6169
aasbasbasbasbasbasbasbasbasbasbasbasbasbasbasbasbasbasbasbag57
(g73
g59
NtRp6170
(dp6171
g62
(dp6172
sg71
g4503
sg64
(lp6173
g57
(g78
g59
NtRp6174
(dp6175
g62
(dp6176
g82
g83
ssg71
g6170
sg64
(lp6177
S'meta'
p6178
asbag57
(g78
g59
NtRp6179
(dp6180
g62
(dp6181
g89
g90
ssg71
g6170
sg64
(lp6182
S':'
asbag57
(g78
g59
NtRp6183
(dp6184
g62
(dp6185
sg71
g6170
sg64
(lp6186
g57
(g58
g59
NtRp6187
(dp6188
g62
(dp6189
g70
I5
ssg71
g6183
sg64
(lp6190
g57
(g66
g59
NtRp6191
(dp6192
g62
(dp6193
g70
I4
ssg71
Nsg64
(lp6194
g57
(g73
g59
NtRp6195
(dp6196
g62
(dp6197
sg71
g6191
sg64
(lp6198
g57
(g78
g59
NtRp6199
(dp6200
g62
(dp6201
g82
g83
ssg71
g6195
sg64
(lp6202
S'author'
p6203
asbag57
(g78
g59
NtRp6204
(dp6205
g62
(dp6206
g89
g90
ssg71
g6195
sg64
(lp6207
S':'
asbag57
(g78
g59
NtRp6208
(dp6209
g62
(dp6210
sg71
g6195
sg64
(lp6211
g57
(g58
g59
NtRp6212
(dp6213
g62
(dp6214
g70
I4
ssg71
g6208
sg64
(lp6215
S'Your Name <you@example.com>'
p6216
asbasbasbag57
(g73
g59
NtRp6217
(dp6218
g62
(dp6219
sg71
g6191
sg64
(lp6220
g57
(g78
g59
NtRp6221
(dp6222
g62
(dp6223
g82
g83
ssg71
g6217
sg64
(lp6224
S'description'
p6225
asbag57
(g78
g59
NtRp6226
(dp6227
g62
(dp6228
g89
g90
ssg71
g6217
sg64
(lp6229
S':'
asbag57
(g78
g59
NtRp6230
(dp6231
g62
(dp6232
sg71
g6217
sg64
(lp6233
g57
(g58
g59
NtRp6234
(dp6235
g62
(dp6236
g70
I4
ssg71
g6230
sg64
(lp6237
S'a cool new app'
p6238
asbasbasbag57
(g73
g59
NtRp6239
(dp6240
g62
(dp6241
sg71
g6191
sg64
(lp6242
g57
(g78
g59
NtRp6243
(dp6244
g62
(dp6245
g82
g83
ssg71
g6239
sg64
(lp6246
S'generator'
p6247
asbag57
(g78
g59
NtRp6248
(dp6249
g62
(dp6250
g89
g90
ssg71
g6239
sg64
(lp6251
S':'
asbag57
(g78
g59
NtRp6252
(dp6253
g62
(dp6254
sg71
g6239
sg64
(lp6255
g57
(g58
g59
NtRp6256
(dp6257
g62
(dp6258
g70
I4
ssg71
g6252
sg64
(lp6259
S'Web2py Web Framework'
p6260
asbasbasbag57
(g73
g59
NtRp6261
(dp6262
g62
(dp6263
sg71
g6191
sg64
(lp6264
g57
(g78
g59
NtRp6265
(dp6266
g62
(dp6267
g82
g83
ssg71
g6261
sg64
(lp6268
S'keywords'
p6269
asbag57
(g78
g59
NtRp6270
(dp6271
g62
(dp6272
g89
g90
ssg71
g6261
sg64
(lp6273
S':'
asbag57
(g78
g59
NtRp6274
(dp6275
g62
(dp6276
sg71
g6261
sg64
(lp6277
g57
(g58
g59
NtRp6278
(dp6279
g62
(dp6280
g70
I4
ssg71
g6274
sg64
(lp6281
S'web2py, python, framework'
p6282
asbasbasbasbasbasbasbag57
(g73
g59
NtRp6283
(dp6284
g62
(dp6285
sg71
g4503
sg64
(lp6286
g57
(g78
g59
NtRp6287
(dp6288
g62
(dp6289
g82
g83
ssg71
g6283
sg64
(lp6290
S'models_to_run'
p6291
asbag57
(g78
g59
NtRp6292
(dp6293
g62
(dp6294
g89
g90
ssg71
g6283
sg64
(lp6295
S':'
asbag57
(g78
g59
NtRp6296
(dp6297
g62
(dp6298
sg71
g6283
sg64
(lp6299
g57
(g58
g59
NtRp6300
(dp6301
g62
(dp6302
g70
I5
ssg71
g6296
sg64
(lp6303
g57
(g66
g59
NtRp6304
(dp6305
g62
(dp6306
g70
I4
ssg71
Nsg64
(lp6307
g57
(g73
g59
NtRp6308
(dp6309
g62
(dp6310
sg71
g6304
sg64
(lp6311
g57
(g78
g59
NtRp6312
(dp6313
g62
(dp6314
sg71
g6308
sg64
(lp6315
g57
(g58
g59
NtRp6316
(dp6317
g62
(dp6318
g70
I4
ssg71
g6312
sg64
(lp6319
S'^\\w+\\.py$'
p6320
asbasbasbag57
(g73
g59
NtRp6321
(dp6322
g62
(dp6323
sg71
g6304
sg64
(lp6324
g57
(g78
g59
NtRp6325
(dp6326
g62
(dp6327
sg71
g6321
sg64
(lp6328
g57
(g58
g59
NtRp6329
(dp6330
g62
(dp6331
g70
I4
ssg71
g6325
sg64
(lp6332
S'^default/\\w+\\.py$'
p6333
asbasbasbag57
(g73
g59
NtRp6334
(dp6335
g62
(dp6336
sg71
g6304
sg64
(lp6337
g57
(g78
g59
NtRp6338
(dp6339
g62
(dp6340
sg71
g6334
sg64
(lp6341
g57
(g58
g59
NtRp6342
(dp6343
g62
(dp6344
g70
I4
ssg71
g6338
sg64
(lp6345
S'^default/index/\\w+\\.py$'
p6346
asbasbasbasbasbasbasbag57
(g73
g59
NtRp6347
(dp6348
g62
(dp6349
sg71
g4503
sg64
(lp6350
g57
(g78
g59
NtRp6351
(dp6352
g62
(dp6353
g82
g83
ssg71
g6347
sg64
(lp6354
S'postprocessing'
p6355
asbag57
(g78
g59
NtRp6356
(dp6357
g62
(dp6358
g89
g90
ssg71
g6347
sg64
(lp6359
S':'
asbag57
(g78
g59
NtRp6360
(dp6361
g62
(dp6362
sg71
g6347
sg64
(lp6363
g57
(g58
g59
NtRp6364
(dp6365
g62
(dp6366
g70
I5
ssg71
g6360
sg64
(lp6367
g57
(g66
g59
NtRp6368
(dp6369
g62
(dp6370
g70
I4
ssg71
Nsg64
(lp6371
sbasbasbasbag57
(g73
g59
NtRp6372
(dp6373
g62
(dp6374
sg71
g4503
sg64
(lp6375
g57
(g78
g59
NtRp6376
(dp6377
g62
(dp6378
g82
g83
ssg71
g6372
sg64
(lp6379
S'session_cookie_expires'
p6380
asbag57
(g78
g59
NtRp6381
(dp6382
g62
(dp6383
g89
g90
ssg71
g6372
sg64
(lp6384
S':'
asbag57
(g78
g59
NtRp6385
(dp6386
g62
(dp6387
sg71
g6372
sg64
(lp6388
g57
(g58
g59
NtRp6389
(dp6390
g62
(dp6391
g70
I5
ssg71
g6385
sg64
(lp6392
S'None'
p6393
asbasbasbag57
(g73
g59
NtRp6394
(dp6395
g62
(dp6396
sg71
g4503
sg64
(lp6397
g57
(g78
g59
NtRp6398
(dp6399
g62
(dp6400
g82
g83
ssg71
g6394
sg64
(lp6401
S'session_data_name'
p6402
asbag57
(g78
g59
NtRp6403
(dp6404
g62
(dp6405
g89
g90
ssg71
g6394
sg64
(lp6406
S':'
asbag57
(g78
g59
NtRp6407
(dp6408
g62
(dp6409
sg71
g6394
sg64
(lp6410
g57
(g58
g59
NtRp6411
(dp6412
g62
(dp6413
g70
I5
ssg71
g6407
sg64
(lp6414
S'session_data_betsy'
p6415
asbasbasbag57
(g73
g59
NtRp6416
(dp6417
g62
(dp6418
sg71
g4503
sg64
(lp6419
g57
(g78
g59
NtRp6420
(dp6421
g62
(dp6422
g82
g83
ssg71
g6416
sg64
(lp6423
S'session_file'
p6424
asbag57
(g78
g59
NtRp6425
(dp6426
g62
(dp6427
g89
g90
ssg71
g6416
sg64
(lp6428
S':'
asbag57
(g78
g59
NtRp6429
(dp6430
g62
(dp6431
sg71
g6416
sg64
(lp6432
g57
(g58
g59
NtRp6433
(dp6434
g62
(dp6435
g70
I5
ssg71
g6429
sg64
(lp6436
S"<open file '/home/xchen/web2py/applications/Betsy/sessions/127.0.0.1-70d52105-0f5d-4884-a4e3-dce6830f30e0', mode 'rb+' at 0xa101270>"
p6437
asbasbasbag57
(g73
g59
NtRp6438
(dp6439
g62
(dp6440
sg71
g4503
sg64
(lp6441
g57
(g78
g59
NtRp6442
(dp6443
g62
(dp6444
g82
g83
ssg71
g6438
sg64
(lp6445
S'session_filename'
p6446
asbag57
(g78
g59
NtRp6447
(dp6448
g62
(dp6449
g89
g90
ssg71
g6438
sg64
(lp6450
S':'
asbag57
(g78
g59
NtRp6451
(dp6452
g62
(dp6453
sg71
g6438
sg64
(lp6454
g57
(g58
g59
NtRp6455
(dp6456
g62
(dp6457
g70
I5
ssg71
g6451
sg64
(lp6458
S'/home/xchen/web2py/applications/Betsy/sessions/127.0.0.1-70d52105-0f5d-4884-a4e3-dce6830f30e0'
p6459
asbasbasbag57
(g73
g59
NtRp6460
(dp6461
g62
(dp6462
sg71
g4503
sg64
(lp6463
g57
(g78
g59
NtRp6464
(dp6465
g62
(dp6466
g82
g83
ssg71
g6460
sg64
(lp6467
S'session_id'
p6468
asbag57
(g78
g59
NtRp6469
(dp6470
g62
(dp6471
g89
g90
ssg71
g6460
sg64
(lp6472
S':'
asbag57
(g78
g59
NtRp6473
(dp6474
g62
(dp6475
sg71
g6460
sg64
(lp6476
g57
(g58
g59
NtRp6477
(dp6478
g62
(dp6479
g70
I5
ssg71
g6473
sg64
(lp6480
g475
asbasbasbag57
(g73
g59
NtRp6481
(dp6482
g62
(dp6483
sg71
g4503
sg64
(lp6484
g57
(g78
g59
NtRp6485
(dp6486
g62
(dp6487
g82
g83
ssg71
g6481
sg64
(lp6488
S'session_id_name'
p6489
asbag57
(g78
g59
NtRp6490
(dp6491
g62
(dp6492
g89
g90
ssg71
g6481
sg64
(lp6493
S':'
asbag57
(g78
g59
NtRp6494
(dp6495
g62
(dp6496
sg71
g6481
sg64
(lp6497
g57
(g58
g59
NtRp6498
(dp6499
g62
(dp6500
g70
I5
ssg71
g6494
sg64
(lp6501
g4560
asbasbasbag57
(g73
g59
NtRp6502
(dp6503
g62
(dp6504
sg71
g4503
sg64
(lp6505
g57
(g78
g59
NtRp6506
(dp6507
g62
(dp6508
g82
g83
ssg71
g6502
sg64
(lp6509
S'session_locked'
p6510
asbag57
(g78
g59
NtRp6511
(dp6512
g62
(dp6513
g89
g90
ssg71
g6502
sg64
(lp6514
S':'
asbag57
(g78
g59
NtRp6515
(dp6516
g62
(dp6517
sg71
g6502
sg64
(lp6518
g57
(g58
g59
NtRp6519
(dp6520
g62
(dp6521
g70
I5
ssg71
g6515
sg64
(lp6522
g1768
asbasbasbag57
(g73
g59
NtRp6523
(dp6524
g62
(dp6525
sg71
g4503
sg64
(lp6526
g57
(g78
g59
NtRp6527
(dp6528
g62
(dp6529
g82
g83
ssg71
g6523
sg64
(lp6530
S'session_new'
p6531
asbag57
(g78
g59
NtRp6532
(dp6533
g62
(dp6534
g89
g90
ssg71
g6523
sg64
(lp6535
S':'
asbag57
(g78
g59
NtRp6536
(dp6537
g62
(dp6538
sg71
g6523
sg64
(lp6539
g57
(g58
g59
NtRp6540
(dp6541
g62
(dp6542
g70
I5
ssg71
g6536
sg64
(lp6543
g100
asbasbasbag57
(g73
g59
NtRp6544
(dp6545
g62
(dp6546
sg71
g4503
sg64
(lp6547
g57
(g78
g59
NtRp6548
(dp6549
g62
(dp6550
g82
g83
ssg71
g6544
sg64
(lp6551
S'session_storage_type'
p6552
asbag57
(g78
g59
NtRp6553
(dp6554
g62
(dp6555
g89
g90
ssg71
g6544
sg64
(lp6556
S':'
asbag57
(g78
g59
NtRp6557
(dp6558
g62
(dp6559
sg71
g6544
sg64
(lp6560
g57
(g58
g59
NtRp6561
(dp6562
g62
(dp6563
g70
I5
ssg71
g6557
sg64
(lp6564
g3199
asbasbasbag57
(g73
g59
NtRp6565
(dp6566
g62
(dp6567
sg71
g4503
sg64
(lp6568
g57
(g78
g59
NtRp6569
(dp6570
g62
(dp6571
g82
g83
ssg71
g6565
sg64
(lp6572
S'status'
p6573
asbag57
(g78
g59
NtRp6574
(dp6575
g62
(dp6576
g89
g90
ssg71
g6565
sg64
(lp6577
S':'
asbag57
(g78
g59
NtRp6578
(dp6579
g62
(dp6580
sg71
g6565
sg64
(lp6581
g57
(g58
g59
NtRp6582
(dp6583
g62
(dp6584
g70
I5
ssg71
g6578
sg64
(lp6585
S'200'
p6586
asbasbasbag57
(g73
g59
NtRp6587
(dp6588
g62
(dp6589
sg71
g4503
sg64
(lp6590
g57
(g78
g59
NtRp6591
(dp6592
g62
(dp6593
g82
g83
ssg71
g6587
sg64
(lp6594
S'subtitle'
p6595
asbag57
(g78
g59
NtRp6596
(dp6597
g62
(dp6598
g89
g90
ssg71
g6587
sg64
(lp6599
S':'
asbag57
(g78
g59
NtRp6600
(dp6601
g62
(dp6602
sg71
g6587
sg64
(lp6603
g57
(g58
g59
NtRp6604
(dp6605
g62
(dp6606
g70
I5
ssg71
g6600
sg64
(lp6607
g5098
(S's\r\x00\x00\x00customize me!'
tRp6608
asbasbasbag57
(g73
g59
NtRp6609
(dp6610
g62
(dp6611
sg71
g4503
sg64
(lp6612
g57
(g78
g59
NtRp6613
(dp6614
g62
(dp6615
g82
g83
ssg71
g6609
sg64
(lp6616
S'title'
p6617
asbag57
(g78
g59
NtRp6618
(dp6619
g62
(dp6620
g89
g90
ssg71
g6609
sg64
(lp6621
S':'
asbag57
(g78
g59
NtRp6622
(dp6623
g62
(dp6624
sg71
g6609
sg64
(lp6625
g57
(g58
g59
NtRp6626
(dp6627
g62
(dp6628
g70
I5
ssg71
g6622
sg64
(lp6629
S'Betsy'
p6630
asbasbasbag57
(g73
g59
NtRp6631
(dp6632
g62
(dp6633
sg71
g4503
sg64
(lp6634
g57
(g78
g59
NtRp6635
(dp6636
g62
(dp6637
g82
g83
ssg71
g6631
sg64
(lp6638
S'view'
p6639
asbag57
(g78
g59
NtRp6640
(dp6641
g62
(dp6642
g89
g90
ssg71
g6631
sg64
(lp6643
S':'
asbag57
(g78
g59
NtRp6644
(dp6645
g62
(dp6646
sg71
g6631
sg64
(lp6647
g57
(g58
g59
NtRp6648
(dp6649
g62
(dp6650
g70
I5
ssg71
g6644
sg64
(lp6651
S'default/index.html'
p6652
asbasbasbasbasbsS'locals'
p6653
(dp6654
S'normalize_parameters'
p6655
S"{'bfrm': ['yes_bfrm', 'no_bfrm'], 'cn_abs_diff': 'float', 'cn_filter_data': ['cn_yes', 'cn_no'], 'cn_max_threshold': 'float', 'cn_mean_or_median': ['cn_mean', 'cn_median'], 'cn_min_folddiff': 'float', 'cn_min_threshold': 'float', 'cn_num_neighbors': 'integer', 'cn_num_perm': 'integer', 'cn_ttest_or_snr': ['cn_test', 'cn_snr'], ...}"
p6656
sS'Service'
p6657
S"<class 'gluon.tools.Service'>"
p6658
sS'OBJECT'
p6659
S"<class 'gluon.html.OBJECT'>"
p6660
sS'SQLDB'
p6661
S"<class 'gluon.dal.DAL'>"
p6662
sg3252
S"<Storage {'flash': None, 'protocol': 'normalize_...batch]': '71524f9f-2917-4781-9f2b-2532d505998c'}>"
p6663
sS'LINK'
p6664
S"<class 'gluon.html.LINK'>"
p6665
sS'BR'
p6666
S"<class 'gluon.html.BR'>"
p6667
sS'local_import'
p6668
S'<function <lambda>>'
p6669
sS'OPTGROUP'
p6670
S"<class 'gluon.html.OPTGROUP'>"
p6671
sS'__package__'
p6672
S'None'
p6673
sS'PRE'
p6674
S"<class 'gluon.html.PRE'>"
p6675
sS'IS_INT_IN_RANGE'
p6676
S"<class 'gluon.validators.IS_INT_IN_RANGE'>"
p6677
sS'Normalize_parameters'
p6678
S"['quantile', 'dwd', 'bfrm', 'shiftscale', 'combat']"
p6679
sS'IS_LOWER'
p6680
S"<class 'gluon.validators.IS_LOWER'>"
p6681
sS'IS_STRONG'
p6682
S"<class 'gluon.validators.IS_STRONG'>"
p6683
sS'cache'
p6684
S'<gluon.cache.Cache object>'
p6685
sS'IS_IN_DB'
p6686
S"<class 'gluon.validators.IS_IN_DB'>"
p6687
sS'geneset_parameters'
p6688
S"{'allgenes': ['yes_allgenes', 'no_allgenes'], 'automatch': ['yes_automatch', 'no_automatch'], 'bfrm': ['yes_bfrm', 'no_bfrm'], 'cn_abs_diff': 'float', 'cn_filter_data': ['cn_yes', 'cn_no'], 'cn_max_threshold': 'float', 'cn_mean_or_median': ['cn_mean', 'cn_median'], 'cn_min_folddiff': 'float', 'cn_min_threshold': 'float', 'cn_num_neighbors': 'integer', ...}"
p6689
sS'TAG'
p6690
S'<gluon.html.__TAG__ object>'
p6691
sS'CRYPT'
p6692
S"<class 'gluon.validators.CRYPT'>"
p6693
sS'SQLField'
p6694
S"<class 'gluon.dal.Field'>"
p6695
sS'mail'
p6696
S'<gluon.tools.Mail object>'
p6697
sS'BODY'
p6698
S"<class 'gluon.html.BODY'>"
p6699
sS'IS_DATE_IN_RANGE'
p6700
S"<class 'gluon.validators.IS_DATE_IN_RANGE'>"
p6701
sS'labels'
p6702
S"['normalize_file', 'classification', 'batch_effect_remove', 'make_heatmap', 'cluster_genes', 'differential_expressed_gene_analysis', 'geneset_analysis']"
p6703
sS'IFRAME'
p6704
S"<class 'gluon.html.IFRAME'>"
p6705
sS'URL'
p6706
S'<function URL>'
p6707
sS'__file__'
p6708
S"'/home/xchen/web2py/applications/Betsy/views/default/index.html'"
p6709
sS'db'
p6710
S'<DAL uri="sqlite://storage.sqlite">'
p6711
sS'auth'
p6712
S'<gluon.tools.Auth object>'
p6713
sS'P'
S"<class 'gluon.html.P'>"
p6714
sS'TFOOT'
p6715
S"<class 'gluon.html.TFOOT'>"
p6716
sS'XHTML'
p6717
S"<class 'gluon.html.XHTML'>"
p6718
sS'ON'
p6719
g1768
sS'OL'
p6720
S"<class 'gluon.html.OL'>"
p6721
sS'TEXTAREA'
p6722
S"<class 'gluon.html.TEXTAREA'>"
p6723
sS'MENU'
p6724
S"<class 'gluon.html.MENU'>"
p6725
sS'optional_parameters'
p6726
S"['contents', 'gene_select_threshold', 'rename_sample', 'num_factors', 'pca_gene_num', 'platform', 'duplicate_probe', 'duplicate_data', 'has_annotation_gene_id']"
p6727
sS'protocol_utils'
p6728
S"<module 'Betsy.protocol_utils' from '/home/xchen/chencode/Betsy/Betsy/protocol_utils.pyc'>"
p6729
sS'normalize_inputs'
p6730
S"['gse_id', 'class_label_file', 'gene_list_file', 'gse_id_and_platform', 'cel_files', 'gpr_files', 'idat_files', 'agilent_files', 'input_signal_file', 'rename_list_file']"
p6731
sS'IS_IMAGE'
p6732
S"<class 'gluon.validators.IS_IMAGE'>"
p6733
sS'EM'
p6734
S"<class 'gluon.html.EM'>"
p6735
sS'CODE'
p6736
S"<class 'gluon.html.CODE'>"
p6737
sS'HTTP'
p6738
S"<class 'gluon.http.HTTP'>"
p6739
sS'HR'
p6740
S"<class 'gluon.html.HR'>"
p6741
sS'IS_DATETIME'
p6742
S"<class 'gluon.validators.IS_DATETIME'>"
p6743
sS'STYLE'
p6744
S"<class 'gluon.html.STYLE'>"
p6745
sS'module'
p6746
S"<module 'Betsy.protocols.differential_expressed_...otocols/differential_expressed_gene_analysis.py'>"
p6747
sS'LABEL'
p6748
S"<class 'gluon.html.LABEL'>"
p6749
sS'CLEANUP'
p6750
S"<class 'gluon.validators.CLEANUP'>"
p6751
sS'plugins'
p6752
S'<gluon.tools.PluginManager object>'
p6753
sS'create_command'
p6754
S'<function create_command>'
p6755
sS'INPUT'
p6756
S"<class 'gluon.html.INPUT'>"
p6757
sS'SELECT'
p6758
S"<class 'gluon.html.SELECT'>"
p6759
sS'create_form'
p6760
S'<function create_form>'
p6761
sS'CENTER'
p6762
S"<class 'gluon.html.CENTER'>"
p6763
sS'prettydate'
p6764
S'<function prettydate>'
p6765
sS'Crud'
p6766
S"<class 'gluon.tools.Crud'>"
p6767
sS'classification_inputs'
p6768
S"['gse_id', 'class_label_file', 'gene_list_file', 'gse_id_and_platform', 'cel_files', 'gpr_files', 'idat_files', 'agilent_files', 'input_signal_file', 'renanme_list_file']"
p6769
sS'Auth'
p6770
S"<class 'gluon.tools.Auth'>"
p6771
sS'label'
p6772
S"'classification'"
p6773
sS'__builtins__'
p6774
S"{'ArithmeticError': <type 'exceptions.ArithmeticError'>, 'AssertionError': <type 'exceptions.AssertionError'>, 'AttributeError': <type 'exceptions.AttributeError'>, 'BaseException': <type 'exceptions.BaseException'>, 'BufferError': <type 'exceptions.BufferError'>, 'BytesWarning': <type 'exceptions.BytesWarning'>, 'DeprecationWarning': <type 'exceptions.DeprecationWarning'>, 'EOFError': <type 'exceptions.EOFError'>, 'Ellipsis': Ellipsis, 'EnvironmentError': <type 'exceptions.EnvironmentError'>, ...}"
p6775
sS'HTML'
p6776
S"<class 'gluon.html.HTML'>"
p6777
sS'SQLFORM'
p6778
S"<class 'gluon.sqlhtml.SQLFORM'>"
p6779
sS'LOAD'
p6780
S'<function LOAD>'
p6781
sS'redirect'
p6782
S'<function redirect>'
p6783
sS'FIELDSET'
p6784
S"<class 'gluon.html.FIELDSET'>"
p6785
sS'IS_EQUAL_TO'
p6786
S"<class 'gluon.validators.IS_EQUAL_TO'>"
p6787
sS'cluster_parameters'
p6788
S"{'bfrm': ['yes_bfrm', 'no_bfrm'], 'cluster_alg': ['kmeans', 'pca', 'hierarchical', 'som'], 'cn_abs_diff': 'float', 'cn_filter_data': ['cn_yes', 'cn_no'], 'cn_max_threshold': 'float', 'cn_mean_or_median': ['cn_mean', 'cn_median'], 'cn_min_folddiff': 'float', 'cn_min_threshold': 'float', 'cn_num_neighbors': 'integer', 'cn_num_perm': 'integer', ...}"
p6789
sS'embed64'
p6790
S'<function embed64>'
p6791
sS'batch_inputs'
p6792
S"['gse_id', 'class_label_file', 'gene_list_file', 'gse_id_and_platform', 'cel_files', 'gpr_files', 'idat_files', 'agilent_files', 'input_signal_file', 'rename_list_file']"
p6793
sS'IS_LIST_OF'
p6794
S"<class 'gluon.validators.IS_LIST_OF'>"
p6795
sS'left_sidebar_enabled'
p6796
g100
sS'EMBED'
p6797
S"<class 'gluon.html.EMBED'>"
p6798
sS'_'
S'<function _>'
p6799
sS'common_parameters'
p6800
S"['preprocess', 'gene_center', 'gene_normalize', 'has_missing_value', 'format', 'is_logged', 'unique_genes', 'filter', 'gene_order', 'predataset', 'num_features', 'group_fc']"
p6801
sS'H2'
p6802
S"<class 'gluon.html.H2'>"
p6803
sS'H3'
p6804
S"<class 'gluon.html.H3'>"
p6805
sS'BUTTON'
p6806
S"<class 'gluon.html.BUTTON'>"
p6807
sS'H1'
p6808
S"<class 'gluon.html.H1'>"
p6809
sS'H6'
p6810
S"<class 'gluon.html.H6'>"
p6811
sS'H4'
p6812
S"<class 'gluon.html.H4'>"
p6813
sS'H5'
p6814
S"<class 'gluon.html.H5'>"
p6815
sS'UL'
p6816
S"<class 'gluon.html.UL'>"
p6817
sS'IS_UPPER'
p6818
S"<class 'gluon.validators.IS_UPPER'>"
p6819
sS'xmlescape'
p6820
S'<function xmlescape>'
p6821
sS'IS_TIME'
p6822
S"<class 'gluon.validators.IS_TIME'>"
p6823
sS'os'
p6824
S"<module 'os' from '/usr/local/lib/python2.7/os.pyc'>"
p6825
sS'OPTION'
p6826
S"<class 'gluon.html.OPTION'>"
p6827
sS'TITLE'
p6828
S"<class 'gluon.html.TITLE'>"
p6829
sS'diffgene_inputs'
p6830
S"['gse_id', 'class_label_file', 'gene_list_file', 'gse_id_and_platform', 'cel_files', 'gpr_files', 'idat_files', 'agilent_files', 'input_signal_file', 'renanme_list_file']"
p6831
sS'normalize_default'
p6832
S"{'bfrm': 'no_bfrm', 'combat': 'no_combat', 'dwd': 'no_dwd', 'filter': '0', 'format': 'tdf', 'gene_center': 'no_gene_center', 'gene_normalize': 'no_gene_normalize', 'gene_order': 'no_order', 'is_logged': 'logged', 'num_features': '0', ...}"
p6833
sS'IS_EMPTY_OR'
p6834
S"<class 'gluon.validators.IS_EMPTY_OR'>"
p6835
sS'MARKMIN'
p6836
S"<class 'gluon.html.MARKMIN'>"
p6837
sS'cluster_default'
p6838
S"{'bfrm': 'no_bfrm', 'cluster_alg': 'kmeans', 'combat': 'no_combat', 'distance': 'correlation', 'duplicate_data': 'yes_duplicate_data', 'duplicate_probe': 'yes_duplicate_probe', 'dwd': 'no_dwd', 'filter': 0, 'gene_center': 'no_gene_center', 'gene_normalize': 'no_gene_normalize', ...}"
p6839
sS'__name__'
p6840
S"'__restricted__'"
p6841
sS'form_normalize_file'
p6842
S'<gluon.html.FORM object>'
p6843
sS'STRONG'
p6844
S"<class 'gluon.html.STRONG'>"
p6845
sS'COL'
p6846
S"<class 'gluon.html.COL'>"
p6847
sS'service'
p6848
S'<gluon.tools.Service object>'
p6849
sS'SCRIPT'
p6850
S"<class 'gluon.html.SCRIPT'>"
p6851
sS'cluster_inputs'
p6852
S"['gse_id', 'class_label_file', 'gene_list_file', 'gse_id_and_platform', 'cel_files', 'gpr_files', 'idat_files', 'agilent_files', 'input_signal_file', 'rename_list_file']"
p6853
sS'protocol_files'
p6854
S"['differential_expressed_gene_analysis.pyc', 'batch_effect_remove.pyc', '__init__.pyc', 'normalize_file.py', 'cluster_genes.pyc', 'classification.py', 'make_heatmap.pyc', 'batch_effect_remove.py', 'make_heatmap.py', 'normalize_file.pyc', 'geneset_analysis.pyc', 'cluster_genes.py', '__init__.py', 'differential_expressed_gene_analysis.py', 'classification.pyc', 'geneset_analysis.py']"
p6855
sS'heatmap_inputs'
p6856
S"['gse_id', 'class_label_file', 'gene_list_file', 'gse_id_and_platform', 'cel_files', 'gpr_files', 'idat_files', 'agilent_files', 'input_signal_file', 'rename_list_file']"
p6857
sS'is_mobile'
p6858
g100
sS'TABLE'
p6859
S"<class 'gluon.html.TABLE'>"
p6860
sS'IS_IPV4'
p6861
S"<class 'gluon.validators.IS_IPV4'>"
p6862
sS'IS_LENGTH'
p6863
S"<class 'gluon.validators.IS_LENGTH'>"
p6864
sS'XML'
p6865
S"<class 'gluon.html.XML'>"
p6866
sS'B'
S"<class 'gluon.html.B'>"
p6867
sS'IMG'
p6868
S"<class 'gluon.html.IMG'>"
p6869
sS'SQLTABLE'
p6870
S"<class 'gluon.sqlhtml.SQLTABLE'>"
p6871
sS'IS_MATCH'
p6872
S"<class 'gluon.validators.IS_MATCH'>"
p6873
sS'IS_ALPHANUMERIC'
p6874
S"<class 'gluon.validators.IS_ALPHANUMERIC'>"
p6875
sS'heatmap_parameters'
p6876
S"{'bfrm': ['yes_bfrm', 'no_bfrm'], 'cluster_alg': ['no_cluster_alg'], 'cn_abs_diff': 'float', 'cn_filter_data': ['cn_yes', 'cn_no'], 'cn_max_threshold': 'float', 'cn_mean_or_median': ['cn_mean', 'cn_median'], 'cn_min_folddiff': 'float', 'cn_min_threshold': 'float', 'cn_num_neighbors': 'integer', 'cn_num_perm': 'integer', ...}"
p6877
sS'protocol_file'
p6878
S"'geneset_analysis.py'"
p6879
sS'diffgene_parameters'
p6880
S"{'bfrm': ['yes_bfrm', 'no_bfrm'], 'cn_abs_diff': 'float', 'cn_filter_data': ['cn_yes', 'cn_no'], 'cn_max_threshold': 'float', 'cn_mean_or_median': ['cn_mean', 'cn_median'], 'cn_min_folddiff': 'float', 'cn_min_threshold': 'float', 'cn_num_neighbors': 'integer', 'cn_num_perm': 'integer', 'cn_ttest_or_snr': ['cn_test', 'cn_snr'], ...}"
p6881
sS'SPAN'
p6882
S"<class 'gluon.html.SPAN'>"
p6883
sS'IS_SLUG'
p6884
S"<class 'gluon.validators.IS_SLUG'>"
p6885
sS'diffgene_default'
p6886
S"{'bfrm': 'no_bfrm', 'combat': 'no_combat', 'duplicate_data': 'yes_duplicate_data', 'duplicate_probe': 'yes_duplicate_probe', 'dwd': 'no_dwd', 'filter': 0, 'format': 'tdf', 'gene_center': 'no_gene_center', 'gene_normalize': 'no_gene_normalize', 'gene_order': 'no_order', ...}"
p6887
sS'BEAUTIFY'
p6888
S"<class 'gluon.html.BEAUTIFY'>"
p6889
sS'META'
p6890
S"<class 'gluon.html.META'>"
p6891
sS'batch_default'
p6892
S"{'duplicate_data': 'yes_duplicate_data', 'duplicate_probe': 'yes_duplicate_probe', 'filter': '0', 'format': 'tdf', 'gene_center': 'no_gene_center', 'gene_normalize': 'no_gene_normalize', 'gene_order': 'no_order', 'is_logged': 'logged', 'predataset': 'no_predataset', 'rename_sample': 'no_rename', ...}"
p6893
sS'IS_DATE'
p6894
S"<class 'gluon.validators.IS_DATE'>"
p6895
sS'IS_EMAIL'
p6896
S"<class 'gluon.validators.IS_EMAIL'>"
p6897
sS'IS_NOT_EMPTY'
p6898
S"<class 'gluon.validators.IS_NOT_EMPTY'>"
p6899
sS'IS_FLOAT_IN_RANGE'
p6900
S"<class 'gluon.validators.IS_FLOAT_IN_RANGE'>"
p6901
sS'TBODY'
p6902
S"<class 'gluon.html.TBODY'>"
p6903
sS'CAT'
p6904
S"<class 'gluon.html.CAT'>"
p6905
sS'Field'
p6906
S"<class 'gluon.dal.Field'>"
p6907
sS'hash_command'
p6908
S'<function hash_command>'
p6909
sS'protocol_path'
p6910
S"'/home/xchen/chencode/Betsy/Betsy/protocols/'"
p6911
sS'middle_columns'
p6912
S"'span12'"
p6913
sS'DIV'
p6914
S"<class 'gluon.html.DIV'>"
p6915
sS'LEGEND'
p6916
S"<class 'gluon.html.LEGEND'>"
p6917
sS'geneset_default'
p6918
S"{'bfrm': 'no_bfrm', 'combat': 'no_combat', 'duplicate_data': 'yes_duplicate_data', 'duplicate_probe': 'yes_duplicate_probe', 'dwd': 'no_dwd', 'filter': '0', 'format': 'tdf', 'gene_center': 'mean', 'gene_normalize': 'variance', 'gene_order': 'no_order', ...}"
p6919
sS'COLGROUP'
p6920
S"<class 'gluon.html.COLGROUP'>"
p6921
sS'DAL'
p6922
S"<class 'gluon.dal.DAL'>"
p6923
sS'TT'
p6924
S"<class 'gluon.html.TT'>"
p6925
sS'TR'
p6926
S"<class 'gluon.html.TR'>"
p6927
sS'LI'
p6928
S"<class 'gluon.html.LI'>"
p6929
sS'right_sidebar_enabled'
p6930
g100
sS'heatmap_default'
p6931
S"{'bfrm': 'no_bfrm', 'cluster_alg': 'no_cluster_alg', 'combat': 'no_combat', 'duplicate_data': 'yes_duplicate_data', 'duplicate_probe': 'yes_duplicate_probe', 'dwd': 'no_dwd', 'filter': 0, 'gene_center': 'no_gene_center', 'gene_normalize': 'no_gene_normalize', 'gene_order': 'no_order', ...}"
p6932
sS'TH'
p6933
S"<class 'gluon.html.TH'>"
p6934
sS'TD'
p6935
S"<class 'gluon.html.TD'>"
p6936
sS'PluginManager'
p6937
S"<class 'gluon.tools.PluginManager'>"
p6938
sS'IS_URL'
p6939
S"<class 'gluon.validators.IS_URL'>"
p6940
sS'geneset_inputs'
p6941
S"['gse_id', 'class_label_file', 'gene_list_file', 'gse_id_and_platform', 'cel_files', 'gpr_files', 'idat_files', 'agilent_files', 'input_signal_file', 'rename_list_file', 'geneset_file']"
p6942
sS'A'
S"<class 'gluon.html.A'>"
p6943
sS'HEAD'
p6944
S"<class 'gluon.html.HEAD'>"
p6945
sS'batch_parameters'
p6946
S"{'bfrm': ['yes_bfrm', 'no_bfrm'], 'cn_abs_diff': 'float', 'cn_filter_data': ['cn_yes', 'cn_no'], 'cn_max_threshold': 'float', 'cn_mean_or_median': ['cn_mean', 'cn_median'], 'cn_min_folddiff': 'float', 'cn_min_threshold': 'float', 'cn_num_neighbors': 'integer', 'cn_num_perm': 'integer', 'cn_ttest_or_snr': ['cn_test', 'cn_snr'], ...}"
p6947
sS'IS_DATETIME_IN_RANGE'
p6948
S"<class 'gluon.validators.IS_DATETIME_IN_RANGE'>"
p6949
sS'FORM'
p6950
S"<class 'gluon.html.FORM'>"
p6951
sS'I'
S"<class 'gluon.html.I'>"
p6952
sS'crud'
p6953
S'<gluon.tools.Crud object>'
p6954
sS'classification_default'
p6955
S"{'bfrm': 'no_bfrm', 'combat': 'no_combat', 'duplicate_data': 'yes_duplicate_data', 'duplicate_probe': 'yes_duplicate_probe', 'dwd': 'no_dwd', 'filter': 0, 'gene_center': 'no_gene_center', 'gene_normalize': 'no_gene_normalize', 'gene_order': 'no_order', 'is_logged': 'logged', ...}"
p6956
sS'use_janrain'
p6957
S'<function use_janrain>'
p6958
sS'IS_NOT_IN_DB'
p6959
S"<class 'gluon.validators.IS_NOT_IN_DB'>"
p6960
sg4498
S"<Storage {'body': <cStringIO.StringO object at 0...da> at 0x9a79938>, 'view': 'default/index.html'}>"
p6961
sS'THEAD'
p6962
S"<class 'gluon.html.THEAD'>"
p6963
sS'IS_NULL_OR'
p6964
S"<class 'gluon.validators.IS_EMPTY_OR'>"
p6965
sg56
S"<Storage {'function': 'index', 'body': <cStringI...applications/Betsy/', 'post_vars': <Storage {}>}>"
p6966
sS'IS_EXPR'
p6967
S"<class 'gluon.validators.IS_EXPR'>"
p6968
sS'T'
S'<gluon.languages.translator object>'
p6969
sS'IS_IN_SET'
p6970
S"<class 'gluon.validators.IS_IN_SET'>"
p6971
sS'IS_UPLOAD_FILENAME'
p6972
S"<class 'gluon.validators.IS_UPLOAD_FILENAME'>"
p6973
sS'classification_parameters'
p6974
S"{'bfrm': ['yes_bfrm', 'no_bfrm'], 'classification': ['svm', 'weightedvoting', 'randomforest'], 'cn_abs_diff': 'float', 'cn_filter_data': ['cn_yes', 'cn_no'], 'cn_max_threshold': 'float', 'cn_mean_or_median': ['cn_mean', 'cn_median'], 'cn_min_folddiff': 'float', 'cn_min_threshold': 'float', 'cn_num_neighbors': 'integer', 'cn_num_perm': 'integer', ...}"
p6975
sS'IS_DECIMAL_IN_RANGE'
p6976
S"<class 'gluon.validators.IS_DECIMAL_IN_RANGE'>"
p6977
sssS'traceback'
p6978
S'Traceback (most recent call last):\n  File "/home/xchen/web2py/gluon/restricted.py", line 212, in restricted\n    exec ccode in environment\n  File "/home/xchen/web2py/applications/Betsy/views/default/index.html", line 81, in <module>\nKeyError: \'form_classification\'\n'
p6979
s.