(dp1
S'output'
p2
S"<type 'exceptions.KeyError'> 'normalize_file_parameters'"
p3
sS'layer'
p4
S'/home/xchen/web2py/applications/Betsy/controllers/default.py'
p5
sS'code'
p6
S'# -*- coding: utf-8 -*-\n\nupload_path = \'/home/xchen/chencode/upload/\'\n\ndef status():\n    return dict(request=request,session=session,response=response)\n\n@auth.requires_login()\ndef index():\n    import os\n    form_queue = FORM(INPUT(_type=\'submit\',_value=\'show jobs status\',_name=\'status\'))\n    result=dict(form_queue=form_queue)\n    for label in labels:\n        vars()[\'form_\'+ label]=FORM(INPUT(_type=\'submit\',_value=label,_name=label))\n        result[\'form_\'+ label]=vars()[\'form_\'+ label]\n    if form_queue.process(formname=\'status\').accepted:\n        redirect(URL(\'show_status\'))\n    for label in labels:\n         if vars()[\'form_\'+ label].process(formname=label).accepted:\n             session.label=label\n             redirect(URL(\'protocol\'))\n    return result\n\ndef protocol():\n    #fields = create_form(vars()[session.label+\'_inputs\'],vars()[session.label+\'_parameters\'],vars()[label+\'_default\'])\n    fields = create_form(normalize_file_inputs,normalize_file_parameters,normalize_file_default)\n    form=SQLFORM.factory(*fields)\n    form_queue = FORM(INPUT(_type=\'submit\',_value=\'show jobs status\'))\n    if form.process().accepted:\n        form_value = form.vars\n        input_file,command_parameters = create_command(form_value)\n        session.parameters = command_parameters\n        session.input_file = input_file\n        session.protocol = session.label\n        redirect(URL(\'submit_job\'))\n    if form_queue.process().accepted:\n        redirect(URL(\'show_status\'))\n    return dict(form=form,form_queue=form_queue,protocol_label=label,protocol_inputs=vars()[session.label+\'_parameters\'])\n\n#def normalize_file():\n#    fields = create_form(normalize_file_inputs,normalize_file_parameters,normalize_file_default)\n#    form=SQLFORM.factory(*fields)\n#    form_queue = FORM(INPUT(_type=\'submit\',_value=\'show jobs status\'))\n#    if form.process().accepted:\n#        form_value = form.vars\n#        input_file,command_parameters = create_command(form_value)\n#        session.parameters = command_parameters\n#        session.input_file = input_file\n#        session.protocol = \'normalize_file\'\n#    if form_queue.process().accepted:\n#        redirect(URL(\'show_status\'))\n#    return dict(form=form,form_queue=form_queue)\n     \n\ndef cluster_genes():\n    fields = create_form(cluster_inputs,cluster_parameters,cluster_default)\n    form=SQLFORM.factory(*fields)\n    form_queue = FORM(INPUT(_type=\'submit\',_value=\'show jobs status\'))\n    if form.process().accepted:\n        form_value = form.vars\n        input_file,command_parameters = create_command(form_value)\n        session.parameters = command_parameters\n        session.input_file = input_file\n        session.protocol = \'cluster_genes\'\n        redirect(URL(\'submit_job\'))\n    if form_queue.process().accepted:\n        redirect(URL(\'show_status\'))\n    return dict(form=form,form_queue=form_queue)\n\n \ndef heatmap():\n    fields = create_form(heatmap_inputs,heatmap_parameters,heatmap_default)\n    form=SQLFORM.factory(*fields)\n    form_queue = FORM(INPUT(_type=\'submit\',_value=\'show jobs status\'))\n    if form.process().accepted:\n        form_value = form.vars\n        input_file,command_parameters = create_command(form_value)\n        session.parameters = command_parameters\n        session.input_file = input_file\n        session.protocol = \'make_heatmap\'\n        redirect(URL(\'submit_job\'))\n    if form_queue.process().accepted:\n        redirect(URL(\'show_status\'))\n    return dict(form=form,form_queue=form_queue)\n   \n\ndef classification():\n    fields = create_form(classification_inputs,classification_parameters,classification_default)\n    form=SQLFORM.factory(*fields)\n    form_queue = FORM(INPUT(_type=\'submit\',_value=\'show jobs status\'))\n    if form.process().accepted:\n        form_value = form.vars\n        input_file,command_parameters = create_command(form_value)\n        session.parameters = command_parameters\n        session.input_file = input_file\n        session.protocol = \'classification\'\n        redirect(URL(\'submit_job\'))\n    if form_queue.process().accepted:\n        redirect(URL(\'show_status\'))\n    return dict(form=form,form_queue=form_queue)\n\n \ndef batch_effect():\n    fields = create_form(batch_inputs,batch_parameters,batch_default)\n    form=SQLFORM.factory(*fields)\n    form_queue = FORM(INPUT(_type=\'submit\',_value=\'show jobs status\'))\n    if form.process().accepted:\n        form_value = form.vars\n        input_file,command_parameters = create_command(form_value)\n        session.parameters = command_parameters\n        session.input_file = input_file\n        session.protocol = \'batch_effect_remove\'\n        redirect(URL(\'submit_job\'))\n    if form_queue.process().accepted:\n        redirect(URL(\'show_status\'))\n    return dict(form=form,form_queue=form_queue)\n\n    \ndef diffgene():\n    fields = create_form(diffgene_inputs,diffgene_parameters,diffgene_default)\n    form=SQLFORM.factory(*fields)\n    form_queue = FORM(INPUT(_type=\'submit\',_value=\'show jobs status\'))\n    if form.process().accepted:\n        form_value = form.vars\n        input_file,command_parameters = create_command(form_value)\n        session.parameters = command_parameters\n        session.input_file = input_file\n        session.protocol = \'differential_expressed_gene_analysis\'\n        redirect(URL(\'submit_job\'))\n    if form_queue.process().accepted:\n        redirect(URL(\'show_status\'))\n    return dict(form=form,form_queue=form_queue)\n\n    \ndef geneset():\n    fields = create_form(geneset_inputs,geneset_parameters,geneset_default)\n    form=SQLFORM.factory(*fields)\n    form_queue = FORM(INPUT(_type=\'submit\',_value=\'show jobs status\'))\n    if form.process().accepted:\n        form_value = form.vars\n        input_file,command_parameters = create_command(form_value)\n        session.parameters = command_parameters\n        session.input_file = input_file\n        session.protocol = \'geneset_analysis\'\n        redirect(URL(\'submit_job\'))\n    if form_queue.process().accepted:\n        redirect(URL(\'show_status\'))\n    return dict(form=form,form_queue=form_queue)\n\n    \n\ndef show_status():\n    import subprocess\n    all_cmd = [\'python\',\'/home/xchen/queue/queue.py\',\'--list\']    \n    process = subprocess.Popen(all_cmd, shell=False,\n                               stdout=subprocess.PIPE,\n                               stderr=subprocess.STDOUT)\n    process.wait()\n    log_information = process.stdout.read().split(\'\\n\')[1:]\n    log_information = [i for i in log_information if i]\n    for log_line in log_information:\n        lines = log_line.split(\'\\t\')\n        db.status.update_or_insert(db.status.Jobnumber==lines[0],Jobnumber=lines[0],\n                Jobname=lines[1], Status=lines[2], Started=lines[3],\n                Ended=lines[4],Submitted=lines[5],Command=lines[6])\n    form=db().select(db.status.ALL)\n    return dict(form=form)\n\n    \n\ndef show_job():\n    "show a job page"\n    session.output=[]\n    show_status()\n    this_job = db.status(request.args(0)) or redirect(URL(\'index\'))\n    db.status.id.default=this_job.id\n    text = \'\'\n    newtext=\'\'\n    if  this_job.Status in [\'running\',\'completed\']:\n        hash_string = hash_command(this_job.Submitted,this_job.Command)\n        pro_file = os.path.join(\'/home/xchen/queue/processing_info/\', hash_string+\'.txt\')\n        f=file(pro_file,\'r\')\n        text = f.read().split(\'\\n\')\n        f.close()\n        newtext=text[:]\n        for i in range(len(text)):\n            if text[i].startswith(\'Report:\'):\n                text[i]=text[i][7:]\n            if os.path.exists(text[i].strip()):\n                newtext[i]=os.path.join(text[i].strip().split(\'/\')[-2:])\n            else:\n                newtext[i]=text[i]\n    info = \'Job is \' + this_job.Status\n    return dict(job=this_job,info=info,text=text,newtext=newtext,session=session)\n\n    \n\ndef submit_job():\n    import subprocess\n    cmd = [\'python\', \'/home/xchen/chencode/Betsy/scripts/run_protocol.py\', \n           \'--protocol\', session.protocol] + session.input_file  + session.parameters\n    all_cmd = [\'python\',\'/home/xchen/queue/queue.py\' ,\' \' .join(cmd)]\n    process = subprocess.Popen(all_cmd, shell=False,\n                               stdout=subprocess.PIPE,\n                               stderr=subprocess.STDOUT)    \n    process.wait()                      \n    redirect(URL(\'show_status\'))\n    return dict()\n\n    \ndef result_folder():\n    path = os.path.join(\'/home/xchen/chencode/examples/sample_analysis\',request.args[0]+\'/\'+request.args[1])\n    return open(path,\'rb\').read()\n\n    \ndef user():\n    """\n    exposes:\n    http://..../[app]/default/user/login\n    http://..../[app]/default/user/logout\n    http://..../[app]/default/user/register\n    http://..../[app]/default/user/profile\n    http://..../[app]/default/user/retrieve_password\n    http://..../[app]/default/user/change_password\n    use @auth.requires_login()\n        @auth.requires_membership(\'group name\')\n        @auth.requires_permission(\'read\',\'table name\',record_id)\n    to decorate functions that need access control\n    """\n    return dict(form=auth())\n\ndef download():\n    """\n    allows downloading of uploaded file\n    http://..../[app]/default/download/[filename]\n    """\n    return response.download(request, db)\n\n   \ndef call():\n    """\n    exposes services. for example:\n    http://..../[app]/default/call/jsonrpc\n    decorate with @services.jsonrpc the functions to expose\n    supports xml, json, xmlrpc, jsonrpc, amfrpc, rss, csv\n    """\n    return service()\n\n\n@auth.requires_signature()\ndef data():\n    """\n    http://..../[app]/default/data/tables\n    http://..../[app]/default/data/create/[table]\n    http://..../[app]/default/data/read/[table]/[id]\n    http://..../[app]/default/data/update/[table]/[id]\n    http://..../[app]/default/data/delete/[table]/[id]\n    http://..../[app]/default/data/select/[table]\n    http://..../[app]/default/data/search/[table]\n    but URLs must be signed, i.e. linked with\n      A(\'table\',_href=URL(\'data/tables\',user_signature=True))\n    or with the signed load operator\n      LOAD(\'default\',\'data.load\',args=\'tables\',ajax=True,user_signature=True)\n    """\n    return dict(form=crud())\n\n \n\n#currently saved or to previous version.\n#Key bindings\n\n#    Ctrl+S Save via Ajax\n#    Ctrl+F11 Toggle Fullscreen\n#    Ctrl-F / Cmd-F Start searching\n#    Ctrl-G / Cmd-G Find Next\n#    Shift-Ctrl-G / Shift-Cmd-G Find Previous\n#    Shift-Ctrl-F / Cmd-Option-F Replace\n#    Shift-Ctrl-R / Shift-Cmd-Option-F Replace All\n\n#Powered by web2py\xe2\x84\xa2 created by Massimo Di Pierro \xc2\xa92007-2013 - Admin language\n\nresponse._vars=response._caller(protocol)\n'
p7
sS'snapshot'
p8
(dp9
S'exception'
p10
(dp11
S'__hash__'
p12
S"<method-wrapper '__hash__' of exceptions.KeyError object>"
p13
sS'__setattr__'
p14
S"<method-wrapper '__setattr__' of exceptions.KeyError object>"
p15
sS'__reduce_ex__'
p16
S'<built-in method __reduce_ex__ of exceptions.KeyError object>'
p17
sS'__getslice__'
p18
S"<method-wrapper '__getslice__' of exceptions.KeyError object>"
p19
sS'__getitem__'
p20
S"<method-wrapper '__getitem__' of exceptions.KeyError object>"
p21
sS'__setstate__'
p22
S'<built-in method __setstate__ of exceptions.KeyError object>'
p23
sS'args'
p24
S"('normalize_file_parameters',)"
p25
sS'__reduce__'
p26
S'<built-in method __reduce__ of exceptions.KeyError object>'
p27
sS'__str__'
p28
S"<method-wrapper '__str__' of exceptions.KeyError object>"
p29
sS'__format__'
p30
S'<built-in method __format__ of exceptions.KeyError object>'
p31
sS'__getattribute__'
p32
S"<method-wrapper '__getattribute__' of exceptions.KeyError object>"
p33
sS'__class__'
p34
S"<type 'exceptions.KeyError'>"
p35
sS'__unicode__'
p36
S'<built-in method __unicode__ of exceptions.KeyError object>'
p37
sS'__delattr__'
p38
S"<method-wrapper '__delattr__' of exceptions.KeyError object>"
p39
sS'__subclasshook__'
p40
S'<built-in method __subclasshook__ of type object>'
p41
sS'__repr__'
p42
S"<method-wrapper '__repr__' of exceptions.KeyError object>"
p43
sS'__dict__'
p44
S'{}'
p45
sS'__sizeof__'
p46
S'<built-in method __sizeof__ of exceptions.KeyError object>'
p47
sS'__doc__'
p48
S"'Mapping key not found.'"
p49
sS'__init__'
p50
S"<method-wrapper '__init__' of exceptions.KeyError object>"
p51
sS'__new__'
p52
S'<built-in method __new__ of type object>'
p53
ssS'evalue'
p54
S"'normalize_file_parameters'"
p55
sS'request'
p56
ccopy_reg
_reconstructor
p57
(cgluon.html
BEAUTIFY
p58
c__builtin__
object
p59
NtRp60
(dp61
S'attributes'
p62
(dp63
sS'components'
p64
(lp65
g57
(cgluon.html
TABLE
p66
g59
NtRp67
(dp68
g62
(dp69
S'level'
p70
I5
ssS'parent'
p71
Nsg64
(lp72
g57
(cgluon.html
TR
p73
g59
NtRp74
(dp75
g62
(dp76
sg71
g67
sg64
(lp77
g57
(cgluon.html
TD
p78
g59
NtRp79
(dp80
g62
(dp81
S'_style'
p82
S'font-weight:bold;vertical-align:top'
p83
ssg71
g74
sg64
(lp84
S'ajax'
p85
asbag57
(g78
g59
NtRp86
(dp87
g62
(dp88
S'_valign'
p89
S'top'
p90
ssg71
g74
sg64
(lp91
S':'
asbag57
(g78
g59
NtRp92
(dp93
g62
(dp94
sg71
g74
sg64
(lp95
g57
(g58
g59
NtRp96
(dp97
g62
(dp98
g70
I5
ssg71
g92
sg64
(lp99
S'False'
p100
asbasbasbag57
(g73
g59
NtRp101
(dp102
g62
(dp103
sg71
g67
sg64
(lp104
g57
(g78
g59
NtRp105
(dp106
g62
(dp107
g82
g83
ssg71
g101
sg64
(lp108
S'application'
p109
asbag57
(g78
g59
NtRp110
(dp111
g62
(dp112
g89
g90
ssg71
g101
sg64
(lp113
S':'
asbag57
(g78
g59
NtRp114
(dp115
g62
(dp116
sg71
g101
sg64
(lp117
g57
(g58
g59
NtRp118
(dp119
g62
(dp120
g70
I5
ssg71
g114
sg64
(lp121
S'Betsy'
p122
asbasbasbag57
(g73
g59
NtRp123
(dp124
g62
(dp125
sg71
g67
sg64
(lp126
g57
(g78
g59
NtRp127
(dp128
g62
(dp129
g82
g83
ssg71
g123
sg64
(lp130
g24
asbag57
(g78
g59
NtRp131
(dp132
g62
(dp133
g89
g90
ssg71
g123
sg64
(lp134
S':'
asbag57
(g78
g59
NtRp135
(dp136
g62
(dp137
sg71
g123
sg64
(lp138
g57
(g58
g59
NtRp139
(dp140
g62
(dp141
g70
I5
ssg71
g135
sg64
(lp142
g57
(g66
g59
NtRp143
(dp144
g62
(dp145
g70
I4
ssg71
Nsg64
(lp146
sbasbasbasbag57
(g73
g59
NtRp147
(dp148
g62
(dp149
sg71
g67
sg64
(lp150
g57
(g78
g59
NtRp151
(dp152
g62
(dp153
g82
g83
ssg71
g147
sg64
(lp154
S'body'
p155
asbag57
(g78
g59
NtRp156
(dp157
g62
(dp158
g89
g90
ssg71
g147
sg64
(lp159
S':'
asbag57
(g78
g59
NtRp160
(dp161
g62
(dp162
sg71
g147
sg64
(lp163
g57
(g58
g59
NtRp164
(dp165
g62
(dp166
g70
I5
ssg71
g160
sg64
(lp167
S'<cStringIO.StringO object at 0x17e75298>'
p168
asbasbasbag57
(g73
g59
NtRp169
(dp170
g62
(dp171
sg71
g67
sg64
(lp172
g57
(g78
g59
NtRp173
(dp174
g62
(dp175
g82
g83
ssg71
g169
sg64
(lp176
S'cid'
p177
asbag57
(g78
g59
NtRp178
(dp179
g62
(dp180
g89
g90
ssg71
g169
sg64
(lp181
S':'
asbag57
(g78
g59
NtRp182
(dp183
g62
(dp184
sg71
g169
sg64
(lp185
g57
(g58
g59
NtRp186
(dp187
g62
(dp188
g70
I5
ssg71
g182
sg64
(lp189
S'None'
p190
asbasbasbag57
(g73
g59
NtRp191
(dp192
g62
(dp193
sg71
g67
sg64
(lp194
g57
(g78
g59
NtRp195
(dp196
g62
(dp197
g82
g83
ssg71
g191
sg64
(lp198
S'client'
p199
asbag57
(g78
g59
NtRp200
(dp201
g62
(dp202
g89
g90
ssg71
g191
sg64
(lp203
S':'
asbag57
(g78
g59
NtRp204
(dp205
g62
(dp206
sg71
g191
sg64
(lp207
g57
(g58
g59
NtRp208
(dp209
g62
(dp210
g70
I5
ssg71
g204
sg64
(lp211
S'127.0.0.1'
p212
asbasbasbag57
(g73
g59
NtRp213
(dp214
g62
(dp215
sg71
g67
sg64
(lp216
g57
(g78
g59
NtRp217
(dp218
g62
(dp219
g82
g83
ssg71
g213
sg64
(lp220
S'controller'
p221
asbag57
(g78
g59
NtRp222
(dp223
g62
(dp224
g89
g90
ssg71
g213
sg64
(lp225
S':'
asbag57
(g78
g59
NtRp226
(dp227
g62
(dp228
sg71
g213
sg64
(lp229
g57
(g58
g59
NtRp230
(dp231
g62
(dp232
g70
I5
ssg71
g226
sg64
(lp233
S'default'
p234
asbasbasbag57
(g73
g59
NtRp235
(dp236
g62
(dp237
sg71
g67
sg64
(lp238
g57
(g78
g59
NtRp239
(dp240
g62
(dp241
g82
g83
ssg71
g235
sg64
(lp242
S'cookies'
p243
asbag57
(g78
g59
NtRp244
(dp245
g62
(dp246
g89
g90
ssg71
g235
sg64
(lp247
S':'
asbag57
(g78
g59
NtRp248
(dp249
g62
(dp250
sg71
g235
sg64
(lp251
g57
(g58
g59
NtRp252
(dp253
g62
(dp254
g70
I5
ssg71
g248
sg64
(lp255
g57
(g66
g59
NtRp256
(dp257
g62
(dp258
g70
I4
ssg71
Nsg64
(lp259
g57
(g73
g59
NtRp260
(dp261
g62
(dp262
sg71
g256
sg64
(lp263
g57
(g78
g59
NtRp264
(dp265
g62
(dp266
g82
g83
ssg71
g260
sg64
(lp267
S'session_id_admin'
p268
asbag57
(g78
g59
NtRp269
(dp270
g62
(dp271
g89
g90
ssg71
g260
sg64
(lp272
S':'
asbag57
(g78
g59
NtRp273
(dp274
g62
(dp275
sg71
g260
sg64
(lp276
g57
(g58
g59
NtRp277
(dp278
g62
(dp279
g70
I4
ssg71
g273
sg64
(lp280
S'127.0.0.1-98d061fe-e8d1-4dfd-ac05-3b319761a2f7'
p281
ag57
(g66
g59
NtRp282
(dp283
g62
(dp284
g70
I3
ssg71
Nsg64
(lp285
g57
(g73
g59
NtRp286
(dp287
g62
(dp288
sg71
g282
sg64
(lp289
g57
(g78
g59
NtRp290
(dp291
g62
(dp292
g82
g83
ssg71
g286
sg64
(lp293
S'comment'
p294
asbag57
(g78
g59
NtRp295
(dp296
g62
(dp297
g89
g90
ssg71
g286
sg64
(lp298
S':'
asbag57
(g78
g59
NtRp299
(dp300
g62
(dp301
sg71
g286
sg64
(lp302
g57
(g58
g59
NtRp303
(dp304
g62
(dp305
g70
I3
ssg71
g299
sg64
(lp306
S''
asbasbasbag57
(g73
g59
NtRp307
(dp308
g62
(dp309
sg71
g282
sg64
(lp310
g57
(g78
g59
NtRp311
(dp312
g62
(dp313
g82
g83
ssg71
g307
sg64
(lp314
S'domain'
p315
asbag57
(g78
g59
NtRp316
(dp317
g62
(dp318
g89
g90
ssg71
g307
sg64
(lp319
S':'
asbag57
(g78
g59
NtRp320
(dp321
g62
(dp322
sg71
g307
sg64
(lp323
g57
(g58
g59
NtRp324
(dp325
g62
(dp326
g70
I3
ssg71
g320
sg64
(lp327
S''
asbasbasbag57
(g73
g59
NtRp328
(dp329
g62
(dp330
sg71
g282
sg64
(lp331
g57
(g78
g59
NtRp332
(dp333
g62
(dp334
g82
g83
ssg71
g328
sg64
(lp335
S'expires'
p336
asbag57
(g78
g59
NtRp337
(dp338
g62
(dp339
g89
g90
ssg71
g328
sg64
(lp340
S':'
asbag57
(g78
g59
NtRp341
(dp342
g62
(dp343
sg71
g328
sg64
(lp344
g57
(g58
g59
NtRp345
(dp346
g62
(dp347
g70
I3
ssg71
g341
sg64
(lp348
S''
asbasbasbag57
(g73
g59
NtRp349
(dp350
g62
(dp351
sg71
g282
sg64
(lp352
g57
(g78
g59
NtRp353
(dp354
g62
(dp355
g82
g83
ssg71
g349
sg64
(lp356
S'httponly'
p357
asbag57
(g78
g59
NtRp358
(dp359
g62
(dp360
g89
g90
ssg71
g349
sg64
(lp361
S':'
asbag57
(g78
g59
NtRp362
(dp363
g62
(dp364
sg71
g349
sg64
(lp365
g57
(g58
g59
NtRp366
(dp367
g62
(dp368
g70
I3
ssg71
g362
sg64
(lp369
S''
asbasbasbag57
(g73
g59
NtRp370
(dp371
g62
(dp372
sg71
g282
sg64
(lp373
g57
(g78
g59
NtRp374
(dp375
g62
(dp376
g82
g83
ssg71
g370
sg64
(lp377
S'max-age'
p378
asbag57
(g78
g59
NtRp379
(dp380
g62
(dp381
g89
g90
ssg71
g370
sg64
(lp382
S':'
asbag57
(g78
g59
NtRp383
(dp384
g62
(dp385
sg71
g370
sg64
(lp386
g57
(g58
g59
NtRp387
(dp388
g62
(dp389
g70
I3
ssg71
g383
sg64
(lp390
S''
asbasbasbag57
(g73
g59
NtRp391
(dp392
g62
(dp393
sg71
g282
sg64
(lp394
g57
(g78
g59
NtRp395
(dp396
g62
(dp397
g82
g83
ssg71
g391
sg64
(lp398
S'path'
p399
asbag57
(g78
g59
NtRp400
(dp401
g62
(dp402
g89
g90
ssg71
g391
sg64
(lp403
S':'
asbag57
(g78
g59
NtRp404
(dp405
g62
(dp406
sg71
g391
sg64
(lp407
g57
(g58
g59
NtRp408
(dp409
g62
(dp410
g70
I3
ssg71
g404
sg64
(lp411
S''
asbasbasbag57
(g73
g59
NtRp412
(dp413
g62
(dp414
sg71
g282
sg64
(lp415
g57
(g78
g59
NtRp416
(dp417
g62
(dp418
g82
g83
ssg71
g412
sg64
(lp419
S'secure'
p420
asbag57
(g78
g59
NtRp421
(dp422
g62
(dp423
g89
g90
ssg71
g412
sg64
(lp424
S':'
asbag57
(g78
g59
NtRp425
(dp426
g62
(dp427
sg71
g412
sg64
(lp428
g57
(g58
g59
NtRp429
(dp430
g62
(dp431
g70
I3
ssg71
g425
sg64
(lp432
S''
asbasbasbag57
(g73
g59
NtRp433
(dp434
g62
(dp435
sg71
g282
sg64
(lp436
g57
(g78
g59
NtRp437
(dp438
g62
(dp439
g82
g83
ssg71
g433
sg64
(lp440
S'version'
p441
asbag57
(g78
g59
NtRp442
(dp443
g62
(dp444
g89
g90
ssg71
g433
sg64
(lp445
S':'
asbag57
(g78
g59
NtRp446
(dp447
g62
(dp448
sg71
g433
sg64
(lp449
g57
(g58
g59
NtRp450
(dp451
g62
(dp452
g70
I3
ssg71
g446
sg64
(lp453
S''
asbasbasbasbasbasbasbag57
(g73
g59
NtRp454
(dp455
g62
(dp456
sg71
g256
sg64
(lp457
g57
(g78
g59
NtRp458
(dp459
g62
(dp460
g82
g83
ssg71
g454
sg64
(lp461
S'session_id_betsy'
p462
asbag57
(g78
g59
NtRp463
(dp464
g62
(dp465
g89
g90
ssg71
g454
sg64
(lp466
S':'
asbag57
(g78
g59
NtRp467
(dp468
g62
(dp469
sg71
g454
sg64
(lp470
g57
(g58
g59
NtRp471
(dp472
g62
(dp473
g70
I4
ssg71
g467
sg64
(lp474
S'127.0.0.1-70d52105-0f5d-4884-a4e3-dce6830f30e0'
p475
ag57
(g66
g59
NtRp476
(dp477
g62
(dp478
g70
I3
ssg71
Nsg64
(lp479
g57
(g73
g59
NtRp480
(dp481
g62
(dp482
sg71
g476
sg64
(lp483
g57
(g78
g59
NtRp484
(dp485
g62
(dp486
g82
g83
ssg71
g480
sg64
(lp487
g294
asbag57
(g78
g59
NtRp488
(dp489
g62
(dp490
g89
g90
ssg71
g480
sg64
(lp491
S':'
asbag57
(g78
g59
NtRp492
(dp493
g62
(dp494
sg71
g480
sg64
(lp495
g57
(g58
g59
NtRp496
(dp497
g62
(dp498
g70
I3
ssg71
g492
sg64
(lp499
S''
asbasbasbag57
(g73
g59
NtRp500
(dp501
g62
(dp502
sg71
g476
sg64
(lp503
g57
(g78
g59
NtRp504
(dp505
g62
(dp506
g82
g83
ssg71
g500
sg64
(lp507
g315
asbag57
(g78
g59
NtRp508
(dp509
g62
(dp510
g89
g90
ssg71
g500
sg64
(lp511
S':'
asbag57
(g78
g59
NtRp512
(dp513
g62
(dp514
sg71
g500
sg64
(lp515
g57
(g58
g59
NtRp516
(dp517
g62
(dp518
g70
I3
ssg71
g512
sg64
(lp519
S''
asbasbasbag57
(g73
g59
NtRp520
(dp521
g62
(dp522
sg71
g476
sg64
(lp523
g57
(g78
g59
NtRp524
(dp525
g62
(dp526
g82
g83
ssg71
g520
sg64
(lp527
g336
asbag57
(g78
g59
NtRp528
(dp529
g62
(dp530
g89
g90
ssg71
g520
sg64
(lp531
S':'
asbag57
(g78
g59
NtRp532
(dp533
g62
(dp534
sg71
g520
sg64
(lp535
g57
(g58
g59
NtRp536
(dp537
g62
(dp538
g70
I3
ssg71
g532
sg64
(lp539
S''
asbasbasbag57
(g73
g59
NtRp540
(dp541
g62
(dp542
sg71
g476
sg64
(lp543
g57
(g78
g59
NtRp544
(dp545
g62
(dp546
g82
g83
ssg71
g540
sg64
(lp547
g357
asbag57
(g78
g59
NtRp548
(dp549
g62
(dp550
g89
g90
ssg71
g540
sg64
(lp551
S':'
asbag57
(g78
g59
NtRp552
(dp553
g62
(dp554
sg71
g540
sg64
(lp555
g57
(g58
g59
NtRp556
(dp557
g62
(dp558
g70
I3
ssg71
g552
sg64
(lp559
S''
asbasbasbag57
(g73
g59
NtRp560
(dp561
g62
(dp562
sg71
g476
sg64
(lp563
g57
(g78
g59
NtRp564
(dp565
g62
(dp566
g82
g83
ssg71
g560
sg64
(lp567
g378
asbag57
(g78
g59
NtRp568
(dp569
g62
(dp570
g89
g90
ssg71
g560
sg64
(lp571
S':'
asbag57
(g78
g59
NtRp572
(dp573
g62
(dp574
sg71
g560
sg64
(lp575
g57
(g58
g59
NtRp576
(dp577
g62
(dp578
g70
I3
ssg71
g572
sg64
(lp579
S''
asbasbasbag57
(g73
g59
NtRp580
(dp581
g62
(dp582
sg71
g476
sg64
(lp583
g57
(g78
g59
NtRp584
(dp585
g62
(dp586
g82
g83
ssg71
g580
sg64
(lp587
g399
asbag57
(g78
g59
NtRp588
(dp589
g62
(dp590
g89
g90
ssg71
g580
sg64
(lp591
S':'
asbag57
(g78
g59
NtRp592
(dp593
g62
(dp594
sg71
g580
sg64
(lp595
g57
(g58
g59
NtRp596
(dp597
g62
(dp598
g70
I3
ssg71
g592
sg64
(lp599
S''
asbasbasbag57
(g73
g59
NtRp600
(dp601
g62
(dp602
sg71
g476
sg64
(lp603
g57
(g78
g59
NtRp604
(dp605
g62
(dp606
g82
g83
ssg71
g600
sg64
(lp607
g420
asbag57
(g78
g59
NtRp608
(dp609
g62
(dp610
g89
g90
ssg71
g600
sg64
(lp611
S':'
asbag57
(g78
g59
NtRp612
(dp613
g62
(dp614
sg71
g600
sg64
(lp615
g57
(g58
g59
NtRp616
(dp617
g62
(dp618
g70
I3
ssg71
g612
sg64
(lp619
S''
asbasbasbag57
(g73
g59
NtRp620
(dp621
g62
(dp622
sg71
g476
sg64
(lp623
g57
(g78
g59
NtRp624
(dp625
g62
(dp626
g82
g83
ssg71
g620
sg64
(lp627
g441
asbag57
(g78
g59
NtRp628
(dp629
g62
(dp630
g89
g90
ssg71
g620
sg64
(lp631
S':'
asbag57
(g78
g59
NtRp632
(dp633
g62
(dp634
sg71
g620
sg64
(lp635
g57
(g58
g59
NtRp636
(dp637
g62
(dp638
g70
I3
ssg71
g632
sg64
(lp639
S''
asbasbasbasbasbasbasbag57
(g73
g59
NtRp640
(dp641
g62
(dp642
sg71
g256
sg64
(lp643
g57
(g78
g59
NtRp644
(dp645
g62
(dp646
g82
g83
ssg71
g640
sg64
(lp647
S'session_id_dna'
p648
asbag57
(g78
g59
NtRp649
(dp650
g62
(dp651
g89
g90
ssg71
g640
sg64
(lp652
S':'
asbag57
(g78
g59
NtRp653
(dp654
g62
(dp655
sg71
g640
sg64
(lp656
g57
(g58
g59
NtRp657
(dp658
g62
(dp659
g70
I4
ssg71
g653
sg64
(lp660
S'127.0.0.1-f8a42f51-ac9d-4f9e-838b-5950c42ae328'
p661
ag57
(g66
g59
NtRp662
(dp663
g62
(dp664
g70
I3
ssg71
Nsg64
(lp665
g57
(g73
g59
NtRp666
(dp667
g62
(dp668
sg71
g662
sg64
(lp669
g57
(g78
g59
NtRp670
(dp671
g62
(dp672
g82
g83
ssg71
g666
sg64
(lp673
g294
asbag57
(g78
g59
NtRp674
(dp675
g62
(dp676
g89
g90
ssg71
g666
sg64
(lp677
S':'
asbag57
(g78
g59
NtRp678
(dp679
g62
(dp680
sg71
g666
sg64
(lp681
g57
(g58
g59
NtRp682
(dp683
g62
(dp684
g70
I3
ssg71
g678
sg64
(lp685
S''
asbasbasbag57
(g73
g59
NtRp686
(dp687
g62
(dp688
sg71
g662
sg64
(lp689
g57
(g78
g59
NtRp690
(dp691
g62
(dp692
g82
g83
ssg71
g686
sg64
(lp693
g315
asbag57
(g78
g59
NtRp694
(dp695
g62
(dp696
g89
g90
ssg71
g686
sg64
(lp697
S':'
asbag57
(g78
g59
NtRp698
(dp699
g62
(dp700
sg71
g686
sg64
(lp701
g57
(g58
g59
NtRp702
(dp703
g62
(dp704
g70
I3
ssg71
g698
sg64
(lp705
S''
asbasbasbag57
(g73
g59
NtRp706
(dp707
g62
(dp708
sg71
g662
sg64
(lp709
g57
(g78
g59
NtRp710
(dp711
g62
(dp712
g82
g83
ssg71
g706
sg64
(lp713
g336
asbag57
(g78
g59
NtRp714
(dp715
g62
(dp716
g89
g90
ssg71
g706
sg64
(lp717
S':'
asbag57
(g78
g59
NtRp718
(dp719
g62
(dp720
sg71
g706
sg64
(lp721
g57
(g58
g59
NtRp722
(dp723
g62
(dp724
g70
I3
ssg71
g718
sg64
(lp725
S''
asbasbasbag57
(g73
g59
NtRp726
(dp727
g62
(dp728
sg71
g662
sg64
(lp729
g57
(g78
g59
NtRp730
(dp731
g62
(dp732
g82
g83
ssg71
g726
sg64
(lp733
g357
asbag57
(g78
g59
NtRp734
(dp735
g62
(dp736
g89
g90
ssg71
g726
sg64
(lp737
S':'
asbag57
(g78
g59
NtRp738
(dp739
g62
(dp740
sg71
g726
sg64
(lp741
g57
(g58
g59
NtRp742
(dp743
g62
(dp744
g70
I3
ssg71
g738
sg64
(lp745
S''
asbasbasbag57
(g73
g59
NtRp746
(dp747
g62
(dp748
sg71
g662
sg64
(lp749
g57
(g78
g59
NtRp750
(dp751
g62
(dp752
g82
g83
ssg71
g746
sg64
(lp753
g378
asbag57
(g78
g59
NtRp754
(dp755
g62
(dp756
g89
g90
ssg71
g746
sg64
(lp757
S':'
asbag57
(g78
g59
NtRp758
(dp759
g62
(dp760
sg71
g746
sg64
(lp761
g57
(g58
g59
NtRp762
(dp763
g62
(dp764
g70
I3
ssg71
g758
sg64
(lp765
S''
asbasbasbag57
(g73
g59
NtRp766
(dp767
g62
(dp768
sg71
g662
sg64
(lp769
g57
(g78
g59
NtRp770
(dp771
g62
(dp772
g82
g83
ssg71
g766
sg64
(lp773
g399
asbag57
(g78
g59
NtRp774
(dp775
g62
(dp776
g89
g90
ssg71
g766
sg64
(lp777
S':'
asbag57
(g78
g59
NtRp778
(dp779
g62
(dp780
sg71
g766
sg64
(lp781
g57
(g58
g59
NtRp782
(dp783
g62
(dp784
g70
I3
ssg71
g778
sg64
(lp785
S''
asbasbasbag57
(g73
g59
NtRp786
(dp787
g62
(dp788
sg71
g662
sg64
(lp789
g57
(g78
g59
NtRp790
(dp791
g62
(dp792
g82
g83
ssg71
g786
sg64
(lp793
g420
asbag57
(g78
g59
NtRp794
(dp795
g62
(dp796
g89
g90
ssg71
g786
sg64
(lp797
S':'
asbag57
(g78
g59
NtRp798
(dp799
g62
(dp800
sg71
g786
sg64
(lp801
g57
(g58
g59
NtRp802
(dp803
g62
(dp804
g70
I3
ssg71
g798
sg64
(lp805
S''
asbasbasbag57
(g73
g59
NtRp806
(dp807
g62
(dp808
sg71
g662
sg64
(lp809
g57
(g78
g59
NtRp810
(dp811
g62
(dp812
g82
g83
ssg71
g806
sg64
(lp813
g441
asbag57
(g78
g59
NtRp814
(dp815
g62
(dp816
g89
g90
ssg71
g806
sg64
(lp817
S':'
asbag57
(g78
g59
NtRp818
(dp819
g62
(dp820
sg71
g806
sg64
(lp821
g57
(g58
g59
NtRp822
(dp823
g62
(dp824
g70
I3
ssg71
g818
sg64
(lp825
S''
asbasbasbasbasbasbasbasbasbasbasbag57
(g73
g59
NtRp826
(dp827
g62
(dp828
sg71
g67
sg64
(lp829
g57
(g78
g59
NtRp830
(dp831
g62
(dp832
g82
g83
ssg71
g826
sg64
(lp833
S'env'
p834
asbag57
(g78
g59
NtRp835
(dp836
g62
(dp837
g89
g90
ssg71
g826
sg64
(lp838
S':'
asbag57
(g78
g59
NtRp839
(dp840
g62
(dp841
sg71
g826
sg64
(lp842
g57
(g58
g59
NtRp843
(dp844
g62
(dp845
g70
I5
ssg71
g839
sg64
(lp846
g57
(g66
g59
NtRp847
(dp848
g62
(dp849
g70
I4
ssg71
Nsg64
(lp850
g57
(g73
g59
NtRp851
(dp852
g62
(dp853
sg71
g847
sg64
(lp854
g57
(g78
g59
NtRp855
(dp856
g62
(dp857
g82
g83
ssg71
g851
sg64
(lp858
S'app_folders'
p859
asbag57
(g78
g59
NtRp860
(dp861
g62
(dp862
g89
g90
ssg71
g851
sg64
(lp863
S':'
asbag57
(g78
g59
NtRp864
(dp865
g62
(dp866
sg71
g851
sg64
(lp867
g57
(g58
g59
NtRp868
(dp869
g62
(dp870
g70
I4
ssg71
g864
sg64
(lp871
S"set(['/home/xchen/web2py/applications/Betsy/', '/home/xchen/web2py/applications/admin/'])"
p872
asbasbasbag57
(g73
g59
NtRp873
(dp874
g62
(dp875
sg71
g847
sg64
(lp876
g57
(g78
g59
NtRp877
(dp878
g62
(dp879
g82
g83
ssg71
g873
sg64
(lp880
S'applications_parent'
p881
asbag57
(g78
g59
NtRp882
(dp883
g62
(dp884
g89
g90
ssg71
g873
sg64
(lp885
S':'
asbag57
(g78
g59
NtRp886
(dp887
g62
(dp888
sg71
g873
sg64
(lp889
g57
(g58
g59
NtRp890
(dp891
g62
(dp892
g70
I4
ssg71
g886
sg64
(lp893
S'/home/xchen/web2py'
p894
asbasbasbag57
(g73
g59
NtRp895
(dp896
g62
(dp897
sg71
g847
sg64
(lp898
g57
(g78
g59
NtRp899
(dp900
g62
(dp901
g82
g83
ssg71
g895
sg64
(lp902
S'cmd_args'
p903
asbag57
(g78
g59
NtRp904
(dp905
g62
(dp906
g89
g90
ssg71
g895
sg64
(lp907
S':'
asbag57
(g78
g59
NtRp908
(dp909
g62
(dp910
sg71
g895
sg64
(lp911
g57
(g58
g59
NtRp912
(dp913
g62
(dp914
g70
I4
ssg71
g908
sg64
(lp915
g57
(g66
g59
NtRp916
(dp917
g62
(dp918
g70
I3
ssg71
Nsg64
(lp919
sbasbasbasbag57
(g73
g59
NtRp920
(dp921
g62
(dp922
sg71
g847
sg64
(lp923
g57
(g78
g59
NtRp924
(dp925
g62
(dp926
g82
g83
ssg71
g920
sg64
(lp927
S'cmd_options'
p928
asbag57
(g78
g59
NtRp929
(dp930
g62
(dp931
g89
g90
ssg71
g920
sg64
(lp932
S':'
asbag57
(g78
g59
NtRp933
(dp934
g62
(dp935
sg71
g920
sg64
(lp936
g57
(g58
g59
NtRp937
(dp938
g62
(dp939
g70
I4
ssg71
g933
sg64
(lp940
S"<Values at 0x167bce18: {'verbose': False, 'ip': '127.0.0.1', 'with_scheduler': False, 'ips': [], 'shutdown_timeout': 5, 'taskbar': False, 'port': 8080, 'maxthreads': None, 'softcron': False, 'server_name': 'unicron.shis.uth.tmc.edu', 'bpython': False, 'nogui': False, 'pid_filename': 'httpserver.pid', 'extcron': False, 'runcron': False, 'run_system_tests': False, 'test': None, 'folder': '/home/xchen/web2py', 'config': '', 'minthreads': None, 'winservice': '', 'shell': None, 'run': '', 'log_filename': 'httpserver.log', 'debuglevel': 30, 'args': [''], 'socket_timeout': 5, 'ssl_ca_certificate': None, 'scheduler': None, 'profiler_filename': None, 'ssl_private_key': '', 'scheduler_groups': None, 'password': 'baby2008', 'request_queue_size': 5, 'ssl_certificate': '', 'cronjob': False, 'numthreads': None, 'quiet': False, 'interfaces': None, 'import_models': False, 'timeout': 10, 'plain': False, 'nobanner': False}>"
p941
asbasbasbag57
(g73
g59
NtRp942
(dp943
g62
(dp944
sg71
g847
sg64
(lp945
g57
(g78
g59
NtRp946
(dp947
g62
(dp948
g82
g83
ssg71
g942
sg64
(lp949
S'db_sessions'
p950
asbag57
(g78
g59
NtRp951
(dp952
g62
(dp953
g89
g90
ssg71
g942
sg64
(lp954
S':'
asbag57
(g78
g59
NtRp955
(dp956
g62
(dp957
sg71
g942
sg64
(lp958
g57
(g58
g59
NtRp959
(dp960
g62
(dp961
g70
I4
ssg71
g955
sg64
(lp962
S'set([])'
p963
asbasbasbag57
(g73
g59
NtRp964
(dp965
g62
(dp966
sg71
g847
sg64
(lp967
g57
(g78
g59
NtRp968
(dp969
g62
(dp970
g82
g83
ssg71
g964
sg64
(lp971
S'debugging'
p972
asbag57
(g78
g59
NtRp973
(dp974
g62
(dp975
g89
g90
ssg71
g964
sg64
(lp976
S':'
asbag57
(g78
g59
NtRp977
(dp978
g62
(dp979
sg71
g964
sg64
(lp980
g57
(g58
g59
NtRp981
(dp982
g62
(dp983
g70
I4
ssg71
g977
sg64
(lp984
g100
asbasbasbag57
(g73
g59
NtRp985
(dp986
g62
(dp987
sg71
g847
sg64
(lp988
g57
(g78
g59
NtRp989
(dp990
g62
(dp991
g82
g83
ssg71
g985
sg64
(lp992
S'gluon_parent'
p993
asbag57
(g78
g59
NtRp994
(dp995
g62
(dp996
g89
g90
ssg71
g985
sg64
(lp997
S':'
asbag57
(g78
g59
NtRp998
(dp999
g62
(dp1000
sg71
g985
sg64
(lp1001
g57
(g58
g59
NtRp1002
(dp1003
g62
(dp1004
g70
I4
ssg71
g998
sg64
(lp1005
S'/home/xchen/web2py'
p1006
asbasbasbag57
(g73
g59
NtRp1007
(dp1008
g62
(dp1009
sg71
g847
sg64
(lp1010
g57
(g78
g59
NtRp1011
(dp1012
g62
(dp1013
g82
g83
ssg71
g1007
sg64
(lp1014
S'http_accept'
p1015
asbag57
(g78
g59
NtRp1016
(dp1017
g62
(dp1018
g89
g90
ssg71
g1007
sg64
(lp1019
S':'
asbag57
(g78
g59
NtRp1020
(dp1021
g62
(dp1022
sg71
g1007
sg64
(lp1023
g57
(g58
g59
NtRp1024
(dp1025
g62
(dp1026
g70
I4
ssg71
g1020
sg64
(lp1027
S'text/html,application/xhtml+xml,application/xml;q=0.9,*/*;q=0.8'
p1028
asbasbasbag57
(g73
g59
NtRp1029
(dp1030
g62
(dp1031
sg71
g847
sg64
(lp1032
g57
(g78
g59
NtRp1033
(dp1034
g62
(dp1035
g82
g83
ssg71
g1029
sg64
(lp1036
S'http_accept_encoding'
p1037
asbag57
(g78
g59
NtRp1038
(dp1039
g62
(dp1040
g89
g90
ssg71
g1029
sg64
(lp1041
S':'
asbag57
(g78
g59
NtRp1042
(dp1043
g62
(dp1044
sg71
g1029
sg64
(lp1045
g57
(g58
g59
NtRp1046
(dp1047
g62
(dp1048
g70
I4
ssg71
g1042
sg64
(lp1049
S'gzip, deflate'
p1050
asbasbasbag57
(g73
g59
NtRp1051
(dp1052
g62
(dp1053
sg71
g847
sg64
(lp1054
g57
(g78
g59
NtRp1055
(dp1056
g62
(dp1057
g82
g83
ssg71
g1051
sg64
(lp1058
S'http_accept_language'
p1059
asbag57
(g78
g59
NtRp1060
(dp1061
g62
(dp1062
g89
g90
ssg71
g1051
sg64
(lp1063
S':'
asbag57
(g78
g59
NtRp1064
(dp1065
g62
(dp1066
sg71
g1051
sg64
(lp1067
g57
(g58
g59
NtRp1068
(dp1069
g62
(dp1070
g70
I4
ssg71
g1064
sg64
(lp1071
S'en-US,en;q=0.5'
p1072
asbasbasbag57
(g73
g59
NtRp1073
(dp1074
g62
(dp1075
sg71
g847
sg64
(lp1076
g57
(g78
g59
NtRp1077
(dp1078
g62
(dp1079
g82
g83
ssg71
g1073
sg64
(lp1080
S'http_connection'
p1081
asbag57
(g78
g59
NtRp1082
(dp1083
g62
(dp1084
g89
g90
ssg71
g1073
sg64
(lp1085
S':'
asbag57
(g78
g59
NtRp1086
(dp1087
g62
(dp1088
sg71
g1073
sg64
(lp1089
g57
(g58
g59
NtRp1090
(dp1091
g62
(dp1092
g70
I4
ssg71
g1086
sg64
(lp1093
S'keep-alive'
p1094
asbasbasbag57
(g73
g59
NtRp1095
(dp1096
g62
(dp1097
sg71
g847
sg64
(lp1098
g57
(g78
g59
NtRp1099
(dp1100
g62
(dp1101
g82
g83
ssg71
g1095
sg64
(lp1102
S'http_cookie'
p1103
asbag57
(g78
g59
NtRp1104
(dp1105
g62
(dp1106
g89
g90
ssg71
g1095
sg64
(lp1107
S':'
asbag57
(g78
g59
NtRp1108
(dp1109
g62
(dp1110
sg71
g1095
sg64
(lp1111
g57
(g58
g59
NtRp1112
(dp1113
g62
(dp1114
g70
I4
ssg71
g1108
sg64
(lp1115
S'session_id_betsy=127.0.0.1-70d52105-0f5d-4884-a4e3-dce6830f30e0; session_id_admin=127.0.0.1-98d061fe-e8d1-4dfd-ac05-3b319761a2f7; session_id_dna=127.0.0.1-f8a42f51-ac9d-4f9e-838b-5950c42ae328'
p1116
asbasbasbag57
(g73
g59
NtRp1117
(dp1118
g62
(dp1119
sg71
g847
sg64
(lp1120
g57
(g78
g59
NtRp1121
(dp1122
g62
(dp1123
g82
g83
ssg71
g1117
sg64
(lp1124
S'http_host'
p1125
asbag57
(g78
g59
NtRp1126
(dp1127
g62
(dp1128
g89
g90
ssg71
g1117
sg64
(lp1129
S':'
asbag57
(g78
g59
NtRp1130
(dp1131
g62
(dp1132
sg71
g1117
sg64
(lp1133
g57
(g58
g59
NtRp1134
(dp1135
g62
(dp1136
g70
I4
ssg71
g1130
sg64
(lp1137
S'localhost:8080'
p1138
asbasbasbag57
(g73
g59
NtRp1139
(dp1140
g62
(dp1141
sg71
g847
sg64
(lp1142
g57
(g78
g59
NtRp1143
(dp1144
g62
(dp1145
g82
g83
ssg71
g1139
sg64
(lp1146
S'http_referer'
p1147
asbag57
(g78
g59
NtRp1148
(dp1149
g62
(dp1150
g89
g90
ssg71
g1139
sg64
(lp1151
S':'
asbag57
(g78
g59
NtRp1152
(dp1153
g62
(dp1154
sg71
g1139
sg64
(lp1155
g57
(g58
g59
NtRp1156
(dp1157
g62
(dp1158
g70
I4
ssg71
g1152
sg64
(lp1159
S'http://localhost:8080/Betsy/default/index'
p1160
asbasbasbag57
(g73
g59
NtRp1161
(dp1162
g62
(dp1163
sg71
g847
sg64
(lp1164
g57
(g78
g59
NtRp1165
(dp1166
g62
(dp1167
g82
g83
ssg71
g1161
sg64
(lp1168
S'http_user_agent'
p1169
asbag57
(g78
g59
NtRp1170
(dp1171
g62
(dp1172
g89
g90
ssg71
g1161
sg64
(lp1173
S':'
asbag57
(g78
g59
NtRp1174
(dp1175
g62
(dp1176
sg71
g1161
sg64
(lp1177
g57
(g58
g59
NtRp1178
(dp1179
g62
(dp1180
g70
I4
ssg71
g1174
sg64
(lp1181
S'Mozilla/5.0 (Macintosh; Intel Mac OS X 10.6; rv:19.0) Gecko/20100101 Firefox/19.0'
p1182
asbasbasbag57
(g73
g59
NtRp1183
(dp1184
g62
(dp1185
sg71
g847
sg64
(lp1186
g57
(g78
g59
NtRp1187
(dp1188
g62
(dp1189
g82
g83
ssg71
g1183
sg64
(lp1190
S'is_jython'
p1191
asbag57
(g78
g59
NtRp1192
(dp1193
g62
(dp1194
g89
g90
ssg71
g1183
sg64
(lp1195
S':'
asbag57
(g78
g59
NtRp1196
(dp1197
g62
(dp1198
sg71
g1183
sg64
(lp1199
g57
(g58
g59
NtRp1200
(dp1201
g62
(dp1202
g70
I4
ssg71
g1196
sg64
(lp1203
g100
asbasbasbag57
(g73
g59
NtRp1204
(dp1205
g62
(dp1206
sg71
g847
sg64
(lp1207
g57
(g78
g59
NtRp1208
(dp1209
g62
(dp1210
g82
g83
ssg71
g1204
sg64
(lp1211
S'is_pypy'
p1212
asbag57
(g78
g59
NtRp1213
(dp1214
g62
(dp1215
g89
g90
ssg71
g1204
sg64
(lp1216
S':'
asbag57
(g78
g59
NtRp1217
(dp1218
g62
(dp1219
sg71
g1204
sg64
(lp1220
g57
(g58
g59
NtRp1221
(dp1222
g62
(dp1223
g70
I4
ssg71
g1217
sg64
(lp1224
g100
asbasbasbag57
(g73
g59
NtRp1225
(dp1226
g62
(dp1227
sg71
g847
sg64
(lp1228
g57
(g78
g59
NtRp1229
(dp1230
g62
(dp1231
g82
g83
ssg71
g1225
sg64
(lp1232
S'local_hosts'
p1233
asbag57
(g78
g59
NtRp1234
(dp1235
g62
(dp1236
g89
g90
ssg71
g1225
sg64
(lp1237
S':'
asbag57
(g78
g59
NtRp1238
(dp1239
g62
(dp1240
sg71
g1225
sg64
(lp1241
g57
(g58
g59
NtRp1242
(dp1243
g62
(dp1244
g70
I4
ssg71
g1238
sg64
(lp1245
g57
(g66
g59
NtRp1246
(dp1247
g62
(dp1248
g70
I3
ssg71
Nsg64
(lp1249
g57
(g73
g59
NtRp1250
(dp1251
g62
(dp1252
sg71
g1246
sg64
(lp1253
g57
(g78
g59
NtRp1254
(dp1255
g62
(dp1256
sg71
g1250
sg64
(lp1257
g57
(g58
g59
NtRp1258
(dp1259
g62
(dp1260
g70
I3
ssg71
g1254
sg64
(lp1261
S'127.0.0.1'
p1262
asbasbasbag57
(g73
g59
NtRp1263
(dp1264
g62
(dp1265
sg71
g1246
sg64
(lp1266
g57
(g78
g59
NtRp1267
(dp1268
g62
(dp1269
sg71
g1263
sg64
(lp1270
g57
(g58
g59
NtRp1271
(dp1272
g62
(dp1273
g70
I3
ssg71
g1267
sg64
(lp1274
S'::ffff:127.0.0.1'
p1275
asbasbasbag57
(g73
g59
NtRp1276
(dp1277
g62
(dp1278
sg71
g1246
sg64
(lp1279
g57
(g78
g59
NtRp1280
(dp1281
g62
(dp1282
sg71
g1276
sg64
(lp1283
g57
(g58
g59
NtRp1284
(dp1285
g62
(dp1286
g70
I3
ssg71
g1280
sg64
(lp1287
S'unicron.shis.uth.tmc.edu'
p1288
asbasbasbag57
(g73
g59
NtRp1289
(dp1290
g62
(dp1291
sg71
g1246
sg64
(lp1292
g57
(g78
g59
NtRp1293
(dp1294
g62
(dp1295
sg71
g1289
sg64
(lp1296
g57
(g58
g59
NtRp1297
(dp1298
g62
(dp1299
g70
I3
ssg71
g1293
sg64
(lp1300
S'unicron.shis.uth.tmc.edu'
p1301
asbasbasbag57
(g73
g59
NtRp1302
(dp1303
g62
(dp1304
sg71
g1246
sg64
(lp1305
g57
(g78
g59
NtRp1306
(dp1307
g62
(dp1308
sg71
g1302
sg64
(lp1309
g57
(g58
g59
NtRp1310
(dp1311
g62
(dp1312
g70
I3
ssg71
g1306
sg64
(lp1313
S'127.0.0.1'
p1314
asbasbasbasbasbasbasbag57
(g73
g59
NtRp1315
(dp1316
g62
(dp1317
sg71
g847
sg64
(lp1318
g57
(g78
g59
NtRp1319
(dp1320
g62
(dp1321
g82
g83
ssg71
g1315
sg64
(lp1322
S'path_info'
p1323
asbag57
(g78
g59
NtRp1324
(dp1325
g62
(dp1326
g89
g90
ssg71
g1315
sg64
(lp1327
S':'
asbag57
(g78
g59
NtRp1328
(dp1329
g62
(dp1330
sg71
g1315
sg64
(lp1331
g57
(g58
g59
NtRp1332
(dp1333
g62
(dp1334
g70
I4
ssg71
g1328
sg64
(lp1335
S'/Betsy/default/protocol'
p1336
asbasbasbag57
(g73
g59
NtRp1337
(dp1338
g62
(dp1339
sg71
g847
sg64
(lp1340
g57
(g78
g59
NtRp1341
(dp1342
g62
(dp1343
g82
g83
ssg71
g1337
sg64
(lp1344
S'query_string'
p1345
asbag57
(g78
g59
NtRp1346
(dp1347
g62
(dp1348
g89
g90
ssg71
g1337
sg64
(lp1349
S':'
asbag57
(g78
g59
NtRp1350
(dp1351
g62
(dp1352
sg71
g1337
sg64
(lp1353
g57
(g58
g59
NtRp1354
(dp1355
g62
(dp1356
g70
I4
ssg71
g1350
sg64
(lp1357
S''
asbasbasbag57
(g73
g59
NtRp1358
(dp1359
g62
(dp1360
sg71
g847
sg64
(lp1361
g57
(g78
g59
NtRp1362
(dp1363
g62
(dp1364
g82
g83
ssg71
g1358
sg64
(lp1365
S'remote_addr'
p1366
asbag57
(g78
g59
NtRp1367
(dp1368
g62
(dp1369
g89
g90
ssg71
g1358
sg64
(lp1370
S':'
asbag57
(g78
g59
NtRp1371
(dp1372
g62
(dp1373
sg71
g1358
sg64
(lp1374
g57
(g58
g59
NtRp1375
(dp1376
g62
(dp1377
g70
I4
ssg71
g1371
sg64
(lp1378
g212
asbasbasbag57
(g73
g59
NtRp1379
(dp1380
g62
(dp1381
sg71
g847
sg64
(lp1382
g57
(g78
g59
NtRp1383
(dp1384
g62
(dp1385
g82
g83
ssg71
g1379
sg64
(lp1386
S'remote_port'
p1387
asbag57
(g78
g59
NtRp1388
(dp1389
g62
(dp1390
g89
g90
ssg71
g1379
sg64
(lp1391
S':'
asbag57
(g78
g59
NtRp1392
(dp1393
g62
(dp1394
sg71
g1379
sg64
(lp1395
g57
(g58
g59
NtRp1396
(dp1397
g62
(dp1398
g70
I4
ssg71
g1392
sg64
(lp1399
S'40337'
p1400
asbasbasbag57
(g73
g59
NtRp1401
(dp1402
g62
(dp1403
sg71
g847
sg64
(lp1404
g57
(g78
g59
NtRp1405
(dp1406
g62
(dp1407
g82
g83
ssg71
g1401
sg64
(lp1408
S'request_method'
p1409
asbag57
(g78
g59
NtRp1410
(dp1411
g62
(dp1412
g89
g90
ssg71
g1401
sg64
(lp1413
S':'
asbag57
(g78
g59
NtRp1414
(dp1415
g62
(dp1416
sg71
g1401
sg64
(lp1417
g57
(g58
g59
NtRp1418
(dp1419
g62
(dp1420
g70
I4
ssg71
g1414
sg64
(lp1421
S'GET'
p1422
asbasbasbag57
(g73
g59
NtRp1423
(dp1424
g62
(dp1425
sg71
g847
sg64
(lp1426
g57
(g78
g59
NtRp1427
(dp1428
g62
(dp1429
g82
g83
ssg71
g1423
sg64
(lp1430
S'request_uri'
p1431
asbag57
(g78
g59
NtRp1432
(dp1433
g62
(dp1434
g89
g90
ssg71
g1423
sg64
(lp1435
S':'
asbag57
(g78
g59
NtRp1436
(dp1437
g62
(dp1438
sg71
g1423
sg64
(lp1439
g57
(g58
g59
NtRp1440
(dp1441
g62
(dp1442
g70
I4
ssg71
g1436
sg64
(lp1443
g1336
asbasbasbag57
(g73
g59
NtRp1444
(dp1445
g62
(dp1446
sg71
g847
sg64
(lp1447
g57
(g78
g59
NtRp1448
(dp1449
g62
(dp1450
g82
g83
ssg71
g1444
sg64
(lp1451
S'script_name'
p1452
asbag57
(g78
g59
NtRp1453
(dp1454
g62
(dp1455
g89
g90
ssg71
g1444
sg64
(lp1456
S':'
asbag57
(g78
g59
NtRp1457
(dp1458
g62
(dp1459
sg71
g1444
sg64
(lp1460
g57
(g58
g59
NtRp1461
(dp1462
g62
(dp1463
g70
I4
ssg71
g1457
sg64
(lp1464
S''
asbasbasbag57
(g73
g59
NtRp1465
(dp1466
g62
(dp1467
sg71
g847
sg64
(lp1468
g57
(g78
g59
NtRp1469
(dp1470
g62
(dp1471
g82
g83
ssg71
g1465
sg64
(lp1472
S'server_name'
p1473
asbag57
(g78
g59
NtRp1474
(dp1475
g62
(dp1476
g89
g90
ssg71
g1465
sg64
(lp1477
S':'
asbag57
(g78
g59
NtRp1478
(dp1479
g62
(dp1480
sg71
g1465
sg64
(lp1481
g57
(g58
g59
NtRp1482
(dp1483
g62
(dp1484
g70
I4
ssg71
g1478
sg64
(lp1485
g1301
asbasbasbag57
(g73
g59
NtRp1486
(dp1487
g62
(dp1488
sg71
g847
sg64
(lp1489
g57
(g78
g59
NtRp1490
(dp1491
g62
(dp1492
g82
g83
ssg71
g1486
sg64
(lp1493
S'server_port'
p1494
asbag57
(g78
g59
NtRp1495
(dp1496
g62
(dp1497
g89
g90
ssg71
g1486
sg64
(lp1498
S':'
asbag57
(g78
g59
NtRp1499
(dp1500
g62
(dp1501
sg71
g1486
sg64
(lp1502
g57
(g58
g59
NtRp1503
(dp1504
g62
(dp1505
g70
I4
ssg71
g1499
sg64
(lp1506
S'8080'
p1507
asbasbasbag57
(g73
g59
NtRp1508
(dp1509
g62
(dp1510
sg71
g847
sg64
(lp1511
g57
(g78
g59
NtRp1512
(dp1513
g62
(dp1514
g82
g83
ssg71
g1508
sg64
(lp1515
S'server_protocol'
p1516
asbag57
(g78
g59
NtRp1517
(dp1518
g62
(dp1519
g89
g90
ssg71
g1508
sg64
(lp1520
S':'
asbag57
(g78
g59
NtRp1521
(dp1522
g62
(dp1523
sg71
g1508
sg64
(lp1524
g57
(g58
g59
NtRp1525
(dp1526
g62
(dp1527
g70
I4
ssg71
g1521
sg64
(lp1528
S'HTTP/1.1'
p1529
asbasbasbag57
(g73
g59
NtRp1530
(dp1531
g62
(dp1532
sg71
g847
sg64
(lp1533
g57
(g78
g59
NtRp1534
(dp1535
g62
(dp1536
g82
g83
ssg71
g1530
sg64
(lp1537
S'server_software'
p1538
asbag57
(g78
g59
NtRp1539
(dp1540
g62
(dp1541
g89
g90
ssg71
g1530
sg64
(lp1542
S':'
asbag57
(g78
g59
NtRp1543
(dp1544
g62
(dp1545
sg71
g1530
sg64
(lp1546
g57
(g58
g59
NtRp1547
(dp1548
g62
(dp1549
g70
I4
ssg71
g1543
sg64
(lp1550
S'Rocket 1.2.5'
p1551
asbasbasbag57
(g73
g59
NtRp1552
(dp1553
g62
(dp1554
sg71
g847
sg64
(lp1555
g57
(g78
g59
NtRp1556
(dp1557
g62
(dp1558
g82
g83
ssg71
g1552
sg64
(lp1559
S'web2py_path'
p1560
asbag57
(g78
g59
NtRp1561
(dp1562
g62
(dp1563
g89
g90
ssg71
g1552
sg64
(lp1564
S':'
asbag57
(g78
g59
NtRp1565
(dp1566
g62
(dp1567
sg71
g1552
sg64
(lp1568
g57
(g58
g59
NtRp1569
(dp1570
g62
(dp1571
g70
I4
ssg71
g1565
sg64
(lp1572
g894
asbasbasbag57
(g73
g59
NtRp1573
(dp1574
g62
(dp1575
sg71
g847
sg64
(lp1576
g57
(g78
g59
NtRp1577
(dp1578
g62
(dp1579
g82
g83
ssg71
g1573
sg64
(lp1580
S'web2py_version'
p1581
asbag57
(g78
g59
NtRp1582
(dp1583
g62
(dp1584
g89
g90
ssg71
g1573
sg64
(lp1585
S':'
asbag57
(g78
g59
NtRp1586
(dp1587
g62
(dp1588
sg71
g1573
sg64
(lp1589
g57
(g58
g59
NtRp1590
(dp1591
g62
(dp1592
g70
I4
ssg71
g1586
sg64
(lp1593
g57
(g66
g59
NtRp1594
(dp1595
g62
(dp1596
g70
I3
ssg71
Nsg64
(lp1597
g57
(g73
g59
NtRp1598
(dp1599
g62
(dp1600
sg71
g1594
sg64
(lp1601
g57
(g78
g59
NtRp1602
(dp1603
g62
(dp1604
sg71
g1598
sg64
(lp1605
g57
(g58
g59
NtRp1606
(dp1607
g62
(dp1608
g70
I3
ssg71
g1602
sg64
(lp1609
S'2'
asbasbasbag57
(g73
g59
NtRp1610
(dp1611
g62
(dp1612
sg71
g1594
sg64
(lp1613
g57
(g78
g59
NtRp1614
(dp1615
g62
(dp1616
sg71
g1610
sg64
(lp1617
g57
(g58
g59
NtRp1618
(dp1619
g62
(dp1620
g70
I3
ssg71
g1614
sg64
(lp1621
S'2'
asbasbasbag57
(g73
g59
NtRp1622
(dp1623
g62
(dp1624
sg71
g1594
sg64
(lp1625
g57
(g78
g59
NtRp1626
(dp1627
g62
(dp1628
sg71
g1622
sg64
(lp1629
g57
(g58
g59
NtRp1630
(dp1631
g62
(dp1632
g70
I3
ssg71
g1626
sg64
(lp1633
S'1'
asbasbasbag57
(g73
g59
NtRp1634
(dp1635
g62
(dp1636
sg71
g1594
sg64
(lp1637
g57
(g78
g59
NtRp1638
(dp1639
g62
(dp1640
sg71
g1634
sg64
(lp1641
g57
(g58
g59
NtRp1642
(dp1643
g62
(dp1644
g70
I3
ssg71
g1638
sg64
(lp1645
S'datetime.datetime(2012, 10, 21, 16, 57, 4)'
p1646
asbasbasbag57
(g73
g59
NtRp1647
(dp1648
g62
(dp1649
sg71
g1594
sg64
(lp1650
g57
(g78
g59
NtRp1651
(dp1652
g62
(dp1653
sg71
g1647
sg64
(lp1654
g57
(g58
g59
NtRp1655
(dp1656
g62
(dp1657
g70
I3
ssg71
g1651
sg64
(lp1658
S'stable'
p1659
asbasbasbasbasbasbasbag57
(g73
g59
NtRp1660
(dp1661
g62
(dp1662
sg71
g847
sg64
(lp1663
g57
(g78
g59
NtRp1664
(dp1665
g62
(dp1666
g82
g83
ssg71
g1660
sg64
(lp1667
S'wsgi_errors'
p1668
asbag57
(g78
g59
NtRp1669
(dp1670
g62
(dp1671
g89
g90
ssg71
g1660
sg64
(lp1672
S':'
asbag57
(g78
g59
NtRp1673
(dp1674
g62
(dp1675
sg71
g1660
sg64
(lp1676
g57
(g58
g59
NtRp1677
(dp1678
g62
(dp1679
g70
I4
ssg71
g1673
sg64
(lp1680
S"<open file '<stderr>', mode 'w' at 0x2b39e2444270>"
p1681
asbasbasbag57
(g73
g59
NtRp1682
(dp1683
g62
(dp1684
sg71
g847
sg64
(lp1685
g57
(g78
g59
NtRp1686
(dp1687
g62
(dp1688
g82
g83
ssg71
g1682
sg64
(lp1689
S'wsgi_file_wrapper'
p1690
asbag57
(g78
g59
NtRp1691
(dp1692
g62
(dp1693
g89
g90
ssg71
g1682
sg64
(lp1694
S':'
asbag57
(g78
g59
NtRp1695
(dp1696
g62
(dp1697
sg71
g1682
sg64
(lp1698
g57
(g58
g59
NtRp1699
(dp1700
g62
(dp1701
g70
I4
ssg71
g1695
sg64
(lp1702
S'<class wsgiref.util.FileWrapper at 0x1671ca78>'
p1703
asbasbasbag57
(g73
g59
NtRp1704
(dp1705
g62
(dp1706
sg71
g847
sg64
(lp1707
g57
(g78
g59
NtRp1708
(dp1709
g62
(dp1710
g82
g83
ssg71
g1704
sg64
(lp1711
S'wsgi_input'
p1712
asbag57
(g78
g59
NtRp1713
(dp1714
g62
(dp1715
g89
g90
ssg71
g1704
sg64
(lp1716
S':'
asbag57
(g78
g59
NtRp1717
(dp1718
g62
(dp1719
sg71
g1704
sg64
(lp1720
g57
(g58
g59
NtRp1721
(dp1722
g62
(dp1723
g70
I4
ssg71
g1717
sg64
(lp1724
S'<socket._fileobject object at 0x17ffc5d0>'
p1725
asbasbasbag57
(g73
g59
NtRp1726
(dp1727
g62
(dp1728
sg71
g847
sg64
(lp1729
g57
(g78
g59
NtRp1730
(dp1731
g62
(dp1732
g82
g83
ssg71
g1726
sg64
(lp1733
S'wsgi_multiprocess'
p1734
asbag57
(g78
g59
NtRp1735
(dp1736
g62
(dp1737
g89
g90
ssg71
g1726
sg64
(lp1738
S':'
asbag57
(g78
g59
NtRp1739
(dp1740
g62
(dp1741
sg71
g1726
sg64
(lp1742
g57
(g58
g59
NtRp1743
(dp1744
g62
(dp1745
g70
I4
ssg71
g1739
sg64
(lp1746
g100
asbasbasbag57
(g73
g59
NtRp1747
(dp1748
g62
(dp1749
sg71
g847
sg64
(lp1750
g57
(g78
g59
NtRp1751
(dp1752
g62
(dp1753
g82
g83
ssg71
g1747
sg64
(lp1754
S'wsgi_multithread'
p1755
asbag57
(g78
g59
NtRp1756
(dp1757
g62
(dp1758
g89
g90
ssg71
g1747
sg64
(lp1759
S':'
asbag57
(g78
g59
NtRp1760
(dp1761
g62
(dp1762
sg71
g1747
sg64
(lp1763
g57
(g58
g59
NtRp1764
(dp1765
g62
(dp1766
g70
I4
ssg71
g1760
sg64
(lp1767
S'True'
p1768
asbasbasbag57
(g73
g59
NtRp1769
(dp1770
g62
(dp1771
sg71
g847
sg64
(lp1772
g57
(g78
g59
NtRp1773
(dp1774
g62
(dp1775
g82
g83
ssg71
g1769
sg64
(lp1776
S'wsgi_run_once'
p1777
asbag57
(g78
g59
NtRp1778
(dp1779
g62
(dp1780
g89
g90
ssg71
g1769
sg64
(lp1781
S':'
asbag57
(g78
g59
NtRp1782
(dp1783
g62
(dp1784
sg71
g1769
sg64
(lp1785
g57
(g58
g59
NtRp1786
(dp1787
g62
(dp1788
g70
I4
ssg71
g1782
sg64
(lp1789
g100
asbasbasbag57
(g73
g59
NtRp1790
(dp1791
g62
(dp1792
sg71
g847
sg64
(lp1793
g57
(g78
g59
NtRp1794
(dp1795
g62
(dp1796
g82
g83
ssg71
g1790
sg64
(lp1797
S'wsgi_url_scheme'
p1798
asbag57
(g78
g59
NtRp1799
(dp1800
g62
(dp1801
g89
g90
ssg71
g1790
sg64
(lp1802
S':'
asbag57
(g78
g59
NtRp1803
(dp1804
g62
(dp1805
sg71
g1790
sg64
(lp1806
g57
(g58
g59
NtRp1807
(dp1808
g62
(dp1809
g70
I4
ssg71
g1803
sg64
(lp1810
S'http'
p1811
asbasbasbag57
(g73
g59
NtRp1812
(dp1813
g62
(dp1814
sg71
g847
sg64
(lp1815
g57
(g78
g59
NtRp1816
(dp1817
g62
(dp1818
g82
g83
ssg71
g1812
sg64
(lp1819
S'wsgi_version'
p1820
asbag57
(g78
g59
NtRp1821
(dp1822
g62
(dp1823
g89
g90
ssg71
g1812
sg64
(lp1824
S':'
asbag57
(g78
g59
NtRp1825
(dp1826
g62
(dp1827
sg71
g1812
sg64
(lp1828
g57
(g58
g59
NtRp1829
(dp1830
g62
(dp1831
g70
I4
ssg71
g1825
sg64
(lp1832
g57
(g66
g59
NtRp1833
(dp1834
g62
(dp1835
g70
I3
ssg71
Nsg64
(lp1836
g57
(g73
g59
NtRp1837
(dp1838
g62
(dp1839
sg71
g1833
sg64
(lp1840
g57
(g78
g59
NtRp1841
(dp1842
g62
(dp1843
sg71
g1837
sg64
(lp1844
g57
(g58
g59
NtRp1845
(dp1846
g62
(dp1847
g70
I3
ssg71
g1841
sg64
(lp1848
S'1'
asbasbasbag57
(g73
g59
NtRp1849
(dp1850
g62
(dp1851
sg71
g1833
sg64
(lp1852
g57
(g78
g59
NtRp1853
(dp1854
g62
(dp1855
sg71
g1849
sg64
(lp1856
g57
(g58
g59
NtRp1857
(dp1858
g62
(dp1859
g70
I3
ssg71
g1853
sg64
(lp1860
S'0'
asbasbasbasbasbasbasbasbasbasbasbag57
(g73
g59
NtRp1861
(dp1862
g62
(dp1863
sg71
g67
sg64
(lp1864
g57
(g78
g59
NtRp1865
(dp1866
g62
(dp1867
g82
g83
ssg71
g1861
sg64
(lp1868
S'extension'
p1869
asbag57
(g78
g59
NtRp1870
(dp1871
g62
(dp1872
g89
g90
ssg71
g1861
sg64
(lp1873
S':'
asbag57
(g78
g59
NtRp1874
(dp1875
g62
(dp1876
sg71
g1861
sg64
(lp1877
g57
(g58
g59
NtRp1878
(dp1879
g62
(dp1880
g70
I5
ssg71
g1874
sg64
(lp1881
S'html'
p1882
asbasbasbag57
(g73
g59
NtRp1883
(dp1884
g62
(dp1885
sg71
g67
sg64
(lp1886
g57
(g78
g59
NtRp1887
(dp1888
g62
(dp1889
g82
g83
ssg71
g1883
sg64
(lp1890
S'folder'
p1891
asbag57
(g78
g59
NtRp1892
(dp1893
g62
(dp1894
g89
g90
ssg71
g1883
sg64
(lp1895
S':'
asbag57
(g78
g59
NtRp1896
(dp1897
g62
(dp1898
sg71
g1883
sg64
(lp1899
g57
(g58
g59
NtRp1900
(dp1901
g62
(dp1902
g70
I5
ssg71
g1896
sg64
(lp1903
S'/home/xchen/web2py/applications/Betsy/'
p1904
asbasbasbag57
(g73
g59
NtRp1905
(dp1906
g62
(dp1907
sg71
g67
sg64
(lp1908
g57
(g78
g59
NtRp1909
(dp1910
g62
(dp1911
g82
g83
ssg71
g1905
sg64
(lp1912
S'function'
p1913
asbag57
(g78
g59
NtRp1914
(dp1915
g62
(dp1916
g89
g90
ssg71
g1905
sg64
(lp1917
S':'
asbag57
(g78
g59
NtRp1918
(dp1919
g62
(dp1920
sg71
g1905
sg64
(lp1921
g57
(g58
g59
NtRp1922
(dp1923
g62
(dp1924
g70
I5
ssg71
g1918
sg64
(lp1925
S'protocol'
p1926
asbasbasbag57
(g73
g59
NtRp1927
(dp1928
g62
(dp1929
sg71
g67
sg64
(lp1930
g57
(g78
g59
NtRp1931
(dp1932
g62
(dp1933
g82
g83
ssg71
g1927
sg64
(lp1934
S'get_vars'
p1935
asbag57
(g78
g59
NtRp1936
(dp1937
g62
(dp1938
g89
g90
ssg71
g1927
sg64
(lp1939
S':'
asbag57
(g78
g59
NtRp1940
(dp1941
g62
(dp1942
sg71
g1927
sg64
(lp1943
g57
(g58
g59
NtRp1944
(dp1945
g62
(dp1946
g70
I5
ssg71
g1940
sg64
(lp1947
g57
(g66
g59
NtRp1948
(dp1949
g62
(dp1950
g70
I4
ssg71
Nsg64
(lp1951
sbasbasbasbag57
(g73
g59
NtRp1952
(dp1953
g62
(dp1954
sg71
g67
sg64
(lp1955
g57
(g78
g59
NtRp1956
(dp1957
g62
(dp1958
g82
g83
ssg71
g1952
sg64
(lp1959
S'global_settings'
p1960
asbag57
(g78
g59
NtRp1961
(dp1962
g62
(dp1963
g89
g90
ssg71
g1952
sg64
(lp1964
S':'
asbag57
(g78
g59
NtRp1965
(dp1966
g62
(dp1967
sg71
g1952
sg64
(lp1968
g57
(g58
g59
NtRp1969
(dp1970
g62
(dp1971
g70
I5
ssg71
g1965
sg64
(lp1972
g57
(g66
g59
NtRp1973
(dp1974
g62
(dp1975
g70
I4
ssg71
Nsg64
(lp1976
g57
(g73
g59
NtRp1977
(dp1978
g62
(dp1979
sg71
g1973
sg64
(lp1980
g57
(g78
g59
NtRp1981
(dp1982
g62
(dp1983
g82
g83
ssg71
g1977
sg64
(lp1984
g859
asbag57
(g78
g59
NtRp1985
(dp1986
g62
(dp1987
g89
g90
ssg71
g1977
sg64
(lp1988
S':'
asbag57
(g78
g59
NtRp1989
(dp1990
g62
(dp1991
sg71
g1977
sg64
(lp1992
g57
(g58
g59
NtRp1993
(dp1994
g62
(dp1995
g70
I4
ssg71
g1989
sg64
(lp1996
S"set(['/home/xchen/web2py/applications/Betsy/', '/home/xchen/web2py/applications/admin/'])"
p1997
asbasbasbag57
(g73
g59
NtRp1998
(dp1999
g62
(dp2000
sg71
g1973
sg64
(lp2001
g57
(g78
g59
NtRp2002
(dp2003
g62
(dp2004
g82
g83
ssg71
g1998
sg64
(lp2005
g881
asbag57
(g78
g59
NtRp2006
(dp2007
g62
(dp2008
g89
g90
ssg71
g1998
sg64
(lp2009
S':'
asbag57
(g78
g59
NtRp2010
(dp2011
g62
(dp2012
sg71
g1998
sg64
(lp2013
g57
(g58
g59
NtRp2014
(dp2015
g62
(dp2016
g70
I4
ssg71
g2010
sg64
(lp2017
g894
asbasbasbag57
(g73
g59
NtRp2018
(dp2019
g62
(dp2020
sg71
g1973
sg64
(lp2021
g57
(g78
g59
NtRp2022
(dp2023
g62
(dp2024
g82
g83
ssg71
g2018
sg64
(lp2025
g903
asbag57
(g78
g59
NtRp2026
(dp2027
g62
(dp2028
g89
g90
ssg71
g2018
sg64
(lp2029
S':'
asbag57
(g78
g59
NtRp2030
(dp2031
g62
(dp2032
sg71
g2018
sg64
(lp2033
g57
(g58
g59
NtRp2034
(dp2035
g62
(dp2036
g70
I4
ssg71
g2030
sg64
(lp2037
g57
(g66
g59
NtRp2038
(dp2039
g62
(dp2040
g70
I3
ssg71
Nsg64
(lp2041
sbasbasbasbag57
(g73
g59
NtRp2042
(dp2043
g62
(dp2044
sg71
g1973
sg64
(lp2045
g57
(g78
g59
NtRp2046
(dp2047
g62
(dp2048
g82
g83
ssg71
g2042
sg64
(lp2049
g928
asbag57
(g78
g59
NtRp2050
(dp2051
g62
(dp2052
g89
g90
ssg71
g2042
sg64
(lp2053
S':'
asbag57
(g78
g59
NtRp2054
(dp2055
g62
(dp2056
sg71
g2042
sg64
(lp2057
g57
(g58
g59
NtRp2058
(dp2059
g62
(dp2060
g70
I4
ssg71
g2054
sg64
(lp2061
S"<Values at 0x167bce18: {'verbose': False, 'ip': '127.0.0.1', 'with_scheduler': False, 'ips': [], 'shutdown_timeout': 5, 'taskbar': False, 'port': 8080, 'maxthreads': None, 'softcron': False, 'server_name': 'unicron.shis.uth.tmc.edu', 'bpython': False, 'nogui': False, 'pid_filename': 'httpserver.pid', 'extcron': False, 'runcron': False, 'run_system_tests': False, 'test': None, 'folder': '/home/xchen/web2py', 'config': '', 'minthreads': None, 'winservice': '', 'shell': None, 'run': '', 'log_filename': 'httpserver.log', 'debuglevel': 30, 'args': [''], 'socket_timeout': 5, 'ssl_ca_certificate': None, 'scheduler': None, 'profiler_filename': None, 'ssl_private_key': '', 'scheduler_groups': None, 'password': 'baby2008', 'request_queue_size': 5, 'ssl_certificate': '', 'cronjob': False, 'numthreads': None, 'quiet': False, 'interfaces': None, 'import_models': False, 'timeout': 10, 'plain': False, 'nobanner': False}>"
p2062
asbasbasbag57
(g73
g59
NtRp2063
(dp2064
g62
(dp2065
sg71
g1973
sg64
(lp2066
g57
(g78
g59
NtRp2067
(dp2068
g62
(dp2069
g82
g83
ssg71
g2063
sg64
(lp2070
g950
asbag57
(g78
g59
NtRp2071
(dp2072
g62
(dp2073
g89
g90
ssg71
g2063
sg64
(lp2074
S':'
asbag57
(g78
g59
NtRp2075
(dp2076
g62
(dp2077
sg71
g2063
sg64
(lp2078
g57
(g58
g59
NtRp2079
(dp2080
g62
(dp2081
g70
I4
ssg71
g2075
sg64
(lp2082
S'set([])'
p2083
asbasbasbag57
(g73
g59
NtRp2084
(dp2085
g62
(dp2086
sg71
g1973
sg64
(lp2087
g57
(g78
g59
NtRp2088
(dp2089
g62
(dp2090
g82
g83
ssg71
g2084
sg64
(lp2091
g972
asbag57
(g78
g59
NtRp2092
(dp2093
g62
(dp2094
g89
g90
ssg71
g2084
sg64
(lp2095
S':'
asbag57
(g78
g59
NtRp2096
(dp2097
g62
(dp2098
sg71
g2084
sg64
(lp2099
g57
(g58
g59
NtRp2100
(dp2101
g62
(dp2102
g70
I4
ssg71
g2096
sg64
(lp2103
g100
asbasbasbag57
(g73
g59
NtRp2104
(dp2105
g62
(dp2106
sg71
g1973
sg64
(lp2107
g57
(g78
g59
NtRp2108
(dp2109
g62
(dp2110
g82
g83
ssg71
g2104
sg64
(lp2111
g993
asbag57
(g78
g59
NtRp2112
(dp2113
g62
(dp2114
g89
g90
ssg71
g2104
sg64
(lp2115
S':'
asbag57
(g78
g59
NtRp2116
(dp2117
g62
(dp2118
sg71
g2104
sg64
(lp2119
g57
(g58
g59
NtRp2120
(dp2121
g62
(dp2122
g70
I4
ssg71
g2116
sg64
(lp2123
g1006
asbasbasbag57
(g73
g59
NtRp2124
(dp2125
g62
(dp2126
sg71
g1973
sg64
(lp2127
g57
(g78
g59
NtRp2128
(dp2129
g62
(dp2130
g82
g83
ssg71
g2124
sg64
(lp2131
g1191
asbag57
(g78
g59
NtRp2132
(dp2133
g62
(dp2134
g89
g90
ssg71
g2124
sg64
(lp2135
S':'
asbag57
(g78
g59
NtRp2136
(dp2137
g62
(dp2138
sg71
g2124
sg64
(lp2139
g57
(g58
g59
NtRp2140
(dp2141
g62
(dp2142
g70
I4
ssg71
g2136
sg64
(lp2143
g100
asbasbasbag57
(g73
g59
NtRp2144
(dp2145
g62
(dp2146
sg71
g1973
sg64
(lp2147
g57
(g78
g59
NtRp2148
(dp2149
g62
(dp2150
g82
g83
ssg71
g2144
sg64
(lp2151
g1212
asbag57
(g78
g59
NtRp2152
(dp2153
g62
(dp2154
g89
g90
ssg71
g2144
sg64
(lp2155
S':'
asbag57
(g78
g59
NtRp2156
(dp2157
g62
(dp2158
sg71
g2144
sg64
(lp2159
g57
(g58
g59
NtRp2160
(dp2161
g62
(dp2162
g70
I4
ssg71
g2156
sg64
(lp2163
g100
asbasbasbag57
(g73
g59
NtRp2164
(dp2165
g62
(dp2166
sg71
g1973
sg64
(lp2167
g57
(g78
g59
NtRp2168
(dp2169
g62
(dp2170
g82
g83
ssg71
g2164
sg64
(lp2171
g1233
asbag57
(g78
g59
NtRp2172
(dp2173
g62
(dp2174
g89
g90
ssg71
g2164
sg64
(lp2175
S':'
asbag57
(g78
g59
NtRp2176
(dp2177
g62
(dp2178
sg71
g2164
sg64
(lp2179
g57
(g58
g59
NtRp2180
(dp2181
g62
(dp2182
g70
I4
ssg71
g2176
sg64
(lp2183
g57
(g66
g59
NtRp2184
(dp2185
g62
(dp2186
g70
I3
ssg71
Nsg64
(lp2187
g57
(g73
g59
NtRp2188
(dp2189
g62
(dp2190
sg71
g2184
sg64
(lp2191
g57
(g78
g59
NtRp2192
(dp2193
g62
(dp2194
sg71
g2188
sg64
(lp2195
g57
(g58
g59
NtRp2196
(dp2197
g62
(dp2198
g70
I3
ssg71
g2192
sg64
(lp2199
g1262
asbasbasbag57
(g73
g59
NtRp2200
(dp2201
g62
(dp2202
sg71
g2184
sg64
(lp2203
g57
(g78
g59
NtRp2204
(dp2205
g62
(dp2206
sg71
g2200
sg64
(lp2207
g57
(g58
g59
NtRp2208
(dp2209
g62
(dp2210
g70
I3
ssg71
g2204
sg64
(lp2211
g1275
asbasbasbag57
(g73
g59
NtRp2212
(dp2213
g62
(dp2214
sg71
g2184
sg64
(lp2215
g57
(g78
g59
NtRp2216
(dp2217
g62
(dp2218
sg71
g2212
sg64
(lp2219
g57
(g58
g59
NtRp2220
(dp2221
g62
(dp2222
g70
I3
ssg71
g2216
sg64
(lp2223
g1288
asbasbasbag57
(g73
g59
NtRp2224
(dp2225
g62
(dp2226
sg71
g2184
sg64
(lp2227
g57
(g78
g59
NtRp2228
(dp2229
g62
(dp2230
sg71
g2224
sg64
(lp2231
g57
(g58
g59
NtRp2232
(dp2233
g62
(dp2234
g70
I3
ssg71
g2228
sg64
(lp2235
g1301
asbasbasbag57
(g73
g59
NtRp2236
(dp2237
g62
(dp2238
sg71
g2184
sg64
(lp2239
g57
(g78
g59
NtRp2240
(dp2241
g62
(dp2242
sg71
g2236
sg64
(lp2243
g57
(g58
g59
NtRp2244
(dp2245
g62
(dp2246
g70
I3
ssg71
g2240
sg64
(lp2247
g1314
asbasbasbasbasbasbasbag57
(g73
g59
NtRp2248
(dp2249
g62
(dp2250
sg71
g1973
sg64
(lp2251
g57
(g78
g59
NtRp2252
(dp2253
g62
(dp2254
g82
g83
ssg71
g2248
sg64
(lp2255
g1581
asbag57
(g78
g59
NtRp2256
(dp2257
g62
(dp2258
g89
g90
ssg71
g2248
sg64
(lp2259
S':'
asbag57
(g78
g59
NtRp2260
(dp2261
g62
(dp2262
sg71
g2248
sg64
(lp2263
g57
(g58
g59
NtRp2264
(dp2265
g62
(dp2266
g70
I4
ssg71
g2260
sg64
(lp2267
g57
(g66
g59
NtRp2268
(dp2269
g62
(dp2270
g70
I3
ssg71
Nsg64
(lp2271
g57
(g73
g59
NtRp2272
(dp2273
g62
(dp2274
sg71
g2268
sg64
(lp2275
g57
(g78
g59
NtRp2276
(dp2277
g62
(dp2278
sg71
g2272
sg64
(lp2279
g57
(g58
g59
NtRp2280
(dp2281
g62
(dp2282
g70
I3
ssg71
g2276
sg64
(lp2283
S'2'
asbasbasbag57
(g73
g59
NtRp2284
(dp2285
g62
(dp2286
sg71
g2268
sg64
(lp2287
g57
(g78
g59
NtRp2288
(dp2289
g62
(dp2290
sg71
g2284
sg64
(lp2291
g57
(g58
g59
NtRp2292
(dp2293
g62
(dp2294
g70
I3
ssg71
g2288
sg64
(lp2295
S'2'
asbasbasbag57
(g73
g59
NtRp2296
(dp2297
g62
(dp2298
sg71
g2268
sg64
(lp2299
g57
(g78
g59
NtRp2300
(dp2301
g62
(dp2302
sg71
g2296
sg64
(lp2303
g57
(g58
g59
NtRp2304
(dp2305
g62
(dp2306
g70
I3
ssg71
g2300
sg64
(lp2307
S'1'
asbasbasbag57
(g73
g59
NtRp2308
(dp2309
g62
(dp2310
sg71
g2268
sg64
(lp2311
g57
(g78
g59
NtRp2312
(dp2313
g62
(dp2314
sg71
g2308
sg64
(lp2315
g57
(g58
g59
NtRp2316
(dp2317
g62
(dp2318
g70
I3
ssg71
g2312
sg64
(lp2319
S'datetime.datetime(2012, 10, 21, 16, 57, 4)'
p2320
asbasbasbag57
(g73
g59
NtRp2321
(dp2322
g62
(dp2323
sg71
g2268
sg64
(lp2324
g57
(g78
g59
NtRp2325
(dp2326
g62
(dp2327
sg71
g2321
sg64
(lp2328
g57
(g58
g59
NtRp2329
(dp2330
g62
(dp2331
g70
I3
ssg71
g2325
sg64
(lp2332
g1659
asbasbasbasbasbasbasbasbasbasbasbag57
(g73
g59
NtRp2333
(dp2334
g62
(dp2335
sg71
g67
sg64
(lp2336
g57
(g78
g59
NtRp2337
(dp2338
g62
(dp2339
g82
g83
ssg71
g2333
sg64
(lp2340
S'is_https'
p2341
asbag57
(g78
g59
NtRp2342
(dp2343
g62
(dp2344
g89
g90
ssg71
g2333
sg64
(lp2345
S':'
asbag57
(g78
g59
NtRp2346
(dp2347
g62
(dp2348
sg71
g2333
sg64
(lp2349
g57
(g58
g59
NtRp2350
(dp2351
g62
(dp2352
g70
I5
ssg71
g2346
sg64
(lp2353
g100
asbasbasbag57
(g73
g59
NtRp2354
(dp2355
g62
(dp2356
sg71
g67
sg64
(lp2357
g57
(g78
g59
NtRp2358
(dp2359
g62
(dp2360
g82
g83
ssg71
g2354
sg64
(lp2361
S'is_local'
p2362
asbag57
(g78
g59
NtRp2363
(dp2364
g62
(dp2365
g89
g90
ssg71
g2354
sg64
(lp2366
S':'
asbag57
(g78
g59
NtRp2367
(dp2368
g62
(dp2369
sg71
g2354
sg64
(lp2370
g57
(g58
g59
NtRp2371
(dp2372
g62
(dp2373
g70
I5
ssg71
g2367
sg64
(lp2374
g1768
asbasbasbag57
(g73
g59
NtRp2375
(dp2376
g62
(dp2377
sg71
g67
sg64
(lp2378
g57
(g78
g59
NtRp2379
(dp2380
g62
(dp2381
g82
g83
ssg71
g2375
sg64
(lp2382
S'is_restful'
p2383
asbag57
(g78
g59
NtRp2384
(dp2385
g62
(dp2386
g89
g90
ssg71
g2375
sg64
(lp2387
S':'
asbag57
(g78
g59
NtRp2388
(dp2389
g62
(dp2390
sg71
g2375
sg64
(lp2391
g57
(g58
g59
NtRp2392
(dp2393
g62
(dp2394
g70
I5
ssg71
g2388
sg64
(lp2395
g100
asbasbasbag57
(g73
g59
NtRp2396
(dp2397
g62
(dp2398
sg71
g67
sg64
(lp2399
g57
(g78
g59
NtRp2400
(dp2401
g62
(dp2402
g82
g83
ssg71
g2396
sg64
(lp2403
S'now'
p2404
asbag57
(g78
g59
NtRp2405
(dp2406
g62
(dp2407
g89
g90
ssg71
g2396
sg64
(lp2408
S':'
asbag57
(g78
g59
NtRp2409
(dp2410
g62
(dp2411
sg71
g2396
sg64
(lp2412
g57
(g58
g59
NtRp2413
(dp2414
g62
(dp2415
g70
I5
ssg71
g2409
sg64
(lp2416
S'datetime.datetime(2013, 2, 20, 14, 28, 2, 300081)'
p2417
asbasbasbag57
(g73
g59
NtRp2418
(dp2419
g62
(dp2420
sg71
g67
sg64
(lp2421
g57
(g78
g59
NtRp2422
(dp2423
g62
(dp2424
g82
g83
ssg71
g2418
sg64
(lp2425
S'post_vars'
p2426
asbag57
(g78
g59
NtRp2427
(dp2428
g62
(dp2429
g89
g90
ssg71
g2418
sg64
(lp2430
S':'
asbag57
(g78
g59
NtRp2431
(dp2432
g62
(dp2433
sg71
g2418
sg64
(lp2434
g57
(g58
g59
NtRp2435
(dp2436
g62
(dp2437
g70
I5
ssg71
g2431
sg64
(lp2438
g57
(g66
g59
NtRp2439
(dp2440
g62
(dp2441
g70
I4
ssg71
Nsg64
(lp2442
sbasbasbasbag57
(g73
g59
NtRp2443
(dp2444
g62
(dp2445
sg71
g67
sg64
(lp2446
g57
(g78
g59
NtRp2447
(dp2448
g62
(dp2449
g82
g83
ssg71
g2443
sg64
(lp2450
S'raw_args'
p2451
asbag57
(g78
g59
NtRp2452
(dp2453
g62
(dp2454
g89
g90
ssg71
g2443
sg64
(lp2455
S':'
asbag57
(g78
g59
NtRp2456
(dp2457
g62
(dp2458
sg71
g2443
sg64
(lp2459
g57
(g58
g59
NtRp2460
(dp2461
g62
(dp2462
g70
I5
ssg71
g2456
sg64
(lp2463
S''
asbasbasbag57
(g73
g59
NtRp2464
(dp2465
g62
(dp2466
sg71
g67
sg64
(lp2467
g57
(g78
g59
NtRp2468
(dp2469
g62
(dp2470
g82
g83
ssg71
g2464
sg64
(lp2471
S'raw_extension'
p2472
asbag57
(g78
g59
NtRp2473
(dp2474
g62
(dp2475
g89
g90
ssg71
g2464
sg64
(lp2476
S':'
asbag57
(g78
g59
NtRp2477
(dp2478
g62
(dp2479
sg71
g2464
sg64
(lp2480
g57
(g58
g59
NtRp2481
(dp2482
g62
(dp2483
g70
I5
ssg71
g2477
sg64
(lp2484
S'None'
p2485
asbasbasbag57
(g73
g59
NtRp2486
(dp2487
g62
(dp2488
sg71
g67
sg64
(lp2489
g57
(g78
g59
NtRp2490
(dp2491
g62
(dp2492
g82
g83
ssg71
g2486
sg64
(lp2493
S'url'
p2494
asbag57
(g78
g59
NtRp2495
(dp2496
g62
(dp2497
g89
g90
ssg71
g2486
sg64
(lp2498
S':'
asbag57
(g78
g59
NtRp2499
(dp2500
g62
(dp2501
sg71
g2486
sg64
(lp2502
g57
(g58
g59
NtRp2503
(dp2504
g62
(dp2505
g70
I5
ssg71
g2499
sg64
(lp2506
g1336
asbasbasbag57
(g73
g59
NtRp2507
(dp2508
g62
(dp2509
sg71
g67
sg64
(lp2510
g57
(g78
g59
NtRp2511
(dp2512
g62
(dp2513
g82
g83
ssg71
g2507
sg64
(lp2514
S'utcnow'
p2515
asbag57
(g78
g59
NtRp2516
(dp2517
g62
(dp2518
g89
g90
ssg71
g2507
sg64
(lp2519
S':'
asbag57
(g78
g59
NtRp2520
(dp2521
g62
(dp2522
sg71
g2507
sg64
(lp2523
g57
(g58
g59
NtRp2524
(dp2525
g62
(dp2526
g70
I5
ssg71
g2520
sg64
(lp2527
S'datetime.datetime(2013, 2, 20, 20, 28, 2, 300089)'
p2528
asbasbasbag57
(g73
g59
NtRp2529
(dp2530
g62
(dp2531
sg71
g67
sg64
(lp2532
g57
(g78
g59
NtRp2533
(dp2534
g62
(dp2535
g82
g83
ssg71
g2529
sg64
(lp2536
S'uuid'
p2537
asbag57
(g78
g59
NtRp2538
(dp2539
g62
(dp2540
g89
g90
ssg71
g2529
sg64
(lp2541
S':'
asbag57
(g78
g59
NtRp2542
(dp2543
g62
(dp2544
sg71
g2529
sg64
(lp2545
g57
(g58
g59
NtRp2546
(dp2547
g62
(dp2548
g70
I5
ssg71
g2542
sg64
(lp2549
S'Betsy/127.0.0.1.2013-02-20.14-28-02.f961f111-5f16-4b62-affa-1d29e4fd20dc'
p2550
asbasbasbag57
(g73
g59
NtRp2551
(dp2552
g62
(dp2553
sg71
g67
sg64
(lp2554
g57
(g78
g59
NtRp2555
(dp2556
g62
(dp2557
g82
g83
ssg71
g2551
sg64
(lp2558
S'vars'
p2559
asbag57
(g78
g59
NtRp2560
(dp2561
g62
(dp2562
g89
g90
ssg71
g2551
sg64
(lp2563
S':'
asbag57
(g78
g59
NtRp2564
(dp2565
g62
(dp2566
sg71
g2551
sg64
(lp2567
g57
(g58
g59
NtRp2568
(dp2569
g62
(dp2570
g70
I5
ssg71
g2564
sg64
(lp2571
g57
(g66
g59
NtRp2572
(dp2573
g62
(dp2574
g70
I4
ssg71
Nsg64
(lp2575
sbasbasbasbag57
(g73
g59
NtRp2576
(dp2577
g62
(dp2578
sg71
g67
sg64
(lp2579
g57
(g78
g59
NtRp2580
(dp2581
g62
(dp2582
g82
g83
ssg71
g2576
sg64
(lp2583
S'wsgi'
p2584
asbag57
(g78
g59
NtRp2585
(dp2586
g62
(dp2587
g89
g90
ssg71
g2576
sg64
(lp2588
S':'
asbag57
(g78
g59
NtRp2589
(dp2590
g62
(dp2591
sg71
g2576
sg64
(lp2592
g57
(g58
g59
NtRp2593
(dp2594
g62
(dp2595
g70
I5
ssg71
g2589
sg64
(lp2596
g57
(g66
g59
NtRp2597
(dp2598
g62
(dp2599
g70
I4
ssg71
Nsg64
(lp2600
g57
(g73
g59
NtRp2601
(dp2602
g62
(dp2603
sg71
g2597
sg64
(lp2604
g57
(g78
g59
NtRp2605
(dp2606
g62
(dp2607
g82
g83
ssg71
g2601
sg64
(lp2608
S'environ'
p2609
asbag57
(g78
g59
NtRp2610
(dp2611
g62
(dp2612
g89
g90
ssg71
g2601
sg64
(lp2613
S':'
asbag57
(g78
g59
NtRp2614
(dp2615
g62
(dp2616
sg71
g2601
sg64
(lp2617
g57
(g58
g59
NtRp2618
(dp2619
g62
(dp2620
g70
I4
ssg71
g2614
sg64
(lp2621
g57
(g66
g59
NtRp2622
(dp2623
g62
(dp2624
g70
I3
ssg71
Nsg64
(lp2625
g57
(g73
g59
NtRp2626
(dp2627
g62
(dp2628
sg71
g2622
sg64
(lp2629
g57
(g78
g59
NtRp2630
(dp2631
g62
(dp2632
g82
g83
ssg71
g2626
sg64
(lp2633
S'HTTP_ACCEPT'
p2634
asbag57
(g78
g59
NtRp2635
(dp2636
g62
(dp2637
g89
g90
ssg71
g2626
sg64
(lp2638
S':'
asbag57
(g78
g59
NtRp2639
(dp2640
g62
(dp2641
sg71
g2626
sg64
(lp2642
g57
(g58
g59
NtRp2643
(dp2644
g62
(dp2645
g70
I3
ssg71
g2639
sg64
(lp2646
g1028
asbasbasbag57
(g73
g59
NtRp2647
(dp2648
g62
(dp2649
sg71
g2622
sg64
(lp2650
g57
(g78
g59
NtRp2651
(dp2652
g62
(dp2653
g82
g83
ssg71
g2647
sg64
(lp2654
S'HTTP_ACCEPT_ENCODING'
p2655
asbag57
(g78
g59
NtRp2656
(dp2657
g62
(dp2658
g89
g90
ssg71
g2647
sg64
(lp2659
S':'
asbag57
(g78
g59
NtRp2660
(dp2661
g62
(dp2662
sg71
g2647
sg64
(lp2663
g57
(g58
g59
NtRp2664
(dp2665
g62
(dp2666
g70
I3
ssg71
g2660
sg64
(lp2667
g1050
asbasbasbag57
(g73
g59
NtRp2668
(dp2669
g62
(dp2670
sg71
g2622
sg64
(lp2671
g57
(g78
g59
NtRp2672
(dp2673
g62
(dp2674
g82
g83
ssg71
g2668
sg64
(lp2675
S'HTTP_ACCEPT_LANGUAGE'
p2676
asbag57
(g78
g59
NtRp2677
(dp2678
g62
(dp2679
g89
g90
ssg71
g2668
sg64
(lp2680
S':'
asbag57
(g78
g59
NtRp2681
(dp2682
g62
(dp2683
sg71
g2668
sg64
(lp2684
g57
(g58
g59
NtRp2685
(dp2686
g62
(dp2687
g70
I3
ssg71
g2681
sg64
(lp2688
g1072
asbasbasbag57
(g73
g59
NtRp2689
(dp2690
g62
(dp2691
sg71
g2622
sg64
(lp2692
g57
(g78
g59
NtRp2693
(dp2694
g62
(dp2695
g82
g83
ssg71
g2689
sg64
(lp2696
S'HTTP_CONNECTION'
p2697
asbag57
(g78
g59
NtRp2698
(dp2699
g62
(dp2700
g89
g90
ssg71
g2689
sg64
(lp2701
S':'
asbag57
(g78
g59
NtRp2702
(dp2703
g62
(dp2704
sg71
g2689
sg64
(lp2705
g57
(g58
g59
NtRp2706
(dp2707
g62
(dp2708
g70
I3
ssg71
g2702
sg64
(lp2709
g1094
asbasbasbag57
(g73
g59
NtRp2710
(dp2711
g62
(dp2712
sg71
g2622
sg64
(lp2713
g57
(g78
g59
NtRp2714
(dp2715
g62
(dp2716
g82
g83
ssg71
g2710
sg64
(lp2717
S'HTTP_COOKIE'
p2718
asbag57
(g78
g59
NtRp2719
(dp2720
g62
(dp2721
g89
g90
ssg71
g2710
sg64
(lp2722
S':'
asbag57
(g78
g59
NtRp2723
(dp2724
g62
(dp2725
sg71
g2710
sg64
(lp2726
g57
(g58
g59
NtRp2727
(dp2728
g62
(dp2729
g70
I3
ssg71
g2723
sg64
(lp2730
g1116
asbasbasbag57
(g73
g59
NtRp2731
(dp2732
g62
(dp2733
sg71
g2622
sg64
(lp2734
g57
(g78
g59
NtRp2735
(dp2736
g62
(dp2737
g82
g83
ssg71
g2731
sg64
(lp2738
S'HTTP_HOST'
p2739
asbag57
(g78
g59
NtRp2740
(dp2741
g62
(dp2742
g89
g90
ssg71
g2731
sg64
(lp2743
S':'
asbag57
(g78
g59
NtRp2744
(dp2745
g62
(dp2746
sg71
g2731
sg64
(lp2747
g57
(g58
g59
NtRp2748
(dp2749
g62
(dp2750
g70
I3
ssg71
g2744
sg64
(lp2751
g1138
asbasbasbag57
(g73
g59
NtRp2752
(dp2753
g62
(dp2754
sg71
g2622
sg64
(lp2755
g57
(g78
g59
NtRp2756
(dp2757
g62
(dp2758
g82
g83
ssg71
g2752
sg64
(lp2759
S'HTTP_REFERER'
p2760
asbag57
(g78
g59
NtRp2761
(dp2762
g62
(dp2763
g89
g90
ssg71
g2752
sg64
(lp2764
S':'
asbag57
(g78
g59
NtRp2765
(dp2766
g62
(dp2767
sg71
g2752
sg64
(lp2768
g57
(g58
g59
NtRp2769
(dp2770
g62
(dp2771
g70
I3
ssg71
g2765
sg64
(lp2772
g1160
asbasbasbag57
(g73
g59
NtRp2773
(dp2774
g62
(dp2775
sg71
g2622
sg64
(lp2776
g57
(g78
g59
NtRp2777
(dp2778
g62
(dp2779
g82
g83
ssg71
g2773
sg64
(lp2780
S'HTTP_USER_AGENT'
p2781
asbag57
(g78
g59
NtRp2782
(dp2783
g62
(dp2784
g89
g90
ssg71
g2773
sg64
(lp2785
S':'
asbag57
(g78
g59
NtRp2786
(dp2787
g62
(dp2788
sg71
g2773
sg64
(lp2789
g57
(g58
g59
NtRp2790
(dp2791
g62
(dp2792
g70
I3
ssg71
g2786
sg64
(lp2793
g1182
asbasbasbag57
(g73
g59
NtRp2794
(dp2795
g62
(dp2796
sg71
g2622
sg64
(lp2797
g57
(g78
g59
NtRp2798
(dp2799
g62
(dp2800
g82
g83
ssg71
g2794
sg64
(lp2801
S'PATH_INFO'
p2802
asbag57
(g78
g59
NtRp2803
(dp2804
g62
(dp2805
g89
g90
ssg71
g2794
sg64
(lp2806
S':'
asbag57
(g78
g59
NtRp2807
(dp2808
g62
(dp2809
sg71
g2794
sg64
(lp2810
g57
(g58
g59
NtRp2811
(dp2812
g62
(dp2813
g70
I3
ssg71
g2807
sg64
(lp2814
g1336
asbasbasbag57
(g73
g59
NtRp2815
(dp2816
g62
(dp2817
sg71
g2622
sg64
(lp2818
g57
(g78
g59
NtRp2819
(dp2820
g62
(dp2821
g82
g83
ssg71
g2815
sg64
(lp2822
S'QUERY_STRING'
p2823
asbag57
(g78
g59
NtRp2824
(dp2825
g62
(dp2826
g89
g90
ssg71
g2815
sg64
(lp2827
S':'
asbag57
(g78
g59
NtRp2828
(dp2829
g62
(dp2830
sg71
g2815
sg64
(lp2831
g57
(g58
g59
NtRp2832
(dp2833
g62
(dp2834
g70
I3
ssg71
g2828
sg64
(lp2835
S''
asbasbasbag57
(g73
g59
NtRp2836
(dp2837
g62
(dp2838
sg71
g2622
sg64
(lp2839
g57
(g78
g59
NtRp2840
(dp2841
g62
(dp2842
g82
g83
ssg71
g2836
sg64
(lp2843
S'REMOTE_ADDR'
p2844
asbag57
(g78
g59
NtRp2845
(dp2846
g62
(dp2847
g89
g90
ssg71
g2836
sg64
(lp2848
S':'
asbag57
(g78
g59
NtRp2849
(dp2850
g62
(dp2851
sg71
g2836
sg64
(lp2852
g57
(g58
g59
NtRp2853
(dp2854
g62
(dp2855
g70
I3
ssg71
g2849
sg64
(lp2856
g212
asbasbasbag57
(g73
g59
NtRp2857
(dp2858
g62
(dp2859
sg71
g2622
sg64
(lp2860
g57
(g78
g59
NtRp2861
(dp2862
g62
(dp2863
g82
g83
ssg71
g2857
sg64
(lp2864
S'REMOTE_PORT'
p2865
asbag57
(g78
g59
NtRp2866
(dp2867
g62
(dp2868
g89
g90
ssg71
g2857
sg64
(lp2869
S':'
asbag57
(g78
g59
NtRp2870
(dp2871
g62
(dp2872
sg71
g2857
sg64
(lp2873
g57
(g58
g59
NtRp2874
(dp2875
g62
(dp2876
g70
I3
ssg71
g2870
sg64
(lp2877
g1400
asbasbasbag57
(g73
g59
NtRp2878
(dp2879
g62
(dp2880
sg71
g2622
sg64
(lp2881
g57
(g78
g59
NtRp2882
(dp2883
g62
(dp2884
g82
g83
ssg71
g2878
sg64
(lp2885
S'REQUEST_METHOD'
p2886
asbag57
(g78
g59
NtRp2887
(dp2888
g62
(dp2889
g89
g90
ssg71
g2878
sg64
(lp2890
S':'
asbag57
(g78
g59
NtRp2891
(dp2892
g62
(dp2893
sg71
g2878
sg64
(lp2894
g57
(g58
g59
NtRp2895
(dp2896
g62
(dp2897
g70
I3
ssg71
g2891
sg64
(lp2898
g1422
asbasbasbag57
(g73
g59
NtRp2899
(dp2900
g62
(dp2901
sg71
g2622
sg64
(lp2902
g57
(g78
g59
NtRp2903
(dp2904
g62
(dp2905
g82
g83
ssg71
g2899
sg64
(lp2906
S'REQUEST_URI'
p2907
asbag57
(g78
g59
NtRp2908
(dp2909
g62
(dp2910
g89
g90
ssg71
g2899
sg64
(lp2911
S':'
asbag57
(g78
g59
NtRp2912
(dp2913
g62
(dp2914
sg71
g2899
sg64
(lp2915
g57
(g58
g59
NtRp2916
(dp2917
g62
(dp2918
g70
I3
ssg71
g2912
sg64
(lp2919
g1336
asbasbasbag57
(g73
g59
NtRp2920
(dp2921
g62
(dp2922
sg71
g2622
sg64
(lp2923
g57
(g78
g59
NtRp2924
(dp2925
g62
(dp2926
g82
g83
ssg71
g2920
sg64
(lp2927
S'SCRIPT_NAME'
p2928
asbag57
(g78
g59
NtRp2929
(dp2930
g62
(dp2931
g89
g90
ssg71
g2920
sg64
(lp2932
S':'
asbag57
(g78
g59
NtRp2933
(dp2934
g62
(dp2935
sg71
g2920
sg64
(lp2936
g57
(g58
g59
NtRp2937
(dp2938
g62
(dp2939
g70
I3
ssg71
g2933
sg64
(lp2940
S''
asbasbasbag57
(g73
g59
NtRp2941
(dp2942
g62
(dp2943
sg71
g2622
sg64
(lp2944
g57
(g78
g59
NtRp2945
(dp2946
g62
(dp2947
g82
g83
ssg71
g2941
sg64
(lp2948
S'SERVER_NAME'
p2949
asbag57
(g78
g59
NtRp2950
(dp2951
g62
(dp2952
g89
g90
ssg71
g2941
sg64
(lp2953
S':'
asbag57
(g78
g59
NtRp2954
(dp2955
g62
(dp2956
sg71
g2941
sg64
(lp2957
g57
(g58
g59
NtRp2958
(dp2959
g62
(dp2960
g70
I3
ssg71
g2954
sg64
(lp2961
g1301
asbasbasbag57
(g73
g59
NtRp2962
(dp2963
g62
(dp2964
sg71
g2622
sg64
(lp2965
g57
(g78
g59
NtRp2966
(dp2967
g62
(dp2968
g82
g83
ssg71
g2962
sg64
(lp2969
S'SERVER_PORT'
p2970
asbag57
(g78
g59
NtRp2971
(dp2972
g62
(dp2973
g89
g90
ssg71
g2962
sg64
(lp2974
S':'
asbag57
(g78
g59
NtRp2975
(dp2976
g62
(dp2977
sg71
g2962
sg64
(lp2978
g57
(g58
g59
NtRp2979
(dp2980
g62
(dp2981
g70
I3
ssg71
g2975
sg64
(lp2982
g1507
asbasbasbag57
(g73
g59
NtRp2983
(dp2984
g62
(dp2985
sg71
g2622
sg64
(lp2986
g57
(g78
g59
NtRp2987
(dp2988
g62
(dp2989
g82
g83
ssg71
g2983
sg64
(lp2990
S'SERVER_PROTOCOL'
p2991
asbag57
(g78
g59
NtRp2992
(dp2993
g62
(dp2994
g89
g90
ssg71
g2983
sg64
(lp2995
S':'
asbag57
(g78
g59
NtRp2996
(dp2997
g62
(dp2998
sg71
g2983
sg64
(lp2999
g57
(g58
g59
NtRp3000
(dp3001
g62
(dp3002
g70
I3
ssg71
g2996
sg64
(lp3003
g1529
asbasbasbag57
(g73
g59
NtRp3004
(dp3005
g62
(dp3006
sg71
g2622
sg64
(lp3007
g57
(g78
g59
NtRp3008
(dp3009
g62
(dp3010
g82
g83
ssg71
g3004
sg64
(lp3011
S'SERVER_SOFTWARE'
p3012
asbag57
(g78
g59
NtRp3013
(dp3014
g62
(dp3015
g89
g90
ssg71
g3004
sg64
(lp3016
S':'
asbag57
(g78
g59
NtRp3017
(dp3018
g62
(dp3019
sg71
g3004
sg64
(lp3020
g57
(g58
g59
NtRp3021
(dp3022
g62
(dp3023
g70
I3
ssg71
g3017
sg64
(lp3024
g1551
asbasbasbag57
(g73
g59
NtRp3025
(dp3026
g62
(dp3027
sg71
g2622
sg64
(lp3028
g57
(g78
g59
NtRp3029
(dp3030
g62
(dp3031
g82
g83
ssg71
g3025
sg64
(lp3032
S'wsgi.errors'
p3033
asbag57
(g78
g59
NtRp3034
(dp3035
g62
(dp3036
g89
g90
ssg71
g3025
sg64
(lp3037
S':'
asbag57
(g78
g59
NtRp3038
(dp3039
g62
(dp3040
sg71
g3025
sg64
(lp3041
g57
(g58
g59
NtRp3042
(dp3043
g62
(dp3044
g70
I3
ssg71
g3038
sg64
(lp3045
S"<open file '<stderr>', mode 'w' at 0x2b39e2444270>"
p3046
asbasbasbag57
(g73
g59
NtRp3047
(dp3048
g62
(dp3049
sg71
g2622
sg64
(lp3050
g57
(g78
g59
NtRp3051
(dp3052
g62
(dp3053
g82
g83
ssg71
g3047
sg64
(lp3054
S'wsgi.file_wrapper'
p3055
asbag57
(g78
g59
NtRp3056
(dp3057
g62
(dp3058
g89
g90
ssg71
g3047
sg64
(lp3059
S':'
asbag57
(g78
g59
NtRp3060
(dp3061
g62
(dp3062
sg71
g3047
sg64
(lp3063
g57
(g58
g59
NtRp3064
(dp3065
g62
(dp3066
g70
I3
ssg71
g3060
sg64
(lp3067
S'<class wsgiref.util.FileWrapper at 0x1671ca78>'
p3068
asbasbasbag57
(g73
g59
NtRp3069
(dp3070
g62
(dp3071
sg71
g2622
sg64
(lp3072
g57
(g78
g59
NtRp3073
(dp3074
g62
(dp3075
g82
g83
ssg71
g3069
sg64
(lp3076
S'wsgi.input'
p3077
asbag57
(g78
g59
NtRp3078
(dp3079
g62
(dp3080
g89
g90
ssg71
g3069
sg64
(lp3081
S':'
asbag57
(g78
g59
NtRp3082
(dp3083
g62
(dp3084
sg71
g3069
sg64
(lp3085
g57
(g58
g59
NtRp3086
(dp3087
g62
(dp3088
g70
I3
ssg71
g3082
sg64
(lp3089
S'<cStringIO.StringO object at 0x17e75298>'
p3090
asbasbasbag57
(g73
g59
NtRp3091
(dp3092
g62
(dp3093
sg71
g2622
sg64
(lp3094
g57
(g78
g59
NtRp3095
(dp3096
g62
(dp3097
g82
g83
ssg71
g3091
sg64
(lp3098
S'wsgi.multiprocess'
p3099
asbag57
(g78
g59
NtRp3100
(dp3101
g62
(dp3102
g89
g90
ssg71
g3091
sg64
(lp3103
S':'
asbag57
(g78
g59
NtRp3104
(dp3105
g62
(dp3106
sg71
g3091
sg64
(lp3107
g57
(g58
g59
NtRp3108
(dp3109
g62
(dp3110
g70
I3
ssg71
g3104
sg64
(lp3111
g100
asbasbasbag57
(g73
g59
NtRp3112
(dp3113
g62
(dp3114
sg71
g2622
sg64
(lp3115
g57
(g78
g59
NtRp3116
(dp3117
g62
(dp3118
g82
g83
ssg71
g3112
sg64
(lp3119
S'wsgi.multithread'
p3120
asbag57
(g78
g59
NtRp3121
(dp3122
g62
(dp3123
g89
g90
ssg71
g3112
sg64
(lp3124
S':'
asbag57
(g78
g59
NtRp3125
(dp3126
g62
(dp3127
sg71
g3112
sg64
(lp3128
g57
(g58
g59
NtRp3129
(dp3130
g62
(dp3131
g70
I3
ssg71
g3125
sg64
(lp3132
g1768
asbasbasbag57
(g73
g59
NtRp3133
(dp3134
g62
(dp3135
sg71
g2622
sg64
(lp3136
g57
(g78
g59
NtRp3137
(dp3138
g62
(dp3139
g82
g83
ssg71
g3133
sg64
(lp3140
S'wsgi.run_once'
p3141
asbag57
(g78
g59
NtRp3142
(dp3143
g62
(dp3144
g89
g90
ssg71
g3133
sg64
(lp3145
S':'
asbag57
(g78
g59
NtRp3146
(dp3147
g62
(dp3148
sg71
g3133
sg64
(lp3149
g57
(g58
g59
NtRp3150
(dp3151
g62
(dp3152
g70
I3
ssg71
g3146
sg64
(lp3153
g100
asbasbasbag57
(g73
g59
NtRp3154
(dp3155
g62
(dp3156
sg71
g2622
sg64
(lp3157
g57
(g78
g59
NtRp3158
(dp3159
g62
(dp3160
g82
g83
ssg71
g3154
sg64
(lp3161
S'wsgi.url_scheme'
p3162
asbag57
(g78
g59
NtRp3163
(dp3164
g62
(dp3165
g89
g90
ssg71
g3154
sg64
(lp3166
S':'
asbag57
(g78
g59
NtRp3167
(dp3168
g62
(dp3169
sg71
g3154
sg64
(lp3170
g57
(g58
g59
NtRp3171
(dp3172
g62
(dp3173
g70
I3
ssg71
g3167
sg64
(lp3174
g1811
asbasbasbag57
(g73
g59
NtRp3175
(dp3176
g62
(dp3177
sg71
g2622
sg64
(lp3178
g57
(g78
g59
NtRp3179
(dp3180
g62
(dp3181
g82
g83
ssg71
g3175
sg64
(lp3182
S'wsgi.version'
p3183
asbag57
(g78
g59
NtRp3184
(dp3185
g62
(dp3186
g89
g90
ssg71
g3175
sg64
(lp3187
S':'
asbag57
(g78
g59
NtRp3188
(dp3189
g62
(dp3190
sg71
g3175
sg64
(lp3191
g57
(g58
g59
NtRp3192
(dp3193
g62
(dp3194
g70
I3
ssg71
g3188
sg64
(lp3195
S'1'
asbasbasbasbasbasbasbasbasbasbasbasbasbsS'frames'
p3196
(lp3197
(dp3198
S'file'
p3199
S'/home/xchen/web2py/gluon/restricted.py'
p3200
sS'dump'
p3201
(dp3202
S'environment'
p3203
S"{'A': <class 'gluon.html.A'>, 'Auth': <class 'gluon.tools.Auth'>, 'B': <class 'gluon.html.B'>, 'BEAUTIFY': <class 'gluon.html.BEAUTIFY'>, 'BODY': <class 'gluon.html.BODY'>, 'BR': <class 'gluon.html.BR'>, 'BUTTON': <class 'gluon.html.BUTTON'>, 'CAT': <class 'gluon.html.CAT'>, 'CENTER': <class 'gluon.html.CENTER'>, 'CLEANUP': <class 'gluon.validators.CLEANUP'>, ...}"
p3204
sS'ccode'
p3205
S'<code object <module> at 0x17f7e930, file "/home...plications/Betsy/controllers/default.py", line 3>'
p3206
ssS'lnum'
p3207
I212
sS'lines'
p3208
(dp3209
I207
S'    try:'
p3210
sI208
S'        if isinstance(code, types.CodeType):'
p3211
sI209
S'            ccode = code'
p3212
sI210
S'        else:'
p3213
sI211
S'            ccode = compile2(code, layer)'
p3214
sI212
S'        exec ccode in environment'
p3215
sI213
S'    except HTTP:'
p3216
sI214
S'        raise'
p3217
sI215
S'    except RestrictedError:'
p3218
sI216
S'        # do not encapsulate (obfuscate) the original RestrictedError'
p3219
ssS'call'
p3220
S'(code="# -*- coding: utf-8 -*-\\n\\nupload_path = \'/home/xc...guage\\n\\nresponse._vars=response._caller(protocol)\\n", environment={\'A\': <class \'gluon.html.A\'>, \'Auth\': <class \'gluon.tools.Auth\'>, \'B\': <class \'gluon.html.B\'>, \'BEAUTIFY\': <class \'gluon.html.BEAUTIFY\'>, \'BODY\': <class \'gluon.html.BODY\'>, \'BR\': <class \'gluon.html.BR\'>, \'BUTTON\': <class \'gluon.html.BUTTON\'>, \'CAT\': <class \'gluon.html.CAT\'>, \'CENTER\': <class \'gluon.html.CENTER\'>, \'CLEANUP\': <class \'gluon.validators.CLEANUP\'>, ...}, layer=\'/home/xchen/web2py/applications/Betsy/controllers/default.py\')'
p3221
sS'func'
p3222
S'restricted'
p3223
sa(dp3224
g3199
S'/home/xchen/web2py/applications/Betsy/controllers/default.py'
p3225
sg3201
(dp3226
sg3207
I282
sg3208
(dp3227
I271
S''
sI272
S'#    Ctrl+S Save via Ajax'
p3228
sI273
S'#    Ctrl+F11 Toggle Fullscreen'
p3229
sI274
S'#    Ctrl-F / Cmd-F Start searching'
p3230
sI275
S'#    Ctrl-G / Cmd-G Find Next'
p3231
sI276
S'#    Shift-Ctrl-G / Shift-Cmd-G Find Previous'
p3232
sI277
S'#    Shift-Ctrl-F / Cmd-Option-F Replace'
p3233
sI278
S'#    Shift-Ctrl-R / Shift-Cmd-Option-F Replace All'
p3234
sI279
S''
sI280
S'#Powered by web2py\xe2\x84\xa2 created by Massimo Di Pierro \xc2\xa92007-2013 - Admin language'
p3235
ssg3220
S'()'
p3236
sg3222
S'<module>'
p3237
sa(dp3238
g3199
S'/home/xchen/web2py/gluon/globals.py'
p3239
sg3201
(dp3240
S'self'
p3241
S'undefined'
p3242
sS'f'
S'<function protocol>'
p3243
ssg3207
I188
sg3208
(dp3244
I192
S''
sI183
S'        self.menu = []             # used by the default view layout'
p3245
sI184
S'        self.files = []            # used by web2py_ajax.html'
p3246
sI185
S'        self.generic_patterns = []  # patterns to allow generic views'
p3247
sI186
S"        self.delimiters = ('{{', '}}')"
p3248
sI187
S'        self._vars = None'
p3249
sI188
S'        self._caller = lambda f: f()'
p3250
sI189
S'        self._view_environment = None'
p3251
sI190
S'        self._custom_commit = None'
p3252
sI191
S'        self._custom_rollback = None'
p3253
ssg3220
S'(f=<function protocol>)'
p3254
sg3222
S'<lambda>'
p3255
sa(dp3256
g3199
S'/home/xchen/web2py/applications/Betsy/controllers/default.py'
p3257
sg3201
(dp3258
S'global session'
p3259
S"<Storage {'flash': None, 'protocol': 'normalize_...batch]': '71524f9f-2917-4781-9f2b-2532d505998c'}>"
p3260
sS'form'
p3261
S'<gluon.sqlhtml.SQLFORM object>'
p3262
sS'builtinvars'
p3263
S'<built-in function vars>'
p3264
sS'protocol_label'
p3265
g3242
sS'global label'
p3266
S"'geneset_analysis'"
p3267
sS'form_queue'
p3268
S'<gluon.html.FORM object>'
p3269
sS'session.label'
p3270
S"'normalize_file'"
p3271
sS'protocol_inputs'
p3272
g3242
sS'builtindict'
p3273
S"<type 'dict'>"
p3274
ssg3207
I38
sg3208
(dp3275
I33
S'        session.input_file = input_file'
p3276
sI34
S'        session.protocol = session.label'
p3277
sI35
S"        redirect(URL('submit_job'))"
p3278
sI36
S'    if form_queue.process().accepted:'
p3279
sI37
S"        redirect(URL('show_status'))"
p3280
sI38
S"    return dict(form=form,form_queue=form_queue,protocol_label=label,protocol_inputs=vars()[session.label+'_parameters'])"
p3281
sI39
S''
sI40
S'#def normalize_file():'
p3282
sI41
S'#    fields = create_form(normalize_file_inputs,normalize_file_parameters,normalize_file_default)'
p3283
sI42
S'#    form=SQLFORM.factory(*fields)'
p3284
ssg3220
S'()'
p3285
sg3222
S'protocol'
p3286
sasS'pyver'
p3287
S'Python 2.7.3: /usr/local/bin/python'
p3288
sS'session'
p3289
g57
(g58
g59
NtRp3290
(dp3291
g62
(dp3292
sg64
(lp3293
g57
(g66
g59
NtRp3294
(dp3295
g62
(dp3296
g70
I5
ssg71
Nsg64
(lp3297
g57
(g73
g59
NtRp3298
(dp3299
g62
(dp3300
sg71
g3294
sg64
(lp3301
g57
(g78
g59
NtRp3302
(dp3303
g62
(dp3304
g82
g83
ssg71
g3298
sg64
(lp3305
S'auth'
p3306
asbag57
(g78
g59
NtRp3307
(dp3308
g62
(dp3309
g89
g90
ssg71
g3298
sg64
(lp3310
S':'
asbag57
(g78
g59
NtRp3311
(dp3312
g62
(dp3313
sg71
g3298
sg64
(lp3314
g57
(g58
g59
NtRp3315
(dp3316
g62
(dp3317
g70
I5
ssg71
g3311
sg64
(lp3318
g57
(g66
g59
NtRp3319
(dp3320
g62
(dp3321
g70
I4
ssg71
Nsg64
(lp3322
g57
(g73
g59
NtRp3323
(dp3324
g62
(dp3325
sg71
g3319
sg64
(lp3326
g57
(g78
g59
NtRp3327
(dp3328
g62
(dp3329
g82
g83
ssg71
g3323
sg64
(lp3330
S'expiration'
p3331
asbag57
(g78
g59
NtRp3332
(dp3333
g62
(dp3334
g89
g90
ssg71
g3323
sg64
(lp3335
S':'
asbag57
(g78
g59
NtRp3336
(dp3337
g62
(dp3338
sg71
g3323
sg64
(lp3339
g57
(g58
g59
NtRp3340
(dp3341
g62
(dp3342
g70
I4
ssg71
g3336
sg64
(lp3343
S'2592000'
p3344
asbasbasbag57
(g73
g59
NtRp3345
(dp3346
g62
(dp3347
sg71
g3319
sg64
(lp3348
g57
(g78
g59
NtRp3349
(dp3350
g62
(dp3351
g82
g83
ssg71
g3345
sg64
(lp3352
S'hmac_key'
p3353
asbag57
(g78
g59
NtRp3354
(dp3355
g62
(dp3356
g89
g90
ssg71
g3345
sg64
(lp3357
S':'
asbag57
(g78
g59
NtRp3358
(dp3359
g62
(dp3360
sg71
g3345
sg64
(lp3361
g57
(g58
g59
NtRp3362
(dp3363
g62
(dp3364
g70
I4
ssg71
g3358
sg64
(lp3365
S'739afc94-a36b-429c-8715-edcd03ea4351'
p3366
asbasbasbag57
(g73
g59
NtRp3367
(dp3368
g62
(dp3369
sg71
g3319
sg64
(lp3370
g57
(g78
g59
NtRp3371
(dp3372
g62
(dp3373
g82
g83
ssg71
g3367
sg64
(lp3374
S'last_visit'
p3375
asbag57
(g78
g59
NtRp3376
(dp3377
g62
(dp3378
g89
g90
ssg71
g3367
sg64
(lp3379
S':'
asbag57
(g78
g59
NtRp3380
(dp3381
g62
(dp3382
sg71
g3367
sg64
(lp3383
g57
(g58
g59
NtRp3384
(dp3385
g62
(dp3386
g70
I4
ssg71
g3380
sg64
(lp3387
S'datetime.datetime(2013, 2, 4, 10, 24, 37, 237452)'
p3388
asbasbasbag57
(g73
g59
NtRp3389
(dp3390
g62
(dp3391
sg71
g3319
sg64
(lp3392
g57
(g78
g59
NtRp3393
(dp3394
g62
(dp3395
g82
g83
ssg71
g3389
sg64
(lp3396
S'remember'
p3397
asbag57
(g78
g59
NtRp3398
(dp3399
g62
(dp3400
g89
g90
ssg71
g3389
sg64
(lp3401
S':'
asbag57
(g78
g59
NtRp3402
(dp3403
g62
(dp3404
sg71
g3389
sg64
(lp3405
g57
(g58
g59
NtRp3406
(dp3407
g62
(dp3408
g70
I4
ssg71
g3402
sg64
(lp3409
g1768
asbasbasbag57
(g73
g59
NtRp3410
(dp3411
g62
(dp3412
sg71
g3319
sg64
(lp3413
g57
(g78
g59
NtRp3414
(dp3415
g62
(dp3416
g82
g83
ssg71
g3410
sg64
(lp3417
S'user'
p3418
asbag57
(g78
g59
NtRp3419
(dp3420
g62
(dp3421
g89
g90
ssg71
g3410
sg64
(lp3422
S':'
asbag57
(g78
g59
NtRp3423
(dp3424
g62
(dp3425
sg71
g3410
sg64
(lp3426
g57
(g58
g59
NtRp3427
(dp3428
g62
(dp3429
g70
I4
ssg71
g3423
sg64
(lp3430
g57
(g66
g59
NtRp3431
(dp3432
g62
(dp3433
g70
I3
ssg71
Nsg64
(lp3434
g57
(g73
g59
NtRp3435
(dp3436
g62
(dp3437
sg71
g3431
sg64
(lp3438
g57
(g78
g59
NtRp3439
(dp3440
g62
(dp3441
g82
g83
ssg71
g3435
sg64
(lp3442
S'email'
p3443
asbag57
(g78
g59
NtRp3444
(dp3445
g62
(dp3446
g89
g90
ssg71
g3435
sg64
(lp3447
S':'
asbag57
(g78
g59
NtRp3448
(dp3449
g62
(dp3450
sg71
g3435
sg64
(lp3451
g57
(g58
g59
NtRp3452
(dp3453
g62
(dp3454
g70
I3
ssg71
g3448
sg64
(lp3455
S'xiaoling.chen@uth.tmc.edu'
p3456
asbasbasbag57
(g73
g59
NtRp3457
(dp3458
g62
(dp3459
sg71
g3431
sg64
(lp3460
g57
(g78
g59
NtRp3461
(dp3462
g62
(dp3463
g82
g83
ssg71
g3457
sg64
(lp3464
S'first_name'
p3465
asbag57
(g78
g59
NtRp3466
(dp3467
g62
(dp3468
g89
g90
ssg71
g3457
sg64
(lp3469
S':'
asbag57
(g78
g59
NtRp3470
(dp3471
g62
(dp3472
sg71
g3457
sg64
(lp3473
g57
(g58
g59
NtRp3474
(dp3475
g62
(dp3476
g70
I3
ssg71
g3470
sg64
(lp3477
S'Xiaoling'
p3478
asbasbasbag57
(g73
g59
NtRp3479
(dp3480
g62
(dp3481
sg71
g3431
sg64
(lp3482
g57
(g78
g59
NtRp3483
(dp3484
g62
(dp3485
g82
g83
ssg71
g3479
sg64
(lp3486
S'id'
p3487
asbag57
(g78
g59
NtRp3488
(dp3489
g62
(dp3490
g89
g90
ssg71
g3479
sg64
(lp3491
S':'
asbag57
(g78
g59
NtRp3492
(dp3493
g62
(dp3494
sg71
g3479
sg64
(lp3495
g57
(g58
g59
NtRp3496
(dp3497
g62
(dp3498
g70
I3
ssg71
g3492
sg64
(lp3499
S'1'
asbasbasbag57
(g73
g59
NtRp3500
(dp3501
g62
(dp3502
sg71
g3431
sg64
(lp3503
g57
(g78
g59
NtRp3504
(dp3505
g62
(dp3506
g82
g83
ssg71
g3500
sg64
(lp3507
S'last_name'
p3508
asbag57
(g78
g59
NtRp3509
(dp3510
g62
(dp3511
g89
g90
ssg71
g3500
sg64
(lp3512
S':'
asbag57
(g78
g59
NtRp3513
(dp3514
g62
(dp3515
sg71
g3500
sg64
(lp3516
g57
(g58
g59
NtRp3517
(dp3518
g62
(dp3519
g70
I3
ssg71
g3513
sg64
(lp3520
S'Chen'
p3521
asbasbasbag57
(g73
g59
NtRp3522
(dp3523
g62
(dp3524
sg71
g3431
sg64
(lp3525
g57
(g78
g59
NtRp3526
(dp3527
g62
(dp3528
g82
g83
ssg71
g3522
sg64
(lp3529
S'registration_id'
p3530
asbag57
(g78
g59
NtRp3531
(dp3532
g62
(dp3533
g89
g90
ssg71
g3522
sg64
(lp3534
S':'
asbag57
(g78
g59
NtRp3535
(dp3536
g62
(dp3537
sg71
g3522
sg64
(lp3538
g57
(g58
g59
NtRp3539
(dp3540
g62
(dp3541
g70
I3
ssg71
g3535
sg64
(lp3542
S''
asbasbasbag57
(g73
g59
NtRp3543
(dp3544
g62
(dp3545
sg71
g3431
sg64
(lp3546
g57
(g78
g59
NtRp3547
(dp3548
g62
(dp3549
g82
g83
ssg71
g3543
sg64
(lp3550
S'registration_key'
p3551
asbag57
(g78
g59
NtRp3552
(dp3553
g62
(dp3554
g89
g90
ssg71
g3543
sg64
(lp3555
S':'
asbag57
(g78
g59
NtRp3556
(dp3557
g62
(dp3558
sg71
g3543
sg64
(lp3559
g57
(g58
g59
NtRp3560
(dp3561
g62
(dp3562
g70
I3
ssg71
g3556
sg64
(lp3563
S''
asbasbasbag57
(g73
g59
NtRp3564
(dp3565
g62
(dp3566
sg71
g3431
sg64
(lp3567
g57
(g78
g59
NtRp3568
(dp3569
g62
(dp3570
g82
g83
ssg71
g3564
sg64
(lp3571
S'reset_password_key'
p3572
asbag57
(g78
g59
NtRp3573
(dp3574
g62
(dp3575
g89
g90
ssg71
g3564
sg64
(lp3576
S':'
asbag57
(g78
g59
NtRp3577
(dp3578
g62
(dp3579
sg71
g3564
sg64
(lp3580
g57
(g58
g59
NtRp3581
(dp3582
g62
(dp3583
g70
I3
ssg71
g3577
sg64
(lp3584
S''
asbasbasbasbasbasbasbag57
(g73
g59
NtRp3585
(dp3586
g62
(dp3587
sg71
g3319
sg64
(lp3588
g57
(g78
g59
NtRp3589
(dp3590
g62
(dp3591
g82
g83
ssg71
g3585
sg64
(lp3592
S'user_groups'
p3593
asbag57
(g78
g59
NtRp3594
(dp3595
g62
(dp3596
g89
g90
ssg71
g3585
sg64
(lp3597
S':'
asbag57
(g78
g59
NtRp3598
(dp3599
g62
(dp3600
sg71
g3585
sg64
(lp3601
g57
(g58
g59
NtRp3602
(dp3603
g62
(dp3604
g70
I4
ssg71
g3598
sg64
(lp3605
g57
(g66
g59
NtRp3606
(dp3607
g62
(dp3608
g70
I3
ssg71
Nsg64
(lp3609
g57
(g73
g59
NtRp3610
(dp3611
g62
(dp3612
sg71
g3606
sg64
(lp3613
g57
(g78
g59
NtRp3614
(dp3615
g62
(dp3616
g82
g83
ssg71
g3610
sg64
(lp3617
S'1'
asbag57
(g78
g59
NtRp3618
(dp3619
g62
(dp3620
g89
g90
ssg71
g3610
sg64
(lp3621
S':'
asbag57
(g78
g59
NtRp3622
(dp3623
g62
(dp3624
sg71
g3610
sg64
(lp3625
g57
(g58
g59
NtRp3626
(dp3627
g62
(dp3628
g70
I3
ssg71
g3622
sg64
(lp3629
S'user_1'
p3630
asbasbasbasbasbasbasbasbasbasbasbag57
(g73
g59
NtRp3631
(dp3632
g62
(dp3633
sg71
g3294
sg64
(lp3634
g57
(g78
g59
NtRp3635
(dp3636
g62
(dp3637
g82
g83
ssg71
g3631
sg64
(lp3638
S'cmd'
p3639
asbag57
(g78
g59
NtRp3640
(dp3641
g62
(dp3642
g89
g90
ssg71
g3631
sg64
(lp3643
S':'
asbag57
(g78
g59
NtRp3644
(dp3645
g62
(dp3646
sg71
g3631
sg64
(lp3647
g57
(g58
g59
NtRp3648
(dp3649
g62
(dp3650
g70
I5
ssg71
g3644
sg64
(lp3651
g57
(g66
g59
NtRp3652
(dp3653
g62
(dp3654
g70
I4
ssg71
Nsg64
(lp3655
g57
(g73
g59
NtRp3656
(dp3657
g62
(dp3658
sg71
g3652
sg64
(lp3659
g57
(g78
g59
NtRp3660
(dp3661
g62
(dp3662
sg71
g3656
sg64
(lp3663
g57
(g58
g59
NtRp3664
(dp3665
g62
(dp3666
g70
I4
ssg71
g3660
sg64
(lp3667
S'python'
p3668
asbasbasbag57
(g73
g59
NtRp3669
(dp3670
g62
(dp3671
sg71
g3652
sg64
(lp3672
g57
(g78
g59
NtRp3673
(dp3674
g62
(dp3675
sg71
g3669
sg64
(lp3676
g57
(g58
g59
NtRp3677
(dp3678
g62
(dp3679
g70
I4
ssg71
g3673
sg64
(lp3680
S'/home/xchen/chencode/tmp/try_parallel/queue.py'
p3681
asbasbasbag57
(g73
g59
NtRp3682
(dp3683
g62
(dp3684
sg71
g3652
sg64
(lp3685
g57
(g78
g59
NtRp3686
(dp3687
g62
(dp3688
sg71
g3682
sg64
(lp3689
g57
(g58
g59
NtRp3690
(dp3691
g62
(dp3692
g70
I4
ssg71
g3686
sg64
(lp3693
S'python /home/xchen/chencode/Betsy/scripts/run_protocol.py --protocol normalize_file --input input_signal_file:/home/xchen/chencode/upload/no_table.myfile1.a8dd7d225fa076b2.4368616e675f415230303431302e70636c.pcl --parameters has_missing_value:zero_fill --parameters preprocess:unknown_preprocess'
p3694
asbasbasbasbasbasbasbag57
(g73
g59
NtRp3695
(dp3696
g62
(dp3697
sg71
g3294
sg64
(lp3698
g57
(g78
g59
NtRp3699
(dp3700
g62
(dp3701
g82
g83
ssg71
g3695
sg64
(lp3702
S'command'
p3703
asbag57
(g78
g59
NtRp3704
(dp3705
g62
(dp3706
g89
g90
ssg71
g3695
sg64
(lp3707
S':'
asbag57
(g78
g59
NtRp3708
(dp3709
g62
(dp3710
sg71
g3695
sg64
(lp3711
g57
(g58
g59
NtRp3712
(dp3713
g62
(dp3714
g70
I5
ssg71
g3708
sg64
(lp3715
S'--input input_signal_file:myfile1 --parameters has_missing_value:zero_fill'
p3716
asbasbasbag57
(g73
g59
NtRp3717
(dp3718
g62
(dp3719
sg71
g3294
sg64
(lp3720
g57
(g78
g59
NtRp3721
(dp3722
g62
(dp3723
g82
g83
ssg71
g3717
sg64
(lp3724
S'flash'
p3725
asbag57
(g78
g59
NtRp3726
(dp3727
g62
(dp3728
g89
g90
ssg71
g3717
sg64
(lp3729
S':'
asbag57
(g78
g59
NtRp3730
(dp3731
g62
(dp3732
sg71
g3717
sg64
(lp3733
g57
(g58
g59
NtRp3734
(dp3735
g62
(dp3736
g70
I5
ssg71
g3730
sg64
(lp3737
S'None'
p3738
asbasbasbag57
(g73
g59
NtRp3739
(dp3740
g62
(dp3741
sg71
g3294
sg64
(lp3742
g57
(g78
g59
NtRp3743
(dp3744
g62
(dp3745
g82
g83
ssg71
g3739
sg64
(lp3746
S'input_file'
p3747
asbag57
(g78
g59
NtRp3748
(dp3749
g62
(dp3750
g89
g90
ssg71
g3739
sg64
(lp3751
S':'
asbag57
(g78
g59
NtRp3752
(dp3753
g62
(dp3754
sg71
g3739
sg64
(lp3755
g57
(g58
g59
NtRp3756
(dp3757
g62
(dp3758
g70
I5
ssg71
g3752
sg64
(lp3759
g57
(g66
g59
NtRp3760
(dp3761
g62
(dp3762
g70
I4
ssg71
Nsg64
(lp3763
g57
(g73
g59
NtRp3764
(dp3765
g62
(dp3766
sg71
g3760
sg64
(lp3767
g57
(g78
g59
NtRp3768
(dp3769
g62
(dp3770
sg71
g3764
sg64
(lp3771
g57
(g58
g59
NtRp3772
(dp3773
g62
(dp3774
g70
I4
ssg71
g3768
sg64
(lp3775
S'--input'
p3776
asbasbasbag57
(g73
g59
NtRp3777
(dp3778
g62
(dp3779
sg71
g3760
sg64
(lp3780
g57
(g78
g59
NtRp3781
(dp3782
g62
(dp3783
sg71
g3777
sg64
(lp3784
g57
(g58
g59
NtRp3785
(dp3786
g62
(dp3787
g70
I4
ssg71
g3781
sg64
(lp3788
S'input_signal_file:b:/home/xchen/chencode/upload/no_table.myfile1_path.9c338a1a4f9e9ddb.65722e6c322e6d6173352e747261696e31.txt'
p3789
asbasbasbag57
(g73
g59
NtRp3790
(dp3791
g62
(dp3792
sg71
g3760
sg64
(lp3793
g57
(g78
g59
NtRp3794
(dp3795
g62
(dp3796
sg71
g3790
sg64
(lp3797
g57
(g58
g59
NtRp3798
(dp3799
g62
(dp3800
g70
I4
ssg71
g3794
sg64
(lp3801
g3776
asbasbasbag57
(g73
g59
NtRp3802
(dp3803
g62
(dp3804
sg71
g3760
sg64
(lp3805
g57
(g78
g59
NtRp3806
(dp3807
g62
(dp3808
sg71
g3802
sg64
(lp3809
g57
(g58
g59
NtRp3810
(dp3811
g62
(dp3812
g70
I4
ssg71
g3806
sg64
(lp3813
S'input_signal_file:a:/home/xchen/chencode/upload/no_table.myfile0_path.a58698429ae0d97a.65722e6c322e6d6173352e747261696e30.txt'
p3814
asbasbasbasbasbasbasbag57
(g73
g59
NtRp3815
(dp3816
g62
(dp3817
sg71
g3294
sg64
(lp3818
g57
(g78
g59
NtRp3819
(dp3820
g62
(dp3821
g82
g83
ssg71
g3815
sg64
(lp3822
S'label'
p3823
asbag57
(g78
g59
NtRp3824
(dp3825
g62
(dp3826
g89
g90
ssg71
g3815
sg64
(lp3827
S':'
asbag57
(g78
g59
NtRp3828
(dp3829
g62
(dp3830
sg71
g3815
sg64
(lp3831
g57
(g58
g59
NtRp3832
(dp3833
g62
(dp3834
g70
I5
ssg71
g3828
sg64
(lp3835
S'normalize_file'
p3836
asbasbasbag57
(g73
g59
NtRp3837
(dp3838
g62
(dp3839
sg71
g3294
sg64
(lp3840
g57
(g78
g59
NtRp3841
(dp3842
g62
(dp3843
g82
g83
ssg71
g3837
sg64
(lp3844
S'last_orderby'
p3845
asbag57
(g78
g59
NtRp3846
(dp3847
g62
(dp3848
g89
g90
ssg71
g3837
sg64
(lp3849
S':'
asbag57
(g78
g59
NtRp3850
(dp3851
g62
(dp3852
sg71
g3837
sg64
(lp3853
g57
(g58
g59
NtRp3854
(dp3855
g62
(dp3856
g70
I5
ssg71
g3850
sg64
(lp3857
S'None'
p3858
asbasbasbag57
(g73
g59
NtRp3859
(dp3860
g62
(dp3861
sg71
g3294
sg64
(lp3862
g57
(g78
g59
NtRp3863
(dp3864
g62
(dp3865
g82
g83
ssg71
g3859
sg64
(lp3866
S'last_query'
p3867
asbag57
(g78
g59
NtRp3868
(dp3869
g62
(dp3870
g89
g90
ssg71
g3859
sg64
(lp3871
S':'
asbag57
(g78
g59
NtRp3872
(dp3873
g62
(dp3874
sg71
g3859
sg64
(lp3875
g57
(g58
g59
NtRp3876
(dp3877
g62
(dp3878
g70
I5
ssg71
g3872
sg64
(lp3879
S'db.status.id>0'
p3880
asbasbasbag57
(g73
g59
NtRp3881
(dp3882
g62
(dp3883
sg71
g3294
sg64
(lp3884
g57
(g78
g59
NtRp3885
(dp3886
g62
(dp3887
g82
g83
ssg71
g3881
sg64
(lp3888
S'myfile0'
p3889
asbag57
(g78
g59
NtRp3890
(dp3891
g62
(dp3892
g89
g90
ssg71
g3881
sg64
(lp3893
S':'
asbag57
(g78
g59
NtRp3894
(dp3895
g62
(dp3896
sg71
g3881
sg64
(lp3897
g57
(g58
g59
NtRp3898
(dp3899
g62
(dp3900
g70
I5
ssg71
g3894
sg64
(lp3901
S'gse_id'
p3902
asbasbasbag57
(g73
g59
NtRp3903
(dp3904
g62
(dp3905
sg71
g3294
sg64
(lp3906
g57
(g78
g59
NtRp3907
(dp3908
g62
(dp3909
g82
g83
ssg71
g3903
sg64
(lp3910
S'myfile1'
p3911
asbag57
(g78
g59
NtRp3912
(dp3913
g62
(dp3914
g89
g90
ssg71
g3903
sg64
(lp3915
S':'
asbag57
(g78
g59
NtRp3916
(dp3917
g62
(dp3918
sg71
g3903
sg64
(lp3919
g57
(g58
g59
NtRp3920
(dp3921
g62
(dp3922
g70
I5
ssg71
g3916
sg64
(lp3923
S''
asbasbasbag57
(g73
g59
NtRp3924
(dp3925
g62
(dp3926
sg71
g3294
sg64
(lp3927
g57
(g78
g59
NtRp3928
(dp3929
g62
(dp3930
g82
g83
ssg71
g3924
sg64
(lp3931
S'myfile2'
p3932
asbag57
(g78
g59
NtRp3933
(dp3934
g62
(dp3935
g89
g90
ssg71
g3924
sg64
(lp3936
S':'
asbag57
(g78
g59
NtRp3937
(dp3938
g62
(dp3939
sg71
g3924
sg64
(lp3940
g57
(g58
g59
NtRp3941
(dp3942
g62
(dp3943
g70
I5
ssg71
g3937
sg64
(lp3944
S''
asbasbasbag57
(g73
g59
NtRp3945
(dp3946
g62
(dp3947
sg71
g3294
sg64
(lp3948
g57
(g78
g59
NtRp3949
(dp3950
g62
(dp3951
g82
g83
ssg71
g3945
sg64
(lp3952
S'myfile3'
p3953
asbag57
(g78
g59
NtRp3954
(dp3955
g62
(dp3956
g89
g90
ssg71
g3945
sg64
(lp3957
S':'
asbag57
(g78
g59
NtRp3958
(dp3959
g62
(dp3960
sg71
g3945
sg64
(lp3961
g57
(g58
g59
NtRp3962
(dp3963
g62
(dp3964
g70
I5
ssg71
g3958
sg64
(lp3965
S''
asbasbasbag57
(g73
g59
NtRp3966
(dp3967
g62
(dp3968
sg71
g3294
sg64
(lp3969
g57
(g78
g59
NtRp3970
(dp3971
g62
(dp3972
g82
g83
ssg71
g3966
sg64
(lp3973
S'myfile4'
p3974
asbag57
(g78
g59
NtRp3975
(dp3976
g62
(dp3977
g89
g90
ssg71
g3966
sg64
(lp3978
S':'
asbag57
(g78
g59
NtRp3979
(dp3980
g62
(dp3981
sg71
g3966
sg64
(lp3982
g57
(g58
g59
NtRp3983
(dp3984
g62
(dp3985
g70
I5
ssg71
g3979
sg64
(lp3986
S''
asbasbasbag57
(g73
g59
NtRp3987
(dp3988
g62
(dp3989
sg71
g3294
sg64
(lp3990
g57
(g78
g59
NtRp3991
(dp3992
g62
(dp3993
g82
g83
ssg71
g3987
sg64
(lp3994
S'myfile5'
p3995
asbag57
(g78
g59
NtRp3996
(dp3997
g62
(dp3998
g89
g90
ssg71
g3987
sg64
(lp3999
S':'
asbag57
(g78
g59
NtRp4000
(dp4001
g62
(dp4002
sg71
g3987
sg64
(lp4003
g57
(g58
g59
NtRp4004
(dp4005
g62
(dp4006
g70
I5
ssg71
g4000
sg64
(lp4007
S''
asbasbasbag57
(g73
g59
NtRp4008
(dp4009
g62
(dp4010
sg71
g3294
sg64
(lp4011
g57
(g78
g59
NtRp4012
(dp4013
g62
(dp4014
g82
g83
ssg71
g4008
sg64
(lp4015
S'myfile6'
p4016
asbag57
(g78
g59
NtRp4017
(dp4018
g62
(dp4019
g89
g90
ssg71
g4008
sg64
(lp4020
S':'
asbag57
(g78
g59
NtRp4021
(dp4022
g62
(dp4023
sg71
g4008
sg64
(lp4024
g57
(g58
g59
NtRp4025
(dp4026
g62
(dp4027
g70
I5
ssg71
g4021
sg64
(lp4028
S'None'
p4029
asbasbasbag57
(g73
g59
NtRp4030
(dp4031
g62
(dp4032
sg71
g3294
sg64
(lp4033
g57
(g78
g59
NtRp4034
(dp4035
g62
(dp4036
g82
g83
ssg71
g4030
sg64
(lp4037
S'output'
p4038
asbag57
(g78
g59
NtRp4039
(dp4040
g62
(dp4041
g89
g90
ssg71
g4030
sg64
(lp4042
S':'
asbag57
(g78
g59
NtRp4043
(dp4044
g62
(dp4045
sg71
g4030
sg64
(lp4046
g57
(g58
g59
NtRp4047
(dp4048
g62
(dp4049
g70
I5
ssg71
g4043
sg64
(lp4050
g57
(g66
g59
NtRp4051
(dp4052
g62
(dp4053
g70
I4
ssg71
Nsg64
(lp4054
sbasbasbasbag57
(g73
g59
NtRp4055
(dp4056
g62
(dp4057
sg71
g3294
sg64
(lp4058
g57
(g78
g59
NtRp4059
(dp4060
g62
(dp4061
g82
g83
ssg71
g4055
sg64
(lp4062
S'parameters'
p4063
asbag57
(g78
g59
NtRp4064
(dp4065
g62
(dp4066
g89
g90
ssg71
g4055
sg64
(lp4067
S':'
asbag57
(g78
g59
NtRp4068
(dp4069
g62
(dp4070
sg71
g4055
sg64
(lp4071
g57
(g58
g59
NtRp4072
(dp4073
g62
(dp4074
g70
I5
ssg71
g4068
sg64
(lp4075
g57
(g66
g59
NtRp4076
(dp4077
g62
(dp4078
g70
I4
ssg71
Nsg64
(lp4079
g57
(g73
g59
NtRp4080
(dp4081
g62
(dp4082
sg71
g4076
sg64
(lp4083
g57
(g78
g59
NtRp4084
(dp4085
g62
(dp4086
sg71
g4080
sg64
(lp4087
g57
(g58
g59
NtRp4088
(dp4089
g62
(dp4090
g70
I4
ssg71
g4084
sg64
(lp4091
S'--parameters'
p4092
asbasbasbag57
(g73
g59
NtRp4093
(dp4094
g62
(dp4095
sg71
g4076
sg64
(lp4096
g57
(g78
g59
NtRp4097
(dp4098
g62
(dp4099
sg71
g4093
sg64
(lp4100
g57
(g58
g59
NtRp4101
(dp4102
g62
(dp4103
g70
I4
ssg71
g4097
sg64
(lp4104
S'gene_center:no_gene_center'
p4105
asbasbasbag57
(g73
g59
NtRp4106
(dp4107
g62
(dp4108
sg71
g4076
sg64
(lp4109
g57
(g78
g59
NtRp4110
(dp4111
g62
(dp4112
sg71
g4106
sg64
(lp4113
g57
(g58
g59
NtRp4114
(dp4115
g62
(dp4116
g70
I4
ssg71
g4110
sg64
(lp4117
g4092
asbasbasbag57
(g73
g59
NtRp4118
(dp4119
g62
(dp4120
sg71
g4076
sg64
(lp4121
g57
(g78
g59
NtRp4122
(dp4123
g62
(dp4124
sg71
g4118
sg64
(lp4125
g57
(g58
g59
NtRp4126
(dp4127
g62
(dp4128
g70
I4
ssg71
g4122
sg64
(lp4129
S'gene_order:no_order'
p4130
asbasbasbag57
(g73
g59
NtRp4131
(dp4132
g62
(dp4133
sg71
g4076
sg64
(lp4134
g57
(g78
g59
NtRp4135
(dp4136
g62
(dp4137
sg71
g4131
sg64
(lp4138
g57
(g58
g59
NtRp4139
(dp4140
g62
(dp4141
g70
I4
ssg71
g4135
sg64
(lp4142
g4092
asbasbasbag57
(g73
g59
NtRp4143
(dp4144
g62
(dp4145
sg71
g4076
sg64
(lp4146
g57
(g78
g59
NtRp4147
(dp4148
g62
(dp4149
sg71
g4143
sg64
(lp4150
g57
(g58
g59
NtRp4151
(dp4152
g62
(dp4153
g70
I4
ssg71
g4147
sg64
(lp4154
S'contents:a,b'
p4155
asbasbasbag57
(g73
g59
NtRp4156
(dp4157
g62
(dp4158
sg71
g4076
sg64
(lp4159
g57
(g78
g59
NtRp4160
(dp4161
g62
(dp4162
sg71
g4156
sg64
(lp4163
g57
(g58
g59
NtRp4164
(dp4165
g62
(dp4166
g70
I4
ssg71
g4160
sg64
(lp4167
g4092
asbasbasbag57
(g73
g59
NtRp4168
(dp4169
g62
(dp4170
sg71
g4076
sg64
(lp4171
g57
(g78
g59
NtRp4172
(dp4173
g62
(dp4174
sg71
g4168
sg64
(lp4175
g57
(g58
g59
NtRp4176
(dp4177
g62
(dp4178
g70
I4
ssg71
g4172
sg64
(lp4179
S'gene_normalize:no_gene_normalize'
p4180
asbasbasbag57
(g73
g59
NtRp4181
(dp4182
g62
(dp4183
sg71
g4076
sg64
(lp4184
g57
(g78
g59
NtRp4185
(dp4186
g62
(dp4187
sg71
g4181
sg64
(lp4188
g57
(g58
g59
NtRp4189
(dp4190
g62
(dp4191
g70
I4
ssg71
g4185
sg64
(lp4192
g4092
asbasbasbag57
(g73
g59
NtRp4193
(dp4194
g62
(dp4195
sg71
g4076
sg64
(lp4196
g57
(g78
g59
NtRp4197
(dp4198
g62
(dp4199
sg71
g4193
sg64
(lp4200
g57
(g58
g59
NtRp4201
(dp4202
g62
(dp4203
g70
I4
ssg71
g4197
sg64
(lp4204
S'combat:no_combat'
p4205
asbasbasbag57
(g73
g59
NtRp4206
(dp4207
g62
(dp4208
sg71
g4076
sg64
(lp4209
g57
(g78
g59
NtRp4210
(dp4211
g62
(dp4212
sg71
g4206
sg64
(lp4213
g57
(g58
g59
NtRp4214
(dp4215
g62
(dp4216
g70
I4
ssg71
g4210
sg64
(lp4217
g4092
asbasbasbag57
(g73
g59
NtRp4218
(dp4219
g62
(dp4220
sg71
g4076
sg64
(lp4221
g57
(g78
g59
NtRp4222
(dp4223
g62
(dp4224
sg71
g4218
sg64
(lp4225
g57
(g58
g59
NtRp4226
(dp4227
g62
(dp4228
g70
I4
ssg71
g4222
sg64
(lp4229
S'quantile:no_quantile'
p4230
asbasbasbag57
(g73
g59
NtRp4231
(dp4232
g62
(dp4233
sg71
g4076
sg64
(lp4234
g57
(g78
g59
NtRp4235
(dp4236
g62
(dp4237
sg71
g4231
sg64
(lp4238
g57
(g58
g59
NtRp4239
(dp4240
g62
(dp4241
g70
I4
ssg71
g4235
sg64
(lp4242
g4092
asbasbasbag57
(g73
g59
NtRp4243
(dp4244
g62
(dp4245
sg71
g4076
sg64
(lp4246
g57
(g78
g59
NtRp4247
(dp4248
g62
(dp4249
sg71
g4243
sg64
(lp4250
g57
(g58
g59
NtRp4251
(dp4252
g62
(dp4253
g70
I4
ssg71
g4247
sg64
(lp4254
S'predataset:no_predataset'
p4255
asbasbasbag57
(g73
g59
NtRp4256
(dp4257
g62
(dp4258
sg71
g4076
sg64
(lp4259
g57
(g78
g59
NtRp4260
(dp4261
g62
(dp4262
sg71
g4256
sg64
(lp4263
g57
(g58
g59
NtRp4264
(dp4265
g62
(dp4266
g70
I4
ssg71
g4260
sg64
(lp4267
g4092
asbasbasbag57
(g73
g59
NtRp4268
(dp4269
g62
(dp4270
sg71
g4076
sg64
(lp4271
g57
(g78
g59
NtRp4272
(dp4273
g62
(dp4274
sg71
g4268
sg64
(lp4275
g57
(g58
g59
NtRp4276
(dp4277
g62
(dp4278
g70
I4
ssg71
g4272
sg64
(lp4279
S'dwd:no_dwd'
p4280
asbasbasbag57
(g73
g59
NtRp4281
(dp4282
g62
(dp4283
sg71
g4076
sg64
(lp4284
g57
(g78
g59
NtRp4285
(dp4286
g62
(dp4287
sg71
g4281
sg64
(lp4288
g57
(g58
g59
NtRp4289
(dp4290
g62
(dp4291
g70
I4
ssg71
g4285
sg64
(lp4292
g4092
asbasbasbag57
(g73
g59
NtRp4293
(dp4294
g62
(dp4295
sg71
g4076
sg64
(lp4296
g57
(g78
g59
NtRp4297
(dp4298
g62
(dp4299
sg71
g4293
sg64
(lp4300
g57
(g58
g59
NtRp4301
(dp4302
g62
(dp4303
g70
I4
ssg71
g4297
sg64
(lp4304
S'preprocess:unknown_preprocess'
p4305
asbasbasbag57
(g73
g59
NtRp4306
(dp4307
g62
(dp4308
sg71
g4076
sg64
(lp4309
g57
(g78
g59
NtRp4310
(dp4311
g62
(dp4312
sg71
g4306
sg64
(lp4313
g57
(g58
g59
NtRp4314
(dp4315
g62
(dp4316
g70
I4
ssg71
g4310
sg64
(lp4317
g4092
asbasbasbag57
(g73
g59
NtRp4318
(dp4319
g62
(dp4320
sg71
g4076
sg64
(lp4321
g57
(g78
g59
NtRp4322
(dp4323
g62
(dp4324
sg71
g4318
sg64
(lp4325
g57
(g58
g59
NtRp4326
(dp4327
g62
(dp4328
g70
I4
ssg71
g4322
sg64
(lp4329
S'unique_genes:no_unique_genes'
p4330
asbasbasbag57
(g73
g59
NtRp4331
(dp4332
g62
(dp4333
sg71
g4076
sg64
(lp4334
g57
(g78
g59
NtRp4335
(dp4336
g62
(dp4337
sg71
g4331
sg64
(lp4338
g57
(g58
g59
NtRp4339
(dp4340
g62
(dp4341
g70
I4
ssg71
g4335
sg64
(lp4342
g4092
asbasbasbag57
(g73
g59
NtRp4343
(dp4344
g62
(dp4345
sg71
g4076
sg64
(lp4346
g57
(g78
g59
NtRp4347
(dp4348
g62
(dp4349
sg71
g4343
sg64
(lp4350
g57
(g58
g59
NtRp4351
(dp4352
g62
(dp4353
g70
I4
ssg71
g4347
sg64
(lp4354
S'rename_sample:no_rename'
p4355
asbasbasbag57
(g73
g59
NtRp4356
(dp4357
g62
(dp4358
sg71
g4076
sg64
(lp4359
g57
(g78
g59
NtRp4360
(dp4361
g62
(dp4362
sg71
g4356
sg64
(lp4363
g57
(g58
g59
NtRp4364
(dp4365
g62
(dp4366
g70
I4
ssg71
g4360
sg64
(lp4367
g4092
asbasbasbag57
(g73
g59
NtRp4368
(dp4369
g62
(dp4370
sg71
g4076
sg64
(lp4371
g57
(g78
g59
NtRp4372
(dp4373
g62
(dp4374
sg71
g4368
sg64
(lp4375
g57
(g58
g59
NtRp4376
(dp4377
g62
(dp4378
g70
I4
ssg71
g4372
sg64
(lp4379
S'shiftscale:no_shiftscale'
p4380
asbasbasbag57
(g73
g59
NtRp4381
(dp4382
g62
(dp4383
sg71
g4076
sg64
(lp4384
g57
(g78
g59
NtRp4385
(dp4386
g62
(dp4387
sg71
g4381
sg64
(lp4388
g57
(g58
g59
NtRp4389
(dp4390
g62
(dp4391
g70
I4
ssg71
g4385
sg64
(lp4392
g4092
asbasbasbag57
(g73
g59
NtRp4393
(dp4394
g62
(dp4395
sg71
g4076
sg64
(lp4396
g57
(g78
g59
NtRp4397
(dp4398
g62
(dp4399
sg71
g4393
sg64
(lp4400
g57
(g58
g59
NtRp4401
(dp4402
g62
(dp4403
g70
I4
ssg71
g4397
sg64
(lp4404
S'has_missing_value:zero_fill'
p4405
asbasbasbag57
(g73
g59
NtRp4406
(dp4407
g62
(dp4408
sg71
g4076
sg64
(lp4409
g57
(g78
g59
NtRp4410
(dp4411
g62
(dp4412
sg71
g4406
sg64
(lp4413
g57
(g58
g59
NtRp4414
(dp4415
g62
(dp4416
g70
I4
ssg71
g4410
sg64
(lp4417
g4092
asbasbasbag57
(g73
g59
NtRp4418
(dp4419
g62
(dp4420
sg71
g4076
sg64
(lp4421
g57
(g78
g59
NtRp4422
(dp4423
g62
(dp4424
sg71
g4418
sg64
(lp4425
g57
(g58
g59
NtRp4426
(dp4427
g62
(dp4428
g70
I4
ssg71
g4422
sg64
(lp4429
S'format:tdf'
p4430
asbasbasbag57
(g73
g59
NtRp4431
(dp4432
g62
(dp4433
sg71
g4076
sg64
(lp4434
g57
(g78
g59
NtRp4435
(dp4436
g62
(dp4437
sg71
g4431
sg64
(lp4438
g57
(g58
g59
NtRp4439
(dp4440
g62
(dp4441
g70
I4
ssg71
g4435
sg64
(lp4442
g4092
asbasbasbag57
(g73
g59
NtRp4443
(dp4444
g62
(dp4445
sg71
g4076
sg64
(lp4446
g57
(g78
g59
NtRp4447
(dp4448
g62
(dp4449
sg71
g4443
sg64
(lp4450
g57
(g58
g59
NtRp4451
(dp4452
g62
(dp4453
g70
I4
ssg71
g4447
sg64
(lp4454
S'num_features:0'
p4455
asbasbasbag57
(g73
g59
NtRp4456
(dp4457
g62
(dp4458
sg71
g4076
sg64
(lp4459
g57
(g78
g59
NtRp4460
(dp4461
g62
(dp4462
sg71
g4456
sg64
(lp4463
g57
(g58
g59
NtRp4464
(dp4465
g62
(dp4466
g70
I4
ssg71
g4460
sg64
(lp4467
g4092
asbasbasbag57
(g73
g59
NtRp4468
(dp4469
g62
(dp4470
sg71
g4076
sg64
(lp4471
g57
(g78
g59
NtRp4472
(dp4473
g62
(dp4474
sg71
g4468
sg64
(lp4475
g57
(g58
g59
NtRp4476
(dp4477
g62
(dp4478
g70
I4
ssg71
g4472
sg64
(lp4479
S'filter:0'
p4480
asbasbasbag57
(g73
g59
NtRp4481
(dp4482
g62
(dp4483
sg71
g4076
sg64
(lp4484
g57
(g78
g59
NtRp4485
(dp4486
g62
(dp4487
sg71
g4481
sg64
(lp4488
g57
(g58
g59
NtRp4489
(dp4490
g62
(dp4491
g70
I4
ssg71
g4485
sg64
(lp4492
g4092
asbasbasbag57
(g73
g59
NtRp4493
(dp4494
g62
(dp4495
sg71
g4076
sg64
(lp4496
g57
(g78
g59
NtRp4497
(dp4498
g62
(dp4499
sg71
g4493
sg64
(lp4500
g57
(g58
g59
NtRp4501
(dp4502
g62
(dp4503
g70
I4
ssg71
g4497
sg64
(lp4504
S'is_logged:logged'
p4505
asbasbasbag57
(g73
g59
NtRp4506
(dp4507
g62
(dp4508
sg71
g4076
sg64
(lp4509
g57
(g78
g59
NtRp4510
(dp4511
g62
(dp4512
sg71
g4506
sg64
(lp4513
g57
(g58
g59
NtRp4514
(dp4515
g62
(dp4516
g70
I4
ssg71
g4510
sg64
(lp4517
g4092
asbasbasbag57
(g73
g59
NtRp4518
(dp4519
g62
(dp4520
sg71
g4076
sg64
(lp4521
g57
(g78
g59
NtRp4522
(dp4523
g62
(dp4524
sg71
g4518
sg64
(lp4525
g57
(g58
g59
NtRp4526
(dp4527
g62
(dp4528
g70
I4
ssg71
g4522
sg64
(lp4529
S'bfrm:no_bfrm'
p4530
asbasbasbasbasbasbasbag57
(g73
g59
NtRp4531
(dp4532
g62
(dp4533
sg71
g3294
sg64
(lp4534
g57
(g78
g59
NtRp4535
(dp4536
g62
(dp4537
g82
g83
ssg71
g4531
sg64
(lp4538
S'protocol'
p4539
asbag57
(g78
g59
NtRp4540
(dp4541
g62
(dp4542
g89
g90
ssg71
g4531
sg64
(lp4543
S':'
asbag57
(g78
g59
NtRp4544
(dp4545
g62
(dp4546
sg71
g4531
sg64
(lp4547
g57
(g58
g59
NtRp4548
(dp4549
g62
(dp4550
g70
I5
ssg71
g4544
sg64
(lp4551
S'normalize_file'
p4552
asbasbasbasbasbsS'etype'
p4553
S"<type 'exceptions.KeyError'>"
p4554
sS'date'
p4555
S'Wed Feb 20 14:28:02 2013'
p4556
sS'response'
p4557
g57
(g58
g59
NtRp4558
(dp4559
g62
(dp4560
sg64
(lp4561
g57
(g66
g59
NtRp4562
(dp4563
g62
(dp4564
g70
I5
ssg71
Nsg64
(lp4565
g57
(g73
g59
NtRp4566
(dp4567
g62
(dp4568
sg71
g4562
sg64
(lp4569
g57
(g78
g59
NtRp4570
(dp4571
g62
(dp4572
g82
g83
ssg71
g4566
sg64
(lp4573
g155
asbag57
(g78
g59
NtRp4574
(dp4575
g62
(dp4576
g89
g90
ssg71
g4566
sg64
(lp4577
S':'
asbag57
(g78
g59
NtRp4578
(dp4579
g62
(dp4580
sg71
g4566
sg64
(lp4581
g57
(g58
g59
NtRp4582
(dp4583
g62
(dp4584
g70
I5
ssg71
g4578
sg64
(lp4585
S'<cStringIO.StringO object at 0x17e75d88>'
p4586
asbasbasbag57
(g73
g59
NtRp4587
(dp4588
g62
(dp4589
sg71
g4562
sg64
(lp4590
g57
(g78
g59
NtRp4591
(dp4592
g62
(dp4593
g82
g83
ssg71
g4587
sg64
(lp4594
g243
asbag57
(g78
g59
NtRp4595
(dp4596
g62
(dp4597
g89
g90
ssg71
g4587
sg64
(lp4598
S':'
asbag57
(g78
g59
NtRp4599
(dp4600
g62
(dp4601
sg71
g4587
sg64
(lp4602
g57
(g58
g59
NtRp4603
(dp4604
g62
(dp4605
g70
I5
ssg71
g4599
sg64
(lp4606
g57
(g66
g59
NtRp4607
(dp4608
g62
(dp4609
g70
I4
ssg71
Nsg64
(lp4610
g57
(g73
g59
NtRp4611
(dp4612
g62
(dp4613
sg71
g4607
sg64
(lp4614
g57
(g78
g59
NtRp4615
(dp4616
g62
(dp4617
g82
g83
ssg71
g4611
sg64
(lp4618
S'session_id_betsy'
p4619
asbag57
(g78
g59
NtRp4620
(dp4621
g62
(dp4622
g89
g90
ssg71
g4611
sg64
(lp4623
S':'
asbag57
(g78
g59
NtRp4624
(dp4625
g62
(dp4626
sg71
g4611
sg64
(lp4627
g57
(g58
g59
NtRp4628
(dp4629
g62
(dp4630
g70
I4
ssg71
g4624
sg64
(lp4631
g475
ag57
(g66
g59
NtRp4632
(dp4633
g62
(dp4634
g70
I3
ssg71
Nsg64
(lp4635
g57
(g73
g59
NtRp4636
(dp4637
g62
(dp4638
sg71
g4632
sg64
(lp4639
g57
(g78
g59
NtRp4640
(dp4641
g62
(dp4642
g82
g83
ssg71
g4636
sg64
(lp4643
g294
asbag57
(g78
g59
NtRp4644
(dp4645
g62
(dp4646
g89
g90
ssg71
g4636
sg64
(lp4647
S':'
asbag57
(g78
g59
NtRp4648
(dp4649
g62
(dp4650
sg71
g4636
sg64
(lp4651
g57
(g58
g59
NtRp4652
(dp4653
g62
(dp4654
g70
I3
ssg71
g4648
sg64
(lp4655
S''
asbasbasbag57
(g73
g59
NtRp4656
(dp4657
g62
(dp4658
sg71
g4632
sg64
(lp4659
g57
(g78
g59
NtRp4660
(dp4661
g62
(dp4662
g82
g83
ssg71
g4656
sg64
(lp4663
g315
asbag57
(g78
g59
NtRp4664
(dp4665
g62
(dp4666
g89
g90
ssg71
g4656
sg64
(lp4667
S':'
asbag57
(g78
g59
NtRp4668
(dp4669
g62
(dp4670
sg71
g4656
sg64
(lp4671
g57
(g58
g59
NtRp4672
(dp4673
g62
(dp4674
g70
I3
ssg71
g4668
sg64
(lp4675
S''
asbasbasbag57
(g73
g59
NtRp4676
(dp4677
g62
(dp4678
sg71
g4632
sg64
(lp4679
g57
(g78
g59
NtRp4680
(dp4681
g62
(dp4682
g82
g83
ssg71
g4676
sg64
(lp4683
g336
asbag57
(g78
g59
NtRp4684
(dp4685
g62
(dp4686
g89
g90
ssg71
g4676
sg64
(lp4687
S':'
asbag57
(g78
g59
NtRp4688
(dp4689
g62
(dp4690
sg71
g4676
sg64
(lp4691
g57
(g58
g59
NtRp4692
(dp4693
g62
(dp4694
g70
I3
ssg71
g4688
sg64
(lp4695
S'2592000'
p4696
asbasbasbag57
(g73
g59
NtRp4697
(dp4698
g62
(dp4699
sg71
g4632
sg64
(lp4700
g57
(g78
g59
NtRp4701
(dp4702
g62
(dp4703
g82
g83
ssg71
g4697
sg64
(lp4704
g357
asbag57
(g78
g59
NtRp4705
(dp4706
g62
(dp4707
g89
g90
ssg71
g4697
sg64
(lp4708
S':'
asbag57
(g78
g59
NtRp4709
(dp4710
g62
(dp4711
sg71
g4697
sg64
(lp4712
g57
(g58
g59
NtRp4713
(dp4714
g62
(dp4715
g70
I3
ssg71
g4709
sg64
(lp4716
S''
asbasbasbag57
(g73
g59
NtRp4717
(dp4718
g62
(dp4719
sg71
g4632
sg64
(lp4720
g57
(g78
g59
NtRp4721
(dp4722
g62
(dp4723
g82
g83
ssg71
g4717
sg64
(lp4724
g378
asbag57
(g78
g59
NtRp4725
(dp4726
g62
(dp4727
g89
g90
ssg71
g4717
sg64
(lp4728
S':'
asbag57
(g78
g59
NtRp4729
(dp4730
g62
(dp4731
sg71
g4717
sg64
(lp4732
g57
(g58
g59
NtRp4733
(dp4734
g62
(dp4735
g70
I3
ssg71
g4729
sg64
(lp4736
S''
asbasbasbag57
(g73
g59
NtRp4737
(dp4738
g62
(dp4739
sg71
g4632
sg64
(lp4740
g57
(g78
g59
NtRp4741
(dp4742
g62
(dp4743
g82
g83
ssg71
g4737
sg64
(lp4744
g399
asbag57
(g78
g59
NtRp4745
(dp4746
g62
(dp4747
g89
g90
ssg71
g4737
sg64
(lp4748
S':'
asbag57
(g78
g59
NtRp4749
(dp4750
g62
(dp4751
sg71
g4737
sg64
(lp4752
g57
(g58
g59
NtRp4753
(dp4754
g62
(dp4755
g70
I3
ssg71
g4749
sg64
(lp4756
S'/'
asbasbasbag57
(g73
g59
NtRp4757
(dp4758
g62
(dp4759
sg71
g4632
sg64
(lp4760
g57
(g78
g59
NtRp4761
(dp4762
g62
(dp4763
g82
g83
ssg71
g4757
sg64
(lp4764
g420
asbag57
(g78
g59
NtRp4765
(dp4766
g62
(dp4767
g89
g90
ssg71
g4757
sg64
(lp4768
S':'
asbag57
(g78
g59
NtRp4769
(dp4770
g62
(dp4771
sg71
g4757
sg64
(lp4772
g57
(g58
g59
NtRp4773
(dp4774
g62
(dp4775
g70
I3
ssg71
g4769
sg64
(lp4776
S''
asbasbasbag57
(g73
g59
NtRp4777
(dp4778
g62
(dp4779
sg71
g4632
sg64
(lp4780
g57
(g78
g59
NtRp4781
(dp4782
g62
(dp4783
g82
g83
ssg71
g4777
sg64
(lp4784
g441
asbag57
(g78
g59
NtRp4785
(dp4786
g62
(dp4787
g89
g90
ssg71
g4777
sg64
(lp4788
S':'
asbag57
(g78
g59
NtRp4789
(dp4790
g62
(dp4791
sg71
g4777
sg64
(lp4792
g57
(g58
g59
NtRp4793
(dp4794
g62
(dp4795
g70
I3
ssg71
g4789
sg64
(lp4796
S''
asbasbasbasbasbasbasbasbasbasbasbag57
(g73
g59
NtRp4797
(dp4798
g62
(dp4799
sg71
g4562
sg64
(lp4800
g57
(g78
g59
NtRp4801
(dp4802
g62
(dp4803
g82
g83
ssg71
g4797
sg64
(lp4804
S'delimiters'
p4805
asbag57
(g78
g59
NtRp4806
(dp4807
g62
(dp4808
g89
g90
ssg71
g4797
sg64
(lp4809
S':'
asbag57
(g78
g59
NtRp4810
(dp4811
g62
(dp4812
sg71
g4797
sg64
(lp4813
g57
(g58
g59
NtRp4814
(dp4815
g62
(dp4816
g70
I5
ssg71
g4810
sg64
(lp4817
g57
(g66
g59
NtRp4818
(dp4819
g62
(dp4820
g70
I4
ssg71
Nsg64
(lp4821
g57
(g73
g59
NtRp4822
(dp4823
g62
(dp4824
sg71
g4818
sg64
(lp4825
g57
(g78
g59
NtRp4826
(dp4827
g62
(dp4828
sg71
g4822
sg64
(lp4829
g57
(g58
g59
NtRp4830
(dp4831
g62
(dp4832
g70
I4
ssg71
g4826
sg64
(lp4833
S'{{'
p4834
asbasbasbag57
(g73
g59
NtRp4835
(dp4836
g62
(dp4837
sg71
g4818
sg64
(lp4838
g57
(g78
g59
NtRp4839
(dp4840
g62
(dp4841
sg71
g4835
sg64
(lp4842
g57
(g58
g59
NtRp4843
(dp4844
g62
(dp4845
g70
I4
ssg71
g4839
sg64
(lp4846
S'}}'
p4847
asbasbasbasbasbasbasbag57
(g73
g59
NtRp4848
(dp4849
g62
(dp4850
sg71
g4562
sg64
(lp4851
g57
(g78
g59
NtRp4852
(dp4853
g62
(dp4854
g82
g83
ssg71
g4848
sg64
(lp4855
S'files'
p4856
asbag57
(g78
g59
NtRp4857
(dp4858
g62
(dp4859
g89
g90
ssg71
g4848
sg64
(lp4860
S':'
asbag57
(g78
g59
NtRp4861
(dp4862
g62
(dp4863
sg71
g4848
sg64
(lp4864
g57
(g58
g59
NtRp4865
(dp4866
g62
(dp4867
g70
I5
ssg71
g4861
sg64
(lp4868
g57
(g66
g59
NtRp4869
(dp4870
g62
(dp4871
g70
I4
ssg71
Nsg64
(lp4872
sbasbasbasbag57
(g73
g59
NtRp4873
(dp4874
g62
(dp4875
sg71
g4562
sg64
(lp4876
g57
(g78
g59
NtRp4877
(dp4878
g62
(dp4879
g82
g83
ssg71
g4873
sg64
(lp4880
S'flash'
p4881
asbag57
(g78
g59
NtRp4882
(dp4883
g62
(dp4884
g89
g90
ssg71
g4873
sg64
(lp4885
S':'
asbag57
(g78
g59
NtRp4886
(dp4887
g62
(dp4888
sg71
g4873
sg64
(lp4889
g57
(g58
g59
NtRp4890
(dp4891
g62
(dp4892
g70
I5
ssg71
g4886
sg64
(lp4893
S''
asbasbasbag57
(g73
g59
NtRp4894
(dp4895
g62
(dp4896
sg71
g4562
sg64
(lp4897
g57
(g78
g59
NtRp4898
(dp4899
g62
(dp4900
g82
g83
ssg71
g4894
sg64
(lp4901
S'generic_patterns'
p4902
asbag57
(g78
g59
NtRp4903
(dp4904
g62
(dp4905
g89
g90
ssg71
g4894
sg64
(lp4906
S':'
asbag57
(g78
g59
NtRp4907
(dp4908
g62
(dp4909
sg71
g4894
sg64
(lp4910
g57
(g58
g59
NtRp4911
(dp4912
g62
(dp4913
g70
I5
ssg71
g4907
sg64
(lp4914
g57
(g66
g59
NtRp4915
(dp4916
g62
(dp4917
g70
I4
ssg71
Nsg64
(lp4918
g57
(g73
g59
NtRp4919
(dp4920
g62
(dp4921
sg71
g4915
sg64
(lp4922
g57
(g78
g59
NtRp4923
(dp4924
g62
(dp4925
sg71
g4919
sg64
(lp4926
g57
(g58
g59
NtRp4927
(dp4928
g62
(dp4929
g70
I4
ssg71
g4923
sg64
(lp4930
S'*'
asbasbasbasbasbasbasbag57
(g73
g59
NtRp4931
(dp4932
g62
(dp4933
sg71
g4562
sg64
(lp4934
g57
(g78
g59
NtRp4935
(dp4936
g62
(dp4937
g82
g83
ssg71
g4931
sg64
(lp4938
S'google_analytics_id'
p4939
asbag57
(g78
g59
NtRp4940
(dp4941
g62
(dp4942
g89
g90
ssg71
g4931
sg64
(lp4943
S':'
asbag57
(g78
g59
NtRp4944
(dp4945
g62
(dp4946
sg71
g4931
sg64
(lp4947
g57
(g58
g59
NtRp4948
(dp4949
g62
(dp4950
g70
I5
ssg71
g4944
sg64
(lp4951
S'None'
p4952
asbasbasbag57
(g73
g59
NtRp4953
(dp4954
g62
(dp4955
sg71
g4562
sg64
(lp4956
g57
(g78
g59
NtRp4957
(dp4958
g62
(dp4959
g82
g83
ssg71
g4953
sg64
(lp4960
S'headers'
p4961
asbag57
(g78
g59
NtRp4962
(dp4963
g62
(dp4964
g89
g90
ssg71
g4953
sg64
(lp4965
S':'
asbag57
(g78
g59
NtRp4966
(dp4967
g62
(dp4968
sg71
g4953
sg64
(lp4969
g57
(g58
g59
NtRp4970
(dp4971
g62
(dp4972
g70
I5
ssg71
g4966
sg64
(lp4973
g57
(g66
g59
NtRp4974
(dp4975
g62
(dp4976
g70
I4
ssg71
Nsg64
(lp4977
g57
(g73
g59
NtRp4978
(dp4979
g62
(dp4980
sg71
g4974
sg64
(lp4981
g57
(g78
g59
NtRp4982
(dp4983
g62
(dp4984
g82
g83
ssg71
g4978
sg64
(lp4985
S'X-Powered-By'
p4986
asbag57
(g78
g59
NtRp4987
(dp4988
g62
(dp4989
g89
g90
ssg71
g4978
sg64
(lp4990
S':'
asbag57
(g78
g59
NtRp4991
(dp4992
g62
(dp4993
sg71
g4978
sg64
(lp4994
g57
(g58
g59
NtRp4995
(dp4996
g62
(dp4997
g70
I4
ssg71
g4991
sg64
(lp4998
S'web2py'
p4999
asbasbasbasbasbasbasbag57
(g73
g59
NtRp5000
(dp5001
g62
(dp5002
sg71
g4562
sg64
(lp5003
g57
(g78
g59
NtRp5004
(dp5005
g62
(dp5006
g82
g83
ssg71
g5000
sg64
(lp5007
S'menu'
p5008
asbag57
(g78
g59
NtRp5009
(dp5010
g62
(dp5011
g89
g90
ssg71
g5000
sg64
(lp5012
S':'
asbag57
(g78
g59
NtRp5013
(dp5014
g62
(dp5015
sg71
g5000
sg64
(lp5016
g57
(g58
g59
NtRp5017
(dp5018
g62
(dp5019
g70
I5
ssg71
g5013
sg64
(lp5020
g57
(g66
g59
NtRp5021
(dp5022
g62
(dp5023
g70
I4
ssg71
Nsg64
(lp5024
g57
(g73
g59
NtRp5025
(dp5026
g62
(dp5027
sg71
g5021
sg64
(lp5028
g57
(g78
g59
NtRp5029
(dp5030
g62
(dp5031
sg71
g5025
sg64
(lp5032
g57
(g58
g59
NtRp5033
(dp5034
g62
(dp5035
g70
I4
ssg71
g5029
sg64
(lp5036
g57
(g66
g59
NtRp5037
(dp5038
g62
(dp5039
g70
I3
ssg71
Nsg64
(lp5040
g57
(g73
g59
NtRp5041
(dp5042
g62
(dp5043
sg71
g5037
sg64
(lp5044
g57
(g78
g59
NtRp5045
(dp5046
g62
(dp5047
sg71
g5041
sg64
(lp5048
g57
(g58
g59
NtRp5049
(dp5050
g62
(dp5051
g70
I3
ssg71
g5045
sg64
(lp5052
cgluon.languages
lazyT_unpickle
p5053
(S's\x04\x00\x00\x00Home'
tRp5054
asbasbasbag57
(g73
g59
NtRp5055
(dp5056
g62
(dp5057
sg71
g5037
sg64
(lp5058
g57
(g78
g59
NtRp5059
(dp5060
g62
(dp5061
sg71
g5055
sg64
(lp5062
g57
(g58
g59
NtRp5063
(dp5064
g62
(dp5065
g70
I3
ssg71
g5059
sg64
(lp5066
g100
asbasbasbag57
(g73
g59
NtRp5067
(dp5068
g62
(dp5069
sg71
g5037
sg64
(lp5070
g57
(g78
g59
NtRp5071
(dp5072
g62
(dp5073
sg71
g5067
sg64
(lp5074
g57
(g58
g59
NtRp5075
(dp5076
g62
(dp5077
g70
I3
ssg71
g5071
sg64
(lp5078
S'/Betsy/default/index'
p5079
asbasbasbag57
(g73
g59
NtRp5080
(dp5081
g62
(dp5082
sg71
g5037
sg64
(lp5083
g57
(g78
g59
NtRp5084
(dp5085
g62
(dp5086
sg71
g5080
sg64
(lp5087
g57
(g58
g59
NtRp5088
(dp5089
g62
(dp5090
g70
I3
ssg71
g5084
sg64
(lp5091
g57
(g66
g59
NtRp5092
(dp5093
g62
(dp5094
g70
I2
ssg71
Nsg64
(lp5095
sbasbasbasbasbasbasbasbag57
(g73
g59
NtRp5096
(dp5097
g62
(dp5098
sg71
g5021
sg64
(lp5099
g57
(g78
g59
NtRp5100
(dp5101
g62
(dp5102
sg71
g5096
sg64
(lp5103
g57
(g58
g59
NtRp5104
(dp5105
g62
(dp5106
g70
I4
ssg71
g5100
sg64
(lp5107
g57
(g66
g59
NtRp5108
(dp5109
g62
(dp5110
g70
I3
ssg71
Nsg64
(lp5111
g57
(g73
g59
NtRp5112
(dp5113
g62
(dp5114
sg71
g5108
sg64
(lp5115
g57
(g78
g59
NtRp5116
(dp5117
g62
(dp5118
sg71
g5112
sg64
(lp5119
g57
(g58
g59
NtRp5120
(dp5121
g62
(dp5122
g70
I3
ssg71
g5116
sg64
(lp5123
g57
(cgluon.html
SPAN
p5124
g59
NtRp5125
(dp5126
g62
(dp5127
S'_class'
p5128
S'highlighted'
p5129
ssg71
Nsg64
(lp5130
g4999
asbasbasbasbag57
(g73
g59
NtRp5131
(dp5132
g62
(dp5133
sg71
g5108
sg64
(lp5134
g57
(g78
g59
NtRp5135
(dp5136
g62
(dp5137
sg71
g5131
sg64
(lp5138
g57
(g58
g59
NtRp5139
(dp5140
g62
(dp5141
g70
I3
ssg71
g5135
sg64
(lp5142
g100
asbasbasbag57
(g73
g59
NtRp5143
(dp5144
g62
(dp5145
sg71
g5108
sg64
(lp5146
g57
(g78
g59
NtRp5147
(dp5148
g62
(dp5149
sg71
g5143
sg64
(lp5150
g57
(g58
g59
NtRp5151
(dp5152
g62
(dp5153
g70
I3
ssg71
g5147
sg64
(lp5154
S'http://web2py.com'
p5155
asbasbasbag57
(g73
g59
NtRp5156
(dp5157
g62
(dp5158
sg71
g5108
sg64
(lp5159
g57
(g78
g59
NtRp5160
(dp5161
g62
(dp5162
sg71
g5156
sg64
(lp5163
g57
(g58
g59
NtRp5164
(dp5165
g62
(dp5166
g70
I3
ssg71
g5160
sg64
(lp5167
g57
(g66
g59
NtRp5168
(dp5169
g62
(dp5170
g70
I2
ssg71
Nsg64
(lp5171
g57
(g73
g59
NtRp5172
(dp5173
g62
(dp5174
sg71
g5168
sg64
(lp5175
g57
(g78
g59
NtRp5176
(dp5177
g62
(dp5178
sg71
g5172
sg64
(lp5179
g57
(g58
g59
NtRp5180
(dp5181
g62
(dp5182
g70
I2
ssg71
g5176
sg64
(lp5183
g57
(g66
g59
NtRp5184
(dp5185
g62
(dp5186
g70
I1
ssg71
Nsg64
(lp5187
g57
(g73
g59
NtRp5188
(dp5189
g62
(dp5190
sg71
g5184
sg64
(lp5191
g57
(g78
g59
NtRp5192
(dp5193
g62
(dp5194
sg71
g5188
sg64
(lp5195
g57
(g58
g59
NtRp5196
(dp5197
g62
(dp5198
g70
I1
ssg71
g5192
sg64
(lp5199
g5053
(S's\x08\x00\x00\x00My Sites'
tRp5200
asbasbasbag57
(g73
g59
NtRp5201
(dp5202
g62
(dp5203
sg71
g5184
sg64
(lp5204
g57
(g78
g59
NtRp5205
(dp5206
g62
(dp5207
sg71
g5201
sg64
(lp5208
g57
(g58
g59
NtRp5209
(dp5210
g62
(dp5211
g70
I1
ssg71
g5205
sg64
(lp5212
I00
asbasbasbag57
(g73
g59
NtRp5213
(dp5214
g62
(dp5215
sg71
g5184
sg64
(lp5216
g57
(g78
g59
NtRp5217
(dp5218
g62
(dp5219
sg71
g5213
sg64
(lp5220
g57
(g58
g59
NtRp5221
(dp5222
g62
(dp5223
g70
I1
ssg71
g5217
sg64
(lp5224
S'/admin/default/site'
p5225
asbasbasbasbasbasbasbag57
(g73
g59
NtRp5226
(dp5227
g62
(dp5228
sg71
g5168
sg64
(lp5229
g57
(g78
g59
NtRp5230
(dp5231
g62
(dp5232
sg71
g5226
sg64
(lp5233
g57
(g58
g59
NtRp5234
(dp5235
g62
(dp5236
g70
I2
ssg71
g5230
sg64
(lp5237
g57
(g66
g59
NtRp5238
(dp5239
g62
(dp5240
g70
I1
ssg71
Nsg64
(lp5241
g57
(g73
g59
NtRp5242
(dp5243
g62
(dp5244
sg71
g5238
sg64
(lp5245
g57
(g78
g59
NtRp5246
(dp5247
g62
(dp5248
sg71
g5242
sg64
(lp5249
g57
(g58
g59
NtRp5250
(dp5251
g62
(dp5252
g70
I1
ssg71
g5246
sg64
(lp5253
g5053
(S's\x08\x00\x00\x00This App'
tRp5254
asbasbasbag57
(g73
g59
NtRp5255
(dp5256
g62
(dp5257
sg71
g5238
sg64
(lp5258
g57
(g78
g59
NtRp5259
(dp5260
g62
(dp5261
sg71
g5255
sg64
(lp5262
g57
(g58
g59
NtRp5263
(dp5264
g62
(dp5265
g70
I1
ssg71
g5259
sg64
(lp5266
I00
asbasbasbag57
(g73
g59
NtRp5267
(dp5268
g62
(dp5269
sg71
g5238
sg64
(lp5270
g57
(g78
g59
NtRp5271
(dp5272
g62
(dp5273
sg71
g5267
sg64
(lp5274
g57
(g58
g59
NtRp5275
(dp5276
g62
(dp5277
g70
I1
ssg71
g5271
sg64
(lp5278
S'/admin/default/design/Betsy'
p5279
asbasbasbag57
(g73
g59
NtRp5280
(dp5281
g62
(dp5282
sg71
g5238
sg64
(lp5283
g57
(g78
g59
NtRp5284
(dp5285
g62
(dp5286
sg71
g5280
sg64
(lp5287
g57
(g58
g59
NtRp5288
(dp5289
g62
(dp5290
g70
I1
ssg71
g5284
sg64
(lp5291
(lp5292
(g5053
(S's\n\x00\x00\x00Controller'
tRp5293
I00
S'/admin/default/edit/Betsy/controllers/default.py'
tp5294
a(g5053
(S's\x04\x00\x00\x00View'
tRp5295
I00
S'/admin/default/edit/Betsy/views/default/protocol.html'
tp5296
a(g5053
(S's\x06\x00\x00\x00Layout'
tRp5297
I00
S'/admin/default/edit/Betsy/views/layout.html'
tp5298
a(g5053
(S's\n\x00\x00\x00Stylesheet'
tRp5299
I00
S'/admin/default/edit/Betsy/static/css/web2py.css'
tp5300
a(g5053
(S's\x08\x00\x00\x00DB Model'
tRp5301
I00
S'/admin/default/edit/Betsy/models/db.py'
tp5302
a(g5053
(S's\n\x00\x00\x00Menu Model'
tRp5303
I00
S'/admin/default/edit/Betsy/models/menu.py'
tp5304
a(g5053
(S's\x08\x00\x00\x00Database'
tRp5305
I00
S'/Betsy/appadmin/index'
tp5306
a(g5053
(S's\x06\x00\x00\x00Errors'
tRp5307
I00
S'/admin/default/errors/Betsy'
tp5308
a(g5053
(S's\x05\x00\x00\x00About'
tRp5309
I00
S'/admin/default/about/Betsy'
tp5310
aasbasbasbasbasbasbasbag57
(g73
g59
NtRp5311
(dp5312
g62
(dp5313
sg71
g5168
sg64
(lp5314
g57
(g78
g59
NtRp5315
(dp5316
g62
(dp5317
sg71
g5311
sg64
(lp5318
g57
(g58
g59
NtRp5319
(dp5320
g62
(dp5321
g70
I2
ssg71
g5315
sg64
(lp5322
g57
(g66
g59
NtRp5323
(dp5324
g62
(dp5325
g70
I1
ssg71
Nsg64
(lp5326
g57
(g73
g59
NtRp5327
(dp5328
g62
(dp5329
sg71
g5323
sg64
(lp5330
g57
(g78
g59
NtRp5331
(dp5332
g62
(dp5333
sg71
g5327
sg64
(lp5334
g57
(g58
g59
NtRp5335
(dp5336
g62
(dp5337
g70
I1
ssg71
g5331
sg64
(lp5338
S'web2py.com'
p5339
asbasbasbag57
(g73
g59
NtRp5340
(dp5341
g62
(dp5342
sg71
g5323
sg64
(lp5343
g57
(g78
g59
NtRp5344
(dp5345
g62
(dp5346
sg71
g5340
sg64
(lp5347
g57
(g58
g59
NtRp5348
(dp5349
g62
(dp5350
g70
I1
ssg71
g5344
sg64
(lp5351
I00
asbasbasbag57
(g73
g59
NtRp5352
(dp5353
g62
(dp5354
sg71
g5323
sg64
(lp5355
g57
(g78
g59
NtRp5356
(dp5357
g62
(dp5358
sg71
g5352
sg64
(lp5359
g57
(g58
g59
NtRp5360
(dp5361
g62
(dp5362
g70
I1
ssg71
g5356
sg64
(lp5363
S'http://www.web2py.com'
p5364
asbasbasbag57
(g73
g59
NtRp5365
(dp5366
g62
(dp5367
sg71
g5323
sg64
(lp5368
g57
(g78
g59
NtRp5369
(dp5370
g62
(dp5371
sg71
g5365
sg64
(lp5372
g57
(g58
g59
NtRp5373
(dp5374
g62
(dp5375
g70
I1
ssg71
g5369
sg64
(lp5376
(lp5377
(g5053
(S's\x08\x00\x00\x00Download'
tRp5378
I00
S'http://www.web2py.com/examples/default/download'
p5379
tp5380
a(g5053
(S's\x07\x00\x00\x00Support'
tRp5381
I00
S'http://www.web2py.com/examples/default/support'
p5382
tp5383
a(g5053
(S's\x04\x00\x00\x00Demo'
tRp5384
I00
S'http://web2py.com/demo_admin'
p5385
tp5386
a(g5053
(S's\x0e\x00\x00\x00Quick Examples'
tRp5387
I00
S'http://web2py.com/examples/default/examples'
p5388
tp5389
a(g5053
(S's\x03\x00\x00\x00FAQ'
tRp5390
I00
S'http://web2py.com/AlterEgo'
p5391
tp5392
a(g5053
(S's\x06\x00\x00\x00Videos'
tRp5393
I00
S'http://www.web2py.com/examples/default/videos/'
p5394
tp5395
a(g5053
(S's\x11\x00\x00\x00Free Applications'
tRp5396
I00
S'http://web2py.com/appliances'
p5397
tp5398
a(g5053
(S's\x07\x00\x00\x00Plugins'
tRp5399
I00
S'http://web2py.com/plugins'
p5400
tp5401
a(g5053
(S's\x07\x00\x00\x00Layouts'
tRp5402
I00
S'http://web2py.com/layouts'
p5403
tp5404
a(g5053
(S's\x07\x00\x00\x00Recipes'
tRp5405
I00
S'http://web2pyslices.com/'
p5406
tp5407
a(g5053
(S's\x08\x00\x00\x00Semantic'
tRp5408
I00
S'http://web2py.com/semantic'
p5409
tp5410
aasbasbasbasbasbasbasbag57
(g73
g59
NtRp5411
(dp5412
g62
(dp5413
sg71
g5168
sg64
(lp5414
g57
(g78
g59
NtRp5415
(dp5416
g62
(dp5417
sg71
g5411
sg64
(lp5418
g57
(g58
g59
NtRp5419
(dp5420
g62
(dp5421
g70
I2
ssg71
g5415
sg64
(lp5422
g57
(g66
g59
NtRp5423
(dp5424
g62
(dp5425
g70
I1
ssg71
Nsg64
(lp5426
g57
(g73
g59
NtRp5427
(dp5428
g62
(dp5429
sg71
g5423
sg64
(lp5430
g57
(g78
g59
NtRp5431
(dp5432
g62
(dp5433
sg71
g5427
sg64
(lp5434
g57
(g58
g59
NtRp5435
(dp5436
g62
(dp5437
g70
I1
ssg71
g5431
sg64
(lp5438
g5053
(S's\r\x00\x00\x00Documentation'
tRp5439
asbasbasbag57
(g73
g59
NtRp5440
(dp5441
g62
(dp5442
sg71
g5423
sg64
(lp5443
g57
(g78
g59
NtRp5444
(dp5445
g62
(dp5446
sg71
g5440
sg64
(lp5447
g57
(g58
g59
NtRp5448
(dp5449
g62
(dp5450
g70
I1
ssg71
g5444
sg64
(lp5451
I00
asbasbasbag57
(g73
g59
NtRp5452
(dp5453
g62
(dp5454
sg71
g5423
sg64
(lp5455
g57
(g78
g59
NtRp5456
(dp5457
g62
(dp5458
sg71
g5452
sg64
(lp5459
g57
(g58
g59
NtRp5460
(dp5461
g62
(dp5462
g70
I1
ssg71
g5456
sg64
(lp5463
S'http://www.web2py.com/book'
p5464
asbasbasbag57
(g73
g59
NtRp5465
(dp5466
g62
(dp5467
sg71
g5423
sg64
(lp5468
g57
(g78
g59
NtRp5469
(dp5470
g62
(dp5471
sg71
g5465
sg64
(lp5472
g57
(g58
g59
NtRp5473
(dp5474
g62
(dp5475
g70
I1
ssg71
g5469
sg64
(lp5476
(lp5477
(g5053
(S's\x07\x00\x00\x00Preface'
tRp5478
I00
S'http://www.web2py.com/book/default/chapter/00'
p5479
tp5480
a(g5053
(S's\x0c\x00\x00\x00Introduction'
tRp5481
I00
S'http://www.web2py.com/book/default/chapter/01'
p5482
tp5483
a(g5053
(S's\x06\x00\x00\x00Python'
tRp5484
I00
S'http://www.web2py.com/book/default/chapter/02'
p5485
tp5486
a(g5053
(S's\x08\x00\x00\x00Overview'
tRp5487
I00
S'http://www.web2py.com/book/default/chapter/03'
p5488
tp5489
a(g5053
(S's\x08\x00\x00\x00The Core'
tRp5490
I00
S'http://www.web2py.com/book/default/chapter/04'
p5491
tp5492
a(g5053
(S's\t\x00\x00\x00The Views'
tRp5493
I00
S'http://www.web2py.com/book/default/chapter/05'
p5494
tp5495
a(g5053
(S's\x08\x00\x00\x00Database'
tRp5496
I00
S'http://www.web2py.com/book/default/chapter/06'
p5497
tp5498
a(g5053
(S's\x14\x00\x00\x00Forms and Validators'
tRp5499
I00
S'http://www.web2py.com/book/default/chapter/07'
p5500
tp5501
a(g5053
(S's\r\x00\x00\x00Email and SMS'
tRp5502
I00
S'http://www.web2py.com/book/default/chapter/08'
p5503
tp5504
a(g5053
(S's\x0e\x00\x00\x00Access Control'
tRp5505
I00
S'http://www.web2py.com/book/default/chapter/09'
p5506
tp5507
a(g5053
(S's\x08\x00\x00\x00Services'
tRp5508
I00
S'http://www.web2py.com/book/default/chapter/10'
p5509
tp5510
a(g5053
(S's\x0c\x00\x00\x00Ajax Recipes'
tRp5511
I00
S'http://www.web2py.com/book/default/chapter/11'
p5512
tp5513
a(g5053
(S's\x16\x00\x00\x00Components and Plugins'
tRp5514
I00
S'http://www.web2py.com/book/default/chapter/12'
p5515
tp5516
a(g5053
(S's\x12\x00\x00\x00Deployment Recipes'
tRp5517
I00
S'http://www.web2py.com/book/default/chapter/13'
p5518
tp5519
a(g5053
(S's\r\x00\x00\x00Other Recipes'
tRp5520
I00
S'http://www.web2py.com/book/default/chapter/14'
p5521
tp5522
a(g5053
(S's\r\x00\x00\x00Buy this book'
tRp5523
I00
S'http://stores.lulu.com/web2py'
p5524
tp5525
aasbasbasbasbasbasbasbag57
(g73
g59
NtRp5526
(dp5527
g62
(dp5528
sg71
g5168
sg64
(lp5529
g57
(g78
g59
NtRp5530
(dp5531
g62
(dp5532
sg71
g5526
sg64
(lp5533
g57
(g58
g59
NtRp5534
(dp5535
g62
(dp5536
g70
I2
ssg71
g5530
sg64
(lp5537
g57
(g66
g59
NtRp5538
(dp5539
g62
(dp5540
g70
I1
ssg71
Nsg64
(lp5541
g57
(g73
g59
NtRp5542
(dp5543
g62
(dp5544
sg71
g5538
sg64
(lp5545
g57
(g78
g59
NtRp5546
(dp5547
g62
(dp5548
sg71
g5542
sg64
(lp5549
g57
(g58
g59
NtRp5550
(dp5551
g62
(dp5552
g70
I1
ssg71
g5546
sg64
(lp5553
g5053
(S's\t\x00\x00\x00Community'
tRp5554
asbasbasbag57
(g73
g59
NtRp5555
(dp5556
g62
(dp5557
sg71
g5538
sg64
(lp5558
g57
(g78
g59
NtRp5559
(dp5560
g62
(dp5561
sg71
g5555
sg64
(lp5562
g57
(g58
g59
NtRp5563
(dp5564
g62
(dp5565
g70
I1
ssg71
g5559
sg64
(lp5566
I00
asbasbasbag57
(g73
g59
NtRp5567
(dp5568
g62
(dp5569
sg71
g5538
sg64
(lp5570
g57
(g78
g59
NtRp5571
(dp5572
g62
(dp5573
sg71
g5567
sg64
(lp5574
g57
(g58
g59
NtRp5575
(dp5576
g62
(dp5577
g70
I1
ssg71
g5571
sg64
(lp5578
Nasbasbasbag57
(g73
g59
NtRp5579
(dp5580
g62
(dp5581
sg71
g5538
sg64
(lp5582
g57
(g78
g59
NtRp5583
(dp5584
g62
(dp5585
sg71
g5579
sg64
(lp5586
g57
(g58
g59
NtRp5587
(dp5588
g62
(dp5589
g70
I1
ssg71
g5583
sg64
(lp5590
(lp5591
(g5053
(S's\x06\x00\x00\x00Groups'
tRp5592
I00
S'http://www.web2py.com/examples/default/usergroups'
p5593
tp5594
a(g5053
(S's\x07\x00\x00\x00Twitter'
tRp5595
I00
S'http://twitter.com/web2py'
p5596
tp5597
a(g5053
(S's\t\x00\x00\x00Live Chat'
tRp5598
I00
S'http://webchat.freenode.net/?channels=web2py'
p5599
tp5600
aasbasbasbasbasbasbasbag57
(g73
g59
NtRp5601
(dp5602
g62
(dp5603
sg71
g5168
sg64
(lp5604
g57
(g78
g59
NtRp5605
(dp5606
g62
(dp5607
sg71
g5601
sg64
(lp5608
g57
(g58
g59
NtRp5609
(dp5610
g62
(dp5611
g70
I2
ssg71
g5605
sg64
(lp5612
g57
(g66
g59
NtRp5613
(dp5614
g62
(dp5615
g70
I1
ssg71
Nsg64
(lp5616
g57
(g73
g59
NtRp5617
(dp5618
g62
(dp5619
sg71
g5613
sg64
(lp5620
g57
(g78
g59
NtRp5621
(dp5622
g62
(dp5623
sg71
g5617
sg64
(lp5624
g57
(g58
g59
NtRp5625
(dp5626
g62
(dp5627
g70
I1
ssg71
g5621
sg64
(lp5628
g5053
(S's\x07\x00\x00\x00Plugins'
tRp5629
asbasbasbag57
(g73
g59
NtRp5630
(dp5631
g62
(dp5632
sg71
g5613
sg64
(lp5633
g57
(g78
g59
NtRp5634
(dp5635
g62
(dp5636
sg71
g5630
sg64
(lp5637
g57
(g58
g59
NtRp5638
(dp5639
g62
(dp5640
g70
I1
ssg71
g5634
sg64
(lp5641
I00
asbasbasbag57
(g73
g59
NtRp5642
(dp5643
g62
(dp5644
sg71
g5613
sg64
(lp5645
g57
(g78
g59
NtRp5646
(dp5647
g62
(dp5648
sg71
g5642
sg64
(lp5649
g57
(g58
g59
NtRp5650
(dp5651
g62
(dp5652
g70
I1
ssg71
g5646
sg64
(lp5653
Nasbasbasbag57
(g73
g59
NtRp5654
(dp5655
g62
(dp5656
sg71
g5613
sg64
(lp5657
g57
(g78
g59
NtRp5658
(dp5659
g62
(dp5660
sg71
g5654
sg64
(lp5661
g57
(g58
g59
NtRp5662
(dp5663
g62
(dp5664
g70
I1
ssg71
g5658
sg64
(lp5665
(lp5666
(S'plugin_wiki'
p5667
I00
S'http://web2py.com/examples/default/download'
p5668
tp5669
a(g5053
(S's\r\x00\x00\x00Other Plugins'
tRp5670
I00
g5400
tp5671
a(g5053
(S's\x0e\x00\x00\x00Layout Plugins'
tRp5672
I00
g5403
tp5673
aasbasbasbasbasbasbasbasbasbasbasbasbasbasbasbasbasbasbasbag57
(g73
g59
NtRp5674
(dp5675
g62
(dp5676
sg71
g4562
sg64
(lp5677
g57
(g78
g59
NtRp5678
(dp5679
g62
(dp5680
g82
g83
ssg71
g5674
sg64
(lp5681
S'meta'
p5682
asbag57
(g78
g59
NtRp5683
(dp5684
g62
(dp5685
g89
g90
ssg71
g5674
sg64
(lp5686
S':'
asbag57
(g78
g59
NtRp5687
(dp5688
g62
(dp5689
sg71
g5674
sg64
(lp5690
g57
(g58
g59
NtRp5691
(dp5692
g62
(dp5693
g70
I5
ssg71
g5687
sg64
(lp5694
g57
(g66
g59
NtRp5695
(dp5696
g62
(dp5697
g70
I4
ssg71
Nsg64
(lp5698
g57
(g73
g59
NtRp5699
(dp5700
g62
(dp5701
sg71
g5695
sg64
(lp5702
g57
(g78
g59
NtRp5703
(dp5704
g62
(dp5705
g82
g83
ssg71
g5699
sg64
(lp5706
S'author'
p5707
asbag57
(g78
g59
NtRp5708
(dp5709
g62
(dp5710
g89
g90
ssg71
g5699
sg64
(lp5711
S':'
asbag57
(g78
g59
NtRp5712
(dp5713
g62
(dp5714
sg71
g5699
sg64
(lp5715
g57
(g58
g59
NtRp5716
(dp5717
g62
(dp5718
g70
I4
ssg71
g5712
sg64
(lp5719
S'Your Name <you@example.com>'
p5720
asbasbasbag57
(g73
g59
NtRp5721
(dp5722
g62
(dp5723
sg71
g5695
sg64
(lp5724
g57
(g78
g59
NtRp5725
(dp5726
g62
(dp5727
g82
g83
ssg71
g5721
sg64
(lp5728
S'description'
p5729
asbag57
(g78
g59
NtRp5730
(dp5731
g62
(dp5732
g89
g90
ssg71
g5721
sg64
(lp5733
S':'
asbag57
(g78
g59
NtRp5734
(dp5735
g62
(dp5736
sg71
g5721
sg64
(lp5737
g57
(g58
g59
NtRp5738
(dp5739
g62
(dp5740
g70
I4
ssg71
g5734
sg64
(lp5741
S'a cool new app'
p5742
asbasbasbag57
(g73
g59
NtRp5743
(dp5744
g62
(dp5745
sg71
g5695
sg64
(lp5746
g57
(g78
g59
NtRp5747
(dp5748
g62
(dp5749
g82
g83
ssg71
g5743
sg64
(lp5750
S'generator'
p5751
asbag57
(g78
g59
NtRp5752
(dp5753
g62
(dp5754
g89
g90
ssg71
g5743
sg64
(lp5755
S':'
asbag57
(g78
g59
NtRp5756
(dp5757
g62
(dp5758
sg71
g5743
sg64
(lp5759
g57
(g58
g59
NtRp5760
(dp5761
g62
(dp5762
g70
I4
ssg71
g5756
sg64
(lp5763
S'Web2py Web Framework'
p5764
asbasbasbag57
(g73
g59
NtRp5765
(dp5766
g62
(dp5767
sg71
g5695
sg64
(lp5768
g57
(g78
g59
NtRp5769
(dp5770
g62
(dp5771
g82
g83
ssg71
g5765
sg64
(lp5772
S'keywords'
p5773
asbag57
(g78
g59
NtRp5774
(dp5775
g62
(dp5776
g89
g90
ssg71
g5765
sg64
(lp5777
S':'
asbag57
(g78
g59
NtRp5778
(dp5779
g62
(dp5780
sg71
g5765
sg64
(lp5781
g57
(g58
g59
NtRp5782
(dp5783
g62
(dp5784
g70
I4
ssg71
g5778
sg64
(lp5785
S'web2py, python, framework'
p5786
asbasbasbasbasbasbasbag57
(g73
g59
NtRp5787
(dp5788
g62
(dp5789
sg71
g4562
sg64
(lp5790
g57
(g78
g59
NtRp5791
(dp5792
g62
(dp5793
g82
g83
ssg71
g5787
sg64
(lp5794
S'models_to_run'
p5795
asbag57
(g78
g59
NtRp5796
(dp5797
g62
(dp5798
g89
g90
ssg71
g5787
sg64
(lp5799
S':'
asbag57
(g78
g59
NtRp5800
(dp5801
g62
(dp5802
sg71
g5787
sg64
(lp5803
g57
(g58
g59
NtRp5804
(dp5805
g62
(dp5806
g70
I5
ssg71
g5800
sg64
(lp5807
g57
(g66
g59
NtRp5808
(dp5809
g62
(dp5810
g70
I4
ssg71
Nsg64
(lp5811
g57
(g73
g59
NtRp5812
(dp5813
g62
(dp5814
sg71
g5808
sg64
(lp5815
g57
(g78
g59
NtRp5816
(dp5817
g62
(dp5818
sg71
g5812
sg64
(lp5819
g57
(g58
g59
NtRp5820
(dp5821
g62
(dp5822
g70
I4
ssg71
g5816
sg64
(lp5823
S'^\\w+\\.py$'
p5824
asbasbasbag57
(g73
g59
NtRp5825
(dp5826
g62
(dp5827
sg71
g5808
sg64
(lp5828
g57
(g78
g59
NtRp5829
(dp5830
g62
(dp5831
sg71
g5825
sg64
(lp5832
g57
(g58
g59
NtRp5833
(dp5834
g62
(dp5835
g70
I4
ssg71
g5829
sg64
(lp5836
S'^default/\\w+\\.py$'
p5837
asbasbasbag57
(g73
g59
NtRp5838
(dp5839
g62
(dp5840
sg71
g5808
sg64
(lp5841
g57
(g78
g59
NtRp5842
(dp5843
g62
(dp5844
sg71
g5838
sg64
(lp5845
g57
(g58
g59
NtRp5846
(dp5847
g62
(dp5848
g70
I4
ssg71
g5842
sg64
(lp5849
S'^default/protocol/\\w+\\.py$'
p5850
asbasbasbasbasbasbasbag57
(g73
g59
NtRp5851
(dp5852
g62
(dp5853
sg71
g4562
sg64
(lp5854
g57
(g78
g59
NtRp5855
(dp5856
g62
(dp5857
g82
g83
ssg71
g5851
sg64
(lp5858
S'postprocessing'
p5859
asbag57
(g78
g59
NtRp5860
(dp5861
g62
(dp5862
g89
g90
ssg71
g5851
sg64
(lp5863
S':'
asbag57
(g78
g59
NtRp5864
(dp5865
g62
(dp5866
sg71
g5851
sg64
(lp5867
g57
(g58
g59
NtRp5868
(dp5869
g62
(dp5870
g70
I5
ssg71
g5864
sg64
(lp5871
g57
(g66
g59
NtRp5872
(dp5873
g62
(dp5874
g70
I4
ssg71
Nsg64
(lp5875
sbasbasbasbag57
(g73
g59
NtRp5876
(dp5877
g62
(dp5878
sg71
g4562
sg64
(lp5879
g57
(g78
g59
NtRp5880
(dp5881
g62
(dp5882
g82
g83
ssg71
g5876
sg64
(lp5883
S'session_cookie_expires'
p5884
asbag57
(g78
g59
NtRp5885
(dp5886
g62
(dp5887
g89
g90
ssg71
g5876
sg64
(lp5888
S':'
asbag57
(g78
g59
NtRp5889
(dp5890
g62
(dp5891
sg71
g5876
sg64
(lp5892
g57
(g58
g59
NtRp5893
(dp5894
g62
(dp5895
g70
I5
ssg71
g5889
sg64
(lp5896
S'None'
p5897
asbasbasbag57
(g73
g59
NtRp5898
(dp5899
g62
(dp5900
sg71
g4562
sg64
(lp5901
g57
(g78
g59
NtRp5902
(dp5903
g62
(dp5904
g82
g83
ssg71
g5898
sg64
(lp5905
S'session_data_name'
p5906
asbag57
(g78
g59
NtRp5907
(dp5908
g62
(dp5909
g89
g90
ssg71
g5898
sg64
(lp5910
S':'
asbag57
(g78
g59
NtRp5911
(dp5912
g62
(dp5913
sg71
g5898
sg64
(lp5914
g57
(g58
g59
NtRp5915
(dp5916
g62
(dp5917
g70
I5
ssg71
g5911
sg64
(lp5918
S'session_data_betsy'
p5919
asbasbasbag57
(g73
g59
NtRp5920
(dp5921
g62
(dp5922
sg71
g4562
sg64
(lp5923
g57
(g78
g59
NtRp5924
(dp5925
g62
(dp5926
g82
g83
ssg71
g5920
sg64
(lp5927
S'session_file'
p5928
asbag57
(g78
g59
NtRp5929
(dp5930
g62
(dp5931
g89
g90
ssg71
g5920
sg64
(lp5932
S':'
asbag57
(g78
g59
NtRp5933
(dp5934
g62
(dp5935
sg71
g5920
sg64
(lp5936
g57
(g58
g59
NtRp5937
(dp5938
g62
(dp5939
g70
I5
ssg71
g5933
sg64
(lp5940
S"<open file '/home/xchen/web2py/applications/Betsy/sessions/127.0.0.1-70d52105-0f5d-4884-a4e3-dce6830f30e0', mode 'rb+' at 0x18220ed0>"
p5941
asbasbasbag57
(g73
g59
NtRp5942
(dp5943
g62
(dp5944
sg71
g4562
sg64
(lp5945
g57
(g78
g59
NtRp5946
(dp5947
g62
(dp5948
g82
g83
ssg71
g5942
sg64
(lp5949
S'session_filename'
p5950
asbag57
(g78
g59
NtRp5951
(dp5952
g62
(dp5953
g89
g90
ssg71
g5942
sg64
(lp5954
S':'
asbag57
(g78
g59
NtRp5955
(dp5956
g62
(dp5957
sg71
g5942
sg64
(lp5958
g57
(g58
g59
NtRp5959
(dp5960
g62
(dp5961
g70
I5
ssg71
g5955
sg64
(lp5962
S'/home/xchen/web2py/applications/Betsy/sessions/127.0.0.1-70d52105-0f5d-4884-a4e3-dce6830f30e0'
p5963
asbasbasbag57
(g73
g59
NtRp5964
(dp5965
g62
(dp5966
sg71
g4562
sg64
(lp5967
g57
(g78
g59
NtRp5968
(dp5969
g62
(dp5970
g82
g83
ssg71
g5964
sg64
(lp5971
S'session_id'
p5972
asbag57
(g78
g59
NtRp5973
(dp5974
g62
(dp5975
g89
g90
ssg71
g5964
sg64
(lp5976
S':'
asbag57
(g78
g59
NtRp5977
(dp5978
g62
(dp5979
sg71
g5964
sg64
(lp5980
g57
(g58
g59
NtRp5981
(dp5982
g62
(dp5983
g70
I5
ssg71
g5977
sg64
(lp5984
g475
asbasbasbag57
(g73
g59
NtRp5985
(dp5986
g62
(dp5987
sg71
g4562
sg64
(lp5988
g57
(g78
g59
NtRp5989
(dp5990
g62
(dp5991
g82
g83
ssg71
g5985
sg64
(lp5992
S'session_id_name'
p5993
asbag57
(g78
g59
NtRp5994
(dp5995
g62
(dp5996
g89
g90
ssg71
g5985
sg64
(lp5997
S':'
asbag57
(g78
g59
NtRp5998
(dp5999
g62
(dp6000
sg71
g5985
sg64
(lp6001
g57
(g58
g59
NtRp6002
(dp6003
g62
(dp6004
g70
I5
ssg71
g5998
sg64
(lp6005
g4619
asbasbasbag57
(g73
g59
NtRp6006
(dp6007
g62
(dp6008
sg71
g4562
sg64
(lp6009
g57
(g78
g59
NtRp6010
(dp6011
g62
(dp6012
g82
g83
ssg71
g6006
sg64
(lp6013
S'session_locked'
p6014
asbag57
(g78
g59
NtRp6015
(dp6016
g62
(dp6017
g89
g90
ssg71
g6006
sg64
(lp6018
S':'
asbag57
(g78
g59
NtRp6019
(dp6020
g62
(dp6021
sg71
g6006
sg64
(lp6022
g57
(g58
g59
NtRp6023
(dp6024
g62
(dp6025
g70
I5
ssg71
g6019
sg64
(lp6026
g1768
asbasbasbag57
(g73
g59
NtRp6027
(dp6028
g62
(dp6029
sg71
g4562
sg64
(lp6030
g57
(g78
g59
NtRp6031
(dp6032
g62
(dp6033
g82
g83
ssg71
g6027
sg64
(lp6034
S'session_new'
p6035
asbag57
(g78
g59
NtRp6036
(dp6037
g62
(dp6038
g89
g90
ssg71
g6027
sg64
(lp6039
S':'
asbag57
(g78
g59
NtRp6040
(dp6041
g62
(dp6042
sg71
g6027
sg64
(lp6043
g57
(g58
g59
NtRp6044
(dp6045
g62
(dp6046
g70
I5
ssg71
g6040
sg64
(lp6047
g100
asbasbasbag57
(g73
g59
NtRp6048
(dp6049
g62
(dp6050
sg71
g4562
sg64
(lp6051
g57
(g78
g59
NtRp6052
(dp6053
g62
(dp6054
g82
g83
ssg71
g6048
sg64
(lp6055
S'session_storage_type'
p6056
asbag57
(g78
g59
NtRp6057
(dp6058
g62
(dp6059
g89
g90
ssg71
g6048
sg64
(lp6060
S':'
asbag57
(g78
g59
NtRp6061
(dp6062
g62
(dp6063
sg71
g6048
sg64
(lp6064
g57
(g58
g59
NtRp6065
(dp6066
g62
(dp6067
g70
I5
ssg71
g6061
sg64
(lp6068
g3199
asbasbasbag57
(g73
g59
NtRp6069
(dp6070
g62
(dp6071
sg71
g4562
sg64
(lp6072
g57
(g78
g59
NtRp6073
(dp6074
g62
(dp6075
g82
g83
ssg71
g6069
sg64
(lp6076
S'status'
p6077
asbag57
(g78
g59
NtRp6078
(dp6079
g62
(dp6080
g89
g90
ssg71
g6069
sg64
(lp6081
S':'
asbag57
(g78
g59
NtRp6082
(dp6083
g62
(dp6084
sg71
g6069
sg64
(lp6085
g57
(g58
g59
NtRp6086
(dp6087
g62
(dp6088
g70
I5
ssg71
g6082
sg64
(lp6089
S'200'
p6090
asbasbasbag57
(g73
g59
NtRp6091
(dp6092
g62
(dp6093
sg71
g4562
sg64
(lp6094
g57
(g78
g59
NtRp6095
(dp6096
g62
(dp6097
g82
g83
ssg71
g6091
sg64
(lp6098
S'subtitle'
p6099
asbag57
(g78
g59
NtRp6100
(dp6101
g62
(dp6102
g89
g90
ssg71
g6091
sg64
(lp6103
S':'
asbag57
(g78
g59
NtRp6104
(dp6105
g62
(dp6106
sg71
g6091
sg64
(lp6107
g57
(g58
g59
NtRp6108
(dp6109
g62
(dp6110
g70
I5
ssg71
g6104
sg64
(lp6111
g5053
(S's\r\x00\x00\x00customize me!'
tRp6112
asbasbasbag57
(g73
g59
NtRp6113
(dp6114
g62
(dp6115
sg71
g4562
sg64
(lp6116
g57
(g78
g59
NtRp6117
(dp6118
g62
(dp6119
g82
g83
ssg71
g6113
sg64
(lp6120
S'title'
p6121
asbag57
(g78
g59
NtRp6122
(dp6123
g62
(dp6124
g89
g90
ssg71
g6113
sg64
(lp6125
S':'
asbag57
(g78
g59
NtRp6126
(dp6127
g62
(dp6128
sg71
g6113
sg64
(lp6129
g57
(g58
g59
NtRp6130
(dp6131
g62
(dp6132
g70
I5
ssg71
g6126
sg64
(lp6133
S'Betsy'
p6134
asbasbasbag57
(g73
g59
NtRp6135
(dp6136
g62
(dp6137
sg71
g4562
sg64
(lp6138
g57
(g78
g59
NtRp6139
(dp6140
g62
(dp6141
g82
g83
ssg71
g6135
sg64
(lp6142
S'view'
p6143
asbag57
(g78
g59
NtRp6144
(dp6145
g62
(dp6146
g89
g90
ssg71
g6135
sg64
(lp6147
S':'
asbag57
(g78
g59
NtRp6148
(dp6149
g62
(dp6150
sg71
g6135
sg64
(lp6151
g57
(g58
g59
NtRp6152
(dp6153
g62
(dp6154
g70
I5
ssg71
g6148
sg64
(lp6155
S'default/protocol.html'
p6156
asbasbasbasbasbsS'locals'
p6157
(dp6158
S'fields'
p6159
S'[<gluon.dal.Field object>, <gluon.dal.Field object>, <gluon.dal.Field object>, <gluon.dal.Field object>, <gluon.dal.Field object>, <gluon.dal.Field object>, <gluon.dal.Field object>, <gluon.dal.Field object>, <gluon.dal.Field object>, <gluon.dal.Field object>, <gluon.dal.Field object>, <gluon.dal.Field object>, <gluon.dal.Field object>, <gluon.dal.Field object>, <gluon.dal.Field object>, <gluon.dal.Field object>, <gluon.dal.Field object>, <gluon.dal.Field object>, <gluon.dal.Field object>, <gluon.dal.Field object>, ...]'
p6160
sS'form_queue'
p6161
S'<gluon.html.FORM object>'
p6162
sS'form'
p6163
S'<gluon.sqlhtml.SQLFORM object>'
p6164
sssS'traceback'
p6165
S'Traceback (most recent call last):\n  File "/home/xchen/web2py/gluon/restricted.py", line 212, in restricted\n    exec ccode in environment\n  File "/home/xchen/web2py/applications/Betsy/controllers/default.py", line 282, in <module>\n  File "/home/xchen/web2py/gluon/globals.py", line 188, in <lambda>\n    self._caller = lambda f: f()\n  File "/home/xchen/web2py/applications/Betsy/controllers/default.py", line 38, in protocol\n    return dict(form=form,form_queue=form_queue,protocol_label=label,protocol_inputs=vars()[session.label+\'_parameters\'])\nKeyError: \'normalize_file_parameters\'\n'
p6166
s.