(dp1
S'output'
p2
S"<type 'exceptions.SyntaxError'> invalid syntax (show_job.html, line 90)"
p3
sS'layer'
p4
S'/home/xchen/web2py/applications/Betsy/views/default/show_job.html'
p5
sS'code'
p6
S'response.write(\'<!DOCTYPE html>\\n<!-- paulirish.com/2008/conditional-stylesheets-vs-css-hacks-answer-neither/ -->\\n<!--[if lt IE 7]><html class="ie ie6 ie-lte9 ie-lte8 ie-lte7 no-js" lang="\', escape=False)\nresponse.write(T.accepted_language or \'en\')\nresponse.write(\'"> <![endif]-->\\n<!--[if IE 7]><html class="ie ie7 ie-lte9 ie-lte8 ie-lte7 no-js" lang="\', escape=False)\nresponse.write(T.accepted_language or \'en\')\nresponse.write(\'"> <![endif]-->\\n<!--[if IE 8]><html class="ie ie8 ie-lte9 ie-lte8 no-js" lang="\', escape=False)\nresponse.write(T.accepted_language or \'en\')\nresponse.write(\'"> <![endif]-->\\n<!--[if IE 9]><html class="ie9 ie-lte9 no-js" lang="\', escape=False)\nresponse.write(T.accepted_language or \'en\')\nresponse.write(\'"> <![endif]-->\\n<!--[if (gt IE 9)|!(IE)]><!--> <html class="no-js" lang="\', escape=False)\nresponse.write(T.accepted_language or \'en\')\nresponse.write(\'"> <!--<![endif]-->\\n<head>\\n  <meta charset="utf-8" />\\n  <!-- www.phpied.com/conditional-comments-block-downloads/ -->\\n  <!-- Always force latest IE rendering engine\\n       (even in intranet) & Chrome Frame\\n       Remove this if you use the .htaccess -->\\n  <!--[if IE]>\\n      <meta http-equiv="X-UA-Compatible" content="IE=edge\', escape=False)\nresponse.write(not request.is_local and \',chrome=1\' or \'\')\nresponse.write(\'">\\n      <![endif]-->\\n\\n  <title>\', escape=False)\nresponse.write(response.title or request.application)\nresponse.write(\'</title>\\n\\n  <!-- http://dev.w3.org/html5/markup/meta.name.html -->\\n  <meta name="application-name" content="\', escape=False)\nresponse.write(request.application)\nresponse.write(\'" />\\n\\n  <!-- Speaking of Google, don\\\'t forget to set your site up:\\n       http://google.com/webmasters -->\\n  <meta name="google-site-verification" content="" />\\n\\n  <!--  Mobile Viewport Fix\\n        j.mp/mobileviewport & davidbcalhoun.com/2010/viewport-metatag\\n        device-width: Occupy full width of the screen in its current orientation\\n        initial-scale = 1.0 retains dimensions instead of zooming out if page height > device height\\n        user-scalable = yes allows the user to zoom in -->\\n  <meta name="viewport" content="width=device-width, initial-scale=1.0">\\n\\n  <link rel="shortcut icon" href="\', escape=False)\nresponse.write(URL(\'static\',\'images/favicon.ico\'))\nresponse.write(\'" type="image/x-icon">\\n  <link rel="apple-touch-icon" href="\', escape=False)\nresponse.write(URL(\'static\',\'images/favicon.png\'))\nresponse.write(\'">\\n\\n  <!-- All JavaScript at the bottom, except for Modernizr which enables\\n       HTML5 elements & feature detects -->\\n  <script src="\', escape=False)\nresponse.write(URL(\'static\',\'js/modernizr.custom.js\'))\nresponse.write(\'"></script>\\n\\n  <!-- include stylesheets -->\\n  \', escape=False)\nresponse.files.append(URL(\'static\',\'css/web2py.css\'))\nresponse.files.append(URL(\'static\',\'css/bootstrap.min.css\'))\nresponse.files.append(URL(\'static\',\'css/bootstrap-responsive.min.css\'))\nresponse.files.append(URL(\'static\',\'css/web2py_bootstrap.css\'))\nresponse.write(\'\\n\\n  \', escape=False)\nresponse.write(\'<script type="text/javascript"><!--\\n    // These variables are used by the web2py_ajax_init function in web2py_ajax.js (which is loaded below).\\n    var w2p_ajax_confirm_message = "\', escape=False)\nresponse.write(T(\'Are you sure you want to delete this object?\'))\nresponse.write(\'";\\n    var w2p_ajax_date_format = "\', escape=False)\nresponse.write(T(\'%Y-%m-%d\'))\nresponse.write(\'";\\n    var w2p_ajax_datetime_format = "\', escape=False)\nresponse.write(T(\'%Y-%m-%d %H:%M:%S\'))\nresponse.write(\'";\\n    //--></script>\\n\', escape=False)\nresponse.files.insert(0,URL(\'static\',\'js/jquery.js\'))\nresponse.files.insert(1,URL(\'static\',\'css/calendar.css\'))\nresponse.files.insert(2,URL(\'static\',\'js/calendar.js\'))\nresponse.files.insert(3,URL(\'static\',\'js/web2py.js\'))\nresponse.include_meta()\nresponse.include_files()\nresponse.write(\'\\n\', escape=False)\nresponse.write(\'\\n\\n  \', escape=False)\n# using sidebars need to know what sidebar you want to use\nleft_sidebar_enabled = globals().get(\'left_sidebar_enabled\',False)\nright_sidebar_enabled = globals().get(\'right_sidebar_enabled\',False)\nmiddle_columns = {0:\'span12\',1:\'span9\',2:\'span6\'}[\n(left_sidebar_enabled and 1 or 0)+(right_sidebar_enabled and 1 or 0)]\nresponse.write(\'\\n\\n  <!-- uncomment here to load jquery-ui\\n       <link rel="stylesheet" href="http://ajax.googleapis.com/ajax/libs/jqueryui/1.8.16/themes/base/jquery-ui.css" type="text/css" media="all" />\\n       <script src="http://ajax.googleapis.com/ajax/libs/jqueryui/1.8.16/jquery-ui.min.js" type="text/javascript"></script>\\n       uncomment to load jquery-ui //-->\\n  <noscript><link href="\', escape=False)\nresponse.write(URL(\'static\', \'css/web2py_bootstrap_nojs.css\'))\nresponse.write(\'" rel="stylesheet" type="text/css" /></noscript>\\n  \', escape=False)\nresponse.write(\'\\n</head>\\n\\n<body>\\n  <!-- Navbar ================================================== -->\\n  <div class="navbar navbar-inverse navbar-fixed-top">\\n    <div class="flash">\', escape=False)\nresponse.write(response.flash or \'\')\nresponse.write(\'</div>\\n    <div class="navbar-inner">\\n      <div class="container">\\n        <!-- the next tag is necessary for bootstrap menus, do not remove -->\\n        <button type="button" class="btn btn-navbar" data-toggle="collapse" data-target=".nav-collapse">\\n          <span class="icon-bar"></span>\\n          <span class="icon-bar"></span>\\n          <span class="icon-bar"></span>\\n        </button>\\n        <a class="brand" href="http://www.web2py.com/"><b>web<span>2</span>py</b>&trade;&nbsp;</a>\\n        <ul id="navbar" class="nav pull-right">\', escape=False)\nresponse.write(\'auth\' in globals() and auth.navbar(mode="dropdown") or \'\')\nresponse.write(\'</ul>\\n        <div class="nav-collapse">\\n          \', escape=False)\nis_mobile=request.user_agent().is_mobile\nresponse.write(\'\\n          \', escape=False)\nif response.menu:\n    response.write(\'\\n          \', escape=False)\n    response.write(MENU(response.menu, _class=\'mobile-menu nav\' if is_mobile else \'nav\',mobile=is_mobile,li_class=\'dropdown\',ul_class=\'dropdown-menu\'))\n    response.write(\'\\n          \', escape=False)\n    pass\nresponse.write(\'\\n        </div><!--/.nav-collapse -->\\n      </div>\\n    </div>\\n  </div><!--/top navbar -->\\n\\n  <div class="container">\\n    <!-- Masthead ================================================== -->\\n    <header class="mastheader row" id="header">\\n        <div class="span12">\\n            <div class="page-header">\\n                <h1>\\n                    \', escape=False)\nresponse.write(response.title or request.application)\nresponse.write(\'\\n                    <small>\', escape=False)\nresponse.write(response.subtitle or \'\')\nresponse.write(\'</small>\\n                </h1>\\n            </div>\\n        </div>\\n    </header>\\n\\n    <section id="main" class="main row">\\n        \', escape=False)\nif left_sidebar_enabled:\n    response.write(\'\\n        <div class="span3 left-sidebar">\\n            \', escape=False)\n    response.write(\'\\n            <h3>Left Sidebar</h3>\\n            <p></p>\\n            \', escape=False)\n    response.write(\'\\n        </div>\\n        \', escape=False)\n    pass\nresponse.write(\'\\n\\n        <div class="\', escape=False)\nresponse.write(middle_columns)\nresponse.write(\'">\\n            \', escape=False)\nresponse.write(\'\\n            \', escape=False)\nresponse.write(\'\\n<h1>Job number: \', escape=False)\nresponse.write(job.Jobnumber)\nresponse.write(\'</h1>\\n<h2>\', escape=False)\nresponse.write(info)\nresponse.write(\'</h2>\\n<!--\', escape=False)\nresponse.write(text)\nresponse.write(\'-->\\n<!--\', escape=False)\nfor line in text:\n    response.write(\'\\n\\t\\n\\t\', escape=False)\n    if os.path.exists(line):\n        response.write(\'\\n\\t\\t\', escape=False)\n        response.write(A(line,_href=URL(line))\n        response.write(\'<br />\\n\\t\', escape=False)\n    else:\n        response.write(\'\\n\\t\', escape=False)\n        response.write(line)\n        response.write(\'<br />\\n\\t<!--\', escape=False)\n        pass\n    response.write(\'\\n\', escape=False)\n    pass\nresponse.write(\'-->\\n\', escape=False)\nresponse.write(\'\\n            \', escape=False)\nresponse.write(\'\\n        </div>\\n\\n        \', escape=False)\nif right_sidebar_enabled:\n    response.write(\'\\n        <div class="span3">\\n            \', escape=False)\n    response.write(\'\\n            <h3>Right Sidebar</h3>\\n            <p></p>\\n            \', escape=False)\n    response.write(\'\\n        </div>\\n        \', escape=False)\n    pass\nresponse.write(\'\\n    </section><!--/main-->\\n\\n    <!-- Footer ================================================== -->\\n    <div class="row">\\n        <footer class="footer span12" id="footer">\\n            <div class="footer-content">\\n                \', escape=False)\nresponse.write(\' <!-- this is default footer -->\\n                <div class="copyright pull-left">\', escape=False)\nresponse.write(T(\'Copyright\'))\nresponse.write(\' &#169; \', escape=False)\nresponse.write(request.now.year)\nresponse.write(\'</div>\\n                <div id="poweredBy" class="pull-right">\\n                    \', escape=False)\nresponse.write(T(\'Powered by\'))\nresponse.write(\'\\n                    <a href="http://www.web2py.com/">web2py</a>\\n                </div>\\n                \', escape=False)\nresponse.write(\'\\n            </div>\\n        </footer>\\n    </div>\\n\\n  </div> <!-- /container -->\\n\\n  <!-- The javascript =============================================\\n       (Placed at the end of the document so the pages load faster) -->\\n  <script src="\', escape=False)\nresponse.write(URL(\'static\',\'js/bootstrap.min.js\'))\nresponse.write(\'"></script>\\n  <script src="\', escape=False)\nresponse.write(URL(\'static\',\'js/web2py_bootstrap.js\'))\nresponse.write(\'"></script>\\n  <!--[if lt IE 7 ]>\\n      <script src="\', escape=False)\nresponse.write(URL(\'static\',\'js/dd_belatedpng.js\'))\nresponse.write(\'"></script>\\n      <script> DD_belatedPNG.fix(\\\'img, .png_bg\\\'); //fix any <img> or .png_bg background-images </script>\\n      <![endif]-->\\n  \', escape=False)\nif response.google_analytics_id:\n    response.write(\'<script type="text/javascript"> var _gaq = _gaq || []; _gaq.push([\\\'_setAccount\\\', \\\'\', escape=False)\n    response.write(response.google_analytics_id)\n    response.write("\']); _gaq.push([\'_trackPageview\']); (function() { var ga = document.createElement(\'script\'); ga.type = \'text/javascript\'; ga.async = true; ga.src = (\'https:\' == document.location.protocol ? \'https://ssl\' : \'http://www\') + \'.google-analytics.com/ga.js\'; var s = document.getElementsByTagName(\'script\')[0]; s.parentNode.insertBefore(ga, s); })(); </script> ", escape=False)\n    pass\nresponse.write(\'\\n  <script src="\', escape=False)\nresponse.write(URL(\'static\',\'js/share.js\',vars=dict(static=URL(\'static\',\'images\'))))\nresponse.write(\'"></script>\\n</body>\\n</html>\\n\\n\', escape=False)'
p7
sS'snapshot'
p8
(dp9
S'exception'
p10
(dp11
S'__getslice__'
p12
S"<method-wrapper '__getslice__' of exceptions.SyntaxError object>"
p13
sS'text'
p14
S'"        response.write(\'<br />\\\\n\\\\t\', escape=False)\\n"'
p15
sS'__str__'
p16
S"<method-wrapper '__str__' of exceptions.SyntaxError object>"
p17
sS'__reduce__'
p18
S'<built-in method __reduce__ of exceptions.SyntaxError object>'
p19
sS'__dict__'
p20
S'{}'
p21
sS'__sizeof__'
p22
S'<built-in method __sizeof__ of exceptions.SyntaxError object>'
p23
sS'__init__'
p24
S"<method-wrapper '__init__' of exceptions.SyntaxError object>"
p25
sS'__setattr__'
p26
S"<method-wrapper '__setattr__' of exceptions.SyntaxError object>"
p27
sS'__reduce_ex__'
p28
S'<built-in method __reduce_ex__ of exceptions.SyntaxError object>'
p29
sS'__new__'
p30
S'<built-in method __new__ of type object>'
p31
sS'__format__'
p32
S'<built-in method __format__ of exceptions.SyntaxError object>'
p33
sS'__class__'
p34
S"<type 'exceptions.SyntaxError'>"
p35
sS'filename'
p36
S"'/home/xchen/web2py/applications/Betsy/views/default/show_job.html'"
p37
sS'lineno'
p38
S'90'
p39
sS'msg'
p40
S"'invalid syntax'"
p41
sS'__doc__'
p42
S"'Invalid syntax.'"
p43
sS'__getitem__'
p44
S"<method-wrapper '__getitem__' of exceptions.SyntaxError object>"
p45
sS'__setstate__'
p46
S'<built-in method __setstate__ of exceptions.SyntaxError object>'
p47
sS'__getattribute__'
p48
S"<method-wrapper '__getattribute__' of exceptions.SyntaxError object>"
p49
sS'print_file_and_line'
p50
S'None'
p51
sS'args'
p52
S'(\'invalid syntax\', (\'/home/xchen/web2py/applications/Betsy/views/default/show_job.html\', 90, 16, "        response.write(\'<br />\\\\n\\\\t\', escape=False)\\n"))'
p53
sS'__subclasshook__'
p54
S'<built-in method __subclasshook__ of type object>'
p55
sS'offset'
p56
S'16'
p57
sS'__unicode__'
p58
S'<built-in method __unicode__ of exceptions.SyntaxError object>'
p59
sS'__delattr__'
p60
S"<method-wrapper '__delattr__' of exceptions.SyntaxError object>"
p61
sS'__repr__'
p62
S"<method-wrapper '__repr__' of exceptions.SyntaxError object>"
p63
sS'__hash__'
p64
S"<method-wrapper '__hash__' of exceptions.SyntaxError object>"
p65
ssS'evalue'
p66
S'invalid syntax (show_job.html, line 90)'
p67
sS'request'
p68
ccopy_reg
_reconstructor
p69
(cgluon.html
BEAUTIFY
p70
c__builtin__
object
p71
NtRp72
(dp73
S'attributes'
p74
(dp75
sS'components'
p76
(lp77
g69
(cgluon.html
TABLE
p78
g71
NtRp79
(dp80
g74
(dp81
S'level'
p82
I5
ssS'parent'
p83
Nsg76
(lp84
g69
(cgluon.html
TR
p85
g71
NtRp86
(dp87
g74
(dp88
sg83
g79
sg76
(lp89
g69
(cgluon.html
TD
p90
g71
NtRp91
(dp92
g74
(dp93
S'_style'
p94
S'font-weight:bold;vertical-align:top'
p95
ssg83
g86
sg76
(lp96
S'ajax'
p97
asbag69
(g90
g71
NtRp98
(dp99
g74
(dp100
S'_valign'
p101
S'top'
p102
ssg83
g86
sg76
(lp103
S':'
asbag69
(g90
g71
NtRp104
(dp105
g74
(dp106
sg83
g86
sg76
(lp107
g69
(g70
g71
NtRp108
(dp109
g74
(dp110
g82
I5
ssg83
g104
sg76
(lp111
S'False'
p112
asbasbasbag69
(g85
g71
NtRp113
(dp114
g74
(dp115
sg83
g79
sg76
(lp116
g69
(g90
g71
NtRp117
(dp118
g74
(dp119
g94
g95
ssg83
g113
sg76
(lp120
S'application'
p121
asbag69
(g90
g71
NtRp122
(dp123
g74
(dp124
g101
g102
ssg83
g113
sg76
(lp125
S':'
asbag69
(g90
g71
NtRp126
(dp127
g74
(dp128
sg83
g113
sg76
(lp129
g69
(g70
g71
NtRp130
(dp131
g74
(dp132
g82
I5
ssg83
g126
sg76
(lp133
S'Betsy'
p134
asbasbasbag69
(g85
g71
NtRp135
(dp136
g74
(dp137
sg83
g79
sg76
(lp138
g69
(g90
g71
NtRp139
(dp140
g74
(dp141
g94
g95
ssg83
g135
sg76
(lp142
g52
asbag69
(g90
g71
NtRp143
(dp144
g74
(dp145
g101
g102
ssg83
g135
sg76
(lp146
S':'
asbag69
(g90
g71
NtRp147
(dp148
g74
(dp149
sg83
g135
sg76
(lp150
g69
(g70
g71
NtRp151
(dp152
g74
(dp153
g82
I5
ssg83
g147
sg76
(lp154
g69
(g78
g71
NtRp155
(dp156
g74
(dp157
g82
I4
ssg83
Nsg76
(lp158
g69
(g85
g71
NtRp159
(dp160
g74
(dp161
sg83
g155
sg76
(lp162
g69
(g90
g71
NtRp163
(dp164
g74
(dp165
sg83
g159
sg76
(lp166
g69
(g70
g71
NtRp167
(dp168
g74
(dp169
g82
I4
ssg83
g163
sg76
(lp170
S'131'
p171
asbasbasbasbasbasbasbag69
(g85
g71
NtRp172
(dp173
g74
(dp174
sg83
g79
sg76
(lp175
g69
(g90
g71
NtRp176
(dp177
g74
(dp178
g94
g95
ssg83
g172
sg76
(lp179
S'body'
p180
asbag69
(g90
g71
NtRp181
(dp182
g74
(dp183
g101
g102
ssg83
g172
sg76
(lp184
S':'
asbag69
(g90
g71
NtRp185
(dp186
g74
(dp187
sg83
g172
sg76
(lp188
g69
(g70
g71
NtRp189
(dp190
g74
(dp191
g82
I5
ssg83
g185
sg76
(lp192
S'<cStringIO.StringO object at 0x19d48a08>'
p193
asbasbasbag69
(g85
g71
NtRp194
(dp195
g74
(dp196
sg83
g79
sg76
(lp197
g69
(g90
g71
NtRp198
(dp199
g74
(dp200
g94
g95
ssg83
g194
sg76
(lp201
S'cid'
p202
asbag69
(g90
g71
NtRp203
(dp204
g74
(dp205
g101
g102
ssg83
g194
sg76
(lp206
S':'
asbag69
(g90
g71
NtRp207
(dp208
g74
(dp209
sg83
g194
sg76
(lp210
g69
(g70
g71
NtRp211
(dp212
g74
(dp213
g82
I5
ssg83
g207
sg76
(lp214
S'None'
p215
asbasbasbag69
(g85
g71
NtRp216
(dp217
g74
(dp218
sg83
g79
sg76
(lp219
g69
(g90
g71
NtRp220
(dp221
g74
(dp222
g94
g95
ssg83
g216
sg76
(lp223
S'client'
p224
asbag69
(g90
g71
NtRp225
(dp226
g74
(dp227
g101
g102
ssg83
g216
sg76
(lp228
S':'
asbag69
(g90
g71
NtRp229
(dp230
g74
(dp231
sg83
g216
sg76
(lp232
g69
(g70
g71
NtRp233
(dp234
g74
(dp235
g82
I5
ssg83
g229
sg76
(lp236
S'127.0.0.1'
p237
asbasbasbag69
(g85
g71
NtRp238
(dp239
g74
(dp240
sg83
g79
sg76
(lp241
g69
(g90
g71
NtRp242
(dp243
g74
(dp244
g94
g95
ssg83
g238
sg76
(lp245
S'controller'
p246
asbag69
(g90
g71
NtRp247
(dp248
g74
(dp249
g101
g102
ssg83
g238
sg76
(lp250
S':'
asbag69
(g90
g71
NtRp251
(dp252
g74
(dp253
sg83
g238
sg76
(lp254
g69
(g70
g71
NtRp255
(dp256
g74
(dp257
g82
I5
ssg83
g251
sg76
(lp258
S'default'
p259
asbasbasbag69
(g85
g71
NtRp260
(dp261
g74
(dp262
sg83
g79
sg76
(lp263
g69
(g90
g71
NtRp264
(dp265
g74
(dp266
g94
g95
ssg83
g260
sg76
(lp267
S'cookies'
p268
asbag69
(g90
g71
NtRp269
(dp270
g74
(dp271
g101
g102
ssg83
g260
sg76
(lp272
S':'
asbag69
(g90
g71
NtRp273
(dp274
g74
(dp275
sg83
g260
sg76
(lp276
g69
(g70
g71
NtRp277
(dp278
g74
(dp279
g82
I5
ssg83
g273
sg76
(lp280
g69
(g78
g71
NtRp281
(dp282
g74
(dp283
g82
I4
ssg83
Nsg76
(lp284
g69
(g85
g71
NtRp285
(dp286
g74
(dp287
sg83
g281
sg76
(lp288
g69
(g90
g71
NtRp289
(dp290
g74
(dp291
g94
g95
ssg83
g285
sg76
(lp292
S'session_id_admin'
p293
asbag69
(g90
g71
NtRp294
(dp295
g74
(dp296
g101
g102
ssg83
g285
sg76
(lp297
S':'
asbag69
(g90
g71
NtRp298
(dp299
g74
(dp300
sg83
g285
sg76
(lp301
g69
(g70
g71
NtRp302
(dp303
g74
(dp304
g82
I4
ssg83
g298
sg76
(lp305
S'127.0.0.1-aa34f79e-e22c-4689-ac7e-2281748f4e62'
p306
ag69
(g78
g71
NtRp307
(dp308
g74
(dp309
g82
I3
ssg83
Nsg76
(lp310
g69
(g85
g71
NtRp311
(dp312
g74
(dp313
sg83
g307
sg76
(lp314
g69
(g90
g71
NtRp315
(dp316
g74
(dp317
g94
g95
ssg83
g311
sg76
(lp318
S'comment'
p319
asbag69
(g90
g71
NtRp320
(dp321
g74
(dp322
g101
g102
ssg83
g311
sg76
(lp323
S':'
asbag69
(g90
g71
NtRp324
(dp325
g74
(dp326
sg83
g311
sg76
(lp327
g69
(g70
g71
NtRp328
(dp329
g74
(dp330
g82
I3
ssg83
g324
sg76
(lp331
S''
asbasbasbag69
(g85
g71
NtRp332
(dp333
g74
(dp334
sg83
g307
sg76
(lp335
g69
(g90
g71
NtRp336
(dp337
g74
(dp338
g94
g95
ssg83
g332
sg76
(lp339
S'domain'
p340
asbag69
(g90
g71
NtRp341
(dp342
g74
(dp343
g101
g102
ssg83
g332
sg76
(lp344
S':'
asbag69
(g90
g71
NtRp345
(dp346
g74
(dp347
sg83
g332
sg76
(lp348
g69
(g70
g71
NtRp349
(dp350
g74
(dp351
g82
I3
ssg83
g345
sg76
(lp352
S''
asbasbasbag69
(g85
g71
NtRp353
(dp354
g74
(dp355
sg83
g307
sg76
(lp356
g69
(g90
g71
NtRp357
(dp358
g74
(dp359
g94
g95
ssg83
g353
sg76
(lp360
S'expires'
p361
asbag69
(g90
g71
NtRp362
(dp363
g74
(dp364
g101
g102
ssg83
g353
sg76
(lp365
S':'
asbag69
(g90
g71
NtRp366
(dp367
g74
(dp368
sg83
g353
sg76
(lp369
g69
(g70
g71
NtRp370
(dp371
g74
(dp372
g82
I3
ssg83
g366
sg76
(lp373
S''
asbasbasbag69
(g85
g71
NtRp374
(dp375
g74
(dp376
sg83
g307
sg76
(lp377
g69
(g90
g71
NtRp378
(dp379
g74
(dp380
g94
g95
ssg83
g374
sg76
(lp381
S'httponly'
p382
asbag69
(g90
g71
NtRp383
(dp384
g74
(dp385
g101
g102
ssg83
g374
sg76
(lp386
S':'
asbag69
(g90
g71
NtRp387
(dp388
g74
(dp389
sg83
g374
sg76
(lp390
g69
(g70
g71
NtRp391
(dp392
g74
(dp393
g82
I3
ssg83
g387
sg76
(lp394
S''
asbasbasbag69
(g85
g71
NtRp395
(dp396
g74
(dp397
sg83
g307
sg76
(lp398
g69
(g90
g71
NtRp399
(dp400
g74
(dp401
g94
g95
ssg83
g395
sg76
(lp402
S'max-age'
p403
asbag69
(g90
g71
NtRp404
(dp405
g74
(dp406
g101
g102
ssg83
g395
sg76
(lp407
S':'
asbag69
(g90
g71
NtRp408
(dp409
g74
(dp410
sg83
g395
sg76
(lp411
g69
(g70
g71
NtRp412
(dp413
g74
(dp414
g82
I3
ssg83
g408
sg76
(lp415
S''
asbasbasbag69
(g85
g71
NtRp416
(dp417
g74
(dp418
sg83
g307
sg76
(lp419
g69
(g90
g71
NtRp420
(dp421
g74
(dp422
g94
g95
ssg83
g416
sg76
(lp423
S'path'
p424
asbag69
(g90
g71
NtRp425
(dp426
g74
(dp427
g101
g102
ssg83
g416
sg76
(lp428
S':'
asbag69
(g90
g71
NtRp429
(dp430
g74
(dp431
sg83
g416
sg76
(lp432
g69
(g70
g71
NtRp433
(dp434
g74
(dp435
g82
I3
ssg83
g429
sg76
(lp436
S''
asbasbasbag69
(g85
g71
NtRp437
(dp438
g74
(dp439
sg83
g307
sg76
(lp440
g69
(g90
g71
NtRp441
(dp442
g74
(dp443
g94
g95
ssg83
g437
sg76
(lp444
S'secure'
p445
asbag69
(g90
g71
NtRp446
(dp447
g74
(dp448
g101
g102
ssg83
g437
sg76
(lp449
S':'
asbag69
(g90
g71
NtRp450
(dp451
g74
(dp452
sg83
g437
sg76
(lp453
g69
(g70
g71
NtRp454
(dp455
g74
(dp456
g82
I3
ssg83
g450
sg76
(lp457
S''
asbasbasbag69
(g85
g71
NtRp458
(dp459
g74
(dp460
sg83
g307
sg76
(lp461
g69
(g90
g71
NtRp462
(dp463
g74
(dp464
g94
g95
ssg83
g458
sg76
(lp465
S'version'
p466
asbag69
(g90
g71
NtRp467
(dp468
g74
(dp469
g101
g102
ssg83
g458
sg76
(lp470
S':'
asbag69
(g90
g71
NtRp471
(dp472
g74
(dp473
sg83
g458
sg76
(lp474
g69
(g70
g71
NtRp475
(dp476
g74
(dp477
g82
I3
ssg83
g471
sg76
(lp478
S''
asbasbasbasbasbasbasbag69
(g85
g71
NtRp479
(dp480
g74
(dp481
sg83
g281
sg76
(lp482
g69
(g90
g71
NtRp483
(dp484
g74
(dp485
g94
g95
ssg83
g479
sg76
(lp486
S'session_id_betsy'
p487
asbag69
(g90
g71
NtRp488
(dp489
g74
(dp490
g101
g102
ssg83
g479
sg76
(lp491
S':'
asbag69
(g90
g71
NtRp492
(dp493
g74
(dp494
sg83
g479
sg76
(lp495
g69
(g70
g71
NtRp496
(dp497
g74
(dp498
g82
I4
ssg83
g492
sg76
(lp499
S'127.0.0.1-70d52105-0f5d-4884-a4e3-dce6830f30e0'
p500
ag69
(g78
g71
NtRp501
(dp502
g74
(dp503
g82
I3
ssg83
Nsg76
(lp504
g69
(g85
g71
NtRp505
(dp506
g74
(dp507
sg83
g501
sg76
(lp508
g69
(g90
g71
NtRp509
(dp510
g74
(dp511
g94
g95
ssg83
g505
sg76
(lp512
g319
asbag69
(g90
g71
NtRp513
(dp514
g74
(dp515
g101
g102
ssg83
g505
sg76
(lp516
S':'
asbag69
(g90
g71
NtRp517
(dp518
g74
(dp519
sg83
g505
sg76
(lp520
g69
(g70
g71
NtRp521
(dp522
g74
(dp523
g82
I3
ssg83
g517
sg76
(lp524
S''
asbasbasbag69
(g85
g71
NtRp525
(dp526
g74
(dp527
sg83
g501
sg76
(lp528
g69
(g90
g71
NtRp529
(dp530
g74
(dp531
g94
g95
ssg83
g525
sg76
(lp532
g340
asbag69
(g90
g71
NtRp533
(dp534
g74
(dp535
g101
g102
ssg83
g525
sg76
(lp536
S':'
asbag69
(g90
g71
NtRp537
(dp538
g74
(dp539
sg83
g525
sg76
(lp540
g69
(g70
g71
NtRp541
(dp542
g74
(dp543
g82
I3
ssg83
g537
sg76
(lp544
S''
asbasbasbag69
(g85
g71
NtRp545
(dp546
g74
(dp547
sg83
g501
sg76
(lp548
g69
(g90
g71
NtRp549
(dp550
g74
(dp551
g94
g95
ssg83
g545
sg76
(lp552
g361
asbag69
(g90
g71
NtRp553
(dp554
g74
(dp555
g101
g102
ssg83
g545
sg76
(lp556
S':'
asbag69
(g90
g71
NtRp557
(dp558
g74
(dp559
sg83
g545
sg76
(lp560
g69
(g70
g71
NtRp561
(dp562
g74
(dp563
g82
I3
ssg83
g557
sg76
(lp564
S''
asbasbasbag69
(g85
g71
NtRp565
(dp566
g74
(dp567
sg83
g501
sg76
(lp568
g69
(g90
g71
NtRp569
(dp570
g74
(dp571
g94
g95
ssg83
g565
sg76
(lp572
g382
asbag69
(g90
g71
NtRp573
(dp574
g74
(dp575
g101
g102
ssg83
g565
sg76
(lp576
S':'
asbag69
(g90
g71
NtRp577
(dp578
g74
(dp579
sg83
g565
sg76
(lp580
g69
(g70
g71
NtRp581
(dp582
g74
(dp583
g82
I3
ssg83
g577
sg76
(lp584
S''
asbasbasbag69
(g85
g71
NtRp585
(dp586
g74
(dp587
sg83
g501
sg76
(lp588
g69
(g90
g71
NtRp589
(dp590
g74
(dp591
g94
g95
ssg83
g585
sg76
(lp592
g403
asbag69
(g90
g71
NtRp593
(dp594
g74
(dp595
g101
g102
ssg83
g585
sg76
(lp596
S':'
asbag69
(g90
g71
NtRp597
(dp598
g74
(dp599
sg83
g585
sg76
(lp600
g69
(g70
g71
NtRp601
(dp602
g74
(dp603
g82
I3
ssg83
g597
sg76
(lp604
S''
asbasbasbag69
(g85
g71
NtRp605
(dp606
g74
(dp607
sg83
g501
sg76
(lp608
g69
(g90
g71
NtRp609
(dp610
g74
(dp611
g94
g95
ssg83
g605
sg76
(lp612
g424
asbag69
(g90
g71
NtRp613
(dp614
g74
(dp615
g101
g102
ssg83
g605
sg76
(lp616
S':'
asbag69
(g90
g71
NtRp617
(dp618
g74
(dp619
sg83
g605
sg76
(lp620
g69
(g70
g71
NtRp621
(dp622
g74
(dp623
g82
I3
ssg83
g617
sg76
(lp624
S''
asbasbasbag69
(g85
g71
NtRp625
(dp626
g74
(dp627
sg83
g501
sg76
(lp628
g69
(g90
g71
NtRp629
(dp630
g74
(dp631
g94
g95
ssg83
g625
sg76
(lp632
g445
asbag69
(g90
g71
NtRp633
(dp634
g74
(dp635
g101
g102
ssg83
g625
sg76
(lp636
S':'
asbag69
(g90
g71
NtRp637
(dp638
g74
(dp639
sg83
g625
sg76
(lp640
g69
(g70
g71
NtRp641
(dp642
g74
(dp643
g82
I3
ssg83
g637
sg76
(lp644
S''
asbasbasbag69
(g85
g71
NtRp645
(dp646
g74
(dp647
sg83
g501
sg76
(lp648
g69
(g90
g71
NtRp649
(dp650
g74
(dp651
g94
g95
ssg83
g645
sg76
(lp652
g466
asbag69
(g90
g71
NtRp653
(dp654
g74
(dp655
g101
g102
ssg83
g645
sg76
(lp656
S':'
asbag69
(g90
g71
NtRp657
(dp658
g74
(dp659
sg83
g645
sg76
(lp660
g69
(g70
g71
NtRp661
(dp662
g74
(dp663
g82
I3
ssg83
g657
sg76
(lp664
S''
asbasbasbasbasbasbasbag69
(g85
g71
NtRp665
(dp666
g74
(dp667
sg83
g281
sg76
(lp668
g69
(g90
g71
NtRp669
(dp670
g74
(dp671
g94
g95
ssg83
g665
sg76
(lp672
S'session_id_mywiki'
p673
asbag69
(g90
g71
NtRp674
(dp675
g74
(dp676
g101
g102
ssg83
g665
sg76
(lp677
S':'
asbag69
(g90
g71
NtRp678
(dp679
g74
(dp680
sg83
g665
sg76
(lp681
g69
(g70
g71
NtRp682
(dp683
g74
(dp684
g82
I4
ssg83
g678
sg76
(lp685
S'127.0.0.1-eb050b35-b093-40d3-af40-302009bb3316'
p686
ag69
(g78
g71
NtRp687
(dp688
g74
(dp689
g82
I3
ssg83
Nsg76
(lp690
g69
(g85
g71
NtRp691
(dp692
g74
(dp693
sg83
g687
sg76
(lp694
g69
(g90
g71
NtRp695
(dp696
g74
(dp697
g94
g95
ssg83
g691
sg76
(lp698
g319
asbag69
(g90
g71
NtRp699
(dp700
g74
(dp701
g101
g102
ssg83
g691
sg76
(lp702
S':'
asbag69
(g90
g71
NtRp703
(dp704
g74
(dp705
sg83
g691
sg76
(lp706
g69
(g70
g71
NtRp707
(dp708
g74
(dp709
g82
I3
ssg83
g703
sg76
(lp710
S''
asbasbasbag69
(g85
g71
NtRp711
(dp712
g74
(dp713
sg83
g687
sg76
(lp714
g69
(g90
g71
NtRp715
(dp716
g74
(dp717
g94
g95
ssg83
g711
sg76
(lp718
g340
asbag69
(g90
g71
NtRp719
(dp720
g74
(dp721
g101
g102
ssg83
g711
sg76
(lp722
S':'
asbag69
(g90
g71
NtRp723
(dp724
g74
(dp725
sg83
g711
sg76
(lp726
g69
(g70
g71
NtRp727
(dp728
g74
(dp729
g82
I3
ssg83
g723
sg76
(lp730
S''
asbasbasbag69
(g85
g71
NtRp731
(dp732
g74
(dp733
sg83
g687
sg76
(lp734
g69
(g90
g71
NtRp735
(dp736
g74
(dp737
g94
g95
ssg83
g731
sg76
(lp738
g361
asbag69
(g90
g71
NtRp739
(dp740
g74
(dp741
g101
g102
ssg83
g731
sg76
(lp742
S':'
asbag69
(g90
g71
NtRp743
(dp744
g74
(dp745
sg83
g731
sg76
(lp746
g69
(g70
g71
NtRp747
(dp748
g74
(dp749
g82
I3
ssg83
g743
sg76
(lp750
S''
asbasbasbag69
(g85
g71
NtRp751
(dp752
g74
(dp753
sg83
g687
sg76
(lp754
g69
(g90
g71
NtRp755
(dp756
g74
(dp757
g94
g95
ssg83
g751
sg76
(lp758
g382
asbag69
(g90
g71
NtRp759
(dp760
g74
(dp761
g101
g102
ssg83
g751
sg76
(lp762
S':'
asbag69
(g90
g71
NtRp763
(dp764
g74
(dp765
sg83
g751
sg76
(lp766
g69
(g70
g71
NtRp767
(dp768
g74
(dp769
g82
I3
ssg83
g763
sg76
(lp770
S''
asbasbasbag69
(g85
g71
NtRp771
(dp772
g74
(dp773
sg83
g687
sg76
(lp774
g69
(g90
g71
NtRp775
(dp776
g74
(dp777
g94
g95
ssg83
g771
sg76
(lp778
g403
asbag69
(g90
g71
NtRp779
(dp780
g74
(dp781
g101
g102
ssg83
g771
sg76
(lp782
S':'
asbag69
(g90
g71
NtRp783
(dp784
g74
(dp785
sg83
g771
sg76
(lp786
g69
(g70
g71
NtRp787
(dp788
g74
(dp789
g82
I3
ssg83
g783
sg76
(lp790
S''
asbasbasbag69
(g85
g71
NtRp791
(dp792
g74
(dp793
sg83
g687
sg76
(lp794
g69
(g90
g71
NtRp795
(dp796
g74
(dp797
g94
g95
ssg83
g791
sg76
(lp798
g424
asbag69
(g90
g71
NtRp799
(dp800
g74
(dp801
g101
g102
ssg83
g791
sg76
(lp802
S':'
asbag69
(g90
g71
NtRp803
(dp804
g74
(dp805
sg83
g791
sg76
(lp806
g69
(g70
g71
NtRp807
(dp808
g74
(dp809
g82
I3
ssg83
g803
sg76
(lp810
S''
asbasbasbag69
(g85
g71
NtRp811
(dp812
g74
(dp813
sg83
g687
sg76
(lp814
g69
(g90
g71
NtRp815
(dp816
g74
(dp817
g94
g95
ssg83
g811
sg76
(lp818
g445
asbag69
(g90
g71
NtRp819
(dp820
g74
(dp821
g101
g102
ssg83
g811
sg76
(lp822
S':'
asbag69
(g90
g71
NtRp823
(dp824
g74
(dp825
sg83
g811
sg76
(lp826
g69
(g70
g71
NtRp827
(dp828
g74
(dp829
g82
I3
ssg83
g823
sg76
(lp830
S''
asbasbasbag69
(g85
g71
NtRp831
(dp832
g74
(dp833
sg83
g687
sg76
(lp834
g69
(g90
g71
NtRp835
(dp836
g74
(dp837
g94
g95
ssg83
g831
sg76
(lp838
g466
asbag69
(g90
g71
NtRp839
(dp840
g74
(dp841
g101
g102
ssg83
g831
sg76
(lp842
S':'
asbag69
(g90
g71
NtRp843
(dp844
g74
(dp845
sg83
g831
sg76
(lp846
g69
(g70
g71
NtRp847
(dp848
g74
(dp849
g82
I3
ssg83
g843
sg76
(lp850
S''
asbasbasbasbasbasbasbag69
(g85
g71
NtRp851
(dp852
g74
(dp853
sg83
g281
sg76
(lp854
g69
(g90
g71
NtRp855
(dp856
g74
(dp857
g94
g95
ssg83
g851
sg76
(lp858
S'session_id_welcome'
p859
asbag69
(g90
g71
NtRp860
(dp861
g74
(dp862
g101
g102
ssg83
g851
sg76
(lp863
S':'
asbag69
(g90
g71
NtRp864
(dp865
g74
(dp866
sg83
g851
sg76
(lp867
g69
(g70
g71
NtRp868
(dp869
g74
(dp870
g82
I4
ssg83
g864
sg76
(lp871
S'127.0.0.1-23e79903-58d5-4e48-a036-db7ee74bf382'
p872
ag69
(g78
g71
NtRp873
(dp874
g74
(dp875
g82
I3
ssg83
Nsg76
(lp876
g69
(g85
g71
NtRp877
(dp878
g74
(dp879
sg83
g873
sg76
(lp880
g69
(g90
g71
NtRp881
(dp882
g74
(dp883
g94
g95
ssg83
g877
sg76
(lp884
g319
asbag69
(g90
g71
NtRp885
(dp886
g74
(dp887
g101
g102
ssg83
g877
sg76
(lp888
S':'
asbag69
(g90
g71
NtRp889
(dp890
g74
(dp891
sg83
g877
sg76
(lp892
g69
(g70
g71
NtRp893
(dp894
g74
(dp895
g82
I3
ssg83
g889
sg76
(lp896
S''
asbasbasbag69
(g85
g71
NtRp897
(dp898
g74
(dp899
sg83
g873
sg76
(lp900
g69
(g90
g71
NtRp901
(dp902
g74
(dp903
g94
g95
ssg83
g897
sg76
(lp904
g340
asbag69
(g90
g71
NtRp905
(dp906
g74
(dp907
g101
g102
ssg83
g897
sg76
(lp908
S':'
asbag69
(g90
g71
NtRp909
(dp910
g74
(dp911
sg83
g897
sg76
(lp912
g69
(g70
g71
NtRp913
(dp914
g74
(dp915
g82
I3
ssg83
g909
sg76
(lp916
S''
asbasbasbag69
(g85
g71
NtRp917
(dp918
g74
(dp919
sg83
g873
sg76
(lp920
g69
(g90
g71
NtRp921
(dp922
g74
(dp923
g94
g95
ssg83
g917
sg76
(lp924
g361
asbag69
(g90
g71
NtRp925
(dp926
g74
(dp927
g101
g102
ssg83
g917
sg76
(lp928
S':'
asbag69
(g90
g71
NtRp929
(dp930
g74
(dp931
sg83
g917
sg76
(lp932
g69
(g70
g71
NtRp933
(dp934
g74
(dp935
g82
I3
ssg83
g929
sg76
(lp936
S''
asbasbasbag69
(g85
g71
NtRp937
(dp938
g74
(dp939
sg83
g873
sg76
(lp940
g69
(g90
g71
NtRp941
(dp942
g74
(dp943
g94
g95
ssg83
g937
sg76
(lp944
g382
asbag69
(g90
g71
NtRp945
(dp946
g74
(dp947
g101
g102
ssg83
g937
sg76
(lp948
S':'
asbag69
(g90
g71
NtRp949
(dp950
g74
(dp951
sg83
g937
sg76
(lp952
g69
(g70
g71
NtRp953
(dp954
g74
(dp955
g82
I3
ssg83
g949
sg76
(lp956
S''
asbasbasbag69
(g85
g71
NtRp957
(dp958
g74
(dp959
sg83
g873
sg76
(lp960
g69
(g90
g71
NtRp961
(dp962
g74
(dp963
g94
g95
ssg83
g957
sg76
(lp964
g403
asbag69
(g90
g71
NtRp965
(dp966
g74
(dp967
g101
g102
ssg83
g957
sg76
(lp968
S':'
asbag69
(g90
g71
NtRp969
(dp970
g74
(dp971
sg83
g957
sg76
(lp972
g69
(g70
g71
NtRp973
(dp974
g74
(dp975
g82
I3
ssg83
g969
sg76
(lp976
S''
asbasbasbag69
(g85
g71
NtRp977
(dp978
g74
(dp979
sg83
g873
sg76
(lp980
g69
(g90
g71
NtRp981
(dp982
g74
(dp983
g94
g95
ssg83
g977
sg76
(lp984
g424
asbag69
(g90
g71
NtRp985
(dp986
g74
(dp987
g101
g102
ssg83
g977
sg76
(lp988
S':'
asbag69
(g90
g71
NtRp989
(dp990
g74
(dp991
sg83
g977
sg76
(lp992
g69
(g70
g71
NtRp993
(dp994
g74
(dp995
g82
I3
ssg83
g989
sg76
(lp996
S''
asbasbasbag69
(g85
g71
NtRp997
(dp998
g74
(dp999
sg83
g873
sg76
(lp1000
g69
(g90
g71
NtRp1001
(dp1002
g74
(dp1003
g94
g95
ssg83
g997
sg76
(lp1004
g445
asbag69
(g90
g71
NtRp1005
(dp1006
g74
(dp1007
g101
g102
ssg83
g997
sg76
(lp1008
S':'
asbag69
(g90
g71
NtRp1009
(dp1010
g74
(dp1011
sg83
g997
sg76
(lp1012
g69
(g70
g71
NtRp1013
(dp1014
g74
(dp1015
g82
I3
ssg83
g1009
sg76
(lp1016
S''
asbasbasbag69
(g85
g71
NtRp1017
(dp1018
g74
(dp1019
sg83
g873
sg76
(lp1020
g69
(g90
g71
NtRp1021
(dp1022
g74
(dp1023
g94
g95
ssg83
g1017
sg76
(lp1024
g466
asbag69
(g90
g71
NtRp1025
(dp1026
g74
(dp1027
g101
g102
ssg83
g1017
sg76
(lp1028
S':'
asbag69
(g90
g71
NtRp1029
(dp1030
g74
(dp1031
sg83
g1017
sg76
(lp1032
g69
(g70
g71
NtRp1033
(dp1034
g74
(dp1035
g82
I3
ssg83
g1029
sg76
(lp1036
S''
asbasbasbasbasbasbasbasbasbasbasbag69
(g85
g71
NtRp1037
(dp1038
g74
(dp1039
sg83
g79
sg76
(lp1040
g69
(g90
g71
NtRp1041
(dp1042
g74
(dp1043
g94
g95
ssg83
g1037
sg76
(lp1044
S'env'
p1045
asbag69
(g90
g71
NtRp1046
(dp1047
g74
(dp1048
g101
g102
ssg83
g1037
sg76
(lp1049
S':'
asbag69
(g90
g71
NtRp1050
(dp1051
g74
(dp1052
sg83
g1037
sg76
(lp1053
g69
(g70
g71
NtRp1054
(dp1055
g74
(dp1056
g82
I5
ssg83
g1050
sg76
(lp1057
g69
(g78
g71
NtRp1058
(dp1059
g74
(dp1060
g82
I4
ssg83
Nsg76
(lp1061
g69
(g85
g71
NtRp1062
(dp1063
g74
(dp1064
sg83
g1058
sg76
(lp1065
g69
(g90
g71
NtRp1066
(dp1067
g74
(dp1068
g94
g95
ssg83
g1062
sg76
(lp1069
S'app_folders'
p1070
asbag69
(g90
g71
NtRp1071
(dp1072
g74
(dp1073
g101
g102
ssg83
g1062
sg76
(lp1074
S':'
asbag69
(g90
g71
NtRp1075
(dp1076
g74
(dp1077
sg83
g1062
sg76
(lp1078
g69
(g70
g71
NtRp1079
(dp1080
g74
(dp1081
g82
I4
ssg83
g1075
sg76
(lp1082
S"set(['/home/xchen/web2py/applications/Betsy/', '/home/xchen/web2py/applications/admin/', '/home/xchen/web2py/applications/welcome/'])"
p1083
asbasbasbag69
(g85
g71
NtRp1084
(dp1085
g74
(dp1086
sg83
g1058
sg76
(lp1087
g69
(g90
g71
NtRp1088
(dp1089
g74
(dp1090
g94
g95
ssg83
g1084
sg76
(lp1091
S'applications_parent'
p1092
asbag69
(g90
g71
NtRp1093
(dp1094
g74
(dp1095
g101
g102
ssg83
g1084
sg76
(lp1096
S':'
asbag69
(g90
g71
NtRp1097
(dp1098
g74
(dp1099
sg83
g1084
sg76
(lp1100
g69
(g70
g71
NtRp1101
(dp1102
g74
(dp1103
g82
I4
ssg83
g1097
sg76
(lp1104
S'/home/xchen/web2py'
p1105
asbasbasbag69
(g85
g71
NtRp1106
(dp1107
g74
(dp1108
sg83
g1058
sg76
(lp1109
g69
(g90
g71
NtRp1110
(dp1111
g74
(dp1112
g94
g95
ssg83
g1106
sg76
(lp1113
S'cmd_args'
p1114
asbag69
(g90
g71
NtRp1115
(dp1116
g74
(dp1117
g101
g102
ssg83
g1106
sg76
(lp1118
S':'
asbag69
(g90
g71
NtRp1119
(dp1120
g74
(dp1121
sg83
g1106
sg76
(lp1122
g69
(g70
g71
NtRp1123
(dp1124
g74
(dp1125
g82
I4
ssg83
g1119
sg76
(lp1126
g69
(g78
g71
NtRp1127
(dp1128
g74
(dp1129
g82
I3
ssg83
Nsg76
(lp1130
sbasbasbasbag69
(g85
g71
NtRp1131
(dp1132
g74
(dp1133
sg83
g1058
sg76
(lp1134
g69
(g90
g71
NtRp1135
(dp1136
g74
(dp1137
g94
g95
ssg83
g1131
sg76
(lp1138
S'cmd_options'
p1139
asbag69
(g90
g71
NtRp1140
(dp1141
g74
(dp1142
g101
g102
ssg83
g1131
sg76
(lp1143
S':'
asbag69
(g90
g71
NtRp1144
(dp1145
g74
(dp1146
sg83
g1131
sg76
(lp1147
g69
(g70
g71
NtRp1148
(dp1149
g74
(dp1150
g82
I4
ssg83
g1144
sg76
(lp1151
S"<Values at 0x187d1e18: {'verbose': False, 'ip': '127.0.0.1', 'with_scheduler': False, 'ips': [], 'shutdown_timeout': 5, 'taskbar': False, 'port': 8080, 'maxthreads': None, 'softcron': False, 'server_name': 'unicron.shis.uth.tmc.edu', 'bpython': False, 'nogui': False, 'pid_filename': 'httpserver.pid', 'extcron': False, 'runcron': False, 'run_system_tests': False, 'test': None, 'folder': '/home/xchen/web2py', 'config': '', 'minthreads': None, 'winservice': '', 'shell': None, 'run': '', 'log_filename': 'httpserver.log', 'debuglevel': 30, 'args': [''], 'socket_timeout': 5, 'ssl_ca_certificate': None, 'scheduler': None, 'profiler_filename': None, 'ssl_private_key': '', 'scheduler_groups': None, 'password': 'baby2008', 'request_queue_size': 5, 'ssl_certificate': '', 'cronjob': False, 'numthreads': None, 'quiet': False, 'interfaces': None, 'import_models': False, 'timeout': 10, 'plain': False, 'nobanner': False}>"
p1152
asbasbasbag69
(g85
g71
NtRp1153
(dp1154
g74
(dp1155
sg83
g1058
sg76
(lp1156
g69
(g90
g71
NtRp1157
(dp1158
g74
(dp1159
g94
g95
ssg83
g1153
sg76
(lp1160
S'db_sessions'
p1161
asbag69
(g90
g71
NtRp1162
(dp1163
g74
(dp1164
g101
g102
ssg83
g1153
sg76
(lp1165
S':'
asbag69
(g90
g71
NtRp1166
(dp1167
g74
(dp1168
sg83
g1153
sg76
(lp1169
g69
(g70
g71
NtRp1170
(dp1171
g74
(dp1172
g82
I4
ssg83
g1166
sg76
(lp1173
S'set([])'
p1174
asbasbasbag69
(g85
g71
NtRp1175
(dp1176
g74
(dp1177
sg83
g1058
sg76
(lp1178
g69
(g90
g71
NtRp1179
(dp1180
g74
(dp1181
g94
g95
ssg83
g1175
sg76
(lp1182
S'debugging'
p1183
asbag69
(g90
g71
NtRp1184
(dp1185
g74
(dp1186
g101
g102
ssg83
g1175
sg76
(lp1187
S':'
asbag69
(g90
g71
NtRp1188
(dp1189
g74
(dp1190
sg83
g1175
sg76
(lp1191
g69
(g70
g71
NtRp1192
(dp1193
g74
(dp1194
g82
I4
ssg83
g1188
sg76
(lp1195
g112
asbasbasbag69
(g85
g71
NtRp1196
(dp1197
g74
(dp1198
sg83
g1058
sg76
(lp1199
g69
(g90
g71
NtRp1200
(dp1201
g74
(dp1202
g94
g95
ssg83
g1196
sg76
(lp1203
S'gluon_parent'
p1204
asbag69
(g90
g71
NtRp1205
(dp1206
g74
(dp1207
g101
g102
ssg83
g1196
sg76
(lp1208
S':'
asbag69
(g90
g71
NtRp1209
(dp1210
g74
(dp1211
sg83
g1196
sg76
(lp1212
g69
(g70
g71
NtRp1213
(dp1214
g74
(dp1215
g82
I4
ssg83
g1209
sg76
(lp1216
S'/home/xchen/web2py'
p1217
asbasbasbag69
(g85
g71
NtRp1218
(dp1219
g74
(dp1220
sg83
g1058
sg76
(lp1221
g69
(g90
g71
NtRp1222
(dp1223
g74
(dp1224
g94
g95
ssg83
g1218
sg76
(lp1225
S'http_accept'
p1226
asbag69
(g90
g71
NtRp1227
(dp1228
g74
(dp1229
g101
g102
ssg83
g1218
sg76
(lp1230
S':'
asbag69
(g90
g71
NtRp1231
(dp1232
g74
(dp1233
sg83
g1218
sg76
(lp1234
g69
(g70
g71
NtRp1235
(dp1236
g74
(dp1237
g82
I4
ssg83
g1231
sg76
(lp1238
S'text/html,application/xhtml+xml,application/xml;q=0.9,*/*;q=0.8'
p1239
asbasbasbag69
(g85
g71
NtRp1240
(dp1241
g74
(dp1242
sg83
g1058
sg76
(lp1243
g69
(g90
g71
NtRp1244
(dp1245
g74
(dp1246
g94
g95
ssg83
g1240
sg76
(lp1247
S'http_accept_encoding'
p1248
asbag69
(g90
g71
NtRp1249
(dp1250
g74
(dp1251
g101
g102
ssg83
g1240
sg76
(lp1252
S':'
asbag69
(g90
g71
NtRp1253
(dp1254
g74
(dp1255
sg83
g1240
sg76
(lp1256
g69
(g70
g71
NtRp1257
(dp1258
g74
(dp1259
g82
I4
ssg83
g1253
sg76
(lp1260
S'gzip, deflate'
p1261
asbasbasbag69
(g85
g71
NtRp1262
(dp1263
g74
(dp1264
sg83
g1058
sg76
(lp1265
g69
(g90
g71
NtRp1266
(dp1267
g74
(dp1268
g94
g95
ssg83
g1262
sg76
(lp1269
S'http_accept_language'
p1270
asbag69
(g90
g71
NtRp1271
(dp1272
g74
(dp1273
g101
g102
ssg83
g1262
sg76
(lp1274
S':'
asbag69
(g90
g71
NtRp1275
(dp1276
g74
(dp1277
sg83
g1262
sg76
(lp1278
g69
(g70
g71
NtRp1279
(dp1280
g74
(dp1281
g82
I4
ssg83
g1275
sg76
(lp1282
S'en-US,en;q=0.5'
p1283
asbasbasbag69
(g85
g71
NtRp1284
(dp1285
g74
(dp1286
sg83
g1058
sg76
(lp1287
g69
(g90
g71
NtRp1288
(dp1289
g74
(dp1290
g94
g95
ssg83
g1284
sg76
(lp1291
S'http_cache_control'
p1292
asbag69
(g90
g71
NtRp1293
(dp1294
g74
(dp1295
g101
g102
ssg83
g1284
sg76
(lp1296
S':'
asbag69
(g90
g71
NtRp1297
(dp1298
g74
(dp1299
sg83
g1284
sg76
(lp1300
g69
(g70
g71
NtRp1301
(dp1302
g74
(dp1303
g82
I4
ssg83
g1297
sg76
(lp1304
S'max-age=0'
p1305
asbasbasbag69
(g85
g71
NtRp1306
(dp1307
g74
(dp1308
sg83
g1058
sg76
(lp1309
g69
(g90
g71
NtRp1310
(dp1311
g74
(dp1312
g94
g95
ssg83
g1306
sg76
(lp1313
S'http_connection'
p1314
asbag69
(g90
g71
NtRp1315
(dp1316
g74
(dp1317
g101
g102
ssg83
g1306
sg76
(lp1318
S':'
asbag69
(g90
g71
NtRp1319
(dp1320
g74
(dp1321
sg83
g1306
sg76
(lp1322
g69
(g70
g71
NtRp1323
(dp1324
g74
(dp1325
g82
I4
ssg83
g1319
sg76
(lp1326
S'keep-alive'
p1327
asbasbasbag69
(g85
g71
NtRp1328
(dp1329
g74
(dp1330
sg83
g1058
sg76
(lp1331
g69
(g90
g71
NtRp1332
(dp1333
g74
(dp1334
g94
g95
ssg83
g1328
sg76
(lp1335
S'http_cookie'
p1336
asbag69
(g90
g71
NtRp1337
(dp1338
g74
(dp1339
g101
g102
ssg83
g1328
sg76
(lp1340
S':'
asbag69
(g90
g71
NtRp1341
(dp1342
g74
(dp1343
sg83
g1328
sg76
(lp1344
g69
(g70
g71
NtRp1345
(dp1346
g74
(dp1347
g82
I4
ssg83
g1341
sg76
(lp1348
S'session_id_betsy=127.0.0.1-70d52105-0f5d-4884-a4e3-dce6830f30e0; session_id_welcome=127.0.0.1-23e79903-58d5-4e48-a036-db7ee74bf382; session_id_admin=127.0.0.1-aa34f79e-e22c-4689-ac7e-2281748f4e62; session_id_mywiki=127.0.0.1-eb050b35-b093-40d3-af40-302009bb3316'
p1349
asbasbasbag69
(g85
g71
NtRp1350
(dp1351
g74
(dp1352
sg83
g1058
sg76
(lp1353
g69
(g90
g71
NtRp1354
(dp1355
g74
(dp1356
g94
g95
ssg83
g1350
sg76
(lp1357
S'http_host'
p1358
asbag69
(g90
g71
NtRp1359
(dp1360
g74
(dp1361
g101
g102
ssg83
g1350
sg76
(lp1362
S':'
asbag69
(g90
g71
NtRp1363
(dp1364
g74
(dp1365
sg83
g1350
sg76
(lp1366
g69
(g70
g71
NtRp1367
(dp1368
g74
(dp1369
g82
I4
ssg83
g1363
sg76
(lp1370
S'localhost:8080'
p1371
asbasbasbag69
(g85
g71
NtRp1372
(dp1373
g74
(dp1374
sg83
g1058
sg76
(lp1375
g69
(g90
g71
NtRp1376
(dp1377
g74
(dp1378
g94
g95
ssg83
g1372
sg76
(lp1379
S'http_referer'
p1380
asbag69
(g90
g71
NtRp1381
(dp1382
g74
(dp1383
g101
g102
ssg83
g1372
sg76
(lp1384
S':'
asbag69
(g90
g71
NtRp1385
(dp1386
g74
(dp1387
sg83
g1372
sg76
(lp1388
g69
(g70
g71
NtRp1389
(dp1390
g74
(dp1391
g82
I4
ssg83
g1385
sg76
(lp1392
S'http://localhost:8080/Betsy/default/show_status'
p1393
asbasbasbag69
(g85
g71
NtRp1394
(dp1395
g74
(dp1396
sg83
g1058
sg76
(lp1397
g69
(g90
g71
NtRp1398
(dp1399
g74
(dp1400
g94
g95
ssg83
g1394
sg76
(lp1401
S'http_user_agent'
p1402
asbag69
(g90
g71
NtRp1403
(dp1404
g74
(dp1405
g101
g102
ssg83
g1394
sg76
(lp1406
S':'
asbag69
(g90
g71
NtRp1407
(dp1408
g74
(dp1409
sg83
g1394
sg76
(lp1410
g69
(g70
g71
NtRp1411
(dp1412
g74
(dp1413
g82
I4
ssg83
g1407
sg76
(lp1414
S'Mozilla/5.0 (Macintosh; Intel Mac OS X 10.6; rv:18.0) Gecko/20100101 Firefox/18.0'
p1415
asbasbasbag69
(g85
g71
NtRp1416
(dp1417
g74
(dp1418
sg83
g1058
sg76
(lp1419
g69
(g90
g71
NtRp1420
(dp1421
g74
(dp1422
g94
g95
ssg83
g1416
sg76
(lp1423
S'is_jython'
p1424
asbag69
(g90
g71
NtRp1425
(dp1426
g74
(dp1427
g101
g102
ssg83
g1416
sg76
(lp1428
S':'
asbag69
(g90
g71
NtRp1429
(dp1430
g74
(dp1431
sg83
g1416
sg76
(lp1432
g69
(g70
g71
NtRp1433
(dp1434
g74
(dp1435
g82
I4
ssg83
g1429
sg76
(lp1436
g112
asbasbasbag69
(g85
g71
NtRp1437
(dp1438
g74
(dp1439
sg83
g1058
sg76
(lp1440
g69
(g90
g71
NtRp1441
(dp1442
g74
(dp1443
g94
g95
ssg83
g1437
sg76
(lp1444
S'is_pypy'
p1445
asbag69
(g90
g71
NtRp1446
(dp1447
g74
(dp1448
g101
g102
ssg83
g1437
sg76
(lp1449
S':'
asbag69
(g90
g71
NtRp1450
(dp1451
g74
(dp1452
sg83
g1437
sg76
(lp1453
g69
(g70
g71
NtRp1454
(dp1455
g74
(dp1456
g82
I4
ssg83
g1450
sg76
(lp1457
g112
asbasbasbag69
(g85
g71
NtRp1458
(dp1459
g74
(dp1460
sg83
g1058
sg76
(lp1461
g69
(g90
g71
NtRp1462
(dp1463
g74
(dp1464
g94
g95
ssg83
g1458
sg76
(lp1465
S'local_hosts'
p1466
asbag69
(g90
g71
NtRp1467
(dp1468
g74
(dp1469
g101
g102
ssg83
g1458
sg76
(lp1470
S':'
asbag69
(g90
g71
NtRp1471
(dp1472
g74
(dp1473
sg83
g1458
sg76
(lp1474
g69
(g70
g71
NtRp1475
(dp1476
g74
(dp1477
g82
I4
ssg83
g1471
sg76
(lp1478
g69
(g78
g71
NtRp1479
(dp1480
g74
(dp1481
g82
I3
ssg83
Nsg76
(lp1482
g69
(g85
g71
NtRp1483
(dp1484
g74
(dp1485
sg83
g1479
sg76
(lp1486
g69
(g90
g71
NtRp1487
(dp1488
g74
(dp1489
sg83
g1483
sg76
(lp1490
g69
(g70
g71
NtRp1491
(dp1492
g74
(dp1493
g82
I3
ssg83
g1487
sg76
(lp1494
S'127.0.0.1'
p1495
asbasbasbag69
(g85
g71
NtRp1496
(dp1497
g74
(dp1498
sg83
g1479
sg76
(lp1499
g69
(g90
g71
NtRp1500
(dp1501
g74
(dp1502
sg83
g1496
sg76
(lp1503
g69
(g70
g71
NtRp1504
(dp1505
g74
(dp1506
g82
I3
ssg83
g1500
sg76
(lp1507
S'::ffff:127.0.0.1'
p1508
asbasbasbag69
(g85
g71
NtRp1509
(dp1510
g74
(dp1511
sg83
g1479
sg76
(lp1512
g69
(g90
g71
NtRp1513
(dp1514
g74
(dp1515
sg83
g1509
sg76
(lp1516
g69
(g70
g71
NtRp1517
(dp1518
g74
(dp1519
g82
I3
ssg83
g1513
sg76
(lp1520
S'unicron.shis.uth.tmc.edu'
p1521
asbasbasbag69
(g85
g71
NtRp1522
(dp1523
g74
(dp1524
sg83
g1479
sg76
(lp1525
g69
(g90
g71
NtRp1526
(dp1527
g74
(dp1528
sg83
g1522
sg76
(lp1529
g69
(g70
g71
NtRp1530
(dp1531
g74
(dp1532
g82
I3
ssg83
g1526
sg76
(lp1533
S'unicron.shis.uth.tmc.edu'
p1534
asbasbasbag69
(g85
g71
NtRp1535
(dp1536
g74
(dp1537
sg83
g1479
sg76
(lp1538
g69
(g90
g71
NtRp1539
(dp1540
g74
(dp1541
sg83
g1535
sg76
(lp1542
g69
(g70
g71
NtRp1543
(dp1544
g74
(dp1545
g82
I3
ssg83
g1539
sg76
(lp1546
S'127.0.0.1'
p1547
asbasbasbasbasbasbasbag69
(g85
g71
NtRp1548
(dp1549
g74
(dp1550
sg83
g1058
sg76
(lp1551
g69
(g90
g71
NtRp1552
(dp1553
g74
(dp1554
g94
g95
ssg83
g1548
sg76
(lp1555
S'path_info'
p1556
asbag69
(g90
g71
NtRp1557
(dp1558
g74
(dp1559
g101
g102
ssg83
g1548
sg76
(lp1560
S':'
asbag69
(g90
g71
NtRp1561
(dp1562
g74
(dp1563
sg83
g1548
sg76
(lp1564
g69
(g70
g71
NtRp1565
(dp1566
g74
(dp1567
g82
I4
ssg83
g1561
sg76
(lp1568
S'/Betsy/default/show_job/131'
p1569
asbasbasbag69
(g85
g71
NtRp1570
(dp1571
g74
(dp1572
sg83
g1058
sg76
(lp1573
g69
(g90
g71
NtRp1574
(dp1575
g74
(dp1576
g94
g95
ssg83
g1570
sg76
(lp1577
S'query_string'
p1578
asbag69
(g90
g71
NtRp1579
(dp1580
g74
(dp1581
g101
g102
ssg83
g1570
sg76
(lp1582
S':'
asbag69
(g90
g71
NtRp1583
(dp1584
g74
(dp1585
sg83
g1570
sg76
(lp1586
g69
(g70
g71
NtRp1587
(dp1588
g74
(dp1589
g82
I4
ssg83
g1583
sg76
(lp1590
S''
asbasbasbag69
(g85
g71
NtRp1591
(dp1592
g74
(dp1593
sg83
g1058
sg76
(lp1594
g69
(g90
g71
NtRp1595
(dp1596
g74
(dp1597
g94
g95
ssg83
g1591
sg76
(lp1598
S'remote_addr'
p1599
asbag69
(g90
g71
NtRp1600
(dp1601
g74
(dp1602
g101
g102
ssg83
g1591
sg76
(lp1603
S':'
asbag69
(g90
g71
NtRp1604
(dp1605
g74
(dp1606
sg83
g1591
sg76
(lp1607
g69
(g70
g71
NtRp1608
(dp1609
g74
(dp1610
g82
I4
ssg83
g1604
sg76
(lp1611
g237
asbasbasbag69
(g85
g71
NtRp1612
(dp1613
g74
(dp1614
sg83
g1058
sg76
(lp1615
g69
(g90
g71
NtRp1616
(dp1617
g74
(dp1618
g94
g95
ssg83
g1612
sg76
(lp1619
S'remote_port'
p1620
asbag69
(g90
g71
NtRp1621
(dp1622
g74
(dp1623
g101
g102
ssg83
g1612
sg76
(lp1624
S':'
asbag69
(g90
g71
NtRp1625
(dp1626
g74
(dp1627
sg83
g1612
sg76
(lp1628
g69
(g70
g71
NtRp1629
(dp1630
g74
(dp1631
g82
I4
ssg83
g1625
sg76
(lp1632
S'55030'
p1633
asbasbasbag69
(g85
g71
NtRp1634
(dp1635
g74
(dp1636
sg83
g1058
sg76
(lp1637
g69
(g90
g71
NtRp1638
(dp1639
g74
(dp1640
g94
g95
ssg83
g1634
sg76
(lp1641
S'request_method'
p1642
asbag69
(g90
g71
NtRp1643
(dp1644
g74
(dp1645
g101
g102
ssg83
g1634
sg76
(lp1646
S':'
asbag69
(g90
g71
NtRp1647
(dp1648
g74
(dp1649
sg83
g1634
sg76
(lp1650
g69
(g70
g71
NtRp1651
(dp1652
g74
(dp1653
g82
I4
ssg83
g1647
sg76
(lp1654
S'GET'
p1655
asbasbasbag69
(g85
g71
NtRp1656
(dp1657
g74
(dp1658
sg83
g1058
sg76
(lp1659
g69
(g90
g71
NtRp1660
(dp1661
g74
(dp1662
g94
g95
ssg83
g1656
sg76
(lp1663
S'request_uri'
p1664
asbag69
(g90
g71
NtRp1665
(dp1666
g74
(dp1667
g101
g102
ssg83
g1656
sg76
(lp1668
S':'
asbag69
(g90
g71
NtRp1669
(dp1670
g74
(dp1671
sg83
g1656
sg76
(lp1672
g69
(g70
g71
NtRp1673
(dp1674
g74
(dp1675
g82
I4
ssg83
g1669
sg76
(lp1676
g1569
asbasbasbag69
(g85
g71
NtRp1677
(dp1678
g74
(dp1679
sg83
g1058
sg76
(lp1680
g69
(g90
g71
NtRp1681
(dp1682
g74
(dp1683
g94
g95
ssg83
g1677
sg76
(lp1684
S'script_name'
p1685
asbag69
(g90
g71
NtRp1686
(dp1687
g74
(dp1688
g101
g102
ssg83
g1677
sg76
(lp1689
S':'
asbag69
(g90
g71
NtRp1690
(dp1691
g74
(dp1692
sg83
g1677
sg76
(lp1693
g69
(g70
g71
NtRp1694
(dp1695
g74
(dp1696
g82
I4
ssg83
g1690
sg76
(lp1697
S''
asbasbasbag69
(g85
g71
NtRp1698
(dp1699
g74
(dp1700
sg83
g1058
sg76
(lp1701
g69
(g90
g71
NtRp1702
(dp1703
g74
(dp1704
g94
g95
ssg83
g1698
sg76
(lp1705
S'server_name'
p1706
asbag69
(g90
g71
NtRp1707
(dp1708
g74
(dp1709
g101
g102
ssg83
g1698
sg76
(lp1710
S':'
asbag69
(g90
g71
NtRp1711
(dp1712
g74
(dp1713
sg83
g1698
sg76
(lp1714
g69
(g70
g71
NtRp1715
(dp1716
g74
(dp1717
g82
I4
ssg83
g1711
sg76
(lp1718
g1534
asbasbasbag69
(g85
g71
NtRp1719
(dp1720
g74
(dp1721
sg83
g1058
sg76
(lp1722
g69
(g90
g71
NtRp1723
(dp1724
g74
(dp1725
g94
g95
ssg83
g1719
sg76
(lp1726
S'server_port'
p1727
asbag69
(g90
g71
NtRp1728
(dp1729
g74
(dp1730
g101
g102
ssg83
g1719
sg76
(lp1731
S':'
asbag69
(g90
g71
NtRp1732
(dp1733
g74
(dp1734
sg83
g1719
sg76
(lp1735
g69
(g70
g71
NtRp1736
(dp1737
g74
(dp1738
g82
I4
ssg83
g1732
sg76
(lp1739
S'8080'
p1740
asbasbasbag69
(g85
g71
NtRp1741
(dp1742
g74
(dp1743
sg83
g1058
sg76
(lp1744
g69
(g90
g71
NtRp1745
(dp1746
g74
(dp1747
g94
g95
ssg83
g1741
sg76
(lp1748
S'server_protocol'
p1749
asbag69
(g90
g71
NtRp1750
(dp1751
g74
(dp1752
g101
g102
ssg83
g1741
sg76
(lp1753
S':'
asbag69
(g90
g71
NtRp1754
(dp1755
g74
(dp1756
sg83
g1741
sg76
(lp1757
g69
(g70
g71
NtRp1758
(dp1759
g74
(dp1760
g82
I4
ssg83
g1754
sg76
(lp1761
S'HTTP/1.1'
p1762
asbasbasbag69
(g85
g71
NtRp1763
(dp1764
g74
(dp1765
sg83
g1058
sg76
(lp1766
g69
(g90
g71
NtRp1767
(dp1768
g74
(dp1769
g94
g95
ssg83
g1763
sg76
(lp1770
S'server_software'
p1771
asbag69
(g90
g71
NtRp1772
(dp1773
g74
(dp1774
g101
g102
ssg83
g1763
sg76
(lp1775
S':'
asbag69
(g90
g71
NtRp1776
(dp1777
g74
(dp1778
sg83
g1763
sg76
(lp1779
g69
(g70
g71
NtRp1780
(dp1781
g74
(dp1782
g82
I4
ssg83
g1776
sg76
(lp1783
S'Rocket 1.2.5'
p1784
asbasbasbag69
(g85
g71
NtRp1785
(dp1786
g74
(dp1787
sg83
g1058
sg76
(lp1788
g69
(g90
g71
NtRp1789
(dp1790
g74
(dp1791
g94
g95
ssg83
g1785
sg76
(lp1792
S'web2py_path'
p1793
asbag69
(g90
g71
NtRp1794
(dp1795
g74
(dp1796
g101
g102
ssg83
g1785
sg76
(lp1797
S':'
asbag69
(g90
g71
NtRp1798
(dp1799
g74
(dp1800
sg83
g1785
sg76
(lp1801
g69
(g70
g71
NtRp1802
(dp1803
g74
(dp1804
g82
I4
ssg83
g1798
sg76
(lp1805
g1105
asbasbasbag69
(g85
g71
NtRp1806
(dp1807
g74
(dp1808
sg83
g1058
sg76
(lp1809
g69
(g90
g71
NtRp1810
(dp1811
g74
(dp1812
g94
g95
ssg83
g1806
sg76
(lp1813
S'web2py_version'
p1814
asbag69
(g90
g71
NtRp1815
(dp1816
g74
(dp1817
g101
g102
ssg83
g1806
sg76
(lp1818
S':'
asbag69
(g90
g71
NtRp1819
(dp1820
g74
(dp1821
sg83
g1806
sg76
(lp1822
g69
(g70
g71
NtRp1823
(dp1824
g74
(dp1825
g82
I4
ssg83
g1819
sg76
(lp1826
g69
(g78
g71
NtRp1827
(dp1828
g74
(dp1829
g82
I3
ssg83
Nsg76
(lp1830
g69
(g85
g71
NtRp1831
(dp1832
g74
(dp1833
sg83
g1827
sg76
(lp1834
g69
(g90
g71
NtRp1835
(dp1836
g74
(dp1837
sg83
g1831
sg76
(lp1838
g69
(g70
g71
NtRp1839
(dp1840
g74
(dp1841
g82
I3
ssg83
g1835
sg76
(lp1842
S'2'
asbasbasbag69
(g85
g71
NtRp1843
(dp1844
g74
(dp1845
sg83
g1827
sg76
(lp1846
g69
(g90
g71
NtRp1847
(dp1848
g74
(dp1849
sg83
g1843
sg76
(lp1850
g69
(g70
g71
NtRp1851
(dp1852
g74
(dp1853
g82
I3
ssg83
g1847
sg76
(lp1854
S'2'
asbasbasbag69
(g85
g71
NtRp1855
(dp1856
g74
(dp1857
sg83
g1827
sg76
(lp1858
g69
(g90
g71
NtRp1859
(dp1860
g74
(dp1861
sg83
g1855
sg76
(lp1862
g69
(g70
g71
NtRp1863
(dp1864
g74
(dp1865
g82
I3
ssg83
g1859
sg76
(lp1866
S'1'
asbasbasbag69
(g85
g71
NtRp1867
(dp1868
g74
(dp1869
sg83
g1827
sg76
(lp1870
g69
(g90
g71
NtRp1871
(dp1872
g74
(dp1873
sg83
g1867
sg76
(lp1874
g69
(g70
g71
NtRp1875
(dp1876
g74
(dp1877
g82
I3
ssg83
g1871
sg76
(lp1878
S'datetime.datetime(2012, 10, 21, 16, 57, 4)'
p1879
asbasbasbag69
(g85
g71
NtRp1880
(dp1881
g74
(dp1882
sg83
g1827
sg76
(lp1883
g69
(g90
g71
NtRp1884
(dp1885
g74
(dp1886
sg83
g1880
sg76
(lp1887
g69
(g70
g71
NtRp1888
(dp1889
g74
(dp1890
g82
I3
ssg83
g1884
sg76
(lp1891
S'stable'
p1892
asbasbasbasbasbasbasbag69
(g85
g71
NtRp1893
(dp1894
g74
(dp1895
sg83
g1058
sg76
(lp1896
g69
(g90
g71
NtRp1897
(dp1898
g74
(dp1899
g94
g95
ssg83
g1893
sg76
(lp1900
S'wsgi_errors'
p1901
asbag69
(g90
g71
NtRp1902
(dp1903
g74
(dp1904
g101
g102
ssg83
g1893
sg76
(lp1905
S':'
asbag69
(g90
g71
NtRp1906
(dp1907
g74
(dp1908
sg83
g1893
sg76
(lp1909
g69
(g70
g71
NtRp1910
(dp1911
g74
(dp1912
g82
I4
ssg83
g1906
sg76
(lp1913
S"<open file '<stderr>', mode 'w' at 0x2b60d272f270>"
p1914
asbasbasbag69
(g85
g71
NtRp1915
(dp1916
g74
(dp1917
sg83
g1058
sg76
(lp1918
g69
(g90
g71
NtRp1919
(dp1920
g74
(dp1921
g94
g95
ssg83
g1915
sg76
(lp1922
S'wsgi_file_wrapper'
p1923
asbag69
(g90
g71
NtRp1924
(dp1925
g74
(dp1926
g101
g102
ssg83
g1915
sg76
(lp1927
S':'
asbag69
(g90
g71
NtRp1928
(dp1929
g74
(dp1930
sg83
g1915
sg76
(lp1931
g69
(g70
g71
NtRp1932
(dp1933
g74
(dp1934
g82
I4
ssg83
g1928
sg76
(lp1935
S'<class wsgiref.util.FileWrapper at 0x1872fa78>'
p1936
asbasbasbag69
(g85
g71
NtRp1937
(dp1938
g74
(dp1939
sg83
g1058
sg76
(lp1940
g69
(g90
g71
NtRp1941
(dp1942
g74
(dp1943
g94
g95
ssg83
g1937
sg76
(lp1944
S'wsgi_input'
p1945
asbag69
(g90
g71
NtRp1946
(dp1947
g74
(dp1948
g101
g102
ssg83
g1937
sg76
(lp1949
S':'
asbag69
(g90
g71
NtRp1950
(dp1951
g74
(dp1952
sg83
g1937
sg76
(lp1953
g69
(g70
g71
NtRp1954
(dp1955
g74
(dp1956
g82
I4
ssg83
g1950
sg76
(lp1957
S'<socket._fileobject object at 0x19a58c50>'
p1958
asbasbasbag69
(g85
g71
NtRp1959
(dp1960
g74
(dp1961
sg83
g1058
sg76
(lp1962
g69
(g90
g71
NtRp1963
(dp1964
g74
(dp1965
g94
g95
ssg83
g1959
sg76
(lp1966
S'wsgi_multiprocess'
p1967
asbag69
(g90
g71
NtRp1968
(dp1969
g74
(dp1970
g101
g102
ssg83
g1959
sg76
(lp1971
S':'
asbag69
(g90
g71
NtRp1972
(dp1973
g74
(dp1974
sg83
g1959
sg76
(lp1975
g69
(g70
g71
NtRp1976
(dp1977
g74
(dp1978
g82
I4
ssg83
g1972
sg76
(lp1979
g112
asbasbasbag69
(g85
g71
NtRp1980
(dp1981
g74
(dp1982
sg83
g1058
sg76
(lp1983
g69
(g90
g71
NtRp1984
(dp1985
g74
(dp1986
g94
g95
ssg83
g1980
sg76
(lp1987
S'wsgi_multithread'
p1988
asbag69
(g90
g71
NtRp1989
(dp1990
g74
(dp1991
g101
g102
ssg83
g1980
sg76
(lp1992
S':'
asbag69
(g90
g71
NtRp1993
(dp1994
g74
(dp1995
sg83
g1980
sg76
(lp1996
g69
(g70
g71
NtRp1997
(dp1998
g74
(dp1999
g82
I4
ssg83
g1993
sg76
(lp2000
S'True'
p2001
asbasbasbag69
(g85
g71
NtRp2002
(dp2003
g74
(dp2004
sg83
g1058
sg76
(lp2005
g69
(g90
g71
NtRp2006
(dp2007
g74
(dp2008
g94
g95
ssg83
g2002
sg76
(lp2009
S'wsgi_run_once'
p2010
asbag69
(g90
g71
NtRp2011
(dp2012
g74
(dp2013
g101
g102
ssg83
g2002
sg76
(lp2014
S':'
asbag69
(g90
g71
NtRp2015
(dp2016
g74
(dp2017
sg83
g2002
sg76
(lp2018
g69
(g70
g71
NtRp2019
(dp2020
g74
(dp2021
g82
I4
ssg83
g2015
sg76
(lp2022
g112
asbasbasbag69
(g85
g71
NtRp2023
(dp2024
g74
(dp2025
sg83
g1058
sg76
(lp2026
g69
(g90
g71
NtRp2027
(dp2028
g74
(dp2029
g94
g95
ssg83
g2023
sg76
(lp2030
S'wsgi_url_scheme'
p2031
asbag69
(g90
g71
NtRp2032
(dp2033
g74
(dp2034
g101
g102
ssg83
g2023
sg76
(lp2035
S':'
asbag69
(g90
g71
NtRp2036
(dp2037
g74
(dp2038
sg83
g2023
sg76
(lp2039
g69
(g70
g71
NtRp2040
(dp2041
g74
(dp2042
g82
I4
ssg83
g2036
sg76
(lp2043
S'http'
p2044
asbasbasbag69
(g85
g71
NtRp2045
(dp2046
g74
(dp2047
sg83
g1058
sg76
(lp2048
g69
(g90
g71
NtRp2049
(dp2050
g74
(dp2051
g94
g95
ssg83
g2045
sg76
(lp2052
S'wsgi_version'
p2053
asbag69
(g90
g71
NtRp2054
(dp2055
g74
(dp2056
g101
g102
ssg83
g2045
sg76
(lp2057
S':'
asbag69
(g90
g71
NtRp2058
(dp2059
g74
(dp2060
sg83
g2045
sg76
(lp2061
g69
(g70
g71
NtRp2062
(dp2063
g74
(dp2064
g82
I4
ssg83
g2058
sg76
(lp2065
g69
(g78
g71
NtRp2066
(dp2067
g74
(dp2068
g82
I3
ssg83
Nsg76
(lp2069
g69
(g85
g71
NtRp2070
(dp2071
g74
(dp2072
sg83
g2066
sg76
(lp2073
g69
(g90
g71
NtRp2074
(dp2075
g74
(dp2076
sg83
g2070
sg76
(lp2077
g69
(g70
g71
NtRp2078
(dp2079
g74
(dp2080
g82
I3
ssg83
g2074
sg76
(lp2081
S'1'
asbasbasbag69
(g85
g71
NtRp2082
(dp2083
g74
(dp2084
sg83
g2066
sg76
(lp2085
g69
(g90
g71
NtRp2086
(dp2087
g74
(dp2088
sg83
g2082
sg76
(lp2089
g69
(g70
g71
NtRp2090
(dp2091
g74
(dp2092
g82
I3
ssg83
g2086
sg76
(lp2093
S'0'
asbasbasbasbasbasbasbasbasbasbasbag69
(g85
g71
NtRp2094
(dp2095
g74
(dp2096
sg83
g79
sg76
(lp2097
g69
(g90
g71
NtRp2098
(dp2099
g74
(dp2100
g94
g95
ssg83
g2094
sg76
(lp2101
S'extension'
p2102
asbag69
(g90
g71
NtRp2103
(dp2104
g74
(dp2105
g101
g102
ssg83
g2094
sg76
(lp2106
S':'
asbag69
(g90
g71
NtRp2107
(dp2108
g74
(dp2109
sg83
g2094
sg76
(lp2110
g69
(g70
g71
NtRp2111
(dp2112
g74
(dp2113
g82
I5
ssg83
g2107
sg76
(lp2114
S'html'
p2115
asbasbasbag69
(g85
g71
NtRp2116
(dp2117
g74
(dp2118
sg83
g79
sg76
(lp2119
g69
(g90
g71
NtRp2120
(dp2121
g74
(dp2122
g94
g95
ssg83
g2116
sg76
(lp2123
S'folder'
p2124
asbag69
(g90
g71
NtRp2125
(dp2126
g74
(dp2127
g101
g102
ssg83
g2116
sg76
(lp2128
S':'
asbag69
(g90
g71
NtRp2129
(dp2130
g74
(dp2131
sg83
g2116
sg76
(lp2132
g69
(g70
g71
NtRp2133
(dp2134
g74
(dp2135
g82
I5
ssg83
g2129
sg76
(lp2136
S'/home/xchen/web2py/applications/Betsy/'
p2137
asbasbasbag69
(g85
g71
NtRp2138
(dp2139
g74
(dp2140
sg83
g79
sg76
(lp2141
g69
(g90
g71
NtRp2142
(dp2143
g74
(dp2144
g94
g95
ssg83
g2138
sg76
(lp2145
S'function'
p2146
asbag69
(g90
g71
NtRp2147
(dp2148
g74
(dp2149
g101
g102
ssg83
g2138
sg76
(lp2150
S':'
asbag69
(g90
g71
NtRp2151
(dp2152
g74
(dp2153
sg83
g2138
sg76
(lp2154
g69
(g70
g71
NtRp2155
(dp2156
g74
(dp2157
g82
I5
ssg83
g2151
sg76
(lp2158
S'show_job'
p2159
asbasbasbag69
(g85
g71
NtRp2160
(dp2161
g74
(dp2162
sg83
g79
sg76
(lp2163
g69
(g90
g71
NtRp2164
(dp2165
g74
(dp2166
g94
g95
ssg83
g2160
sg76
(lp2167
S'get_vars'
p2168
asbag69
(g90
g71
NtRp2169
(dp2170
g74
(dp2171
g101
g102
ssg83
g2160
sg76
(lp2172
S':'
asbag69
(g90
g71
NtRp2173
(dp2174
g74
(dp2175
sg83
g2160
sg76
(lp2176
g69
(g70
g71
NtRp2177
(dp2178
g74
(dp2179
g82
I5
ssg83
g2173
sg76
(lp2180
g69
(g78
g71
NtRp2181
(dp2182
g74
(dp2183
g82
I4
ssg83
Nsg76
(lp2184
sbasbasbasbag69
(g85
g71
NtRp2185
(dp2186
g74
(dp2187
sg83
g79
sg76
(lp2188
g69
(g90
g71
NtRp2189
(dp2190
g74
(dp2191
g94
g95
ssg83
g2185
sg76
(lp2192
S'global_settings'
p2193
asbag69
(g90
g71
NtRp2194
(dp2195
g74
(dp2196
g101
g102
ssg83
g2185
sg76
(lp2197
S':'
asbag69
(g90
g71
NtRp2198
(dp2199
g74
(dp2200
sg83
g2185
sg76
(lp2201
g69
(g70
g71
NtRp2202
(dp2203
g74
(dp2204
g82
I5
ssg83
g2198
sg76
(lp2205
g69
(g78
g71
NtRp2206
(dp2207
g74
(dp2208
g82
I4
ssg83
Nsg76
(lp2209
g69
(g85
g71
NtRp2210
(dp2211
g74
(dp2212
sg83
g2206
sg76
(lp2213
g69
(g90
g71
NtRp2214
(dp2215
g74
(dp2216
g94
g95
ssg83
g2210
sg76
(lp2217
g1070
asbag69
(g90
g71
NtRp2218
(dp2219
g74
(dp2220
g101
g102
ssg83
g2210
sg76
(lp2221
S':'
asbag69
(g90
g71
NtRp2222
(dp2223
g74
(dp2224
sg83
g2210
sg76
(lp2225
g69
(g70
g71
NtRp2226
(dp2227
g74
(dp2228
g82
I4
ssg83
g2222
sg76
(lp2229
S"set(['/home/xchen/web2py/applications/Betsy/', '/home/xchen/web2py/applications/admin/', '/home/xchen/web2py/applications/welcome/'])"
p2230
asbasbasbag69
(g85
g71
NtRp2231
(dp2232
g74
(dp2233
sg83
g2206
sg76
(lp2234
g69
(g90
g71
NtRp2235
(dp2236
g74
(dp2237
g94
g95
ssg83
g2231
sg76
(lp2238
g1092
asbag69
(g90
g71
NtRp2239
(dp2240
g74
(dp2241
g101
g102
ssg83
g2231
sg76
(lp2242
S':'
asbag69
(g90
g71
NtRp2243
(dp2244
g74
(dp2245
sg83
g2231
sg76
(lp2246
g69
(g70
g71
NtRp2247
(dp2248
g74
(dp2249
g82
I4
ssg83
g2243
sg76
(lp2250
g1105
asbasbasbag69
(g85
g71
NtRp2251
(dp2252
g74
(dp2253
sg83
g2206
sg76
(lp2254
g69
(g90
g71
NtRp2255
(dp2256
g74
(dp2257
g94
g95
ssg83
g2251
sg76
(lp2258
g1114
asbag69
(g90
g71
NtRp2259
(dp2260
g74
(dp2261
g101
g102
ssg83
g2251
sg76
(lp2262
S':'
asbag69
(g90
g71
NtRp2263
(dp2264
g74
(dp2265
sg83
g2251
sg76
(lp2266
g69
(g70
g71
NtRp2267
(dp2268
g74
(dp2269
g82
I4
ssg83
g2263
sg76
(lp2270
g69
(g78
g71
NtRp2271
(dp2272
g74
(dp2273
g82
I3
ssg83
Nsg76
(lp2274
sbasbasbasbag69
(g85
g71
NtRp2275
(dp2276
g74
(dp2277
sg83
g2206
sg76
(lp2278
g69
(g90
g71
NtRp2279
(dp2280
g74
(dp2281
g94
g95
ssg83
g2275
sg76
(lp2282
g1139
asbag69
(g90
g71
NtRp2283
(dp2284
g74
(dp2285
g101
g102
ssg83
g2275
sg76
(lp2286
S':'
asbag69
(g90
g71
NtRp2287
(dp2288
g74
(dp2289
sg83
g2275
sg76
(lp2290
g69
(g70
g71
NtRp2291
(dp2292
g74
(dp2293
g82
I4
ssg83
g2287
sg76
(lp2294
S"<Values at 0x187d1e18: {'verbose': False, 'ip': '127.0.0.1', 'with_scheduler': False, 'ips': [], 'shutdown_timeout': 5, 'taskbar': False, 'port': 8080, 'maxthreads': None, 'softcron': False, 'server_name': 'unicron.shis.uth.tmc.edu', 'bpython': False, 'nogui': False, 'pid_filename': 'httpserver.pid', 'extcron': False, 'runcron': False, 'run_system_tests': False, 'test': None, 'folder': '/home/xchen/web2py', 'config': '', 'minthreads': None, 'winservice': '', 'shell': None, 'run': '', 'log_filename': 'httpserver.log', 'debuglevel': 30, 'args': [''], 'socket_timeout': 5, 'ssl_ca_certificate': None, 'scheduler': None, 'profiler_filename': None, 'ssl_private_key': '', 'scheduler_groups': None, 'password': 'baby2008', 'request_queue_size': 5, 'ssl_certificate': '', 'cronjob': False, 'numthreads': None, 'quiet': False, 'interfaces': None, 'import_models': False, 'timeout': 10, 'plain': False, 'nobanner': False}>"
p2295
asbasbasbag69
(g85
g71
NtRp2296
(dp2297
g74
(dp2298
sg83
g2206
sg76
(lp2299
g69
(g90
g71
NtRp2300
(dp2301
g74
(dp2302
g94
g95
ssg83
g2296
sg76
(lp2303
g1161
asbag69
(g90
g71
NtRp2304
(dp2305
g74
(dp2306
g101
g102
ssg83
g2296
sg76
(lp2307
S':'
asbag69
(g90
g71
NtRp2308
(dp2309
g74
(dp2310
sg83
g2296
sg76
(lp2311
g69
(g70
g71
NtRp2312
(dp2313
g74
(dp2314
g82
I4
ssg83
g2308
sg76
(lp2315
S'set([])'
p2316
asbasbasbag69
(g85
g71
NtRp2317
(dp2318
g74
(dp2319
sg83
g2206
sg76
(lp2320
g69
(g90
g71
NtRp2321
(dp2322
g74
(dp2323
g94
g95
ssg83
g2317
sg76
(lp2324
g1183
asbag69
(g90
g71
NtRp2325
(dp2326
g74
(dp2327
g101
g102
ssg83
g2317
sg76
(lp2328
S':'
asbag69
(g90
g71
NtRp2329
(dp2330
g74
(dp2331
sg83
g2317
sg76
(lp2332
g69
(g70
g71
NtRp2333
(dp2334
g74
(dp2335
g82
I4
ssg83
g2329
sg76
(lp2336
g112
asbasbasbag69
(g85
g71
NtRp2337
(dp2338
g74
(dp2339
sg83
g2206
sg76
(lp2340
g69
(g90
g71
NtRp2341
(dp2342
g74
(dp2343
g94
g95
ssg83
g2337
sg76
(lp2344
g1204
asbag69
(g90
g71
NtRp2345
(dp2346
g74
(dp2347
g101
g102
ssg83
g2337
sg76
(lp2348
S':'
asbag69
(g90
g71
NtRp2349
(dp2350
g74
(dp2351
sg83
g2337
sg76
(lp2352
g69
(g70
g71
NtRp2353
(dp2354
g74
(dp2355
g82
I4
ssg83
g2349
sg76
(lp2356
g1217
asbasbasbag69
(g85
g71
NtRp2357
(dp2358
g74
(dp2359
sg83
g2206
sg76
(lp2360
g69
(g90
g71
NtRp2361
(dp2362
g74
(dp2363
g94
g95
ssg83
g2357
sg76
(lp2364
g1424
asbag69
(g90
g71
NtRp2365
(dp2366
g74
(dp2367
g101
g102
ssg83
g2357
sg76
(lp2368
S':'
asbag69
(g90
g71
NtRp2369
(dp2370
g74
(dp2371
sg83
g2357
sg76
(lp2372
g69
(g70
g71
NtRp2373
(dp2374
g74
(dp2375
g82
I4
ssg83
g2369
sg76
(lp2376
g112
asbasbasbag69
(g85
g71
NtRp2377
(dp2378
g74
(dp2379
sg83
g2206
sg76
(lp2380
g69
(g90
g71
NtRp2381
(dp2382
g74
(dp2383
g94
g95
ssg83
g2377
sg76
(lp2384
g1445
asbag69
(g90
g71
NtRp2385
(dp2386
g74
(dp2387
g101
g102
ssg83
g2377
sg76
(lp2388
S':'
asbag69
(g90
g71
NtRp2389
(dp2390
g74
(dp2391
sg83
g2377
sg76
(lp2392
g69
(g70
g71
NtRp2393
(dp2394
g74
(dp2395
g82
I4
ssg83
g2389
sg76
(lp2396
g112
asbasbasbag69
(g85
g71
NtRp2397
(dp2398
g74
(dp2399
sg83
g2206
sg76
(lp2400
g69
(g90
g71
NtRp2401
(dp2402
g74
(dp2403
g94
g95
ssg83
g2397
sg76
(lp2404
g1466
asbag69
(g90
g71
NtRp2405
(dp2406
g74
(dp2407
g101
g102
ssg83
g2397
sg76
(lp2408
S':'
asbag69
(g90
g71
NtRp2409
(dp2410
g74
(dp2411
sg83
g2397
sg76
(lp2412
g69
(g70
g71
NtRp2413
(dp2414
g74
(dp2415
g82
I4
ssg83
g2409
sg76
(lp2416
g69
(g78
g71
NtRp2417
(dp2418
g74
(dp2419
g82
I3
ssg83
Nsg76
(lp2420
g69
(g85
g71
NtRp2421
(dp2422
g74
(dp2423
sg83
g2417
sg76
(lp2424
g69
(g90
g71
NtRp2425
(dp2426
g74
(dp2427
sg83
g2421
sg76
(lp2428
g69
(g70
g71
NtRp2429
(dp2430
g74
(dp2431
g82
I3
ssg83
g2425
sg76
(lp2432
g1495
asbasbasbag69
(g85
g71
NtRp2433
(dp2434
g74
(dp2435
sg83
g2417
sg76
(lp2436
g69
(g90
g71
NtRp2437
(dp2438
g74
(dp2439
sg83
g2433
sg76
(lp2440
g69
(g70
g71
NtRp2441
(dp2442
g74
(dp2443
g82
I3
ssg83
g2437
sg76
(lp2444
g1508
asbasbasbag69
(g85
g71
NtRp2445
(dp2446
g74
(dp2447
sg83
g2417
sg76
(lp2448
g69
(g90
g71
NtRp2449
(dp2450
g74
(dp2451
sg83
g2445
sg76
(lp2452
g69
(g70
g71
NtRp2453
(dp2454
g74
(dp2455
g82
I3
ssg83
g2449
sg76
(lp2456
g1521
asbasbasbag69
(g85
g71
NtRp2457
(dp2458
g74
(dp2459
sg83
g2417
sg76
(lp2460
g69
(g90
g71
NtRp2461
(dp2462
g74
(dp2463
sg83
g2457
sg76
(lp2464
g69
(g70
g71
NtRp2465
(dp2466
g74
(dp2467
g82
I3
ssg83
g2461
sg76
(lp2468
g1534
asbasbasbag69
(g85
g71
NtRp2469
(dp2470
g74
(dp2471
sg83
g2417
sg76
(lp2472
g69
(g90
g71
NtRp2473
(dp2474
g74
(dp2475
sg83
g2469
sg76
(lp2476
g69
(g70
g71
NtRp2477
(dp2478
g74
(dp2479
g82
I3
ssg83
g2473
sg76
(lp2480
g1547
asbasbasbasbasbasbasbag69
(g85
g71
NtRp2481
(dp2482
g74
(dp2483
sg83
g2206
sg76
(lp2484
g69
(g90
g71
NtRp2485
(dp2486
g74
(dp2487
g94
g95
ssg83
g2481
sg76
(lp2488
g1814
asbag69
(g90
g71
NtRp2489
(dp2490
g74
(dp2491
g101
g102
ssg83
g2481
sg76
(lp2492
S':'
asbag69
(g90
g71
NtRp2493
(dp2494
g74
(dp2495
sg83
g2481
sg76
(lp2496
g69
(g70
g71
NtRp2497
(dp2498
g74
(dp2499
g82
I4
ssg83
g2493
sg76
(lp2500
g69
(g78
g71
NtRp2501
(dp2502
g74
(dp2503
g82
I3
ssg83
Nsg76
(lp2504
g69
(g85
g71
NtRp2505
(dp2506
g74
(dp2507
sg83
g2501
sg76
(lp2508
g69
(g90
g71
NtRp2509
(dp2510
g74
(dp2511
sg83
g2505
sg76
(lp2512
g69
(g70
g71
NtRp2513
(dp2514
g74
(dp2515
g82
I3
ssg83
g2509
sg76
(lp2516
S'2'
asbasbasbag69
(g85
g71
NtRp2517
(dp2518
g74
(dp2519
sg83
g2501
sg76
(lp2520
g69
(g90
g71
NtRp2521
(dp2522
g74
(dp2523
sg83
g2517
sg76
(lp2524
g69
(g70
g71
NtRp2525
(dp2526
g74
(dp2527
g82
I3
ssg83
g2521
sg76
(lp2528
S'2'
asbasbasbag69
(g85
g71
NtRp2529
(dp2530
g74
(dp2531
sg83
g2501
sg76
(lp2532
g69
(g90
g71
NtRp2533
(dp2534
g74
(dp2535
sg83
g2529
sg76
(lp2536
g69
(g70
g71
NtRp2537
(dp2538
g74
(dp2539
g82
I3
ssg83
g2533
sg76
(lp2540
S'1'
asbasbasbag69
(g85
g71
NtRp2541
(dp2542
g74
(dp2543
sg83
g2501
sg76
(lp2544
g69
(g90
g71
NtRp2545
(dp2546
g74
(dp2547
sg83
g2541
sg76
(lp2548
g69
(g70
g71
NtRp2549
(dp2550
g74
(dp2551
g82
I3
ssg83
g2545
sg76
(lp2552
S'datetime.datetime(2012, 10, 21, 16, 57, 4)'
p2553
asbasbasbag69
(g85
g71
NtRp2554
(dp2555
g74
(dp2556
sg83
g2501
sg76
(lp2557
g69
(g90
g71
NtRp2558
(dp2559
g74
(dp2560
sg83
g2554
sg76
(lp2561
g69
(g70
g71
NtRp2562
(dp2563
g74
(dp2564
g82
I3
ssg83
g2558
sg76
(lp2565
g1892
asbasbasbasbasbasbasbasbasbasbasbag69
(g85
g71
NtRp2566
(dp2567
g74
(dp2568
sg83
g79
sg76
(lp2569
g69
(g90
g71
NtRp2570
(dp2571
g74
(dp2572
g94
g95
ssg83
g2566
sg76
(lp2573
S'is_https'
p2574
asbag69
(g90
g71
NtRp2575
(dp2576
g74
(dp2577
g101
g102
ssg83
g2566
sg76
(lp2578
S':'
asbag69
(g90
g71
NtRp2579
(dp2580
g74
(dp2581
sg83
g2566
sg76
(lp2582
g69
(g70
g71
NtRp2583
(dp2584
g74
(dp2585
g82
I5
ssg83
g2579
sg76
(lp2586
g112
asbasbasbag69
(g85
g71
NtRp2587
(dp2588
g74
(dp2589
sg83
g79
sg76
(lp2590
g69
(g90
g71
NtRp2591
(dp2592
g74
(dp2593
g94
g95
ssg83
g2587
sg76
(lp2594
S'is_local'
p2595
asbag69
(g90
g71
NtRp2596
(dp2597
g74
(dp2598
g101
g102
ssg83
g2587
sg76
(lp2599
S':'
asbag69
(g90
g71
NtRp2600
(dp2601
g74
(dp2602
sg83
g2587
sg76
(lp2603
g69
(g70
g71
NtRp2604
(dp2605
g74
(dp2606
g82
I5
ssg83
g2600
sg76
(lp2607
g2001
asbasbasbag69
(g85
g71
NtRp2608
(dp2609
g74
(dp2610
sg83
g79
sg76
(lp2611
g69
(g90
g71
NtRp2612
(dp2613
g74
(dp2614
g94
g95
ssg83
g2608
sg76
(lp2615
S'is_restful'
p2616
asbag69
(g90
g71
NtRp2617
(dp2618
g74
(dp2619
g101
g102
ssg83
g2608
sg76
(lp2620
S':'
asbag69
(g90
g71
NtRp2621
(dp2622
g74
(dp2623
sg83
g2608
sg76
(lp2624
g69
(g70
g71
NtRp2625
(dp2626
g74
(dp2627
g82
I5
ssg83
g2621
sg76
(lp2628
g112
asbasbasbag69
(g85
g71
NtRp2629
(dp2630
g74
(dp2631
sg83
g79
sg76
(lp2632
g69
(g90
g71
NtRp2633
(dp2634
g74
(dp2635
g94
g95
ssg83
g2629
sg76
(lp2636
S'now'
p2637
asbag69
(g90
g71
NtRp2638
(dp2639
g74
(dp2640
g101
g102
ssg83
g2629
sg76
(lp2641
S':'
asbag69
(g90
g71
NtRp2642
(dp2643
g74
(dp2644
sg83
g2629
sg76
(lp2645
g69
(g70
g71
NtRp2646
(dp2647
g74
(dp2648
g82
I5
ssg83
g2642
sg76
(lp2649
S'datetime.datetime(2013, 2, 6, 16, 29, 38, 634845)'
p2650
asbasbasbag69
(g85
g71
NtRp2651
(dp2652
g74
(dp2653
sg83
g79
sg76
(lp2654
g69
(g90
g71
NtRp2655
(dp2656
g74
(dp2657
g94
g95
ssg83
g2651
sg76
(lp2658
S'post_vars'
p2659
asbag69
(g90
g71
NtRp2660
(dp2661
g74
(dp2662
g101
g102
ssg83
g2651
sg76
(lp2663
S':'
asbag69
(g90
g71
NtRp2664
(dp2665
g74
(dp2666
sg83
g2651
sg76
(lp2667
g69
(g70
g71
NtRp2668
(dp2669
g74
(dp2670
g82
I5
ssg83
g2664
sg76
(lp2671
g69
(g78
g71
NtRp2672
(dp2673
g74
(dp2674
g82
I4
ssg83
Nsg76
(lp2675
sbasbasbasbag69
(g85
g71
NtRp2676
(dp2677
g74
(dp2678
sg83
g79
sg76
(lp2679
g69
(g90
g71
NtRp2680
(dp2681
g74
(dp2682
g94
g95
ssg83
g2676
sg76
(lp2683
S'raw_args'
p2684
asbag69
(g90
g71
NtRp2685
(dp2686
g74
(dp2687
g101
g102
ssg83
g2676
sg76
(lp2688
S':'
asbag69
(g90
g71
NtRp2689
(dp2690
g74
(dp2691
sg83
g2676
sg76
(lp2692
g69
(g70
g71
NtRp2693
(dp2694
g74
(dp2695
g82
I5
ssg83
g2689
sg76
(lp2696
S'/131'
p2697
asbasbasbag69
(g85
g71
NtRp2698
(dp2699
g74
(dp2700
sg83
g79
sg76
(lp2701
g69
(g90
g71
NtRp2702
(dp2703
g74
(dp2704
g94
g95
ssg83
g2698
sg76
(lp2705
S'raw_extension'
p2706
asbag69
(g90
g71
NtRp2707
(dp2708
g74
(dp2709
g101
g102
ssg83
g2698
sg76
(lp2710
S':'
asbag69
(g90
g71
NtRp2711
(dp2712
g74
(dp2713
sg83
g2698
sg76
(lp2714
g69
(g70
g71
NtRp2715
(dp2716
g74
(dp2717
g82
I5
ssg83
g2711
sg76
(lp2718
S'None'
p2719
asbasbasbag69
(g85
g71
NtRp2720
(dp2721
g74
(dp2722
sg83
g79
sg76
(lp2723
g69
(g90
g71
NtRp2724
(dp2725
g74
(dp2726
g94
g95
ssg83
g2720
sg76
(lp2727
S'url'
p2728
asbag69
(g90
g71
NtRp2729
(dp2730
g74
(dp2731
g101
g102
ssg83
g2720
sg76
(lp2732
S':'
asbag69
(g90
g71
NtRp2733
(dp2734
g74
(dp2735
sg83
g2720
sg76
(lp2736
g69
(g70
g71
NtRp2737
(dp2738
g74
(dp2739
g82
I5
ssg83
g2733
sg76
(lp2740
g1569
asbasbasbag69
(g85
g71
NtRp2741
(dp2742
g74
(dp2743
sg83
g79
sg76
(lp2744
g69
(g90
g71
NtRp2745
(dp2746
g74
(dp2747
g94
g95
ssg83
g2741
sg76
(lp2748
S'utcnow'
p2749
asbag69
(g90
g71
NtRp2750
(dp2751
g74
(dp2752
g101
g102
ssg83
g2741
sg76
(lp2753
S':'
asbag69
(g90
g71
NtRp2754
(dp2755
g74
(dp2756
sg83
g2741
sg76
(lp2757
g69
(g70
g71
NtRp2758
(dp2759
g74
(dp2760
g82
I5
ssg83
g2754
sg76
(lp2761
S'datetime.datetime(2013, 2, 6, 22, 29, 38, 634852)'
p2762
asbasbasbag69
(g85
g71
NtRp2763
(dp2764
g74
(dp2765
sg83
g79
sg76
(lp2766
g69
(g90
g71
NtRp2767
(dp2768
g74
(dp2769
g94
g95
ssg83
g2763
sg76
(lp2770
S'uuid'
p2771
asbag69
(g90
g71
NtRp2772
(dp2773
g74
(dp2774
g101
g102
ssg83
g2763
sg76
(lp2775
S':'
asbag69
(g90
g71
NtRp2776
(dp2777
g74
(dp2778
sg83
g2763
sg76
(lp2779
g69
(g70
g71
NtRp2780
(dp2781
g74
(dp2782
g82
I5
ssg83
g2776
sg76
(lp2783
S'Betsy/127.0.0.1.2013-02-06.16-29-38.3e8c2642-bc5a-48df-9e17-6784c93bd028'
p2784
asbasbasbag69
(g85
g71
NtRp2785
(dp2786
g74
(dp2787
sg83
g79
sg76
(lp2788
g69
(g90
g71
NtRp2789
(dp2790
g74
(dp2791
g94
g95
ssg83
g2785
sg76
(lp2792
S'vars'
p2793
asbag69
(g90
g71
NtRp2794
(dp2795
g74
(dp2796
g101
g102
ssg83
g2785
sg76
(lp2797
S':'
asbag69
(g90
g71
NtRp2798
(dp2799
g74
(dp2800
sg83
g2785
sg76
(lp2801
g69
(g70
g71
NtRp2802
(dp2803
g74
(dp2804
g82
I5
ssg83
g2798
sg76
(lp2805
g69
(g78
g71
NtRp2806
(dp2807
g74
(dp2808
g82
I4
ssg83
Nsg76
(lp2809
sbasbasbasbag69
(g85
g71
NtRp2810
(dp2811
g74
(dp2812
sg83
g79
sg76
(lp2813
g69
(g90
g71
NtRp2814
(dp2815
g74
(dp2816
g94
g95
ssg83
g2810
sg76
(lp2817
S'wsgi'
p2818
asbag69
(g90
g71
NtRp2819
(dp2820
g74
(dp2821
g101
g102
ssg83
g2810
sg76
(lp2822
S':'
asbag69
(g90
g71
NtRp2823
(dp2824
g74
(dp2825
sg83
g2810
sg76
(lp2826
g69
(g70
g71
NtRp2827
(dp2828
g74
(dp2829
g82
I5
ssg83
g2823
sg76
(lp2830
g69
(g78
g71
NtRp2831
(dp2832
g74
(dp2833
g82
I4
ssg83
Nsg76
(lp2834
g69
(g85
g71
NtRp2835
(dp2836
g74
(dp2837
sg83
g2831
sg76
(lp2838
g69
(g90
g71
NtRp2839
(dp2840
g74
(dp2841
g94
g95
ssg83
g2835
sg76
(lp2842
S'environ'
p2843
asbag69
(g90
g71
NtRp2844
(dp2845
g74
(dp2846
g101
g102
ssg83
g2835
sg76
(lp2847
S':'
asbag69
(g90
g71
NtRp2848
(dp2849
g74
(dp2850
sg83
g2835
sg76
(lp2851
g69
(g70
g71
NtRp2852
(dp2853
g74
(dp2854
g82
I4
ssg83
g2848
sg76
(lp2855
g69
(g78
g71
NtRp2856
(dp2857
g74
(dp2858
g82
I3
ssg83
Nsg76
(lp2859
g69
(g85
g71
NtRp2860
(dp2861
g74
(dp2862
sg83
g2856
sg76
(lp2863
g69
(g90
g71
NtRp2864
(dp2865
g74
(dp2866
g94
g95
ssg83
g2860
sg76
(lp2867
S'HTTP_ACCEPT'
p2868
asbag69
(g90
g71
NtRp2869
(dp2870
g74
(dp2871
g101
g102
ssg83
g2860
sg76
(lp2872
S':'
asbag69
(g90
g71
NtRp2873
(dp2874
g74
(dp2875
sg83
g2860
sg76
(lp2876
g69
(g70
g71
NtRp2877
(dp2878
g74
(dp2879
g82
I3
ssg83
g2873
sg76
(lp2880
g1239
asbasbasbag69
(g85
g71
NtRp2881
(dp2882
g74
(dp2883
sg83
g2856
sg76
(lp2884
g69
(g90
g71
NtRp2885
(dp2886
g74
(dp2887
g94
g95
ssg83
g2881
sg76
(lp2888
S'HTTP_ACCEPT_ENCODING'
p2889
asbag69
(g90
g71
NtRp2890
(dp2891
g74
(dp2892
g101
g102
ssg83
g2881
sg76
(lp2893
S':'
asbag69
(g90
g71
NtRp2894
(dp2895
g74
(dp2896
sg83
g2881
sg76
(lp2897
g69
(g70
g71
NtRp2898
(dp2899
g74
(dp2900
g82
I3
ssg83
g2894
sg76
(lp2901
g1261
asbasbasbag69
(g85
g71
NtRp2902
(dp2903
g74
(dp2904
sg83
g2856
sg76
(lp2905
g69
(g90
g71
NtRp2906
(dp2907
g74
(dp2908
g94
g95
ssg83
g2902
sg76
(lp2909
S'HTTP_ACCEPT_LANGUAGE'
p2910
asbag69
(g90
g71
NtRp2911
(dp2912
g74
(dp2913
g101
g102
ssg83
g2902
sg76
(lp2914
S':'
asbag69
(g90
g71
NtRp2915
(dp2916
g74
(dp2917
sg83
g2902
sg76
(lp2918
g69
(g70
g71
NtRp2919
(dp2920
g74
(dp2921
g82
I3
ssg83
g2915
sg76
(lp2922
g1283
asbasbasbag69
(g85
g71
NtRp2923
(dp2924
g74
(dp2925
sg83
g2856
sg76
(lp2926
g69
(g90
g71
NtRp2927
(dp2928
g74
(dp2929
g94
g95
ssg83
g2923
sg76
(lp2930
S'HTTP_CACHE_CONTROL'
p2931
asbag69
(g90
g71
NtRp2932
(dp2933
g74
(dp2934
g101
g102
ssg83
g2923
sg76
(lp2935
S':'
asbag69
(g90
g71
NtRp2936
(dp2937
g74
(dp2938
sg83
g2923
sg76
(lp2939
g69
(g70
g71
NtRp2940
(dp2941
g74
(dp2942
g82
I3
ssg83
g2936
sg76
(lp2943
g1305
asbasbasbag69
(g85
g71
NtRp2944
(dp2945
g74
(dp2946
sg83
g2856
sg76
(lp2947
g69
(g90
g71
NtRp2948
(dp2949
g74
(dp2950
g94
g95
ssg83
g2944
sg76
(lp2951
S'HTTP_CONNECTION'
p2952
asbag69
(g90
g71
NtRp2953
(dp2954
g74
(dp2955
g101
g102
ssg83
g2944
sg76
(lp2956
S':'
asbag69
(g90
g71
NtRp2957
(dp2958
g74
(dp2959
sg83
g2944
sg76
(lp2960
g69
(g70
g71
NtRp2961
(dp2962
g74
(dp2963
g82
I3
ssg83
g2957
sg76
(lp2964
g1327
asbasbasbag69
(g85
g71
NtRp2965
(dp2966
g74
(dp2967
sg83
g2856
sg76
(lp2968
g69
(g90
g71
NtRp2969
(dp2970
g74
(dp2971
g94
g95
ssg83
g2965
sg76
(lp2972
S'HTTP_COOKIE'
p2973
asbag69
(g90
g71
NtRp2974
(dp2975
g74
(dp2976
g101
g102
ssg83
g2965
sg76
(lp2977
S':'
asbag69
(g90
g71
NtRp2978
(dp2979
g74
(dp2980
sg83
g2965
sg76
(lp2981
g69
(g70
g71
NtRp2982
(dp2983
g74
(dp2984
g82
I3
ssg83
g2978
sg76
(lp2985
g1349
asbasbasbag69
(g85
g71
NtRp2986
(dp2987
g74
(dp2988
sg83
g2856
sg76
(lp2989
g69
(g90
g71
NtRp2990
(dp2991
g74
(dp2992
g94
g95
ssg83
g2986
sg76
(lp2993
S'HTTP_HOST'
p2994
asbag69
(g90
g71
NtRp2995
(dp2996
g74
(dp2997
g101
g102
ssg83
g2986
sg76
(lp2998
S':'
asbag69
(g90
g71
NtRp2999
(dp3000
g74
(dp3001
sg83
g2986
sg76
(lp3002
g69
(g70
g71
NtRp3003
(dp3004
g74
(dp3005
g82
I3
ssg83
g2999
sg76
(lp3006
g1371
asbasbasbag69
(g85
g71
NtRp3007
(dp3008
g74
(dp3009
sg83
g2856
sg76
(lp3010
g69
(g90
g71
NtRp3011
(dp3012
g74
(dp3013
g94
g95
ssg83
g3007
sg76
(lp3014
S'HTTP_REFERER'
p3015
asbag69
(g90
g71
NtRp3016
(dp3017
g74
(dp3018
g101
g102
ssg83
g3007
sg76
(lp3019
S':'
asbag69
(g90
g71
NtRp3020
(dp3021
g74
(dp3022
sg83
g3007
sg76
(lp3023
g69
(g70
g71
NtRp3024
(dp3025
g74
(dp3026
g82
I3
ssg83
g3020
sg76
(lp3027
g1393
asbasbasbag69
(g85
g71
NtRp3028
(dp3029
g74
(dp3030
sg83
g2856
sg76
(lp3031
g69
(g90
g71
NtRp3032
(dp3033
g74
(dp3034
g94
g95
ssg83
g3028
sg76
(lp3035
S'HTTP_USER_AGENT'
p3036
asbag69
(g90
g71
NtRp3037
(dp3038
g74
(dp3039
g101
g102
ssg83
g3028
sg76
(lp3040
S':'
asbag69
(g90
g71
NtRp3041
(dp3042
g74
(dp3043
sg83
g3028
sg76
(lp3044
g69
(g70
g71
NtRp3045
(dp3046
g74
(dp3047
g82
I3
ssg83
g3041
sg76
(lp3048
g1415
asbasbasbag69
(g85
g71
NtRp3049
(dp3050
g74
(dp3051
sg83
g2856
sg76
(lp3052
g69
(g90
g71
NtRp3053
(dp3054
g74
(dp3055
g94
g95
ssg83
g3049
sg76
(lp3056
S'PATH_INFO'
p3057
asbag69
(g90
g71
NtRp3058
(dp3059
g74
(dp3060
g101
g102
ssg83
g3049
sg76
(lp3061
S':'
asbag69
(g90
g71
NtRp3062
(dp3063
g74
(dp3064
sg83
g3049
sg76
(lp3065
g69
(g70
g71
NtRp3066
(dp3067
g74
(dp3068
g82
I3
ssg83
g3062
sg76
(lp3069
g1569
asbasbasbag69
(g85
g71
NtRp3070
(dp3071
g74
(dp3072
sg83
g2856
sg76
(lp3073
g69
(g90
g71
NtRp3074
(dp3075
g74
(dp3076
g94
g95
ssg83
g3070
sg76
(lp3077
S'QUERY_STRING'
p3078
asbag69
(g90
g71
NtRp3079
(dp3080
g74
(dp3081
g101
g102
ssg83
g3070
sg76
(lp3082
S':'
asbag69
(g90
g71
NtRp3083
(dp3084
g74
(dp3085
sg83
g3070
sg76
(lp3086
g69
(g70
g71
NtRp3087
(dp3088
g74
(dp3089
g82
I3
ssg83
g3083
sg76
(lp3090
S''
asbasbasbag69
(g85
g71
NtRp3091
(dp3092
g74
(dp3093
sg83
g2856
sg76
(lp3094
g69
(g90
g71
NtRp3095
(dp3096
g74
(dp3097
g94
g95
ssg83
g3091
sg76
(lp3098
S'REMOTE_ADDR'
p3099
asbag69
(g90
g71
NtRp3100
(dp3101
g74
(dp3102
g101
g102
ssg83
g3091
sg76
(lp3103
S':'
asbag69
(g90
g71
NtRp3104
(dp3105
g74
(dp3106
sg83
g3091
sg76
(lp3107
g69
(g70
g71
NtRp3108
(dp3109
g74
(dp3110
g82
I3
ssg83
g3104
sg76
(lp3111
g237
asbasbasbag69
(g85
g71
NtRp3112
(dp3113
g74
(dp3114
sg83
g2856
sg76
(lp3115
g69
(g90
g71
NtRp3116
(dp3117
g74
(dp3118
g94
g95
ssg83
g3112
sg76
(lp3119
S'REMOTE_PORT'
p3120
asbag69
(g90
g71
NtRp3121
(dp3122
g74
(dp3123
g101
g102
ssg83
g3112
sg76
(lp3124
S':'
asbag69
(g90
g71
NtRp3125
(dp3126
g74
(dp3127
sg83
g3112
sg76
(lp3128
g69
(g70
g71
NtRp3129
(dp3130
g74
(dp3131
g82
I3
ssg83
g3125
sg76
(lp3132
g1633
asbasbasbag69
(g85
g71
NtRp3133
(dp3134
g74
(dp3135
sg83
g2856
sg76
(lp3136
g69
(g90
g71
NtRp3137
(dp3138
g74
(dp3139
g94
g95
ssg83
g3133
sg76
(lp3140
S'REQUEST_METHOD'
p3141
asbag69
(g90
g71
NtRp3142
(dp3143
g74
(dp3144
g101
g102
ssg83
g3133
sg76
(lp3145
S':'
asbag69
(g90
g71
NtRp3146
(dp3147
g74
(dp3148
sg83
g3133
sg76
(lp3149
g69
(g70
g71
NtRp3150
(dp3151
g74
(dp3152
g82
I3
ssg83
g3146
sg76
(lp3153
g1655
asbasbasbag69
(g85
g71
NtRp3154
(dp3155
g74
(dp3156
sg83
g2856
sg76
(lp3157
g69
(g90
g71
NtRp3158
(dp3159
g74
(dp3160
g94
g95
ssg83
g3154
sg76
(lp3161
S'REQUEST_URI'
p3162
asbag69
(g90
g71
NtRp3163
(dp3164
g74
(dp3165
g101
g102
ssg83
g3154
sg76
(lp3166
S':'
asbag69
(g90
g71
NtRp3167
(dp3168
g74
(dp3169
sg83
g3154
sg76
(lp3170
g69
(g70
g71
NtRp3171
(dp3172
g74
(dp3173
g82
I3
ssg83
g3167
sg76
(lp3174
g1569
asbasbasbag69
(g85
g71
NtRp3175
(dp3176
g74
(dp3177
sg83
g2856
sg76
(lp3178
g69
(g90
g71
NtRp3179
(dp3180
g74
(dp3181
g94
g95
ssg83
g3175
sg76
(lp3182
S'SCRIPT_NAME'
p3183
asbag69
(g90
g71
NtRp3184
(dp3185
g74
(dp3186
g101
g102
ssg83
g3175
sg76
(lp3187
S':'
asbag69
(g90
g71
NtRp3188
(dp3189
g74
(dp3190
sg83
g3175
sg76
(lp3191
g69
(g70
g71
NtRp3192
(dp3193
g74
(dp3194
g82
I3
ssg83
g3188
sg76
(lp3195
S''
asbasbasbag69
(g85
g71
NtRp3196
(dp3197
g74
(dp3198
sg83
g2856
sg76
(lp3199
g69
(g90
g71
NtRp3200
(dp3201
g74
(dp3202
g94
g95
ssg83
g3196
sg76
(lp3203
S'SERVER_NAME'
p3204
asbag69
(g90
g71
NtRp3205
(dp3206
g74
(dp3207
g101
g102
ssg83
g3196
sg76
(lp3208
S':'
asbag69
(g90
g71
NtRp3209
(dp3210
g74
(dp3211
sg83
g3196
sg76
(lp3212
g69
(g70
g71
NtRp3213
(dp3214
g74
(dp3215
g82
I3
ssg83
g3209
sg76
(lp3216
g1534
asbasbasbag69
(g85
g71
NtRp3217
(dp3218
g74
(dp3219
sg83
g2856
sg76
(lp3220
g69
(g90
g71
NtRp3221
(dp3222
g74
(dp3223
g94
g95
ssg83
g3217
sg76
(lp3224
S'SERVER_PORT'
p3225
asbag69
(g90
g71
NtRp3226
(dp3227
g74
(dp3228
g101
g102
ssg83
g3217
sg76
(lp3229
S':'
asbag69
(g90
g71
NtRp3230
(dp3231
g74
(dp3232
sg83
g3217
sg76
(lp3233
g69
(g70
g71
NtRp3234
(dp3235
g74
(dp3236
g82
I3
ssg83
g3230
sg76
(lp3237
g1740
asbasbasbag69
(g85
g71
NtRp3238
(dp3239
g74
(dp3240
sg83
g2856
sg76
(lp3241
g69
(g90
g71
NtRp3242
(dp3243
g74
(dp3244
g94
g95
ssg83
g3238
sg76
(lp3245
S'SERVER_PROTOCOL'
p3246
asbag69
(g90
g71
NtRp3247
(dp3248
g74
(dp3249
g101
g102
ssg83
g3238
sg76
(lp3250
S':'
asbag69
(g90
g71
NtRp3251
(dp3252
g74
(dp3253
sg83
g3238
sg76
(lp3254
g69
(g70
g71
NtRp3255
(dp3256
g74
(dp3257
g82
I3
ssg83
g3251
sg76
(lp3258
g1762
asbasbasbag69
(g85
g71
NtRp3259
(dp3260
g74
(dp3261
sg83
g2856
sg76
(lp3262
g69
(g90
g71
NtRp3263
(dp3264
g74
(dp3265
g94
g95
ssg83
g3259
sg76
(lp3266
S'SERVER_SOFTWARE'
p3267
asbag69
(g90
g71
NtRp3268
(dp3269
g74
(dp3270
g101
g102
ssg83
g3259
sg76
(lp3271
S':'
asbag69
(g90
g71
NtRp3272
(dp3273
g74
(dp3274
sg83
g3259
sg76
(lp3275
g69
(g70
g71
NtRp3276
(dp3277
g74
(dp3278
g82
I3
ssg83
g3272
sg76
(lp3279
g1784
asbasbasbag69
(g85
g71
NtRp3280
(dp3281
g74
(dp3282
sg83
g2856
sg76
(lp3283
g69
(g90
g71
NtRp3284
(dp3285
g74
(dp3286
g94
g95
ssg83
g3280
sg76
(lp3287
S'wsgi.errors'
p3288
asbag69
(g90
g71
NtRp3289
(dp3290
g74
(dp3291
g101
g102
ssg83
g3280
sg76
(lp3292
S':'
asbag69
(g90
g71
NtRp3293
(dp3294
g74
(dp3295
sg83
g3280
sg76
(lp3296
g69
(g70
g71
NtRp3297
(dp3298
g74
(dp3299
g82
I3
ssg83
g3293
sg76
(lp3300
S"<open file '<stderr>', mode 'w' at 0x2b60d272f270>"
p3301
asbasbasbag69
(g85
g71
NtRp3302
(dp3303
g74
(dp3304
sg83
g2856
sg76
(lp3305
g69
(g90
g71
NtRp3306
(dp3307
g74
(dp3308
g94
g95
ssg83
g3302
sg76
(lp3309
S'wsgi.file_wrapper'
p3310
asbag69
(g90
g71
NtRp3311
(dp3312
g74
(dp3313
g101
g102
ssg83
g3302
sg76
(lp3314
S':'
asbag69
(g90
g71
NtRp3315
(dp3316
g74
(dp3317
sg83
g3302
sg76
(lp3318
g69
(g70
g71
NtRp3319
(dp3320
g74
(dp3321
g82
I3
ssg83
g3315
sg76
(lp3322
S'<class wsgiref.util.FileWrapper at 0x1872fa78>'
p3323
asbasbasbag69
(g85
g71
NtRp3324
(dp3325
g74
(dp3326
sg83
g2856
sg76
(lp3327
g69
(g90
g71
NtRp3328
(dp3329
g74
(dp3330
g94
g95
ssg83
g3324
sg76
(lp3331
S'wsgi.input'
p3332
asbag69
(g90
g71
NtRp3333
(dp3334
g74
(dp3335
g101
g102
ssg83
g3324
sg76
(lp3336
S':'
asbag69
(g90
g71
NtRp3337
(dp3338
g74
(dp3339
sg83
g3324
sg76
(lp3340
g69
(g70
g71
NtRp3341
(dp3342
g74
(dp3343
g82
I3
ssg83
g3337
sg76
(lp3344
S'<cStringIO.StringO object at 0x19d48a08>'
p3345
asbasbasbag69
(g85
g71
NtRp3346
(dp3347
g74
(dp3348
sg83
g2856
sg76
(lp3349
g69
(g90
g71
NtRp3350
(dp3351
g74
(dp3352
g94
g95
ssg83
g3346
sg76
(lp3353
S'wsgi.multiprocess'
p3354
asbag69
(g90
g71
NtRp3355
(dp3356
g74
(dp3357
g101
g102
ssg83
g3346
sg76
(lp3358
S':'
asbag69
(g90
g71
NtRp3359
(dp3360
g74
(dp3361
sg83
g3346
sg76
(lp3362
g69
(g70
g71
NtRp3363
(dp3364
g74
(dp3365
g82
I3
ssg83
g3359
sg76
(lp3366
g112
asbasbasbag69
(g85
g71
NtRp3367
(dp3368
g74
(dp3369
sg83
g2856
sg76
(lp3370
g69
(g90
g71
NtRp3371
(dp3372
g74
(dp3373
g94
g95
ssg83
g3367
sg76
(lp3374
S'wsgi.multithread'
p3375
asbag69
(g90
g71
NtRp3376
(dp3377
g74
(dp3378
g101
g102
ssg83
g3367
sg76
(lp3379
S':'
asbag69
(g90
g71
NtRp3380
(dp3381
g74
(dp3382
sg83
g3367
sg76
(lp3383
g69
(g70
g71
NtRp3384
(dp3385
g74
(dp3386
g82
I3
ssg83
g3380
sg76
(lp3387
g2001
asbasbasbag69
(g85
g71
NtRp3388
(dp3389
g74
(dp3390
sg83
g2856
sg76
(lp3391
g69
(g90
g71
NtRp3392
(dp3393
g74
(dp3394
g94
g95
ssg83
g3388
sg76
(lp3395
S'wsgi.run_once'
p3396
asbag69
(g90
g71
NtRp3397
(dp3398
g74
(dp3399
g101
g102
ssg83
g3388
sg76
(lp3400
S':'
asbag69
(g90
g71
NtRp3401
(dp3402
g74
(dp3403
sg83
g3388
sg76
(lp3404
g69
(g70
g71
NtRp3405
(dp3406
g74
(dp3407
g82
I3
ssg83
g3401
sg76
(lp3408
g112
asbasbasbag69
(g85
g71
NtRp3409
(dp3410
g74
(dp3411
sg83
g2856
sg76
(lp3412
g69
(g90
g71
NtRp3413
(dp3414
g74
(dp3415
g94
g95
ssg83
g3409
sg76
(lp3416
S'wsgi.url_scheme'
p3417
asbag69
(g90
g71
NtRp3418
(dp3419
g74
(dp3420
g101
g102
ssg83
g3409
sg76
(lp3421
S':'
asbag69
(g90
g71
NtRp3422
(dp3423
g74
(dp3424
sg83
g3409
sg76
(lp3425
g69
(g70
g71
NtRp3426
(dp3427
g74
(dp3428
g82
I3
ssg83
g3422
sg76
(lp3429
g2044
asbasbasbag69
(g85
g71
NtRp3430
(dp3431
g74
(dp3432
sg83
g2856
sg76
(lp3433
g69
(g90
g71
NtRp3434
(dp3435
g74
(dp3436
g94
g95
ssg83
g3430
sg76
(lp3437
S'wsgi.version'
p3438
asbag69
(g90
g71
NtRp3439
(dp3440
g74
(dp3441
g101
g102
ssg83
g3430
sg76
(lp3442
S':'
asbag69
(g90
g71
NtRp3443
(dp3444
g74
(dp3445
sg83
g3430
sg76
(lp3446
g69
(g70
g71
NtRp3447
(dp3448
g74
(dp3449
g82
I3
ssg83
g3443
sg76
(lp3450
S'1'
asbasbasbasbasbasbasbasbasbasbasbasbasbsS'frames'
p3451
(lp3452
(dp3453
S'file'
p3454
S'/home/xchen/web2py/gluon/restricted.py'
p3455
sS'dump'
p3456
(dp3457
S'code'
p3458
S'\'response.write(\\\'<!DOCTYPE html>\\\\n<!-- paulirish...."></script>\\\\n</body>\\\\n</html>\\\\n\\\\n\\\', escape=False)\''
p3459
sS'layer'
p3460
S"'/home/xchen/web2py/applications/Betsy/views/default/show_job.html'"
p3461
sS'global compile2'
p3462
S'<function compile2>'
p3463
sS'ccode'
p3464
S'undefined'
p3465
ssS'lnum'
p3466
I211
sS'lines'
p3467
(dp3468
I206
S"    environment['__name__'] = '__restricted__'"
p3469
sI207
S'    try:'
p3470
sI208
S'        if isinstance(code, types.CodeType):'
p3471
sI209
S'            ccode = code'
p3472
sI210
S'        else:'
p3473
sI211
S'            ccode = compile2(code, layer)'
p3474
sI212
S'        exec ccode in environment'
p3475
sI213
S'    except HTTP:'
p3476
sI214
S'        raise'
p3477
sI215
S'    except RestrictedError:'
p3478
ssS'call'
p3479
S'(code=\'response.write(\\\'<!DOCTYPE html>\\\\n<!-- paulirish...."></script>\\\\n</body>\\\\n</html>\\\\n\\\\n\\\', escape=False)\', environment={\'A\': <class \'gluon.html.A\'>, \'Auth\': <class \'gluon.tools.Auth\'>, \'B\': <class \'gluon.html.B\'>, \'BEAUTIFY\': <class \'gluon.html.BEAUTIFY\'>, \'BODY\': <class \'gluon.html.BODY\'>, \'BR\': <class \'gluon.html.BR\'>, \'BUTTON\': <class \'gluon.html.BUTTON\'>, \'CAT\': <class \'gluon.html.CAT\'>, \'CENTER\': <class \'gluon.html.CENTER\'>, \'CLEANUP\': <class \'gluon.validators.CLEANUP\'>, ...}, layer=\'/home/xchen/web2py/applications/Betsy/views/default/show_job.html\')'
p3480
sS'func'
p3481
S'restricted'
p3482
sa(dp3483
g3454
S'/home/xchen/web2py/gluon/restricted.py'
p3484
sg3456
(dp3485
S'builtincompile'
p3486
S'<built-in function compile>'
p3487
sS'code'
p3488
S'\'response.write(\\\'<!DOCTYPE html>\\\\n<!-- paulirish...."></script>\\\\n</body>\\\\n</html>\\\\n\\\\n\\\', escape=False)\''
p3489
sS'code.rstrip'
p3490
S'<built-in method rstrip of str object>'
p3491
sS').replace'
p3492
g3465
sS'layer'
p3493
S"'/home/xchen/web2py/applications/Betsy/views/default/show_job.html'"
p3494
ssg3466
I194
sg3467
(dp3495
I192
S"    The +'\\n' is necessary else compile fails when code ends in a comment."
p3496
sI193
S'    """'
p3497
sI194
S"    return compile(code.rstrip().replace('\\r\\n', '\\n') + '\\n', layer, 'exec')"
p3498
sI195
S''
sI196
S''
sI197
S"def restricted(code, environment=None, layer='Unknown'):"
p3499
sI198
S'    """'
p3500
sI189
S''
sI190
S'def compile2(code, layer):'
p3501
sI191
S'    """'
p3502
ssg3479
S'(code=\'response.write(\\\'<!DOCTYPE html>\\\\n<!-- paulirish...."></script>\\\\n</body>\\\\n</html>\\\\n\\\\n\\\', escape=False)\', layer=\'/home/xchen/web2py/applications/Betsy/views/default/show_job.html\')'
p3503
sg3481
S'compile2'
p3504
sasS'pyver'
p3505
S'Python 2.7.3: /usr/local/bin/python'
p3506
sS'session'
p3507
g69
(g70
g71
NtRp3508
(dp3509
g74
(dp3510
sg76
(lp3511
g69
(g78
g71
NtRp3512
(dp3513
g74
(dp3514
g82
I5
ssg83
Nsg76
(lp3515
g69
(g85
g71
NtRp3516
(dp3517
g74
(dp3518
sg83
g3512
sg76
(lp3519
g69
(g90
g71
NtRp3520
(dp3521
g74
(dp3522
g94
g95
ssg83
g3516
sg76
(lp3523
S'auth'
p3524
asbag69
(g90
g71
NtRp3525
(dp3526
g74
(dp3527
g101
g102
ssg83
g3516
sg76
(lp3528
S':'
asbag69
(g90
g71
NtRp3529
(dp3530
g74
(dp3531
sg83
g3516
sg76
(lp3532
g69
(g70
g71
NtRp3533
(dp3534
g74
(dp3535
g82
I5
ssg83
g3529
sg76
(lp3536
g69
(g78
g71
NtRp3537
(dp3538
g74
(dp3539
g82
I4
ssg83
Nsg76
(lp3540
g69
(g85
g71
NtRp3541
(dp3542
g74
(dp3543
sg83
g3537
sg76
(lp3544
g69
(g90
g71
NtRp3545
(dp3546
g74
(dp3547
g94
g95
ssg83
g3541
sg76
(lp3548
S'expiration'
p3549
asbag69
(g90
g71
NtRp3550
(dp3551
g74
(dp3552
g101
g102
ssg83
g3541
sg76
(lp3553
S':'
asbag69
(g90
g71
NtRp3554
(dp3555
g74
(dp3556
sg83
g3541
sg76
(lp3557
g69
(g70
g71
NtRp3558
(dp3559
g74
(dp3560
g82
I4
ssg83
g3554
sg76
(lp3561
S'2592000'
p3562
asbasbasbag69
(g85
g71
NtRp3563
(dp3564
g74
(dp3565
sg83
g3537
sg76
(lp3566
g69
(g90
g71
NtRp3567
(dp3568
g74
(dp3569
g94
g95
ssg83
g3563
sg76
(lp3570
S'hmac_key'
p3571
asbag69
(g90
g71
NtRp3572
(dp3573
g74
(dp3574
g101
g102
ssg83
g3563
sg76
(lp3575
S':'
asbag69
(g90
g71
NtRp3576
(dp3577
g74
(dp3578
sg83
g3563
sg76
(lp3579
g69
(g70
g71
NtRp3580
(dp3581
g74
(dp3582
g82
I4
ssg83
g3576
sg76
(lp3583
S'739afc94-a36b-429c-8715-edcd03ea4351'
p3584
asbasbasbag69
(g85
g71
NtRp3585
(dp3586
g74
(dp3587
sg83
g3537
sg76
(lp3588
g69
(g90
g71
NtRp3589
(dp3590
g74
(dp3591
g94
g95
ssg83
g3585
sg76
(lp3592
S'last_visit'
p3593
asbag69
(g90
g71
NtRp3594
(dp3595
g74
(dp3596
g101
g102
ssg83
g3585
sg76
(lp3597
S':'
asbag69
(g90
g71
NtRp3598
(dp3599
g74
(dp3600
sg83
g3585
sg76
(lp3601
g69
(g70
g71
NtRp3602
(dp3603
g74
(dp3604
g82
I4
ssg83
g3598
sg76
(lp3605
S'datetime.datetime(2013, 2, 4, 10, 24, 37, 237452)'
p3606
asbasbasbag69
(g85
g71
NtRp3607
(dp3608
g74
(dp3609
sg83
g3537
sg76
(lp3610
g69
(g90
g71
NtRp3611
(dp3612
g74
(dp3613
g94
g95
ssg83
g3607
sg76
(lp3614
S'remember'
p3615
asbag69
(g90
g71
NtRp3616
(dp3617
g74
(dp3618
g101
g102
ssg83
g3607
sg76
(lp3619
S':'
asbag69
(g90
g71
NtRp3620
(dp3621
g74
(dp3622
sg83
g3607
sg76
(lp3623
g69
(g70
g71
NtRp3624
(dp3625
g74
(dp3626
g82
I4
ssg83
g3620
sg76
(lp3627
g2001
asbasbasbag69
(g85
g71
NtRp3628
(dp3629
g74
(dp3630
sg83
g3537
sg76
(lp3631
g69
(g90
g71
NtRp3632
(dp3633
g74
(dp3634
g94
g95
ssg83
g3628
sg76
(lp3635
S'user'
p3636
asbag69
(g90
g71
NtRp3637
(dp3638
g74
(dp3639
g101
g102
ssg83
g3628
sg76
(lp3640
S':'
asbag69
(g90
g71
NtRp3641
(dp3642
g74
(dp3643
sg83
g3628
sg76
(lp3644
g69
(g70
g71
NtRp3645
(dp3646
g74
(dp3647
g82
I4
ssg83
g3641
sg76
(lp3648
g69
(g78
g71
NtRp3649
(dp3650
g74
(dp3651
g82
I3
ssg83
Nsg76
(lp3652
g69
(g85
g71
NtRp3653
(dp3654
g74
(dp3655
sg83
g3649
sg76
(lp3656
g69
(g90
g71
NtRp3657
(dp3658
g74
(dp3659
g94
g95
ssg83
g3653
sg76
(lp3660
S'email'
p3661
asbag69
(g90
g71
NtRp3662
(dp3663
g74
(dp3664
g101
g102
ssg83
g3653
sg76
(lp3665
S':'
asbag69
(g90
g71
NtRp3666
(dp3667
g74
(dp3668
sg83
g3653
sg76
(lp3669
g69
(g70
g71
NtRp3670
(dp3671
g74
(dp3672
g82
I3
ssg83
g3666
sg76
(lp3673
S'xiaoling.chen@uth.tmc.edu'
p3674
asbasbasbag69
(g85
g71
NtRp3675
(dp3676
g74
(dp3677
sg83
g3649
sg76
(lp3678
g69
(g90
g71
NtRp3679
(dp3680
g74
(dp3681
g94
g95
ssg83
g3675
sg76
(lp3682
S'first_name'
p3683
asbag69
(g90
g71
NtRp3684
(dp3685
g74
(dp3686
g101
g102
ssg83
g3675
sg76
(lp3687
S':'
asbag69
(g90
g71
NtRp3688
(dp3689
g74
(dp3690
sg83
g3675
sg76
(lp3691
g69
(g70
g71
NtRp3692
(dp3693
g74
(dp3694
g82
I3
ssg83
g3688
sg76
(lp3695
S'Xiaoling'
p3696
asbasbasbag69
(g85
g71
NtRp3697
(dp3698
g74
(dp3699
sg83
g3649
sg76
(lp3700
g69
(g90
g71
NtRp3701
(dp3702
g74
(dp3703
g94
g95
ssg83
g3697
sg76
(lp3704
S'id'
p3705
asbag69
(g90
g71
NtRp3706
(dp3707
g74
(dp3708
g101
g102
ssg83
g3697
sg76
(lp3709
S':'
asbag69
(g90
g71
NtRp3710
(dp3711
g74
(dp3712
sg83
g3697
sg76
(lp3713
g69
(g70
g71
NtRp3714
(dp3715
g74
(dp3716
g82
I3
ssg83
g3710
sg76
(lp3717
S'1'
asbasbasbag69
(g85
g71
NtRp3718
(dp3719
g74
(dp3720
sg83
g3649
sg76
(lp3721
g69
(g90
g71
NtRp3722
(dp3723
g74
(dp3724
g94
g95
ssg83
g3718
sg76
(lp3725
S'last_name'
p3726
asbag69
(g90
g71
NtRp3727
(dp3728
g74
(dp3729
g101
g102
ssg83
g3718
sg76
(lp3730
S':'
asbag69
(g90
g71
NtRp3731
(dp3732
g74
(dp3733
sg83
g3718
sg76
(lp3734
g69
(g70
g71
NtRp3735
(dp3736
g74
(dp3737
g82
I3
ssg83
g3731
sg76
(lp3738
S'Chen'
p3739
asbasbasbag69
(g85
g71
NtRp3740
(dp3741
g74
(dp3742
sg83
g3649
sg76
(lp3743
g69
(g90
g71
NtRp3744
(dp3745
g74
(dp3746
g94
g95
ssg83
g3740
sg76
(lp3747
S'registration_id'
p3748
asbag69
(g90
g71
NtRp3749
(dp3750
g74
(dp3751
g101
g102
ssg83
g3740
sg76
(lp3752
S':'
asbag69
(g90
g71
NtRp3753
(dp3754
g74
(dp3755
sg83
g3740
sg76
(lp3756
g69
(g70
g71
NtRp3757
(dp3758
g74
(dp3759
g82
I3
ssg83
g3753
sg76
(lp3760
S''
asbasbasbag69
(g85
g71
NtRp3761
(dp3762
g74
(dp3763
sg83
g3649
sg76
(lp3764
g69
(g90
g71
NtRp3765
(dp3766
g74
(dp3767
g94
g95
ssg83
g3761
sg76
(lp3768
S'registration_key'
p3769
asbag69
(g90
g71
NtRp3770
(dp3771
g74
(dp3772
g101
g102
ssg83
g3761
sg76
(lp3773
S':'
asbag69
(g90
g71
NtRp3774
(dp3775
g74
(dp3776
sg83
g3761
sg76
(lp3777
g69
(g70
g71
NtRp3778
(dp3779
g74
(dp3780
g82
I3
ssg83
g3774
sg76
(lp3781
S''
asbasbasbag69
(g85
g71
NtRp3782
(dp3783
g74
(dp3784
sg83
g3649
sg76
(lp3785
g69
(g90
g71
NtRp3786
(dp3787
g74
(dp3788
g94
g95
ssg83
g3782
sg76
(lp3789
S'reset_password_key'
p3790
asbag69
(g90
g71
NtRp3791
(dp3792
g74
(dp3793
g101
g102
ssg83
g3782
sg76
(lp3794
S':'
asbag69
(g90
g71
NtRp3795
(dp3796
g74
(dp3797
sg83
g3782
sg76
(lp3798
g69
(g70
g71
NtRp3799
(dp3800
g74
(dp3801
g82
I3
ssg83
g3795
sg76
(lp3802
S''
asbasbasbasbasbasbasbag69
(g85
g71
NtRp3803
(dp3804
g74
(dp3805
sg83
g3537
sg76
(lp3806
g69
(g90
g71
NtRp3807
(dp3808
g74
(dp3809
g94
g95
ssg83
g3803
sg76
(lp3810
S'user_groups'
p3811
asbag69
(g90
g71
NtRp3812
(dp3813
g74
(dp3814
g101
g102
ssg83
g3803
sg76
(lp3815
S':'
asbag69
(g90
g71
NtRp3816
(dp3817
g74
(dp3818
sg83
g3803
sg76
(lp3819
g69
(g70
g71
NtRp3820
(dp3821
g74
(dp3822
g82
I4
ssg83
g3816
sg76
(lp3823
g69
(g78
g71
NtRp3824
(dp3825
g74
(dp3826
g82
I3
ssg83
Nsg76
(lp3827
g69
(g85
g71
NtRp3828
(dp3829
g74
(dp3830
sg83
g3824
sg76
(lp3831
g69
(g90
g71
NtRp3832
(dp3833
g74
(dp3834
g94
g95
ssg83
g3828
sg76
(lp3835
S'1'
asbag69
(g90
g71
NtRp3836
(dp3837
g74
(dp3838
g101
g102
ssg83
g3828
sg76
(lp3839
S':'
asbag69
(g90
g71
NtRp3840
(dp3841
g74
(dp3842
sg83
g3828
sg76
(lp3843
g69
(g70
g71
NtRp3844
(dp3845
g74
(dp3846
g82
I3
ssg83
g3840
sg76
(lp3847
S'user_1'
p3848
asbasbasbasbasbasbasbasbasbasbasbag69
(g85
g71
NtRp3849
(dp3850
g74
(dp3851
sg83
g3512
sg76
(lp3852
g69
(g90
g71
NtRp3853
(dp3854
g74
(dp3855
g94
g95
ssg83
g3849
sg76
(lp3856
S'cmd'
p3857
asbag69
(g90
g71
NtRp3858
(dp3859
g74
(dp3860
g101
g102
ssg83
g3849
sg76
(lp3861
S':'
asbag69
(g90
g71
NtRp3862
(dp3863
g74
(dp3864
sg83
g3849
sg76
(lp3865
g69
(g70
g71
NtRp3866
(dp3867
g74
(dp3868
g82
I5
ssg83
g3862
sg76
(lp3869
g69
(g78
g71
NtRp3870
(dp3871
g74
(dp3872
g82
I4
ssg83
Nsg76
(lp3873
g69
(g85
g71
NtRp3874
(dp3875
g74
(dp3876
sg83
g3870
sg76
(lp3877
g69
(g90
g71
NtRp3878
(dp3879
g74
(dp3880
sg83
g3874
sg76
(lp3881
g69
(g70
g71
NtRp3882
(dp3883
g74
(dp3884
g82
I4
ssg83
g3878
sg76
(lp3885
S'python'
p3886
asbasbasbag69
(g85
g71
NtRp3887
(dp3888
g74
(dp3889
sg83
g3870
sg76
(lp3890
g69
(g90
g71
NtRp3891
(dp3892
g74
(dp3893
sg83
g3887
sg76
(lp3894
g69
(g70
g71
NtRp3895
(dp3896
g74
(dp3897
g82
I4
ssg83
g3891
sg76
(lp3898
S'/home/xchen/chencode/tmp/try_parallel/queue.py'
p3899
asbasbasbag69
(g85
g71
NtRp3900
(dp3901
g74
(dp3902
sg83
g3870
sg76
(lp3903
g69
(g90
g71
NtRp3904
(dp3905
g74
(dp3906
sg83
g3900
sg76
(lp3907
g69
(g70
g71
NtRp3908
(dp3909
g74
(dp3910
g82
I4
ssg83
g3904
sg76
(lp3911
S'python /home/xchen/chencode/Betsy/scripts/run_protocol.py --protocol normalize_file --input input_signal_file:/home/xchen/chencode/upload/no_table.myfile1.aa20f767627e694e.4368616e675f415230303431302e70636c.pcl --parameters has_missing_value:zero_fill --parameters preprocess:unknown_preprocess'
p3912
asbasbasbasbasbasbasbag69
(g85
g71
NtRp3913
(dp3914
g74
(dp3915
sg83
g3512
sg76
(lp3916
g69
(g90
g71
NtRp3917
(dp3918
g74
(dp3919
g94
g95
ssg83
g3913
sg76
(lp3920
S'command'
p3921
asbag69
(g90
g71
NtRp3922
(dp3923
g74
(dp3924
g101
g102
ssg83
g3913
sg76
(lp3925
S':'
asbag69
(g90
g71
NtRp3926
(dp3927
g74
(dp3928
sg83
g3913
sg76
(lp3929
g69
(g70
g71
NtRp3930
(dp3931
g74
(dp3932
g82
I5
ssg83
g3926
sg76
(lp3933
S'run_protocol.py  --protocol normalize_file --input input_signal_file:myfile1   --parameters has_missing_value:zero_fill --parameters preprocess:unknown_preprocess'
p3934
asbasbasbag69
(g85
g71
NtRp3935
(dp3936
g74
(dp3937
sg83
g3512
sg76
(lp3938
g69
(g90
g71
NtRp3939
(dp3940
g74
(dp3941
g94
g95
ssg83
g3935
sg76
(lp3942
S'flash'
p3943
asbag69
(g90
g71
NtRp3944
(dp3945
g74
(dp3946
g101
g102
ssg83
g3935
sg76
(lp3947
S':'
asbag69
(g90
g71
NtRp3948
(dp3949
g74
(dp3950
sg83
g3935
sg76
(lp3951
g69
(g70
g71
NtRp3952
(dp3953
g74
(dp3954
g82
I5
ssg83
g3948
sg76
(lp3955
S'None'
p3956
asbasbasbag69
(g85
g71
NtRp3957
(dp3958
g74
(dp3959
sg83
g3512
sg76
(lp3960
g69
(g90
g71
NtRp3961
(dp3962
g74
(dp3963
g94
g95
ssg83
g3957
sg76
(lp3964
S'last_orderby'
p3965
asbag69
(g90
g71
NtRp3966
(dp3967
g74
(dp3968
g101
g102
ssg83
g3957
sg76
(lp3969
S':'
asbag69
(g90
g71
NtRp3970
(dp3971
g74
(dp3972
sg83
g3957
sg76
(lp3973
g69
(g70
g71
NtRp3974
(dp3975
g74
(dp3976
g82
I5
ssg83
g3970
sg76
(lp3977
S'None'
p3978
asbasbasbag69
(g85
g71
NtRp3979
(dp3980
g74
(dp3981
sg83
g3512
sg76
(lp3982
g69
(g90
g71
NtRp3983
(dp3984
g74
(dp3985
g94
g95
ssg83
g3979
sg76
(lp3986
S'last_query'
p3987
asbag69
(g90
g71
NtRp3988
(dp3989
g74
(dp3990
g101
g102
ssg83
g3979
sg76
(lp3991
S':'
asbag69
(g90
g71
NtRp3992
(dp3993
g74
(dp3994
sg83
g3979
sg76
(lp3995
g69
(g70
g71
NtRp3996
(dp3997
g74
(dp3998
g82
I5
ssg83
g3992
sg76
(lp3999
S'db.status.id>0'
p4000
asbasbasbag69
(g85
g71
NtRp4001
(dp4002
g74
(dp4003
sg83
g3512
sg76
(lp4004
g69
(g90
g71
NtRp4005
(dp4006
g74
(dp4007
g94
g95
ssg83
g4001
sg76
(lp4008
S'myfile1'
p4009
asbag69
(g90
g71
NtRp4010
(dp4011
g74
(dp4012
g101
g102
ssg83
g4001
sg76
(lp4013
S':'
asbag69
(g90
g71
NtRp4014
(dp4015
g74
(dp4016
sg83
g4001
sg76
(lp4017
g69
(g70
g71
NtRp4018
(dp4019
g74
(dp4020
g82
I5
ssg83
g4014
sg76
(lp4021
S'no_table.myfile1.aa20f767627e694e.4368616e675f415230303431302e70636c.pcl'
p4022
asbasbasbag69
(g85
g71
NtRp4023
(dp4024
g74
(dp4025
sg83
g3512
sg76
(lp4026
g69
(g90
g71
NtRp4027
(dp4028
g74
(dp4029
g94
g95
ssg83
g4023
sg76
(lp4030
S'myfile2'
p4031
asbag69
(g90
g71
NtRp4032
(dp4033
g74
(dp4034
g101
g102
ssg83
g4023
sg76
(lp4035
S':'
asbag69
(g90
g71
NtRp4036
(dp4037
g74
(dp4038
sg83
g4023
sg76
(lp4039
g69
(g70
g71
NtRp4040
(dp4041
g74
(dp4042
g82
I5
ssg83
g4036
sg76
(lp4043
S''
asbasbasbag69
(g85
g71
NtRp4044
(dp4045
g74
(dp4046
sg83
g3512
sg76
(lp4047
g69
(g90
g71
NtRp4048
(dp4049
g74
(dp4050
g94
g95
ssg83
g4044
sg76
(lp4051
S'myfile3'
p4052
asbag69
(g90
g71
NtRp4053
(dp4054
g74
(dp4055
g101
g102
ssg83
g4044
sg76
(lp4056
S':'
asbag69
(g90
g71
NtRp4057
(dp4058
g74
(dp4059
sg83
g4044
sg76
(lp4060
g69
(g70
g71
NtRp4061
(dp4062
g74
(dp4063
g82
I5
ssg83
g4057
sg76
(lp4064
S''
asbasbasbag69
(g85
g71
NtRp4065
(dp4066
g74
(dp4067
sg83
g3512
sg76
(lp4068
g69
(g90
g71
NtRp4069
(dp4070
g74
(dp4071
g94
g95
ssg83
g4065
sg76
(lp4072
S'myfile4'
p4073
asbag69
(g90
g71
NtRp4074
(dp4075
g74
(dp4076
g101
g102
ssg83
g4065
sg76
(lp4077
S':'
asbag69
(g90
g71
NtRp4078
(dp4079
g74
(dp4080
sg83
g4065
sg76
(lp4081
g69
(g70
g71
NtRp4082
(dp4083
g74
(dp4084
g82
I5
ssg83
g4078
sg76
(lp4085
S''
asbasbasbag69
(g85
g71
NtRp4086
(dp4087
g74
(dp4088
sg83
g3512
sg76
(lp4089
g69
(g90
g71
NtRp4090
(dp4091
g74
(dp4092
g94
g95
ssg83
g4086
sg76
(lp4093
S'myfile5'
p4094
asbag69
(g90
g71
NtRp4095
(dp4096
g74
(dp4097
g101
g102
ssg83
g4086
sg76
(lp4098
S':'
asbag69
(g90
g71
NtRp4099
(dp4100
g74
(dp4101
sg83
g4086
sg76
(lp4102
g69
(g70
g71
NtRp4103
(dp4104
g74
(dp4105
g82
I5
ssg83
g4099
sg76
(lp4106
S''
asbasbasbag69
(g85
g71
NtRp4107
(dp4108
g74
(dp4109
sg83
g3512
sg76
(lp4110
g69
(g90
g71
NtRp4111
(dp4112
g74
(dp4113
g94
g95
ssg83
g4107
sg76
(lp4114
S'myfile6'
p4115
asbag69
(g90
g71
NtRp4116
(dp4117
g74
(dp4118
g101
g102
ssg83
g4107
sg76
(lp4119
S':'
asbag69
(g90
g71
NtRp4120
(dp4121
g74
(dp4122
sg83
g4107
sg76
(lp4123
g69
(g70
g71
NtRp4124
(dp4125
g74
(dp4126
g82
I5
ssg83
g4120
sg76
(lp4127
S''
asbasbasbag69
(g85
g71
NtRp4128
(dp4129
g74
(dp4130
sg83
g3512
sg76
(lp4131
g69
(g90
g71
NtRp4132
(dp4133
g74
(dp4134
g94
g95
ssg83
g4128
sg76
(lp4135
S'output'
p4136
asbag69
(g90
g71
NtRp4137
(dp4138
g74
(dp4139
g101
g102
ssg83
g4128
sg76
(lp4140
S':'
asbag69
(g90
g71
NtRp4141
(dp4142
g74
(dp4143
sg83
g4128
sg76
(lp4144
g69
(g70
g71
NtRp4145
(dp4146
g74
(dp4147
g82
I5
ssg83
g4141
sg76
(lp4148
g69
(g78
g71
NtRp4149
(dp4150
g74
(dp4151
g82
I4
ssg83
Nsg76
(lp4152
g69
(g85
g71
NtRp4153
(dp4154
g74
(dp4155
sg83
g4149
sg76
(lp4156
g69
(g90
g71
NtRp4157
(dp4158
g74
(dp4159
sg83
g4153
sg76
(lp4160
g69
(g70
g71
NtRp4161
(dp4162
g74
(dp4163
g82
I4
ssg83
g4157
sg76
(lp4164
S'Jobnumber\tJobname\tStatus\tStarted\tEnded\tSubmitted\tCommand'
p4165
asbasbasbag69
(g85
g71
NtRp4166
(dp4167
g74
(dp4168
sg83
g4149
sg76
(lp4169
g69
(g90
g71
NtRp4170
(dp4171
g74
(dp4172
sg83
g4166
sg76
(lp4173
g69
(g70
g71
NtRp4174
(dp4175
g74
(dp4176
g82
I4
ssg83
g4170
sg76
(lp4177
S'241\tF8QMFC\tkilled\tNA\t01/30/13:10:54:58\t01/30/13:10:54:41\tpython run_command.py'
p4178
asbasbasbag69
(g85
g71
NtRp4179
(dp4180
g74
(dp4181
sg83
g4149
sg76
(lp4182
g69
(g90
g71
NtRp4183
(dp4184
g74
(dp4185
sg83
g4179
sg76
(lp4186
g69
(g70
g71
NtRp4187
(dp4188
g74
(dp4189
g82
I4
ssg83
g4183
sg76
(lp4190
S'242\t1\tkilled\tNA\t01/30/13:10:56:50\t01/30/13:10:55:43\tpython run_command.py'
p4191
asbasbasbag69
(g85
g71
NtRp4192
(dp4193
g74
(dp4194
sg83
g4149
sg76
(lp4195
g69
(g90
g71
NtRp4196
(dp4197
g74
(dp4198
sg83
g4192
sg76
(lp4199
g69
(g70
g71
NtRp4200
(dp4201
g74
(dp4202
g82
I4
ssg83
g4196
sg76
(lp4203
S'243\t1JCM7W\tcompleted\tNA\t01/31/13:11:02:08\t01/30/13:16:23:56\tpython /home/xchen/chencode/Betsy/scripts/run_protocol.py --protocol normalize_file --input input_signal_file:/home/xchen/chencode/upload/no_table.myfile1.bc230362ce4171ba.616c6c5f616d6c5f747261696e5f66696c742e676374.gct --parameters has_missing_value:zero_fill --parameters preprocess:unknown_preprocess'
p4204
asbasbasbag69
(g85
g71
NtRp4205
(dp4206
g74
(dp4207
sg83
g4149
sg76
(lp4208
g69
(g90
g71
NtRp4209
(dp4210
g74
(dp4211
sg83
g4205
sg76
(lp4212
g69
(g70
g71
NtRp4213
(dp4214
g74
(dp4215
g82
I4
ssg83
g4209
sg76
(lp4216
S'244\tMD5OVN\tcompleted\tNA\t01/31/13:11:02:08\t01/30/13:16:26:25\tpython /home/xchen/chencode/Betsy/scripts/run_protocol.py --protocol normalize_file --input input_signal_file:/home/xchen/chencode/upload/no_table.myfile1.ac92b1b80e18666e.7369676e616c5f756e6c6f67747261696e2e70636c.pcl --parameters has_missing_value:zero_fill --parameters preprocess:unknown_preprocess'
p4217
asbasbasbag69
(g85
g71
NtRp4218
(dp4219
g74
(dp4220
sg83
g4149
sg76
(lp4221
g69
(g90
g71
NtRp4222
(dp4223
g74
(dp4224
sg83
g4218
sg76
(lp4225
g69
(g70
g71
NtRp4226
(dp4227
g74
(dp4228
g82
I4
ssg83
g4222
sg76
(lp4229
S'245\t2XXAAY\tcompleted\t01/31/13:11:02:08\t01/31/13:11:36:29\t01/31/13:11:02:08\tpython /home/xchen/chencode/Betsy/scripts/python run_command.py /home/xchen/chencode/upload/no_table.myfile1.9c934921a246486e.6a6f627175657565.txt'
p4230
asbasbasbag69
(g85
g71
NtRp4231
(dp4232
g74
(dp4233
sg83
g4149
sg76
(lp4234
g69
(g90
g71
NtRp4235
(dp4236
g74
(dp4237
sg83
g4231
sg76
(lp4238
g69
(g70
g71
NtRp4239
(dp4240
g74
(dp4241
g82
I4
ssg83
g4235
sg76
(lp4242
S'254\tKQFWA9\tcompleted\tNA\t02/04/13:15:52:33\t01/31/13:12:50:49\tpython /home/xchen/chencode/Betsy/scripts/python run_command.py /home/xchen/chencode/upload/no_table.myfile1.9c934921a246486e.6a6f627175657565.txt'
p4243
asbasbasbag69
(g85
g71
NtRp4244
(dp4245
g74
(dp4246
sg83
g4149
sg76
(lp4247
g69
(g90
g71
NtRp4248
(dp4249
g74
(dp4250
sg83
g4244
sg76
(lp4251
g69
(g70
g71
NtRp4252
(dp4253
g74
(dp4254
g82
I4
ssg83
g4248
sg76
(lp4255
S'255\t5O5TN9\tcompleted\tNA\t02/04/13:15:52:33\t01/31/13:13:38:12\tpython /home/xchen/chencode/Betsy/scripts/python run_command.py /home/xchen/chencode/upload/no_table.myfile1.9c934921a246486e.6a6f627175657565.txt'
p4256
asbasbasbag69
(g85
g71
NtRp4257
(dp4258
g74
(dp4259
sg83
g4149
sg76
(lp4260
g69
(g90
g71
NtRp4261
(dp4262
g74
(dp4263
sg83
g4257
sg76
(lp4264
g69
(g70
g71
NtRp4265
(dp4266
g74
(dp4267
g82
I4
ssg83
g4261
sg76
(lp4268
S'256\t66OKZZ\tcompleted\tNA\t02/04/13:15:52:33\t01/31/13:15:20:40\tpython /home/xchen/chencode/Betsy/scripts/run_rule.py --plin input_signal_file([contents,[a],status,given],[]) --plout signal_raw([contents,[a],format,tdf,is_logged,unknown_logged,preprocess,unknown_preprocess,predataset,no_predataset],A)'
p4269
asbasbasbag69
(g85
g71
NtRp4270
(dp4271
g74
(dp4272
sg83
g4149
sg76
(lp4273
g69
(g90
g71
NtRp4274
(dp4275
g74
(dp4276
sg83
g4270
sg76
(lp4277
g69
(g70
g71
NtRp4278
(dp4279
g74
(dp4280
g82
I4
ssg83
g4274
sg76
(lp4281
S''
asbasbasbasbasbasbasbasbasbsS'etype'
p4282
S"<type 'exceptions.SyntaxError'>"
p4283
sS'date'
p4284
S'Wed Feb  6 16:29:38 2013'
p4285
sS'response'
p4286
g69
(g70
g71
NtRp4287
(dp4288
g74
(dp4289
sg76
(lp4290
g69
(g78
g71
NtRp4291
(dp4292
g74
(dp4293
g82
I5
ssg83
Nsg76
(lp4294
g69
(g85
g71
NtRp4295
(dp4296
g74
(dp4297
sg83
g4291
sg76
(lp4298
g69
(g90
g71
NtRp4299
(dp4300
g74
(dp4301
g94
g95
ssg83
g4295
sg76
(lp4302
g180
asbag69
(g90
g71
NtRp4303
(dp4304
g74
(dp4305
g101
g102
ssg83
g4295
sg76
(lp4306
S':'
asbag69
(g90
g71
NtRp4307
(dp4308
g74
(dp4309
sg83
g4295
sg76
(lp4310
g69
(g70
g71
NtRp4311
(dp4312
g74
(dp4313
g82
I5
ssg83
g4307
sg76
(lp4314
S'<cStringIO.StringO object at 0x197a6458>'
p4315
asbasbasbag69
(g85
g71
NtRp4316
(dp4317
g74
(dp4318
sg83
g4291
sg76
(lp4319
g69
(g90
g71
NtRp4320
(dp4321
g74
(dp4322
g94
g95
ssg83
g4316
sg76
(lp4323
g268
asbag69
(g90
g71
NtRp4324
(dp4325
g74
(dp4326
g101
g102
ssg83
g4316
sg76
(lp4327
S':'
asbag69
(g90
g71
NtRp4328
(dp4329
g74
(dp4330
sg83
g4316
sg76
(lp4331
g69
(g70
g71
NtRp4332
(dp4333
g74
(dp4334
g82
I5
ssg83
g4328
sg76
(lp4335
g69
(g78
g71
NtRp4336
(dp4337
g74
(dp4338
g82
I4
ssg83
Nsg76
(lp4339
g69
(g85
g71
NtRp4340
(dp4341
g74
(dp4342
sg83
g4336
sg76
(lp4343
g69
(g90
g71
NtRp4344
(dp4345
g74
(dp4346
g94
g95
ssg83
g4340
sg76
(lp4347
S'session_id_betsy'
p4348
asbag69
(g90
g71
NtRp4349
(dp4350
g74
(dp4351
g101
g102
ssg83
g4340
sg76
(lp4352
S':'
asbag69
(g90
g71
NtRp4353
(dp4354
g74
(dp4355
sg83
g4340
sg76
(lp4356
g69
(g70
g71
NtRp4357
(dp4358
g74
(dp4359
g82
I4
ssg83
g4353
sg76
(lp4360
g500
ag69
(g78
g71
NtRp4361
(dp4362
g74
(dp4363
g82
I3
ssg83
Nsg76
(lp4364
g69
(g85
g71
NtRp4365
(dp4366
g74
(dp4367
sg83
g4361
sg76
(lp4368
g69
(g90
g71
NtRp4369
(dp4370
g74
(dp4371
g94
g95
ssg83
g4365
sg76
(lp4372
g319
asbag69
(g90
g71
NtRp4373
(dp4374
g74
(dp4375
g101
g102
ssg83
g4365
sg76
(lp4376
S':'
asbag69
(g90
g71
NtRp4377
(dp4378
g74
(dp4379
sg83
g4365
sg76
(lp4380
g69
(g70
g71
NtRp4381
(dp4382
g74
(dp4383
g82
I3
ssg83
g4377
sg76
(lp4384
S''
asbasbasbag69
(g85
g71
NtRp4385
(dp4386
g74
(dp4387
sg83
g4361
sg76
(lp4388
g69
(g90
g71
NtRp4389
(dp4390
g74
(dp4391
g94
g95
ssg83
g4385
sg76
(lp4392
g340
asbag69
(g90
g71
NtRp4393
(dp4394
g74
(dp4395
g101
g102
ssg83
g4385
sg76
(lp4396
S':'
asbag69
(g90
g71
NtRp4397
(dp4398
g74
(dp4399
sg83
g4385
sg76
(lp4400
g69
(g70
g71
NtRp4401
(dp4402
g74
(dp4403
g82
I3
ssg83
g4397
sg76
(lp4404
S''
asbasbasbag69
(g85
g71
NtRp4405
(dp4406
g74
(dp4407
sg83
g4361
sg76
(lp4408
g69
(g90
g71
NtRp4409
(dp4410
g74
(dp4411
g94
g95
ssg83
g4405
sg76
(lp4412
g361
asbag69
(g90
g71
NtRp4413
(dp4414
g74
(dp4415
g101
g102
ssg83
g4405
sg76
(lp4416
S':'
asbag69
(g90
g71
NtRp4417
(dp4418
g74
(dp4419
sg83
g4405
sg76
(lp4420
g69
(g70
g71
NtRp4421
(dp4422
g74
(dp4423
g82
I3
ssg83
g4417
sg76
(lp4424
S'2592000'
p4425
asbasbasbag69
(g85
g71
NtRp4426
(dp4427
g74
(dp4428
sg83
g4361
sg76
(lp4429
g69
(g90
g71
NtRp4430
(dp4431
g74
(dp4432
g94
g95
ssg83
g4426
sg76
(lp4433
g382
asbag69
(g90
g71
NtRp4434
(dp4435
g74
(dp4436
g101
g102
ssg83
g4426
sg76
(lp4437
S':'
asbag69
(g90
g71
NtRp4438
(dp4439
g74
(dp4440
sg83
g4426
sg76
(lp4441
g69
(g70
g71
NtRp4442
(dp4443
g74
(dp4444
g82
I3
ssg83
g4438
sg76
(lp4445
S''
asbasbasbag69
(g85
g71
NtRp4446
(dp4447
g74
(dp4448
sg83
g4361
sg76
(lp4449
g69
(g90
g71
NtRp4450
(dp4451
g74
(dp4452
g94
g95
ssg83
g4446
sg76
(lp4453
g403
asbag69
(g90
g71
NtRp4454
(dp4455
g74
(dp4456
g101
g102
ssg83
g4446
sg76
(lp4457
S':'
asbag69
(g90
g71
NtRp4458
(dp4459
g74
(dp4460
sg83
g4446
sg76
(lp4461
g69
(g70
g71
NtRp4462
(dp4463
g74
(dp4464
g82
I3
ssg83
g4458
sg76
(lp4465
S''
asbasbasbag69
(g85
g71
NtRp4466
(dp4467
g74
(dp4468
sg83
g4361
sg76
(lp4469
g69
(g90
g71
NtRp4470
(dp4471
g74
(dp4472
g94
g95
ssg83
g4466
sg76
(lp4473
g424
asbag69
(g90
g71
NtRp4474
(dp4475
g74
(dp4476
g101
g102
ssg83
g4466
sg76
(lp4477
S':'
asbag69
(g90
g71
NtRp4478
(dp4479
g74
(dp4480
sg83
g4466
sg76
(lp4481
g69
(g70
g71
NtRp4482
(dp4483
g74
(dp4484
g82
I3
ssg83
g4478
sg76
(lp4485
S'/'
asbasbasbag69
(g85
g71
NtRp4486
(dp4487
g74
(dp4488
sg83
g4361
sg76
(lp4489
g69
(g90
g71
NtRp4490
(dp4491
g74
(dp4492
g94
g95
ssg83
g4486
sg76
(lp4493
g445
asbag69
(g90
g71
NtRp4494
(dp4495
g74
(dp4496
g101
g102
ssg83
g4486
sg76
(lp4497
S':'
asbag69
(g90
g71
NtRp4498
(dp4499
g74
(dp4500
sg83
g4486
sg76
(lp4501
g69
(g70
g71
NtRp4502
(dp4503
g74
(dp4504
g82
I3
ssg83
g4498
sg76
(lp4505
S''
asbasbasbag69
(g85
g71
NtRp4506
(dp4507
g74
(dp4508
sg83
g4361
sg76
(lp4509
g69
(g90
g71
NtRp4510
(dp4511
g74
(dp4512
g94
g95
ssg83
g4506
sg76
(lp4513
g466
asbag69
(g90
g71
NtRp4514
(dp4515
g74
(dp4516
g101
g102
ssg83
g4506
sg76
(lp4517
S':'
asbag69
(g90
g71
NtRp4518
(dp4519
g74
(dp4520
sg83
g4506
sg76
(lp4521
g69
(g70
g71
NtRp4522
(dp4523
g74
(dp4524
g82
I3
ssg83
g4518
sg76
(lp4525
S''
asbasbasbasbasbasbasbasbasbasbasbag69
(g85
g71
NtRp4526
(dp4527
g74
(dp4528
sg83
g4291
sg76
(lp4529
g69
(g90
g71
NtRp4530
(dp4531
g74
(dp4532
g94
g95
ssg83
g4526
sg76
(lp4533
S'delimiters'
p4534
asbag69
(g90
g71
NtRp4535
(dp4536
g74
(dp4537
g101
g102
ssg83
g4526
sg76
(lp4538
S':'
asbag69
(g90
g71
NtRp4539
(dp4540
g74
(dp4541
sg83
g4526
sg76
(lp4542
g69
(g70
g71
NtRp4543
(dp4544
g74
(dp4545
g82
I5
ssg83
g4539
sg76
(lp4546
g69
(g78
g71
NtRp4547
(dp4548
g74
(dp4549
g82
I4
ssg83
Nsg76
(lp4550
g69
(g85
g71
NtRp4551
(dp4552
g74
(dp4553
sg83
g4547
sg76
(lp4554
g69
(g90
g71
NtRp4555
(dp4556
g74
(dp4557
sg83
g4551
sg76
(lp4558
g69
(g70
g71
NtRp4559
(dp4560
g74
(dp4561
g82
I4
ssg83
g4555
sg76
(lp4562
S'{{'
p4563
asbasbasbag69
(g85
g71
NtRp4564
(dp4565
g74
(dp4566
sg83
g4547
sg76
(lp4567
g69
(g90
g71
NtRp4568
(dp4569
g74
(dp4570
sg83
g4564
sg76
(lp4571
g69
(g70
g71
NtRp4572
(dp4573
g74
(dp4574
g82
I4
ssg83
g4568
sg76
(lp4575
S'}}'
p4576
asbasbasbasbasbasbasbag69
(g85
g71
NtRp4577
(dp4578
g74
(dp4579
sg83
g4291
sg76
(lp4580
g69
(g90
g71
NtRp4581
(dp4582
g74
(dp4583
g94
g95
ssg83
g4577
sg76
(lp4584
S'files'
p4585
asbag69
(g90
g71
NtRp4586
(dp4587
g74
(dp4588
g101
g102
ssg83
g4577
sg76
(lp4589
S':'
asbag69
(g90
g71
NtRp4590
(dp4591
g74
(dp4592
sg83
g4577
sg76
(lp4593
g69
(g70
g71
NtRp4594
(dp4595
g74
(dp4596
g82
I5
ssg83
g4590
sg76
(lp4597
g69
(g78
g71
NtRp4598
(dp4599
g74
(dp4600
g82
I4
ssg83
Nsg76
(lp4601
sbasbasbasbag69
(g85
g71
NtRp4602
(dp4603
g74
(dp4604
sg83
g4291
sg76
(lp4605
g69
(g90
g71
NtRp4606
(dp4607
g74
(dp4608
g94
g95
ssg83
g4602
sg76
(lp4609
S'flash'
p4610
asbag69
(g90
g71
NtRp4611
(dp4612
g74
(dp4613
g101
g102
ssg83
g4602
sg76
(lp4614
S':'
asbag69
(g90
g71
NtRp4615
(dp4616
g74
(dp4617
sg83
g4602
sg76
(lp4618
g69
(g70
g71
NtRp4619
(dp4620
g74
(dp4621
g82
I5
ssg83
g4615
sg76
(lp4622
S''
asbasbasbag69
(g85
g71
NtRp4623
(dp4624
g74
(dp4625
sg83
g4291
sg76
(lp4626
g69
(g90
g71
NtRp4627
(dp4628
g74
(dp4629
g94
g95
ssg83
g4623
sg76
(lp4630
S'generic_patterns'
p4631
asbag69
(g90
g71
NtRp4632
(dp4633
g74
(dp4634
g101
g102
ssg83
g4623
sg76
(lp4635
S':'
asbag69
(g90
g71
NtRp4636
(dp4637
g74
(dp4638
sg83
g4623
sg76
(lp4639
g69
(g70
g71
NtRp4640
(dp4641
g74
(dp4642
g82
I5
ssg83
g4636
sg76
(lp4643
g69
(g78
g71
NtRp4644
(dp4645
g74
(dp4646
g82
I4
ssg83
Nsg76
(lp4647
g69
(g85
g71
NtRp4648
(dp4649
g74
(dp4650
sg83
g4644
sg76
(lp4651
g69
(g90
g71
NtRp4652
(dp4653
g74
(dp4654
sg83
g4648
sg76
(lp4655
g69
(g70
g71
NtRp4656
(dp4657
g74
(dp4658
g82
I4
ssg83
g4652
sg76
(lp4659
S'*'
asbasbasbasbasbasbasbag69
(g85
g71
NtRp4660
(dp4661
g74
(dp4662
sg83
g4291
sg76
(lp4663
g69
(g90
g71
NtRp4664
(dp4665
g74
(dp4666
g94
g95
ssg83
g4660
sg76
(lp4667
S'google_analytics_id'
p4668
asbag69
(g90
g71
NtRp4669
(dp4670
g74
(dp4671
g101
g102
ssg83
g4660
sg76
(lp4672
S':'
asbag69
(g90
g71
NtRp4673
(dp4674
g74
(dp4675
sg83
g4660
sg76
(lp4676
g69
(g70
g71
NtRp4677
(dp4678
g74
(dp4679
g82
I5
ssg83
g4673
sg76
(lp4680
S'None'
p4681
asbasbasbag69
(g85
g71
NtRp4682
(dp4683
g74
(dp4684
sg83
g4291
sg76
(lp4685
g69
(g90
g71
NtRp4686
(dp4687
g74
(dp4688
g94
g95
ssg83
g4682
sg76
(lp4689
S'headers'
p4690
asbag69
(g90
g71
NtRp4691
(dp4692
g74
(dp4693
g101
g102
ssg83
g4682
sg76
(lp4694
S':'
asbag69
(g90
g71
NtRp4695
(dp4696
g74
(dp4697
sg83
g4682
sg76
(lp4698
g69
(g70
g71
NtRp4699
(dp4700
g74
(dp4701
g82
I5
ssg83
g4695
sg76
(lp4702
g69
(g78
g71
NtRp4703
(dp4704
g74
(dp4705
g82
I4
ssg83
Nsg76
(lp4706
g69
(g85
g71
NtRp4707
(dp4708
g74
(dp4709
sg83
g4703
sg76
(lp4710
g69
(g90
g71
NtRp4711
(dp4712
g74
(dp4713
g94
g95
ssg83
g4707
sg76
(lp4714
S'X-Powered-By'
p4715
asbag69
(g90
g71
NtRp4716
(dp4717
g74
(dp4718
g101
g102
ssg83
g4707
sg76
(lp4719
S':'
asbag69
(g90
g71
NtRp4720
(dp4721
g74
(dp4722
sg83
g4707
sg76
(lp4723
g69
(g70
g71
NtRp4724
(dp4725
g74
(dp4726
g82
I4
ssg83
g4720
sg76
(lp4727
S'web2py'
p4728
asbasbasbasbasbasbasbag69
(g85
g71
NtRp4729
(dp4730
g74
(dp4731
sg83
g4291
sg76
(lp4732
g69
(g90
g71
NtRp4733
(dp4734
g74
(dp4735
g94
g95
ssg83
g4729
sg76
(lp4736
S'menu'
p4737
asbag69
(g90
g71
NtRp4738
(dp4739
g74
(dp4740
g101
g102
ssg83
g4729
sg76
(lp4741
S':'
asbag69
(g90
g71
NtRp4742
(dp4743
g74
(dp4744
sg83
g4729
sg76
(lp4745
g69
(g70
g71
NtRp4746
(dp4747
g74
(dp4748
g82
I5
ssg83
g4742
sg76
(lp4749
g69
(g78
g71
NtRp4750
(dp4751
g74
(dp4752
g82
I4
ssg83
Nsg76
(lp4753
g69
(g85
g71
NtRp4754
(dp4755
g74
(dp4756
sg83
g4750
sg76
(lp4757
g69
(g90
g71
NtRp4758
(dp4759
g74
(dp4760
sg83
g4754
sg76
(lp4761
g69
(g70
g71
NtRp4762
(dp4763
g74
(dp4764
g82
I4
ssg83
g4758
sg76
(lp4765
g69
(g78
g71
NtRp4766
(dp4767
g74
(dp4768
g82
I3
ssg83
Nsg76
(lp4769
g69
(g85
g71
NtRp4770
(dp4771
g74
(dp4772
sg83
g4766
sg76
(lp4773
g69
(g90
g71
NtRp4774
(dp4775
g74
(dp4776
sg83
g4770
sg76
(lp4777
g69
(g70
g71
NtRp4778
(dp4779
g74
(dp4780
g82
I3
ssg83
g4774
sg76
(lp4781
cgluon.languages
lazyT_unpickle
p4782
(S's\x04\x00\x00\x00Home'
tRp4783
asbasbasbag69
(g85
g71
NtRp4784
(dp4785
g74
(dp4786
sg83
g4766
sg76
(lp4787
g69
(g90
g71
NtRp4788
(dp4789
g74
(dp4790
sg83
g4784
sg76
(lp4791
g69
(g70
g71
NtRp4792
(dp4793
g74
(dp4794
g82
I3
ssg83
g4788
sg76
(lp4795
g112
asbasbasbag69
(g85
g71
NtRp4796
(dp4797
g74
(dp4798
sg83
g4766
sg76
(lp4799
g69
(g90
g71
NtRp4800
(dp4801
g74
(dp4802
sg83
g4796
sg76
(lp4803
g69
(g70
g71
NtRp4804
(dp4805
g74
(dp4806
g82
I3
ssg83
g4800
sg76
(lp4807
S'/Betsy/default/index'
p4808
asbasbasbag69
(g85
g71
NtRp4809
(dp4810
g74
(dp4811
sg83
g4766
sg76
(lp4812
g69
(g90
g71
NtRp4813
(dp4814
g74
(dp4815
sg83
g4809
sg76
(lp4816
g69
(g70
g71
NtRp4817
(dp4818
g74
(dp4819
g82
I3
ssg83
g4813
sg76
(lp4820
g69
(g78
g71
NtRp4821
(dp4822
g74
(dp4823
g82
I2
ssg83
Nsg76
(lp4824
sbasbasbasbasbasbasbasbag69
(g85
g71
NtRp4825
(dp4826
g74
(dp4827
sg83
g4750
sg76
(lp4828
g69
(g90
g71
NtRp4829
(dp4830
g74
(dp4831
sg83
g4825
sg76
(lp4832
g69
(g70
g71
NtRp4833
(dp4834
g74
(dp4835
g82
I4
ssg83
g4829
sg76
(lp4836
g69
(g78
g71
NtRp4837
(dp4838
g74
(dp4839
g82
I3
ssg83
Nsg76
(lp4840
g69
(g85
g71
NtRp4841
(dp4842
g74
(dp4843
sg83
g4837
sg76
(lp4844
g69
(g90
g71
NtRp4845
(dp4846
g74
(dp4847
sg83
g4841
sg76
(lp4848
g69
(g70
g71
NtRp4849
(dp4850
g74
(dp4851
g82
I3
ssg83
g4845
sg76
(lp4852
g69
(cgluon.html
SPAN
p4853
g71
NtRp4854
(dp4855
g74
(dp4856
S'_class'
p4857
S'highlighted'
p4858
ssg83
Nsg76
(lp4859
g4728
asbasbasbasbag69
(g85
g71
NtRp4860
(dp4861
g74
(dp4862
sg83
g4837
sg76
(lp4863
g69
(g90
g71
NtRp4864
(dp4865
g74
(dp4866
sg83
g4860
sg76
(lp4867
g69
(g70
g71
NtRp4868
(dp4869
g74
(dp4870
g82
I3
ssg83
g4864
sg76
(lp4871
g112
asbasbasbag69
(g85
g71
NtRp4872
(dp4873
g74
(dp4874
sg83
g4837
sg76
(lp4875
g69
(g90
g71
NtRp4876
(dp4877
g74
(dp4878
sg83
g4872
sg76
(lp4879
g69
(g70
g71
NtRp4880
(dp4881
g74
(dp4882
g82
I3
ssg83
g4876
sg76
(lp4883
S'http://web2py.com'
p4884
asbasbasbag69
(g85
g71
NtRp4885
(dp4886
g74
(dp4887
sg83
g4837
sg76
(lp4888
g69
(g90
g71
NtRp4889
(dp4890
g74
(dp4891
sg83
g4885
sg76
(lp4892
g69
(g70
g71
NtRp4893
(dp4894
g74
(dp4895
g82
I3
ssg83
g4889
sg76
(lp4896
g69
(g78
g71
NtRp4897
(dp4898
g74
(dp4899
g82
I2
ssg83
Nsg76
(lp4900
g69
(g85
g71
NtRp4901
(dp4902
g74
(dp4903
sg83
g4897
sg76
(lp4904
g69
(g90
g71
NtRp4905
(dp4906
g74
(dp4907
sg83
g4901
sg76
(lp4908
g69
(g70
g71
NtRp4909
(dp4910
g74
(dp4911
g82
I2
ssg83
g4905
sg76
(lp4912
g69
(g78
g71
NtRp4913
(dp4914
g74
(dp4915
g82
I1
ssg83
Nsg76
(lp4916
g69
(g85
g71
NtRp4917
(dp4918
g74
(dp4919
sg83
g4913
sg76
(lp4920
g69
(g90
g71
NtRp4921
(dp4922
g74
(dp4923
sg83
g4917
sg76
(lp4924
g69
(g70
g71
NtRp4925
(dp4926
g74
(dp4927
g82
I1
ssg83
g4921
sg76
(lp4928
g4782
(S's\x08\x00\x00\x00My Sites'
tRp4929
asbasbasbag69
(g85
g71
NtRp4930
(dp4931
g74
(dp4932
sg83
g4913
sg76
(lp4933
g69
(g90
g71
NtRp4934
(dp4935
g74
(dp4936
sg83
g4930
sg76
(lp4937
g69
(g70
g71
NtRp4938
(dp4939
g74
(dp4940
g82
I1
ssg83
g4934
sg76
(lp4941
I00
asbasbasbag69
(g85
g71
NtRp4942
(dp4943
g74
(dp4944
sg83
g4913
sg76
(lp4945
g69
(g90
g71
NtRp4946
(dp4947
g74
(dp4948
sg83
g4942
sg76
(lp4949
g69
(g70
g71
NtRp4950
(dp4951
g74
(dp4952
g82
I1
ssg83
g4946
sg76
(lp4953
S'/admin/default/site'
p4954
asbasbasbasbasbasbasbag69
(g85
g71
NtRp4955
(dp4956
g74
(dp4957
sg83
g4897
sg76
(lp4958
g69
(g90
g71
NtRp4959
(dp4960
g74
(dp4961
sg83
g4955
sg76
(lp4962
g69
(g70
g71
NtRp4963
(dp4964
g74
(dp4965
g82
I2
ssg83
g4959
sg76
(lp4966
g69
(g78
g71
NtRp4967
(dp4968
g74
(dp4969
g82
I1
ssg83
Nsg76
(lp4970
g69
(g85
g71
NtRp4971
(dp4972
g74
(dp4973
sg83
g4967
sg76
(lp4974
g69
(g90
g71
NtRp4975
(dp4976
g74
(dp4977
sg83
g4971
sg76
(lp4978
g69
(g70
g71
NtRp4979
(dp4980
g74
(dp4981
g82
I1
ssg83
g4975
sg76
(lp4982
g4782
(S's\x08\x00\x00\x00This App'
tRp4983
asbasbasbag69
(g85
g71
NtRp4984
(dp4985
g74
(dp4986
sg83
g4967
sg76
(lp4987
g69
(g90
g71
NtRp4988
(dp4989
g74
(dp4990
sg83
g4984
sg76
(lp4991
g69
(g70
g71
NtRp4992
(dp4993
g74
(dp4994
g82
I1
ssg83
g4988
sg76
(lp4995
I00
asbasbasbag69
(g85
g71
NtRp4996
(dp4997
g74
(dp4998
sg83
g4967
sg76
(lp4999
g69
(g90
g71
NtRp5000
(dp5001
g74
(dp5002
sg83
g4996
sg76
(lp5003
g69
(g70
g71
NtRp5004
(dp5005
g74
(dp5006
g82
I1
ssg83
g5000
sg76
(lp5007
S'/admin/default/design/Betsy'
p5008
asbasbasbag69
(g85
g71
NtRp5009
(dp5010
g74
(dp5011
sg83
g4967
sg76
(lp5012
g69
(g90
g71
NtRp5013
(dp5014
g74
(dp5015
sg83
g5009
sg76
(lp5016
g69
(g70
g71
NtRp5017
(dp5018
g74
(dp5019
g82
I1
ssg83
g5013
sg76
(lp5020
(lp5021
(g4782
(S's\n\x00\x00\x00Controller'
tRp5022
I00
S'/admin/default/edit/Betsy/controllers/default.py'
tp5023
a(g4782
(S's\x04\x00\x00\x00View'
tRp5024
I00
S'/admin/default/edit/Betsy/views/default/show_job.html'
tp5025
a(g4782
(S's\x06\x00\x00\x00Layout'
tRp5026
I00
S'/admin/default/edit/Betsy/views/layout.html'
tp5027
a(g4782
(S's\n\x00\x00\x00Stylesheet'
tRp5028
I00
S'/admin/default/edit/Betsy/static/css/web2py.css'
tp5029
a(g4782
(S's\x08\x00\x00\x00DB Model'
tRp5030
I00
S'/admin/default/edit/Betsy/models/db.py'
tp5031
a(g4782
(S's\n\x00\x00\x00Menu Model'
tRp5032
I00
S'/admin/default/edit/Betsy/models/menu.py'
tp5033
a(g4782
(S's\x08\x00\x00\x00Database'
tRp5034
I00
S'/Betsy/appadmin/index'
tp5035
a(g4782
(S's\x06\x00\x00\x00Errors'
tRp5036
I00
S'/admin/default/errors/Betsy'
tp5037
a(g4782
(S's\x05\x00\x00\x00About'
tRp5038
I00
S'/admin/default/about/Betsy'
tp5039
aasbasbasbasbasbasbasbag69
(g85
g71
NtRp5040
(dp5041
g74
(dp5042
sg83
g4897
sg76
(lp5043
g69
(g90
g71
NtRp5044
(dp5045
g74
(dp5046
sg83
g5040
sg76
(lp5047
g69
(g70
g71
NtRp5048
(dp5049
g74
(dp5050
g82
I2
ssg83
g5044
sg76
(lp5051
g69
(g78
g71
NtRp5052
(dp5053
g74
(dp5054
g82
I1
ssg83
Nsg76
(lp5055
g69
(g85
g71
NtRp5056
(dp5057
g74
(dp5058
sg83
g5052
sg76
(lp5059
g69
(g90
g71
NtRp5060
(dp5061
g74
(dp5062
sg83
g5056
sg76
(lp5063
g69
(g70
g71
NtRp5064
(dp5065
g74
(dp5066
g82
I1
ssg83
g5060
sg76
(lp5067
S'web2py.com'
p5068
asbasbasbag69
(g85
g71
NtRp5069
(dp5070
g74
(dp5071
sg83
g5052
sg76
(lp5072
g69
(g90
g71
NtRp5073
(dp5074
g74
(dp5075
sg83
g5069
sg76
(lp5076
g69
(g70
g71
NtRp5077
(dp5078
g74
(dp5079
g82
I1
ssg83
g5073
sg76
(lp5080
I00
asbasbasbag69
(g85
g71
NtRp5081
(dp5082
g74
(dp5083
sg83
g5052
sg76
(lp5084
g69
(g90
g71
NtRp5085
(dp5086
g74
(dp5087
sg83
g5081
sg76
(lp5088
g69
(g70
g71
NtRp5089
(dp5090
g74
(dp5091
g82
I1
ssg83
g5085
sg76
(lp5092
S'http://www.web2py.com'
p5093
asbasbasbag69
(g85
g71
NtRp5094
(dp5095
g74
(dp5096
sg83
g5052
sg76
(lp5097
g69
(g90
g71
NtRp5098
(dp5099
g74
(dp5100
sg83
g5094
sg76
(lp5101
g69
(g70
g71
NtRp5102
(dp5103
g74
(dp5104
g82
I1
ssg83
g5098
sg76
(lp5105
(lp5106
(g4782
(S's\x08\x00\x00\x00Download'
tRp5107
I00
S'http://www.web2py.com/examples/default/download'
p5108
tp5109
a(g4782
(S's\x07\x00\x00\x00Support'
tRp5110
I00
S'http://www.web2py.com/examples/default/support'
p5111
tp5112
a(g4782
(S's\x04\x00\x00\x00Demo'
tRp5113
I00
S'http://web2py.com/demo_admin'
p5114
tp5115
a(g4782
(S's\x0e\x00\x00\x00Quick Examples'
tRp5116
I00
S'http://web2py.com/examples/default/examples'
p5117
tp5118
a(g4782
(S's\x03\x00\x00\x00FAQ'
tRp5119
I00
S'http://web2py.com/AlterEgo'
p5120
tp5121
a(g4782
(S's\x06\x00\x00\x00Videos'
tRp5122
I00
S'http://www.web2py.com/examples/default/videos/'
p5123
tp5124
a(g4782
(S's\x11\x00\x00\x00Free Applications'
tRp5125
I00
S'http://web2py.com/appliances'
p5126
tp5127
a(g4782
(S's\x07\x00\x00\x00Plugins'
tRp5128
I00
S'http://web2py.com/plugins'
p5129
tp5130
a(g4782
(S's\x07\x00\x00\x00Layouts'
tRp5131
I00
S'http://web2py.com/layouts'
p5132
tp5133
a(g4782
(S's\x07\x00\x00\x00Recipes'
tRp5134
I00
S'http://web2pyslices.com/'
p5135
tp5136
a(g4782
(S's\x08\x00\x00\x00Semantic'
tRp5137
I00
S'http://web2py.com/semantic'
p5138
tp5139
aasbasbasbasbasbasbasbag69
(g85
g71
NtRp5140
(dp5141
g74
(dp5142
sg83
g4897
sg76
(lp5143
g69
(g90
g71
NtRp5144
(dp5145
g74
(dp5146
sg83
g5140
sg76
(lp5147
g69
(g70
g71
NtRp5148
(dp5149
g74
(dp5150
g82
I2
ssg83
g5144
sg76
(lp5151
g69
(g78
g71
NtRp5152
(dp5153
g74
(dp5154
g82
I1
ssg83
Nsg76
(lp5155
g69
(g85
g71
NtRp5156
(dp5157
g74
(dp5158
sg83
g5152
sg76
(lp5159
g69
(g90
g71
NtRp5160
(dp5161
g74
(dp5162
sg83
g5156
sg76
(lp5163
g69
(g70
g71
NtRp5164
(dp5165
g74
(dp5166
g82
I1
ssg83
g5160
sg76
(lp5167
g4782
(S's\r\x00\x00\x00Documentation'
tRp5168
asbasbasbag69
(g85
g71
NtRp5169
(dp5170
g74
(dp5171
sg83
g5152
sg76
(lp5172
g69
(g90
g71
NtRp5173
(dp5174
g74
(dp5175
sg83
g5169
sg76
(lp5176
g69
(g70
g71
NtRp5177
(dp5178
g74
(dp5179
g82
I1
ssg83
g5173
sg76
(lp5180
I00
asbasbasbag69
(g85
g71
NtRp5181
(dp5182
g74
(dp5183
sg83
g5152
sg76
(lp5184
g69
(g90
g71
NtRp5185
(dp5186
g74
(dp5187
sg83
g5181
sg76
(lp5188
g69
(g70
g71
NtRp5189
(dp5190
g74
(dp5191
g82
I1
ssg83
g5185
sg76
(lp5192
S'http://www.web2py.com/book'
p5193
asbasbasbag69
(g85
g71
NtRp5194
(dp5195
g74
(dp5196
sg83
g5152
sg76
(lp5197
g69
(g90
g71
NtRp5198
(dp5199
g74
(dp5200
sg83
g5194
sg76
(lp5201
g69
(g70
g71
NtRp5202
(dp5203
g74
(dp5204
g82
I1
ssg83
g5198
sg76
(lp5205
(lp5206
(g4782
(S's\x07\x00\x00\x00Preface'
tRp5207
I00
S'http://www.web2py.com/book/default/chapter/00'
p5208
tp5209
a(g4782
(S's\x0c\x00\x00\x00Introduction'
tRp5210
I00
S'http://www.web2py.com/book/default/chapter/01'
p5211
tp5212
a(g4782
(S's\x06\x00\x00\x00Python'
tRp5213
I00
S'http://www.web2py.com/book/default/chapter/02'
p5214
tp5215
a(g4782
(S's\x08\x00\x00\x00Overview'
tRp5216
I00
S'http://www.web2py.com/book/default/chapter/03'
p5217
tp5218
a(g4782
(S's\x08\x00\x00\x00The Core'
tRp5219
I00
S'http://www.web2py.com/book/default/chapter/04'
p5220
tp5221
a(g4782
(S's\t\x00\x00\x00The Views'
tRp5222
I00
S'http://www.web2py.com/book/default/chapter/05'
p5223
tp5224
a(g4782
(S's\x08\x00\x00\x00Database'
tRp5225
I00
S'http://www.web2py.com/book/default/chapter/06'
p5226
tp5227
a(g4782
(S's\x14\x00\x00\x00Forms and Validators'
tRp5228
I00
S'http://www.web2py.com/book/default/chapter/07'
p5229
tp5230
a(g4782
(S's\r\x00\x00\x00Email and SMS'
tRp5231
I00
S'http://www.web2py.com/book/default/chapter/08'
p5232
tp5233
a(g4782
(S's\x0e\x00\x00\x00Access Control'
tRp5234
I00
S'http://www.web2py.com/book/default/chapter/09'
p5235
tp5236
a(g4782
(S's\x08\x00\x00\x00Services'
tRp5237
I00
S'http://www.web2py.com/book/default/chapter/10'
p5238
tp5239
a(g4782
(S's\x0c\x00\x00\x00Ajax Recipes'
tRp5240
I00
S'http://www.web2py.com/book/default/chapter/11'
p5241
tp5242
a(g4782
(S's\x16\x00\x00\x00Components and Plugins'
tRp5243
I00
S'http://www.web2py.com/book/default/chapter/12'
p5244
tp5245
a(g4782
(S's\x12\x00\x00\x00Deployment Recipes'
tRp5246
I00
S'http://www.web2py.com/book/default/chapter/13'
p5247
tp5248
a(g4782
(S's\r\x00\x00\x00Other Recipes'
tRp5249
I00
S'http://www.web2py.com/book/default/chapter/14'
p5250
tp5251
a(g4782
(S's\r\x00\x00\x00Buy this book'
tRp5252
I00
S'http://stores.lulu.com/web2py'
p5253
tp5254
aasbasbasbasbasbasbasbag69
(g85
g71
NtRp5255
(dp5256
g74
(dp5257
sg83
g4897
sg76
(lp5258
g69
(g90
g71
NtRp5259
(dp5260
g74
(dp5261
sg83
g5255
sg76
(lp5262
g69
(g70
g71
NtRp5263
(dp5264
g74
(dp5265
g82
I2
ssg83
g5259
sg76
(lp5266
g69
(g78
g71
NtRp5267
(dp5268
g74
(dp5269
g82
I1
ssg83
Nsg76
(lp5270
g69
(g85
g71
NtRp5271
(dp5272
g74
(dp5273
sg83
g5267
sg76
(lp5274
g69
(g90
g71
NtRp5275
(dp5276
g74
(dp5277
sg83
g5271
sg76
(lp5278
g69
(g70
g71
NtRp5279
(dp5280
g74
(dp5281
g82
I1
ssg83
g5275
sg76
(lp5282
g4782
(S's\t\x00\x00\x00Community'
tRp5283
asbasbasbag69
(g85
g71
NtRp5284
(dp5285
g74
(dp5286
sg83
g5267
sg76
(lp5287
g69
(g90
g71
NtRp5288
(dp5289
g74
(dp5290
sg83
g5284
sg76
(lp5291
g69
(g70
g71
NtRp5292
(dp5293
g74
(dp5294
g82
I1
ssg83
g5288
sg76
(lp5295
I00
asbasbasbag69
(g85
g71
NtRp5296
(dp5297
g74
(dp5298
sg83
g5267
sg76
(lp5299
g69
(g90
g71
NtRp5300
(dp5301
g74
(dp5302
sg83
g5296
sg76
(lp5303
g69
(g70
g71
NtRp5304
(dp5305
g74
(dp5306
g82
I1
ssg83
g5300
sg76
(lp5307
Nasbasbasbag69
(g85
g71
NtRp5308
(dp5309
g74
(dp5310
sg83
g5267
sg76
(lp5311
g69
(g90
g71
NtRp5312
(dp5313
g74
(dp5314
sg83
g5308
sg76
(lp5315
g69
(g70
g71
NtRp5316
(dp5317
g74
(dp5318
g82
I1
ssg83
g5312
sg76
(lp5319
(lp5320
(g4782
(S's\x06\x00\x00\x00Groups'
tRp5321
I00
S'http://www.web2py.com/examples/default/usergroups'
p5322
tp5323
a(g4782
(S's\x07\x00\x00\x00Twitter'
tRp5324
I00
S'http://twitter.com/web2py'
p5325
tp5326
a(g4782
(S's\t\x00\x00\x00Live Chat'
tRp5327
I00
S'http://webchat.freenode.net/?channels=web2py'
p5328
tp5329
aasbasbasbasbasbasbasbag69
(g85
g71
NtRp5330
(dp5331
g74
(dp5332
sg83
g4897
sg76
(lp5333
g69
(g90
g71
NtRp5334
(dp5335
g74
(dp5336
sg83
g5330
sg76
(lp5337
g69
(g70
g71
NtRp5338
(dp5339
g74
(dp5340
g82
I2
ssg83
g5334
sg76
(lp5341
g69
(g78
g71
NtRp5342
(dp5343
g74
(dp5344
g82
I1
ssg83
Nsg76
(lp5345
g69
(g85
g71
NtRp5346
(dp5347
g74
(dp5348
sg83
g5342
sg76
(lp5349
g69
(g90
g71
NtRp5350
(dp5351
g74
(dp5352
sg83
g5346
sg76
(lp5353
g69
(g70
g71
NtRp5354
(dp5355
g74
(dp5356
g82
I1
ssg83
g5350
sg76
(lp5357
g4782
(S's\x07\x00\x00\x00Plugins'
tRp5358
asbasbasbag69
(g85
g71
NtRp5359
(dp5360
g74
(dp5361
sg83
g5342
sg76
(lp5362
g69
(g90
g71
NtRp5363
(dp5364
g74
(dp5365
sg83
g5359
sg76
(lp5366
g69
(g70
g71
NtRp5367
(dp5368
g74
(dp5369
g82
I1
ssg83
g5363
sg76
(lp5370
I00
asbasbasbag69
(g85
g71
NtRp5371
(dp5372
g74
(dp5373
sg83
g5342
sg76
(lp5374
g69
(g90
g71
NtRp5375
(dp5376
g74
(dp5377
sg83
g5371
sg76
(lp5378
g69
(g70
g71
NtRp5379
(dp5380
g74
(dp5381
g82
I1
ssg83
g5375
sg76
(lp5382
Nasbasbasbag69
(g85
g71
NtRp5383
(dp5384
g74
(dp5385
sg83
g5342
sg76
(lp5386
g69
(g90
g71
NtRp5387
(dp5388
g74
(dp5389
sg83
g5383
sg76
(lp5390
g69
(g70
g71
NtRp5391
(dp5392
g74
(dp5393
g82
I1
ssg83
g5387
sg76
(lp5394
(lp5395
(S'plugin_wiki'
p5396
I00
S'http://web2py.com/examples/default/download'
p5397
tp5398
a(g4782
(S's\r\x00\x00\x00Other Plugins'
tRp5399
I00
g5129
tp5400
a(g4782
(S's\x0e\x00\x00\x00Layout Plugins'
tRp5401
I00
g5132
tp5402
aasbasbasbasbasbasbasbasbasbasbasbasbasbasbasbasbasbasbasbag69
(g85
g71
NtRp5403
(dp5404
g74
(dp5405
sg83
g4291
sg76
(lp5406
g69
(g90
g71
NtRp5407
(dp5408
g74
(dp5409
g94
g95
ssg83
g5403
sg76
(lp5410
S'meta'
p5411
asbag69
(g90
g71
NtRp5412
(dp5413
g74
(dp5414
g101
g102
ssg83
g5403
sg76
(lp5415
S':'
asbag69
(g90
g71
NtRp5416
(dp5417
g74
(dp5418
sg83
g5403
sg76
(lp5419
g69
(g70
g71
NtRp5420
(dp5421
g74
(dp5422
g82
I5
ssg83
g5416
sg76
(lp5423
g69
(g78
g71
NtRp5424
(dp5425
g74
(dp5426
g82
I4
ssg83
Nsg76
(lp5427
g69
(g85
g71
NtRp5428
(dp5429
g74
(dp5430
sg83
g5424
sg76
(lp5431
g69
(g90
g71
NtRp5432
(dp5433
g74
(dp5434
g94
g95
ssg83
g5428
sg76
(lp5435
S'author'
p5436
asbag69
(g90
g71
NtRp5437
(dp5438
g74
(dp5439
g101
g102
ssg83
g5428
sg76
(lp5440
S':'
asbag69
(g90
g71
NtRp5441
(dp5442
g74
(dp5443
sg83
g5428
sg76
(lp5444
g69
(g70
g71
NtRp5445
(dp5446
g74
(dp5447
g82
I4
ssg83
g5441
sg76
(lp5448
S'Your Name <you@example.com>'
p5449
asbasbasbag69
(g85
g71
NtRp5450
(dp5451
g74
(dp5452
sg83
g5424
sg76
(lp5453
g69
(g90
g71
NtRp5454
(dp5455
g74
(dp5456
g94
g95
ssg83
g5450
sg76
(lp5457
S'description'
p5458
asbag69
(g90
g71
NtRp5459
(dp5460
g74
(dp5461
g101
g102
ssg83
g5450
sg76
(lp5462
S':'
asbag69
(g90
g71
NtRp5463
(dp5464
g74
(dp5465
sg83
g5450
sg76
(lp5466
g69
(g70
g71
NtRp5467
(dp5468
g74
(dp5469
g82
I4
ssg83
g5463
sg76
(lp5470
S'a cool new app'
p5471
asbasbasbag69
(g85
g71
NtRp5472
(dp5473
g74
(dp5474
sg83
g5424
sg76
(lp5475
g69
(g90
g71
NtRp5476
(dp5477
g74
(dp5478
g94
g95
ssg83
g5472
sg76
(lp5479
S'generator'
p5480
asbag69
(g90
g71
NtRp5481
(dp5482
g74
(dp5483
g101
g102
ssg83
g5472
sg76
(lp5484
S':'
asbag69
(g90
g71
NtRp5485
(dp5486
g74
(dp5487
sg83
g5472
sg76
(lp5488
g69
(g70
g71
NtRp5489
(dp5490
g74
(dp5491
g82
I4
ssg83
g5485
sg76
(lp5492
S'Web2py Web Framework'
p5493
asbasbasbag69
(g85
g71
NtRp5494
(dp5495
g74
(dp5496
sg83
g5424
sg76
(lp5497
g69
(g90
g71
NtRp5498
(dp5499
g74
(dp5500
g94
g95
ssg83
g5494
sg76
(lp5501
S'keywords'
p5502
asbag69
(g90
g71
NtRp5503
(dp5504
g74
(dp5505
g101
g102
ssg83
g5494
sg76
(lp5506
S':'
asbag69
(g90
g71
NtRp5507
(dp5508
g74
(dp5509
sg83
g5494
sg76
(lp5510
g69
(g70
g71
NtRp5511
(dp5512
g74
(dp5513
g82
I4
ssg83
g5507
sg76
(lp5514
S'web2py, python, framework'
p5515
asbasbasbasbasbasbasbag69
(g85
g71
NtRp5516
(dp5517
g74
(dp5518
sg83
g4291
sg76
(lp5519
g69
(g90
g71
NtRp5520
(dp5521
g74
(dp5522
g94
g95
ssg83
g5516
sg76
(lp5523
S'models_to_run'
p5524
asbag69
(g90
g71
NtRp5525
(dp5526
g74
(dp5527
g101
g102
ssg83
g5516
sg76
(lp5528
S':'
asbag69
(g90
g71
NtRp5529
(dp5530
g74
(dp5531
sg83
g5516
sg76
(lp5532
g69
(g70
g71
NtRp5533
(dp5534
g74
(dp5535
g82
I5
ssg83
g5529
sg76
(lp5536
g69
(g78
g71
NtRp5537
(dp5538
g74
(dp5539
g82
I4
ssg83
Nsg76
(lp5540
g69
(g85
g71
NtRp5541
(dp5542
g74
(dp5543
sg83
g5537
sg76
(lp5544
g69
(g90
g71
NtRp5545
(dp5546
g74
(dp5547
sg83
g5541
sg76
(lp5548
g69
(g70
g71
NtRp5549
(dp5550
g74
(dp5551
g82
I4
ssg83
g5545
sg76
(lp5552
S'^\\w+\\.py$'
p5553
asbasbasbag69
(g85
g71
NtRp5554
(dp5555
g74
(dp5556
sg83
g5537
sg76
(lp5557
g69
(g90
g71
NtRp5558
(dp5559
g74
(dp5560
sg83
g5554
sg76
(lp5561
g69
(g70
g71
NtRp5562
(dp5563
g74
(dp5564
g82
I4
ssg83
g5558
sg76
(lp5565
S'^default/\\w+\\.py$'
p5566
asbasbasbag69
(g85
g71
NtRp5567
(dp5568
g74
(dp5569
sg83
g5537
sg76
(lp5570
g69
(g90
g71
NtRp5571
(dp5572
g74
(dp5573
sg83
g5567
sg76
(lp5574
g69
(g70
g71
NtRp5575
(dp5576
g74
(dp5577
g82
I4
ssg83
g5571
sg76
(lp5578
S'^default/show_job/\\w+\\.py$'
p5579
asbasbasbasbasbasbasbag69
(g85
g71
NtRp5580
(dp5581
g74
(dp5582
sg83
g4291
sg76
(lp5583
g69
(g90
g71
NtRp5584
(dp5585
g74
(dp5586
g94
g95
ssg83
g5580
sg76
(lp5587
S'postprocessing'
p5588
asbag69
(g90
g71
NtRp5589
(dp5590
g74
(dp5591
g101
g102
ssg83
g5580
sg76
(lp5592
S':'
asbag69
(g90
g71
NtRp5593
(dp5594
g74
(dp5595
sg83
g5580
sg76
(lp5596
g69
(g70
g71
NtRp5597
(dp5598
g74
(dp5599
g82
I5
ssg83
g5593
sg76
(lp5600
g69
(g78
g71
NtRp5601
(dp5602
g74
(dp5603
g82
I4
ssg83
Nsg76
(lp5604
sbasbasbasbag69
(g85
g71
NtRp5605
(dp5606
g74
(dp5607
sg83
g4291
sg76
(lp5608
g69
(g90
g71
NtRp5609
(dp5610
g74
(dp5611
g94
g95
ssg83
g5605
sg76
(lp5612
S'session_cookie_expires'
p5613
asbag69
(g90
g71
NtRp5614
(dp5615
g74
(dp5616
g101
g102
ssg83
g5605
sg76
(lp5617
S':'
asbag69
(g90
g71
NtRp5618
(dp5619
g74
(dp5620
sg83
g5605
sg76
(lp5621
g69
(g70
g71
NtRp5622
(dp5623
g74
(dp5624
g82
I5
ssg83
g5618
sg76
(lp5625
S'None'
p5626
asbasbasbag69
(g85
g71
NtRp5627
(dp5628
g74
(dp5629
sg83
g4291
sg76
(lp5630
g69
(g90
g71
NtRp5631
(dp5632
g74
(dp5633
g94
g95
ssg83
g5627
sg76
(lp5634
S'session_data_name'
p5635
asbag69
(g90
g71
NtRp5636
(dp5637
g74
(dp5638
g101
g102
ssg83
g5627
sg76
(lp5639
S':'
asbag69
(g90
g71
NtRp5640
(dp5641
g74
(dp5642
sg83
g5627
sg76
(lp5643
g69
(g70
g71
NtRp5644
(dp5645
g74
(dp5646
g82
I5
ssg83
g5640
sg76
(lp5647
S'session_data_betsy'
p5648
asbasbasbag69
(g85
g71
NtRp5649
(dp5650
g74
(dp5651
sg83
g4291
sg76
(lp5652
g69
(g90
g71
NtRp5653
(dp5654
g74
(dp5655
g94
g95
ssg83
g5649
sg76
(lp5656
S'session_file'
p5657
asbag69
(g90
g71
NtRp5658
(dp5659
g74
(dp5660
g101
g102
ssg83
g5649
sg76
(lp5661
S':'
asbag69
(g90
g71
NtRp5662
(dp5663
g74
(dp5664
sg83
g5649
sg76
(lp5665
g69
(g70
g71
NtRp5666
(dp5667
g74
(dp5668
g82
I5
ssg83
g5662
sg76
(lp5669
S"<open file '/home/xchen/web2py/applications/Betsy/sessions/127.0.0.1-70d52105-0f5d-4884-a4e3-dce6830f30e0', mode 'rb+' at 0x19e56ed0>"
p5670
asbasbasbag69
(g85
g71
NtRp5671
(dp5672
g74
(dp5673
sg83
g4291
sg76
(lp5674
g69
(g90
g71
NtRp5675
(dp5676
g74
(dp5677
g94
g95
ssg83
g5671
sg76
(lp5678
S'session_filename'
p5679
asbag69
(g90
g71
NtRp5680
(dp5681
g74
(dp5682
g101
g102
ssg83
g5671
sg76
(lp5683
S':'
asbag69
(g90
g71
NtRp5684
(dp5685
g74
(dp5686
sg83
g5671
sg76
(lp5687
g69
(g70
g71
NtRp5688
(dp5689
g74
(dp5690
g82
I5
ssg83
g5684
sg76
(lp5691
S'/home/xchen/web2py/applications/Betsy/sessions/127.0.0.1-70d52105-0f5d-4884-a4e3-dce6830f30e0'
p5692
asbasbasbag69
(g85
g71
NtRp5693
(dp5694
g74
(dp5695
sg83
g4291
sg76
(lp5696
g69
(g90
g71
NtRp5697
(dp5698
g74
(dp5699
g94
g95
ssg83
g5693
sg76
(lp5700
S'session_id'
p5701
asbag69
(g90
g71
NtRp5702
(dp5703
g74
(dp5704
g101
g102
ssg83
g5693
sg76
(lp5705
S':'
asbag69
(g90
g71
NtRp5706
(dp5707
g74
(dp5708
sg83
g5693
sg76
(lp5709
g69
(g70
g71
NtRp5710
(dp5711
g74
(dp5712
g82
I5
ssg83
g5706
sg76
(lp5713
g500
asbasbasbag69
(g85
g71
NtRp5714
(dp5715
g74
(dp5716
sg83
g4291
sg76
(lp5717
g69
(g90
g71
NtRp5718
(dp5719
g74
(dp5720
g94
g95
ssg83
g5714
sg76
(lp5721
S'session_id_name'
p5722
asbag69
(g90
g71
NtRp5723
(dp5724
g74
(dp5725
g101
g102
ssg83
g5714
sg76
(lp5726
S':'
asbag69
(g90
g71
NtRp5727
(dp5728
g74
(dp5729
sg83
g5714
sg76
(lp5730
g69
(g70
g71
NtRp5731
(dp5732
g74
(dp5733
g82
I5
ssg83
g5727
sg76
(lp5734
g4348
asbasbasbag69
(g85
g71
NtRp5735
(dp5736
g74
(dp5737
sg83
g4291
sg76
(lp5738
g69
(g90
g71
NtRp5739
(dp5740
g74
(dp5741
g94
g95
ssg83
g5735
sg76
(lp5742
S'session_locked'
p5743
asbag69
(g90
g71
NtRp5744
(dp5745
g74
(dp5746
g101
g102
ssg83
g5735
sg76
(lp5747
S':'
asbag69
(g90
g71
NtRp5748
(dp5749
g74
(dp5750
sg83
g5735
sg76
(lp5751
g69
(g70
g71
NtRp5752
(dp5753
g74
(dp5754
g82
I5
ssg83
g5748
sg76
(lp5755
g2001
asbasbasbag69
(g85
g71
NtRp5756
(dp5757
g74
(dp5758
sg83
g4291
sg76
(lp5759
g69
(g90
g71
NtRp5760
(dp5761
g74
(dp5762
g94
g95
ssg83
g5756
sg76
(lp5763
S'session_new'
p5764
asbag69
(g90
g71
NtRp5765
(dp5766
g74
(dp5767
g101
g102
ssg83
g5756
sg76
(lp5768
S':'
asbag69
(g90
g71
NtRp5769
(dp5770
g74
(dp5771
sg83
g5756
sg76
(lp5772
g69
(g70
g71
NtRp5773
(dp5774
g74
(dp5775
g82
I5
ssg83
g5769
sg76
(lp5776
g112
asbasbasbag69
(g85
g71
NtRp5777
(dp5778
g74
(dp5779
sg83
g4291
sg76
(lp5780
g69
(g90
g71
NtRp5781
(dp5782
g74
(dp5783
g94
g95
ssg83
g5777
sg76
(lp5784
S'session_storage_type'
p5785
asbag69
(g90
g71
NtRp5786
(dp5787
g74
(dp5788
g101
g102
ssg83
g5777
sg76
(lp5789
S':'
asbag69
(g90
g71
NtRp5790
(dp5791
g74
(dp5792
sg83
g5777
sg76
(lp5793
g69
(g70
g71
NtRp5794
(dp5795
g74
(dp5796
g82
I5
ssg83
g5790
sg76
(lp5797
g3454
asbasbasbag69
(g85
g71
NtRp5798
(dp5799
g74
(dp5800
sg83
g4291
sg76
(lp5801
g69
(g90
g71
NtRp5802
(dp5803
g74
(dp5804
g94
g95
ssg83
g5798
sg76
(lp5805
S'status'
p5806
asbag69
(g90
g71
NtRp5807
(dp5808
g74
(dp5809
g101
g102
ssg83
g5798
sg76
(lp5810
S':'
asbag69
(g90
g71
NtRp5811
(dp5812
g74
(dp5813
sg83
g5798
sg76
(lp5814
g69
(g70
g71
NtRp5815
(dp5816
g74
(dp5817
g82
I5
ssg83
g5811
sg76
(lp5818
S'200'
p5819
asbasbasbag69
(g85
g71
NtRp5820
(dp5821
g74
(dp5822
sg83
g4291
sg76
(lp5823
g69
(g90
g71
NtRp5824
(dp5825
g74
(dp5826
g94
g95
ssg83
g5820
sg76
(lp5827
S'subtitle'
p5828
asbag69
(g90
g71
NtRp5829
(dp5830
g74
(dp5831
g101
g102
ssg83
g5820
sg76
(lp5832
S':'
asbag69
(g90
g71
NtRp5833
(dp5834
g74
(dp5835
sg83
g5820
sg76
(lp5836
g69
(g70
g71
NtRp5837
(dp5838
g74
(dp5839
g82
I5
ssg83
g5833
sg76
(lp5840
g4782
(S's\r\x00\x00\x00customize me!'
tRp5841
asbasbasbag69
(g85
g71
NtRp5842
(dp5843
g74
(dp5844
sg83
g4291
sg76
(lp5845
g69
(g90
g71
NtRp5846
(dp5847
g74
(dp5848
g94
g95
ssg83
g5842
sg76
(lp5849
S'title'
p5850
asbag69
(g90
g71
NtRp5851
(dp5852
g74
(dp5853
g101
g102
ssg83
g5842
sg76
(lp5854
S':'
asbag69
(g90
g71
NtRp5855
(dp5856
g74
(dp5857
sg83
g5842
sg76
(lp5858
g69
(g70
g71
NtRp5859
(dp5860
g74
(dp5861
g82
I5
ssg83
g5855
sg76
(lp5862
S'Betsy'
p5863
asbasbasbag69
(g85
g71
NtRp5864
(dp5865
g74
(dp5866
sg83
g4291
sg76
(lp5867
g69
(g90
g71
NtRp5868
(dp5869
g74
(dp5870
g94
g95
ssg83
g5864
sg76
(lp5871
S'view'
p5872
asbag69
(g90
g71
NtRp5873
(dp5874
g74
(dp5875
g101
g102
ssg83
g5864
sg76
(lp5876
S':'
asbag69
(g90
g71
NtRp5877
(dp5878
g74
(dp5879
sg83
g5864
sg76
(lp5880
g69
(g70
g71
NtRp5881
(dp5882
g74
(dp5883
g82
I5
ssg83
g5877
sg76
(lp5884
S'default/show_job.html'
p5885
asbasbasbasbasbsS'locals'
p5886
(dp5887
g4
S"'/home/xchen/web2py/applications/Betsy/views/default/show_job.html'"
p5888
sg6
S'\'response.write(\\\'<!DOCTYPE html>\\\\n<!-- paulirish...."></script>\\\\n</body>\\\\n</html>\\\\n\\\\n\\\', escape=False)\''
p5889
sssS'traceback'
p5890
S'Traceback (most recent call last):\n  File "/home/xchen/web2py/gluon/restricted.py", line 211, in restricted\n    ccode = compile2(code, layer)\n  File "/home/xchen/web2py/gluon/restricted.py", line 194, in compile2\n    return compile(code.rstrip().replace(\'\\r\\n\', \'\\n\') + \'\\n\', layer, \'exec\')\n  File "/home/xchen/web2py/applications/Betsy/views/default/show_job.html", line 90\n    response.write(\'<br />\\n\\t\', escape=False)\n           ^\nSyntaxError: invalid syntax\n'
p5891
s.