(dp1
S'output'
p2
S"<type 'exceptions.IOError'> [Errno 2] No such file or directory: '/Users/xchen2/Desktop/unicron/chencode/examples/sample_analysis/annotate_probes_BETSYHASH1_7fcb308fbdee74d4fb71527bb5fe33c2/signal_file_annot_table.myfile1.aa20f767627e694e.4368616e675f415230303431302e70636c.txt'"
p3
sS'layer'
p4
S'/home/xchen/web2py/applications/Betsy/views/default/show_job.html'
p5
sS'code'
p6
S'response.write(\'<!DOCTYPE html>\\n<!-- paulirish.com/2008/conditional-stylesheets-vs-css-hacks-answer-neither/ -->\\n<!--[if lt IE 7]><html class="ie ie6 ie-lte9 ie-lte8 ie-lte7 no-js" lang="\', escape=False)\nresponse.write(T.accepted_language or \'en\')\nresponse.write(\'"> <![endif]-->\\n<!--[if IE 7]><html class="ie ie7 ie-lte9 ie-lte8 ie-lte7 no-js" lang="\', escape=False)\nresponse.write(T.accepted_language or \'en\')\nresponse.write(\'"> <![endif]-->\\n<!--[if IE 8]><html class="ie ie8 ie-lte9 ie-lte8 no-js" lang="\', escape=False)\nresponse.write(T.accepted_language or \'en\')\nresponse.write(\'"> <![endif]-->\\n<!--[if IE 9]><html class="ie9 ie-lte9 no-js" lang="\', escape=False)\nresponse.write(T.accepted_language or \'en\')\nresponse.write(\'"> <![endif]-->\\n<!--[if (gt IE 9)|!(IE)]><!--> <html class="no-js" lang="\', escape=False)\nresponse.write(T.accepted_language or \'en\')\nresponse.write(\'"> <!--<![endif]-->\\n<head>\\n  <meta charset="utf-8" />\\n  <!-- www.phpied.com/conditional-comments-block-downloads/ -->\\n  <!-- Always force latest IE rendering engine\\n       (even in intranet) & Chrome Frame\\n       Remove this if you use the .htaccess -->\\n  <!--[if IE]>\\n      <meta http-equiv="X-UA-Compatible" content="IE=edge\', escape=False)\nresponse.write(not request.is_local and \',chrome=1\' or \'\')\nresponse.write(\'">\\n      <![endif]-->\\n\\n  <title>\', escape=False)\nresponse.write(response.title or request.application)\nresponse.write(\'</title>\\n\\n  <!-- http://dev.w3.org/html5/markup/meta.name.html -->\\n  <meta name="application-name" content="\', escape=False)\nresponse.write(request.application)\nresponse.write(\'" />\\n\\n  <!-- Speaking of Google, don\\\'t forget to set your site up:\\n       http://google.com/webmasters -->\\n  <meta name="google-site-verification" content="" />\\n\\n  <!--  Mobile Viewport Fix\\n        j.mp/mobileviewport & davidbcalhoun.com/2010/viewport-metatag\\n        device-width: Occupy full width of the screen in its current orientation\\n        initial-scale = 1.0 retains dimensions instead of zooming out if page height > device height\\n        user-scalable = yes allows the user to zoom in -->\\n  <meta name="viewport" content="width=device-width, initial-scale=1.0">\\n\\n  <link rel="shortcut icon" href="\', escape=False)\nresponse.write(URL(\'static\',\'images/favicon.ico\'))\nresponse.write(\'" type="image/x-icon">\\n  <link rel="apple-touch-icon" href="\', escape=False)\nresponse.write(URL(\'static\',\'images/favicon.png\'))\nresponse.write(\'">\\n\\n  <!-- All JavaScript at the bottom, except for Modernizr which enables\\n       HTML5 elements & feature detects -->\\n  <script src="\', escape=False)\nresponse.write(URL(\'static\',\'js/modernizr.custom.js\'))\nresponse.write(\'"></script>\\n\\n  <!-- include stylesheets -->\\n  \', escape=False)\nresponse.files.append(URL(\'static\',\'css/web2py.css\'))\nresponse.files.append(URL(\'static\',\'css/bootstrap.min.css\'))\nresponse.files.append(URL(\'static\',\'css/bootstrap-responsive.min.css\'))\nresponse.files.append(URL(\'static\',\'css/web2py_bootstrap.css\'))\nresponse.write(\'\\n\\n  \', escape=False)\nresponse.write(\'<script type="text/javascript"><!--\\n    // These variables are used by the web2py_ajax_init function in web2py_ajax.js (which is loaded below).\\n    var w2p_ajax_confirm_message = "\', escape=False)\nresponse.write(T(\'Are you sure you want to delete this object?\'))\nresponse.write(\'";\\n    var w2p_ajax_date_format = "\', escape=False)\nresponse.write(T(\'%Y-%m-%d\'))\nresponse.write(\'";\\n    var w2p_ajax_datetime_format = "\', escape=False)\nresponse.write(T(\'%Y-%m-%d %H:%M:%S\'))\nresponse.write(\'";\\n    //--></script>\\n\', escape=False)\nresponse.files.insert(0,URL(\'static\',\'js/jquery.js\'))\nresponse.files.insert(1,URL(\'static\',\'css/calendar.css\'))\nresponse.files.insert(2,URL(\'static\',\'js/calendar.js\'))\nresponse.files.insert(3,URL(\'static\',\'js/web2py.js\'))\nresponse.include_meta()\nresponse.include_files()\nresponse.write(\'\\n\', escape=False)\nresponse.write(\'\\n\\n  \', escape=False)\n# using sidebars need to know what sidebar you want to use\nleft_sidebar_enabled = globals().get(\'left_sidebar_enabled\',False)\nright_sidebar_enabled = globals().get(\'right_sidebar_enabled\',False)\nmiddle_columns = {0:\'span12\',1:\'span9\',2:\'span6\'}[\n(left_sidebar_enabled and 1 or 0)+(right_sidebar_enabled and 1 or 0)]\nresponse.write(\'\\n\\n  <!-- uncomment here to load jquery-ui\\n       <link rel="stylesheet" href="http://ajax.googleapis.com/ajax/libs/jqueryui/1.8.16/themes/base/jquery-ui.css" type="text/css" media="all" />\\n       <script src="http://ajax.googleapis.com/ajax/libs/jqueryui/1.8.16/jquery-ui.min.js" type="text/javascript"></script>\\n       uncomment to load jquery-ui //-->\\n  <noscript><link href="\', escape=False)\nresponse.write(URL(\'static\', \'css/web2py_bootstrap_nojs.css\'))\nresponse.write(\'" rel="stylesheet" type="text/css" /></noscript>\\n  \', escape=False)\nresponse.write(\'\\n</head>\\n\\n<body>\\n  <!-- Navbar ================================================== -->\\n  <div class="navbar navbar-inverse navbar-fixed-top">\\n    <div class="flash">\', escape=False)\nresponse.write(response.flash or \'\')\nresponse.write(\'</div>\\n    <div class="navbar-inner">\\n      <div class="container">\\n        <!-- the next tag is necessary for bootstrap menus, do not remove -->\\n        <button type="button" class="btn btn-navbar" data-toggle="collapse" data-target=".nav-collapse">\\n          <span class="icon-bar"></span>\\n          <span class="icon-bar"></span>\\n          <span class="icon-bar"></span>\\n        </button>\\n        <a class="brand" href="http://www.web2py.com/"><b>web<span>2</span>py</b>&trade;&nbsp;</a>\\n        <ul id="navbar" class="nav pull-right">\', escape=False)\nresponse.write(\'auth\' in globals() and auth.navbar(mode="dropdown") or \'\')\nresponse.write(\'</ul>\\n        <div class="nav-collapse">\\n          \', escape=False)\nis_mobile=request.user_agent().is_mobile\nresponse.write(\'\\n          \', escape=False)\nif response.menu:\n    response.write(\'\\n          \', escape=False)\n    response.write(MENU(response.menu, _class=\'mobile-menu nav\' if is_mobile else \'nav\',mobile=is_mobile,li_class=\'dropdown\',ul_class=\'dropdown-menu\'))\n    response.write(\'\\n          \', escape=False)\n    pass\nresponse.write(\'\\n        </div><!--/.nav-collapse -->\\n      </div>\\n    </div>\\n  </div><!--/top navbar -->\\n\\n  <div class="container">\\n    <!-- Masthead ================================================== -->\\n    <header class="mastheader row" id="header">\\n        <div class="span12">\\n            <div class="page-header">\\n                <h1>\\n                    \', escape=False)\nresponse.write(response.title or request.application)\nresponse.write(\'\\n                    <small>\', escape=False)\nresponse.write(response.subtitle or \'\')\nresponse.write(\'</small>\\n                </h1>\\n            </div>\\n        </div>\\n    </header>\\n\\n    <section id="main" class="main row">\\n        \', escape=False)\nif left_sidebar_enabled:\n    response.write(\'\\n        <div class="span3 left-sidebar">\\n            \', escape=False)\n    response.write(\'\\n            <h3>Left Sidebar</h3>\\n            <p></p>\\n            \', escape=False)\n    response.write(\'\\n        </div>\\n        \', escape=False)\n    pass\nresponse.write(\'\\n\\n        <div class="\', escape=False)\nresponse.write(middle_columns)\nresponse.write(\'">\\n            \', escape=False)\nresponse.write(\'\\n            \', escape=False)\nresponse.write(\'\\n\\n<h1>Job number: \', escape=False)\nresponse.write(job.Jobnumber)\nresponse.write(\'</h1>\\n<h2>\', escape=False)\nresponse.write(info)\nresponse.write(\'</h2>\\n\', escape=False)\nfor i in range(len(text)):\n    response.write(\'\\n\', escape=False)\n    if text[i]==newtext[i]:\n        response.write(\'\\n\\t\\t\', escape=False)\n        response.write(text[i])\n        response.write(\'<br />\\n\\t\', escape=False)\n    else:\n        response.write(\'\\n\', escape=False)\n        response.write(A(text[i],_href=file(newtext[i].strip()),_src=newtext[i].strip()))\n        response.write(\'<br />\\n    \', escape=False)\n        pass\n    response.write(\'\\n\', escape=False)\n    pass\nresponse.write(\'\\n\', escape=False)\nresponse.write(\'\\n            \', escape=False)\nresponse.write(\'\\n        </div>\\n\\n        \', escape=False)\nif right_sidebar_enabled:\n    response.write(\'\\n        <div class="span3">\\n            \', escape=False)\n    response.write(\'\\n            <h3>Right Sidebar</h3>\\n            <p></p>\\n            \', escape=False)\n    response.write(\'\\n        </div>\\n        \', escape=False)\n    pass\nresponse.write(\'\\n    </section><!--/main-->\\n\\n    <!-- Footer ================================================== -->\\n    <div class="row">\\n        <footer class="footer span12" id="footer">\\n            <div class="footer-content">\\n                \', escape=False)\nresponse.write(\' <!-- this is default footer -->\\n                <div class="copyright pull-left">\', escape=False)\nresponse.write(T(\'Copyright\'))\nresponse.write(\' &#169; \', escape=False)\nresponse.write(request.now.year)\nresponse.write(\'</div>\\n                <div id="poweredBy" class="pull-right">\\n                    \', escape=False)\nresponse.write(T(\'Powered by\'))\nresponse.write(\'\\n                    <a href="http://www.web2py.com/">web2py</a>\\n                </div>\\n                \', escape=False)\nresponse.write(\'\\n            </div>\\n        </footer>\\n    </div>\\n\\n  </div> <!-- /container -->\\n\\n  <!-- The javascript =============================================\\n       (Placed at the end of the document so the pages load faster) -->\\n  <script src="\', escape=False)\nresponse.write(URL(\'static\',\'js/bootstrap.min.js\'))\nresponse.write(\'"></script>\\n  <script src="\', escape=False)\nresponse.write(URL(\'static\',\'js/web2py_bootstrap.js\'))\nresponse.write(\'"></script>\\n  <!--[if lt IE 7 ]>\\n      <script src="\', escape=False)\nresponse.write(URL(\'static\',\'js/dd_belatedpng.js\'))\nresponse.write(\'"></script>\\n      <script> DD_belatedPNG.fix(\\\'img, .png_bg\\\'); //fix any <img> or .png_bg background-images </script>\\n      <![endif]-->\\n  \', escape=False)\nif response.google_analytics_id:\n    response.write(\'<script type="text/javascript"> var _gaq = _gaq || []; _gaq.push([\\\'_setAccount\\\', \\\'\', escape=False)\n    response.write(response.google_analytics_id)\n    response.write("\']); _gaq.push([\'_trackPageview\']); (function() { var ga = document.createElement(\'script\'); ga.type = \'text/javascript\'; ga.async = true; ga.src = (\'https:\' == document.location.protocol ? \'https://ssl\' : \'http://www\') + \'.google-analytics.com/ga.js\'; var s = document.getElementsByTagName(\'script\')[0]; s.parentNode.insertBefore(ga, s); })(); </script> ", escape=False)\n    pass\nresponse.write(\'\\n  <script src="\', escape=False)\nresponse.write(URL(\'static\',\'js/share.js\',vars=dict(static=URL(\'static\',\'images\'))))\nresponse.write(\'"></script>\\n</body>\\n</html>\\n\\n\', escape=False)'
p7
sS'snapshot'
p8
(dp9
S'exception'
p10
(dp11
S'__getslice__'
p12
S"<method-wrapper '__getslice__' of exceptions.IOError object>"
p13
sS'__str__'
p14
S"<method-wrapper '__str__' of exceptions.IOError object>"
p15
sS'__reduce__'
p16
S'<built-in method __reduce__ of exceptions.IOError object>'
p17
sS'__dict__'
p18
S'{}'
p19
sS'__sizeof__'
p20
S'<built-in method __sizeof__ of exceptions.IOError object>'
p21
sS'__init__'
p22
S"<method-wrapper '__init__' of exceptions.IOError object>"
p23
sS'__setattr__'
p24
S"<method-wrapper '__setattr__' of exceptions.IOError object>"
p25
sS'__reduce_ex__'
p26
S'<built-in method __reduce_ex__ of exceptions.IOError object>'
p27
sS'__new__'
p28
S'<built-in method __new__ of type object>'
p29
sS'errno'
p30
S'2'
sS'__format__'
p31
S'<built-in method __format__ of exceptions.IOError object>'
p32
sS'__class__'
p33
S"<type 'exceptions.IOError'>"
p34
sS'filename'
p35
S"'/Users/xchen2/Desktop/unicron/chencode/examples/...67627e694e.4368616e675f415230303431302e70636c.txt'"
p36
sS'__doc__'
p37
S"'I/O operation failed.'"
p38
sS'__getitem__'
p39
S"<method-wrapper '__getitem__' of exceptions.IOError object>"
p40
sS'__setstate__'
p41
S'<built-in method __setstate__ of exceptions.IOError object>'
p42
sS'__getattribute__'
p43
S"<method-wrapper '__getattribute__' of exceptions.IOError object>"
p44
sS'args'
p45
S"(2, 'No such file or directory')"
p46
sS'__subclasshook__'
p47
S'<built-in method __subclasshook__ of type object>'
p48
sS'__unicode__'
p49
S'<built-in method __unicode__ of exceptions.IOError object>'
p50
sS'strerror'
p51
S"'No such file or directory'"
p52
sS'__delattr__'
p53
S"<method-wrapper '__delattr__' of exceptions.IOError object>"
p54
sS'__repr__'
p55
S"<method-wrapper '__repr__' of exceptions.IOError object>"
p56
sS'__hash__'
p57
S"<method-wrapper '__hash__' of exceptions.IOError object>"
p58
ssS'evalue'
p59
S"[Errno 2] No such file or directory: '/Users/xchen2/Desktop/unicron/chencode/examples/sample_analysis/annotate_probes_BETSYHASH1_7fcb308fbdee74d4fb71527bb5fe33c2/signal_file_annot_table.myfile1.aa20f767627e694e.4368616e675f415230303431302e70636c.txt'"
p60
sS'request'
p61
ccopy_reg
_reconstructor
p62
(cgluon.html
BEAUTIFY
p63
c__builtin__
object
p64
NtRp65
(dp66
S'attributes'
p67
(dp68
sS'components'
p69
(lp70
g62
(cgluon.html
TABLE
p71
g64
NtRp72
(dp73
g67
(dp74
S'level'
p75
I5
ssS'parent'
p76
Nsg69
(lp77
g62
(cgluon.html
TR
p78
g64
NtRp79
(dp80
g67
(dp81
sg76
g72
sg69
(lp82
g62
(cgluon.html
TD
p83
g64
NtRp84
(dp85
g67
(dp86
S'_style'
p87
S'font-weight:bold;vertical-align:top'
p88
ssg76
g79
sg69
(lp89
S'ajax'
p90
asbag62
(g83
g64
NtRp91
(dp92
g67
(dp93
S'_valign'
p94
S'top'
p95
ssg76
g79
sg69
(lp96
S':'
asbag62
(g83
g64
NtRp97
(dp98
g67
(dp99
sg76
g79
sg69
(lp100
g62
(g63
g64
NtRp101
(dp102
g67
(dp103
g75
I5
ssg76
g97
sg69
(lp104
S'False'
p105
asbasbasbag62
(g78
g64
NtRp106
(dp107
g67
(dp108
sg76
g72
sg69
(lp109
g62
(g83
g64
NtRp110
(dp111
g67
(dp112
g87
g88
ssg76
g106
sg69
(lp113
S'application'
p114
asbag62
(g83
g64
NtRp115
(dp116
g67
(dp117
g94
g95
ssg76
g106
sg69
(lp118
S':'
asbag62
(g83
g64
NtRp119
(dp120
g67
(dp121
sg76
g106
sg69
(lp122
g62
(g63
g64
NtRp123
(dp124
g67
(dp125
g75
I5
ssg76
g119
sg69
(lp126
S'Betsy'
p127
asbasbasbag62
(g78
g64
NtRp128
(dp129
g67
(dp130
sg76
g72
sg69
(lp131
g62
(g83
g64
NtRp132
(dp133
g67
(dp134
g87
g88
ssg76
g128
sg69
(lp135
g45
asbag62
(g83
g64
NtRp136
(dp137
g67
(dp138
g94
g95
ssg76
g128
sg69
(lp139
S':'
asbag62
(g83
g64
NtRp140
(dp141
g67
(dp142
sg76
g128
sg69
(lp143
g62
(g63
g64
NtRp144
(dp145
g67
(dp146
g75
I5
ssg76
g140
sg69
(lp147
g62
(g71
g64
NtRp148
(dp149
g67
(dp150
g75
I4
ssg76
Nsg69
(lp151
g62
(g78
g64
NtRp152
(dp153
g67
(dp154
sg76
g148
sg69
(lp155
g62
(g83
g64
NtRp156
(dp157
g67
(dp158
sg76
g152
sg69
(lp159
g62
(g63
g64
NtRp160
(dp161
g67
(dp162
g75
I4
ssg76
g156
sg69
(lp163
S'131'
p164
asbasbasbasbasbasbasbag62
(g78
g64
NtRp165
(dp166
g67
(dp167
sg76
g72
sg69
(lp168
g62
(g83
g64
NtRp169
(dp170
g67
(dp171
g87
g88
ssg76
g165
sg69
(lp172
S'body'
p173
asbag62
(g83
g64
NtRp174
(dp175
g67
(dp176
g94
g95
ssg76
g165
sg69
(lp177
S':'
asbag62
(g83
g64
NtRp178
(dp179
g67
(dp180
sg76
g165
sg69
(lp181
g62
(g63
g64
NtRp182
(dp183
g67
(dp184
g75
I5
ssg76
g178
sg69
(lp185
S'<cStringIO.StringO object at 0x173f1ce0>'
p186
asbasbasbag62
(g78
g64
NtRp187
(dp188
g67
(dp189
sg76
g72
sg69
(lp190
g62
(g83
g64
NtRp191
(dp192
g67
(dp193
g87
g88
ssg76
g187
sg69
(lp194
S'cid'
p195
asbag62
(g83
g64
NtRp196
(dp197
g67
(dp198
g94
g95
ssg76
g187
sg69
(lp199
S':'
asbag62
(g83
g64
NtRp200
(dp201
g67
(dp202
sg76
g187
sg69
(lp203
g62
(g63
g64
NtRp204
(dp205
g67
(dp206
g75
I5
ssg76
g200
sg69
(lp207
S'None'
p208
asbasbasbag62
(g78
g64
NtRp209
(dp210
g67
(dp211
sg76
g72
sg69
(lp212
g62
(g83
g64
NtRp213
(dp214
g67
(dp215
g87
g88
ssg76
g209
sg69
(lp216
S'client'
p217
asbag62
(g83
g64
NtRp218
(dp219
g67
(dp220
g94
g95
ssg76
g209
sg69
(lp221
S':'
asbag62
(g83
g64
NtRp222
(dp223
g67
(dp224
sg76
g209
sg69
(lp225
g62
(g63
g64
NtRp226
(dp227
g67
(dp228
g75
I5
ssg76
g222
sg69
(lp229
S'127.0.0.1'
p230
asbasbasbag62
(g78
g64
NtRp231
(dp232
g67
(dp233
sg76
g72
sg69
(lp234
g62
(g83
g64
NtRp235
(dp236
g67
(dp237
g87
g88
ssg76
g231
sg69
(lp238
S'controller'
p239
asbag62
(g83
g64
NtRp240
(dp241
g67
(dp242
g94
g95
ssg76
g231
sg69
(lp243
S':'
asbag62
(g83
g64
NtRp244
(dp245
g67
(dp246
sg76
g231
sg69
(lp247
g62
(g63
g64
NtRp248
(dp249
g67
(dp250
g75
I5
ssg76
g244
sg69
(lp251
S'default'
p252
asbasbasbag62
(g78
g64
NtRp253
(dp254
g67
(dp255
sg76
g72
sg69
(lp256
g62
(g83
g64
NtRp257
(dp258
g67
(dp259
g87
g88
ssg76
g253
sg69
(lp260
S'cookies'
p261
asbag62
(g83
g64
NtRp262
(dp263
g67
(dp264
g94
g95
ssg76
g253
sg69
(lp265
S':'
asbag62
(g83
g64
NtRp266
(dp267
g67
(dp268
sg76
g253
sg69
(lp269
g62
(g63
g64
NtRp270
(dp271
g67
(dp272
g75
I5
ssg76
g266
sg69
(lp273
g62
(g71
g64
NtRp274
(dp275
g67
(dp276
g75
I4
ssg76
Nsg69
(lp277
g62
(g78
g64
NtRp278
(dp279
g67
(dp280
sg76
g274
sg69
(lp281
g62
(g83
g64
NtRp282
(dp283
g67
(dp284
g87
g88
ssg76
g278
sg69
(lp285
S'session_id_admin'
p286
asbag62
(g83
g64
NtRp287
(dp288
g67
(dp289
g94
g95
ssg76
g278
sg69
(lp290
S':'
asbag62
(g83
g64
NtRp291
(dp292
g67
(dp293
sg76
g278
sg69
(lp294
g62
(g63
g64
NtRp295
(dp296
g67
(dp297
g75
I4
ssg76
g291
sg69
(lp298
S'127.0.0.1-35fd6d2e-7496-4b5d-9710-19abfa20c9b5'
p299
ag62
(g71
g64
NtRp300
(dp301
g67
(dp302
g75
I3
ssg76
Nsg69
(lp303
g62
(g78
g64
NtRp304
(dp305
g67
(dp306
sg76
g300
sg69
(lp307
g62
(g83
g64
NtRp308
(dp309
g67
(dp310
g87
g88
ssg76
g304
sg69
(lp311
S'comment'
p312
asbag62
(g83
g64
NtRp313
(dp314
g67
(dp315
g94
g95
ssg76
g304
sg69
(lp316
S':'
asbag62
(g83
g64
NtRp317
(dp318
g67
(dp319
sg76
g304
sg69
(lp320
g62
(g63
g64
NtRp321
(dp322
g67
(dp323
g75
I3
ssg76
g317
sg69
(lp324
S''
asbasbasbag62
(g78
g64
NtRp325
(dp326
g67
(dp327
sg76
g300
sg69
(lp328
g62
(g83
g64
NtRp329
(dp330
g67
(dp331
g87
g88
ssg76
g325
sg69
(lp332
S'domain'
p333
asbag62
(g83
g64
NtRp334
(dp335
g67
(dp336
g94
g95
ssg76
g325
sg69
(lp337
S':'
asbag62
(g83
g64
NtRp338
(dp339
g67
(dp340
sg76
g325
sg69
(lp341
g62
(g63
g64
NtRp342
(dp343
g67
(dp344
g75
I3
ssg76
g338
sg69
(lp345
S''
asbasbasbag62
(g78
g64
NtRp346
(dp347
g67
(dp348
sg76
g300
sg69
(lp349
g62
(g83
g64
NtRp350
(dp351
g67
(dp352
g87
g88
ssg76
g346
sg69
(lp353
S'expires'
p354
asbag62
(g83
g64
NtRp355
(dp356
g67
(dp357
g94
g95
ssg76
g346
sg69
(lp358
S':'
asbag62
(g83
g64
NtRp359
(dp360
g67
(dp361
sg76
g346
sg69
(lp362
g62
(g63
g64
NtRp363
(dp364
g67
(dp365
g75
I3
ssg76
g359
sg69
(lp366
S''
asbasbasbag62
(g78
g64
NtRp367
(dp368
g67
(dp369
sg76
g300
sg69
(lp370
g62
(g83
g64
NtRp371
(dp372
g67
(dp373
g87
g88
ssg76
g367
sg69
(lp374
S'httponly'
p375
asbag62
(g83
g64
NtRp376
(dp377
g67
(dp378
g94
g95
ssg76
g367
sg69
(lp379
S':'
asbag62
(g83
g64
NtRp380
(dp381
g67
(dp382
sg76
g367
sg69
(lp383
g62
(g63
g64
NtRp384
(dp385
g67
(dp386
g75
I3
ssg76
g380
sg69
(lp387
S''
asbasbasbag62
(g78
g64
NtRp388
(dp389
g67
(dp390
sg76
g300
sg69
(lp391
g62
(g83
g64
NtRp392
(dp393
g67
(dp394
g87
g88
ssg76
g388
sg69
(lp395
S'max-age'
p396
asbag62
(g83
g64
NtRp397
(dp398
g67
(dp399
g94
g95
ssg76
g388
sg69
(lp400
S':'
asbag62
(g83
g64
NtRp401
(dp402
g67
(dp403
sg76
g388
sg69
(lp404
g62
(g63
g64
NtRp405
(dp406
g67
(dp407
g75
I3
ssg76
g401
sg69
(lp408
S''
asbasbasbag62
(g78
g64
NtRp409
(dp410
g67
(dp411
sg76
g300
sg69
(lp412
g62
(g83
g64
NtRp413
(dp414
g67
(dp415
g87
g88
ssg76
g409
sg69
(lp416
S'path'
p417
asbag62
(g83
g64
NtRp418
(dp419
g67
(dp420
g94
g95
ssg76
g409
sg69
(lp421
S':'
asbag62
(g83
g64
NtRp422
(dp423
g67
(dp424
sg76
g409
sg69
(lp425
g62
(g63
g64
NtRp426
(dp427
g67
(dp428
g75
I3
ssg76
g422
sg69
(lp429
S''
asbasbasbag62
(g78
g64
NtRp430
(dp431
g67
(dp432
sg76
g300
sg69
(lp433
g62
(g83
g64
NtRp434
(dp435
g67
(dp436
g87
g88
ssg76
g430
sg69
(lp437
S'secure'
p438
asbag62
(g83
g64
NtRp439
(dp440
g67
(dp441
g94
g95
ssg76
g430
sg69
(lp442
S':'
asbag62
(g83
g64
NtRp443
(dp444
g67
(dp445
sg76
g430
sg69
(lp446
g62
(g63
g64
NtRp447
(dp448
g67
(dp449
g75
I3
ssg76
g443
sg69
(lp450
S''
asbasbasbag62
(g78
g64
NtRp451
(dp452
g67
(dp453
sg76
g300
sg69
(lp454
g62
(g83
g64
NtRp455
(dp456
g67
(dp457
g87
g88
ssg76
g451
sg69
(lp458
S'version'
p459
asbag62
(g83
g64
NtRp460
(dp461
g67
(dp462
g94
g95
ssg76
g451
sg69
(lp463
S':'
asbag62
(g83
g64
NtRp464
(dp465
g67
(dp466
sg76
g451
sg69
(lp467
g62
(g63
g64
NtRp468
(dp469
g67
(dp470
g75
I3
ssg76
g464
sg69
(lp471
S''
asbasbasbasbasbasbasbag62
(g78
g64
NtRp472
(dp473
g67
(dp474
sg76
g274
sg69
(lp475
g62
(g83
g64
NtRp476
(dp477
g67
(dp478
g87
g88
ssg76
g472
sg69
(lp479
S'session_id_betsy'
p480
asbag62
(g83
g64
NtRp481
(dp482
g67
(dp483
g94
g95
ssg76
g472
sg69
(lp484
S':'
asbag62
(g83
g64
NtRp485
(dp486
g67
(dp487
sg76
g472
sg69
(lp488
g62
(g63
g64
NtRp489
(dp490
g67
(dp491
g75
I4
ssg76
g485
sg69
(lp492
S'127.0.0.1-70d52105-0f5d-4884-a4e3-dce6830f30e0'
p493
ag62
(g71
g64
NtRp494
(dp495
g67
(dp496
g75
I3
ssg76
Nsg69
(lp497
g62
(g78
g64
NtRp498
(dp499
g67
(dp500
sg76
g494
sg69
(lp501
g62
(g83
g64
NtRp502
(dp503
g67
(dp504
g87
g88
ssg76
g498
sg69
(lp505
g312
asbag62
(g83
g64
NtRp506
(dp507
g67
(dp508
g94
g95
ssg76
g498
sg69
(lp509
S':'
asbag62
(g83
g64
NtRp510
(dp511
g67
(dp512
sg76
g498
sg69
(lp513
g62
(g63
g64
NtRp514
(dp515
g67
(dp516
g75
I3
ssg76
g510
sg69
(lp517
S''
asbasbasbag62
(g78
g64
NtRp518
(dp519
g67
(dp520
sg76
g494
sg69
(lp521
g62
(g83
g64
NtRp522
(dp523
g67
(dp524
g87
g88
ssg76
g518
sg69
(lp525
g333
asbag62
(g83
g64
NtRp526
(dp527
g67
(dp528
g94
g95
ssg76
g518
sg69
(lp529
S':'
asbag62
(g83
g64
NtRp530
(dp531
g67
(dp532
sg76
g518
sg69
(lp533
g62
(g63
g64
NtRp534
(dp535
g67
(dp536
g75
I3
ssg76
g530
sg69
(lp537
S''
asbasbasbag62
(g78
g64
NtRp538
(dp539
g67
(dp540
sg76
g494
sg69
(lp541
g62
(g83
g64
NtRp542
(dp543
g67
(dp544
g87
g88
ssg76
g538
sg69
(lp545
g354
asbag62
(g83
g64
NtRp546
(dp547
g67
(dp548
g94
g95
ssg76
g538
sg69
(lp549
S':'
asbag62
(g83
g64
NtRp550
(dp551
g67
(dp552
sg76
g538
sg69
(lp553
g62
(g63
g64
NtRp554
(dp555
g67
(dp556
g75
I3
ssg76
g550
sg69
(lp557
S''
asbasbasbag62
(g78
g64
NtRp558
(dp559
g67
(dp560
sg76
g494
sg69
(lp561
g62
(g83
g64
NtRp562
(dp563
g67
(dp564
g87
g88
ssg76
g558
sg69
(lp565
g375
asbag62
(g83
g64
NtRp566
(dp567
g67
(dp568
g94
g95
ssg76
g558
sg69
(lp569
S':'
asbag62
(g83
g64
NtRp570
(dp571
g67
(dp572
sg76
g558
sg69
(lp573
g62
(g63
g64
NtRp574
(dp575
g67
(dp576
g75
I3
ssg76
g570
sg69
(lp577
S''
asbasbasbag62
(g78
g64
NtRp578
(dp579
g67
(dp580
sg76
g494
sg69
(lp581
g62
(g83
g64
NtRp582
(dp583
g67
(dp584
g87
g88
ssg76
g578
sg69
(lp585
g396
asbag62
(g83
g64
NtRp586
(dp587
g67
(dp588
g94
g95
ssg76
g578
sg69
(lp589
S':'
asbag62
(g83
g64
NtRp590
(dp591
g67
(dp592
sg76
g578
sg69
(lp593
g62
(g63
g64
NtRp594
(dp595
g67
(dp596
g75
I3
ssg76
g590
sg69
(lp597
S''
asbasbasbag62
(g78
g64
NtRp598
(dp599
g67
(dp600
sg76
g494
sg69
(lp601
g62
(g83
g64
NtRp602
(dp603
g67
(dp604
g87
g88
ssg76
g598
sg69
(lp605
g417
asbag62
(g83
g64
NtRp606
(dp607
g67
(dp608
g94
g95
ssg76
g598
sg69
(lp609
S':'
asbag62
(g83
g64
NtRp610
(dp611
g67
(dp612
sg76
g598
sg69
(lp613
g62
(g63
g64
NtRp614
(dp615
g67
(dp616
g75
I3
ssg76
g610
sg69
(lp617
S''
asbasbasbag62
(g78
g64
NtRp618
(dp619
g67
(dp620
sg76
g494
sg69
(lp621
g62
(g83
g64
NtRp622
(dp623
g67
(dp624
g87
g88
ssg76
g618
sg69
(lp625
g438
asbag62
(g83
g64
NtRp626
(dp627
g67
(dp628
g94
g95
ssg76
g618
sg69
(lp629
S':'
asbag62
(g83
g64
NtRp630
(dp631
g67
(dp632
sg76
g618
sg69
(lp633
g62
(g63
g64
NtRp634
(dp635
g67
(dp636
g75
I3
ssg76
g630
sg69
(lp637
S''
asbasbasbag62
(g78
g64
NtRp638
(dp639
g67
(dp640
sg76
g494
sg69
(lp641
g62
(g83
g64
NtRp642
(dp643
g67
(dp644
g87
g88
ssg76
g638
sg69
(lp645
g459
asbag62
(g83
g64
NtRp646
(dp647
g67
(dp648
g94
g95
ssg76
g638
sg69
(lp649
S':'
asbag62
(g83
g64
NtRp650
(dp651
g67
(dp652
sg76
g638
sg69
(lp653
g62
(g63
g64
NtRp654
(dp655
g67
(dp656
g75
I3
ssg76
g650
sg69
(lp657
S''
asbasbasbasbasbasbasbasbasbasbasbag62
(g78
g64
NtRp658
(dp659
g67
(dp660
sg76
g72
sg69
(lp661
g62
(g83
g64
NtRp662
(dp663
g67
(dp664
g87
g88
ssg76
g658
sg69
(lp665
S'env'
p666
asbag62
(g83
g64
NtRp667
(dp668
g67
(dp669
g94
g95
ssg76
g658
sg69
(lp670
S':'
asbag62
(g83
g64
NtRp671
(dp672
g67
(dp673
sg76
g658
sg69
(lp674
g62
(g63
g64
NtRp675
(dp676
g67
(dp677
g75
I5
ssg76
g671
sg69
(lp678
g62
(g71
g64
NtRp679
(dp680
g67
(dp681
g75
I4
ssg76
Nsg69
(lp682
g62
(g78
g64
NtRp683
(dp684
g67
(dp685
sg76
g679
sg69
(lp686
g62
(g83
g64
NtRp687
(dp688
g67
(dp689
g87
g88
ssg76
g683
sg69
(lp690
S'app_folders'
p691
asbag62
(g83
g64
NtRp692
(dp693
g67
(dp694
g94
g95
ssg76
g683
sg69
(lp695
S':'
asbag62
(g83
g64
NtRp696
(dp697
g67
(dp698
sg76
g683
sg69
(lp699
g62
(g63
g64
NtRp700
(dp701
g67
(dp702
g75
I4
ssg76
g696
sg69
(lp703
S"set(['/home/xchen/web2py/applications/Betsy/', '/home/xchen/web2py/applications/admin/'])"
p704
asbasbasbag62
(g78
g64
NtRp705
(dp706
g67
(dp707
sg76
g679
sg69
(lp708
g62
(g83
g64
NtRp709
(dp710
g67
(dp711
g87
g88
ssg76
g705
sg69
(lp712
S'applications_parent'
p713
asbag62
(g83
g64
NtRp714
(dp715
g67
(dp716
g94
g95
ssg76
g705
sg69
(lp717
S':'
asbag62
(g83
g64
NtRp718
(dp719
g67
(dp720
sg76
g705
sg69
(lp721
g62
(g63
g64
NtRp722
(dp723
g67
(dp724
g75
I4
ssg76
g718
sg69
(lp725
S'/home/xchen/web2py'
p726
asbasbasbag62
(g78
g64
NtRp727
(dp728
g67
(dp729
sg76
g679
sg69
(lp730
g62
(g83
g64
NtRp731
(dp732
g67
(dp733
g87
g88
ssg76
g727
sg69
(lp734
S'cmd_args'
p735
asbag62
(g83
g64
NtRp736
(dp737
g67
(dp738
g94
g95
ssg76
g727
sg69
(lp739
S':'
asbag62
(g83
g64
NtRp740
(dp741
g67
(dp742
sg76
g727
sg69
(lp743
g62
(g63
g64
NtRp744
(dp745
g67
(dp746
g75
I4
ssg76
g740
sg69
(lp747
g62
(g71
g64
NtRp748
(dp749
g67
(dp750
g75
I3
ssg76
Nsg69
(lp751
sbasbasbasbag62
(g78
g64
NtRp752
(dp753
g67
(dp754
sg76
g679
sg69
(lp755
g62
(g83
g64
NtRp756
(dp757
g67
(dp758
g87
g88
ssg76
g752
sg69
(lp759
S'cmd_options'
p760
asbag62
(g83
g64
NtRp761
(dp762
g67
(dp763
g94
g95
ssg76
g752
sg69
(lp764
S':'
asbag62
(g83
g64
NtRp765
(dp766
g67
(dp767
sg76
g752
sg69
(lp768
g62
(g63
g64
NtRp769
(dp770
g67
(dp771
g75
I4
ssg76
g765
sg69
(lp772
S"<Values at 0x1670ae18: {'verbose': False, 'ip': '127.0.0.1', 'with_scheduler': False, 'ips': [], 'shutdown_timeout': 5, 'taskbar': False, 'port': 8080, 'maxthreads': None, 'softcron': False, 'server_name': 'unicron.shis.uth.tmc.edu', 'bpython': False, 'nogui': False, 'pid_filename': 'httpserver.pid', 'extcron': False, 'runcron': False, 'run_system_tests': False, 'test': None, 'folder': '/home/xchen/web2py', 'config': '', 'minthreads': None, 'winservice': '', 'shell': None, 'run': '', 'log_filename': 'httpserver.log', 'debuglevel': 30, 'args': [''], 'socket_timeout': 5, 'ssl_ca_certificate': None, 'scheduler': None, 'profiler_filename': None, 'ssl_private_key': '', 'scheduler_groups': None, 'password': 'baby2008', 'request_queue_size': 5, 'ssl_certificate': '', 'cronjob': False, 'numthreads': None, 'quiet': False, 'interfaces': None, 'import_models': False, 'timeout': 10, 'plain': False, 'nobanner': False}>"
p773
asbasbasbag62
(g78
g64
NtRp774
(dp775
g67
(dp776
sg76
g679
sg69
(lp777
g62
(g83
g64
NtRp778
(dp779
g67
(dp780
g87
g88
ssg76
g774
sg69
(lp781
S'db_sessions'
p782
asbag62
(g83
g64
NtRp783
(dp784
g67
(dp785
g94
g95
ssg76
g774
sg69
(lp786
S':'
asbag62
(g83
g64
NtRp787
(dp788
g67
(dp789
sg76
g774
sg69
(lp790
g62
(g63
g64
NtRp791
(dp792
g67
(dp793
g75
I4
ssg76
g787
sg69
(lp794
S'set([])'
p795
asbasbasbag62
(g78
g64
NtRp796
(dp797
g67
(dp798
sg76
g679
sg69
(lp799
g62
(g83
g64
NtRp800
(dp801
g67
(dp802
g87
g88
ssg76
g796
sg69
(lp803
S'debugging'
p804
asbag62
(g83
g64
NtRp805
(dp806
g67
(dp807
g94
g95
ssg76
g796
sg69
(lp808
S':'
asbag62
(g83
g64
NtRp809
(dp810
g67
(dp811
sg76
g796
sg69
(lp812
g62
(g63
g64
NtRp813
(dp814
g67
(dp815
g75
I4
ssg76
g809
sg69
(lp816
g105
asbasbasbag62
(g78
g64
NtRp817
(dp818
g67
(dp819
sg76
g679
sg69
(lp820
g62
(g83
g64
NtRp821
(dp822
g67
(dp823
g87
g88
ssg76
g817
sg69
(lp824
S'gluon_parent'
p825
asbag62
(g83
g64
NtRp826
(dp827
g67
(dp828
g94
g95
ssg76
g817
sg69
(lp829
S':'
asbag62
(g83
g64
NtRp830
(dp831
g67
(dp832
sg76
g817
sg69
(lp833
g62
(g63
g64
NtRp834
(dp835
g67
(dp836
g75
I4
ssg76
g830
sg69
(lp837
S'/home/xchen/web2py'
p838
asbasbasbag62
(g78
g64
NtRp839
(dp840
g67
(dp841
sg76
g679
sg69
(lp842
g62
(g83
g64
NtRp843
(dp844
g67
(dp845
g87
g88
ssg76
g839
sg69
(lp846
S'http_accept'
p847
asbag62
(g83
g64
NtRp848
(dp849
g67
(dp850
g94
g95
ssg76
g839
sg69
(lp851
S':'
asbag62
(g83
g64
NtRp852
(dp853
g67
(dp854
sg76
g839
sg69
(lp855
g62
(g63
g64
NtRp856
(dp857
g67
(dp858
g75
I4
ssg76
g852
sg69
(lp859
S'text/html,application/xhtml+xml,application/xml;q=0.9,*/*;q=0.8'
p860
asbasbasbag62
(g78
g64
NtRp861
(dp862
g67
(dp863
sg76
g679
sg69
(lp864
g62
(g83
g64
NtRp865
(dp866
g67
(dp867
g87
g88
ssg76
g861
sg69
(lp868
S'http_accept_encoding'
p869
asbag62
(g83
g64
NtRp870
(dp871
g67
(dp872
g94
g95
ssg76
g861
sg69
(lp873
S':'
asbag62
(g83
g64
NtRp874
(dp875
g67
(dp876
sg76
g861
sg69
(lp877
g62
(g63
g64
NtRp878
(dp879
g67
(dp880
g75
I4
ssg76
g874
sg69
(lp881
S'gzip, deflate'
p882
asbasbasbag62
(g78
g64
NtRp883
(dp884
g67
(dp885
sg76
g679
sg69
(lp886
g62
(g83
g64
NtRp887
(dp888
g67
(dp889
g87
g88
ssg76
g883
sg69
(lp890
S'http_accept_language'
p891
asbag62
(g83
g64
NtRp892
(dp893
g67
(dp894
g94
g95
ssg76
g883
sg69
(lp895
S':'
asbag62
(g83
g64
NtRp896
(dp897
g67
(dp898
sg76
g883
sg69
(lp899
g62
(g63
g64
NtRp900
(dp901
g67
(dp902
g75
I4
ssg76
g896
sg69
(lp903
S'en-US,en;q=0.5'
p904
asbasbasbag62
(g78
g64
NtRp905
(dp906
g67
(dp907
sg76
g679
sg69
(lp908
g62
(g83
g64
NtRp909
(dp910
g67
(dp911
g87
g88
ssg76
g905
sg69
(lp912
S'http_connection'
p913
asbag62
(g83
g64
NtRp914
(dp915
g67
(dp916
g94
g95
ssg76
g905
sg69
(lp917
S':'
asbag62
(g83
g64
NtRp918
(dp919
g67
(dp920
sg76
g905
sg69
(lp921
g62
(g63
g64
NtRp922
(dp923
g67
(dp924
g75
I4
ssg76
g918
sg69
(lp925
S'keep-alive'
p926
asbasbasbag62
(g78
g64
NtRp927
(dp928
g67
(dp929
sg76
g679
sg69
(lp930
g62
(g83
g64
NtRp931
(dp932
g67
(dp933
g87
g88
ssg76
g927
sg69
(lp934
S'http_cookie'
p935
asbag62
(g83
g64
NtRp936
(dp937
g67
(dp938
g94
g95
ssg76
g927
sg69
(lp939
S':'
asbag62
(g83
g64
NtRp940
(dp941
g67
(dp942
sg76
g927
sg69
(lp943
g62
(g63
g64
NtRp944
(dp945
g67
(dp946
g75
I4
ssg76
g940
sg69
(lp947
S'session_id_betsy=127.0.0.1-70d52105-0f5d-4884-a4e3-dce6830f30e0; session_id_admin=127.0.0.1-35fd6d2e-7496-4b5d-9710-19abfa20c9b5'
p948
asbasbasbag62
(g78
g64
NtRp949
(dp950
g67
(dp951
sg76
g679
sg69
(lp952
g62
(g83
g64
NtRp953
(dp954
g67
(dp955
g87
g88
ssg76
g949
sg69
(lp956
S'http_host'
p957
asbag62
(g83
g64
NtRp958
(dp959
g67
(dp960
g94
g95
ssg76
g949
sg69
(lp961
S':'
asbag62
(g83
g64
NtRp962
(dp963
g67
(dp964
sg76
g949
sg69
(lp965
g62
(g63
g64
NtRp966
(dp967
g67
(dp968
g75
I4
ssg76
g962
sg69
(lp969
S'localhost:8080'
p970
asbasbasbag62
(g78
g64
NtRp971
(dp972
g67
(dp973
sg76
g679
sg69
(lp974
g62
(g83
g64
NtRp975
(dp976
g67
(dp977
g87
g88
ssg76
g971
sg69
(lp978
S'http_referer'
p979
asbag62
(g83
g64
NtRp980
(dp981
g67
(dp982
g94
g95
ssg76
g971
sg69
(lp983
S':'
asbag62
(g83
g64
NtRp984
(dp985
g67
(dp986
sg76
g971
sg69
(lp987
g62
(g63
g64
NtRp988
(dp989
g67
(dp990
g75
I4
ssg76
g984
sg69
(lp991
S'http://localhost:8080/Betsy/default/show_status'
p992
asbasbasbag62
(g78
g64
NtRp993
(dp994
g67
(dp995
sg76
g679
sg69
(lp996
g62
(g83
g64
NtRp997
(dp998
g67
(dp999
g87
g88
ssg76
g993
sg69
(lp1000
S'http_user_agent'
p1001
asbag62
(g83
g64
NtRp1002
(dp1003
g67
(dp1004
g94
g95
ssg76
g993
sg69
(lp1005
S':'
asbag62
(g83
g64
NtRp1006
(dp1007
g67
(dp1008
sg76
g993
sg69
(lp1009
g62
(g63
g64
NtRp1010
(dp1011
g67
(dp1012
g75
I4
ssg76
g1006
sg69
(lp1013
S'Mozilla/5.0 (Macintosh; Intel Mac OS X 10.6; rv:18.0) Gecko/20100101 Firefox/18.0'
p1014
asbasbasbag62
(g78
g64
NtRp1015
(dp1016
g67
(dp1017
sg76
g679
sg69
(lp1018
g62
(g83
g64
NtRp1019
(dp1020
g67
(dp1021
g87
g88
ssg76
g1015
sg69
(lp1022
S'is_jython'
p1023
asbag62
(g83
g64
NtRp1024
(dp1025
g67
(dp1026
g94
g95
ssg76
g1015
sg69
(lp1027
S':'
asbag62
(g83
g64
NtRp1028
(dp1029
g67
(dp1030
sg76
g1015
sg69
(lp1031
g62
(g63
g64
NtRp1032
(dp1033
g67
(dp1034
g75
I4
ssg76
g1028
sg69
(lp1035
g105
asbasbasbag62
(g78
g64
NtRp1036
(dp1037
g67
(dp1038
sg76
g679
sg69
(lp1039
g62
(g83
g64
NtRp1040
(dp1041
g67
(dp1042
g87
g88
ssg76
g1036
sg69
(lp1043
S'is_pypy'
p1044
asbag62
(g83
g64
NtRp1045
(dp1046
g67
(dp1047
g94
g95
ssg76
g1036
sg69
(lp1048
S':'
asbag62
(g83
g64
NtRp1049
(dp1050
g67
(dp1051
sg76
g1036
sg69
(lp1052
g62
(g63
g64
NtRp1053
(dp1054
g67
(dp1055
g75
I4
ssg76
g1049
sg69
(lp1056
g105
asbasbasbag62
(g78
g64
NtRp1057
(dp1058
g67
(dp1059
sg76
g679
sg69
(lp1060
g62
(g83
g64
NtRp1061
(dp1062
g67
(dp1063
g87
g88
ssg76
g1057
sg69
(lp1064
S'local_hosts'
p1065
asbag62
(g83
g64
NtRp1066
(dp1067
g67
(dp1068
g94
g95
ssg76
g1057
sg69
(lp1069
S':'
asbag62
(g83
g64
NtRp1070
(dp1071
g67
(dp1072
sg76
g1057
sg69
(lp1073
g62
(g63
g64
NtRp1074
(dp1075
g67
(dp1076
g75
I4
ssg76
g1070
sg69
(lp1077
g62
(g71
g64
NtRp1078
(dp1079
g67
(dp1080
g75
I3
ssg76
Nsg69
(lp1081
g62
(g78
g64
NtRp1082
(dp1083
g67
(dp1084
sg76
g1078
sg69
(lp1085
g62
(g83
g64
NtRp1086
(dp1087
g67
(dp1088
sg76
g1082
sg69
(lp1089
g62
(g63
g64
NtRp1090
(dp1091
g67
(dp1092
g75
I3
ssg76
g1086
sg69
(lp1093
S'127.0.0.1'
p1094
asbasbasbag62
(g78
g64
NtRp1095
(dp1096
g67
(dp1097
sg76
g1078
sg69
(lp1098
g62
(g83
g64
NtRp1099
(dp1100
g67
(dp1101
sg76
g1095
sg69
(lp1102
g62
(g63
g64
NtRp1103
(dp1104
g67
(dp1105
g75
I3
ssg76
g1099
sg69
(lp1106
S'::ffff:127.0.0.1'
p1107
asbasbasbag62
(g78
g64
NtRp1108
(dp1109
g67
(dp1110
sg76
g1078
sg69
(lp1111
g62
(g83
g64
NtRp1112
(dp1113
g67
(dp1114
sg76
g1108
sg69
(lp1115
g62
(g63
g64
NtRp1116
(dp1117
g67
(dp1118
g75
I3
ssg76
g1112
sg69
(lp1119
S'unicron.shis.uth.tmc.edu'
p1120
asbasbasbag62
(g78
g64
NtRp1121
(dp1122
g67
(dp1123
sg76
g1078
sg69
(lp1124
g62
(g83
g64
NtRp1125
(dp1126
g67
(dp1127
sg76
g1121
sg69
(lp1128
g62
(g63
g64
NtRp1129
(dp1130
g67
(dp1131
g75
I3
ssg76
g1125
sg69
(lp1132
S'unicron.shis.uth.tmc.edu'
p1133
asbasbasbag62
(g78
g64
NtRp1134
(dp1135
g67
(dp1136
sg76
g1078
sg69
(lp1137
g62
(g83
g64
NtRp1138
(dp1139
g67
(dp1140
sg76
g1134
sg69
(lp1141
g62
(g63
g64
NtRp1142
(dp1143
g67
(dp1144
g75
I3
ssg76
g1138
sg69
(lp1145
S'127.0.0.1'
p1146
asbasbasbasbasbasbasbag62
(g78
g64
NtRp1147
(dp1148
g67
(dp1149
sg76
g679
sg69
(lp1150
g62
(g83
g64
NtRp1151
(dp1152
g67
(dp1153
g87
g88
ssg76
g1147
sg69
(lp1154
S'path_info'
p1155
asbag62
(g83
g64
NtRp1156
(dp1157
g67
(dp1158
g94
g95
ssg76
g1147
sg69
(lp1159
S':'
asbag62
(g83
g64
NtRp1160
(dp1161
g67
(dp1162
sg76
g1147
sg69
(lp1163
g62
(g63
g64
NtRp1164
(dp1165
g67
(dp1166
g75
I4
ssg76
g1160
sg69
(lp1167
S'/Betsy/default/show_job/131'
p1168
asbasbasbag62
(g78
g64
NtRp1169
(dp1170
g67
(dp1171
sg76
g679
sg69
(lp1172
g62
(g83
g64
NtRp1173
(dp1174
g67
(dp1175
g87
g88
ssg76
g1169
sg69
(lp1176
S'query_string'
p1177
asbag62
(g83
g64
NtRp1178
(dp1179
g67
(dp1180
g94
g95
ssg76
g1169
sg69
(lp1181
S':'
asbag62
(g83
g64
NtRp1182
(dp1183
g67
(dp1184
sg76
g1169
sg69
(lp1185
g62
(g63
g64
NtRp1186
(dp1187
g67
(dp1188
g75
I4
ssg76
g1182
sg69
(lp1189
S''
asbasbasbag62
(g78
g64
NtRp1190
(dp1191
g67
(dp1192
sg76
g679
sg69
(lp1193
g62
(g83
g64
NtRp1194
(dp1195
g67
(dp1196
g87
g88
ssg76
g1190
sg69
(lp1197
S'remote_addr'
p1198
asbag62
(g83
g64
NtRp1199
(dp1200
g67
(dp1201
g94
g95
ssg76
g1190
sg69
(lp1202
S':'
asbag62
(g83
g64
NtRp1203
(dp1204
g67
(dp1205
sg76
g1190
sg69
(lp1206
g62
(g63
g64
NtRp1207
(dp1208
g67
(dp1209
g75
I4
ssg76
g1203
sg69
(lp1210
g230
asbasbasbag62
(g78
g64
NtRp1211
(dp1212
g67
(dp1213
sg76
g679
sg69
(lp1214
g62
(g83
g64
NtRp1215
(dp1216
g67
(dp1217
g87
g88
ssg76
g1211
sg69
(lp1218
S'remote_port'
p1219
asbag62
(g83
g64
NtRp1220
(dp1221
g67
(dp1222
g94
g95
ssg76
g1211
sg69
(lp1223
S':'
asbag62
(g83
g64
NtRp1224
(dp1225
g67
(dp1226
sg76
g1211
sg69
(lp1227
g62
(g63
g64
NtRp1228
(dp1229
g67
(dp1230
g75
I4
ssg76
g1224
sg69
(lp1231
S'55771'
p1232
asbasbasbag62
(g78
g64
NtRp1233
(dp1234
g67
(dp1235
sg76
g679
sg69
(lp1236
g62
(g83
g64
NtRp1237
(dp1238
g67
(dp1239
g87
g88
ssg76
g1233
sg69
(lp1240
S'request_method'
p1241
asbag62
(g83
g64
NtRp1242
(dp1243
g67
(dp1244
g94
g95
ssg76
g1233
sg69
(lp1245
S':'
asbag62
(g83
g64
NtRp1246
(dp1247
g67
(dp1248
sg76
g1233
sg69
(lp1249
g62
(g63
g64
NtRp1250
(dp1251
g67
(dp1252
g75
I4
ssg76
g1246
sg69
(lp1253
S'GET'
p1254
asbasbasbag62
(g78
g64
NtRp1255
(dp1256
g67
(dp1257
sg76
g679
sg69
(lp1258
g62
(g83
g64
NtRp1259
(dp1260
g67
(dp1261
g87
g88
ssg76
g1255
sg69
(lp1262
S'request_uri'
p1263
asbag62
(g83
g64
NtRp1264
(dp1265
g67
(dp1266
g94
g95
ssg76
g1255
sg69
(lp1267
S':'
asbag62
(g83
g64
NtRp1268
(dp1269
g67
(dp1270
sg76
g1255
sg69
(lp1271
g62
(g63
g64
NtRp1272
(dp1273
g67
(dp1274
g75
I4
ssg76
g1268
sg69
(lp1275
g1168
asbasbasbag62
(g78
g64
NtRp1276
(dp1277
g67
(dp1278
sg76
g679
sg69
(lp1279
g62
(g83
g64
NtRp1280
(dp1281
g67
(dp1282
g87
g88
ssg76
g1276
sg69
(lp1283
S'script_name'
p1284
asbag62
(g83
g64
NtRp1285
(dp1286
g67
(dp1287
g94
g95
ssg76
g1276
sg69
(lp1288
S':'
asbag62
(g83
g64
NtRp1289
(dp1290
g67
(dp1291
sg76
g1276
sg69
(lp1292
g62
(g63
g64
NtRp1293
(dp1294
g67
(dp1295
g75
I4
ssg76
g1289
sg69
(lp1296
S''
asbasbasbag62
(g78
g64
NtRp1297
(dp1298
g67
(dp1299
sg76
g679
sg69
(lp1300
g62
(g83
g64
NtRp1301
(dp1302
g67
(dp1303
g87
g88
ssg76
g1297
sg69
(lp1304
S'server_name'
p1305
asbag62
(g83
g64
NtRp1306
(dp1307
g67
(dp1308
g94
g95
ssg76
g1297
sg69
(lp1309
S':'
asbag62
(g83
g64
NtRp1310
(dp1311
g67
(dp1312
sg76
g1297
sg69
(lp1313
g62
(g63
g64
NtRp1314
(dp1315
g67
(dp1316
g75
I4
ssg76
g1310
sg69
(lp1317
g1133
asbasbasbag62
(g78
g64
NtRp1318
(dp1319
g67
(dp1320
sg76
g679
sg69
(lp1321
g62
(g83
g64
NtRp1322
(dp1323
g67
(dp1324
g87
g88
ssg76
g1318
sg69
(lp1325
S'server_port'
p1326
asbag62
(g83
g64
NtRp1327
(dp1328
g67
(dp1329
g94
g95
ssg76
g1318
sg69
(lp1330
S':'
asbag62
(g83
g64
NtRp1331
(dp1332
g67
(dp1333
sg76
g1318
sg69
(lp1334
g62
(g63
g64
NtRp1335
(dp1336
g67
(dp1337
g75
I4
ssg76
g1331
sg69
(lp1338
S'8080'
p1339
asbasbasbag62
(g78
g64
NtRp1340
(dp1341
g67
(dp1342
sg76
g679
sg69
(lp1343
g62
(g83
g64
NtRp1344
(dp1345
g67
(dp1346
g87
g88
ssg76
g1340
sg69
(lp1347
S'server_protocol'
p1348
asbag62
(g83
g64
NtRp1349
(dp1350
g67
(dp1351
g94
g95
ssg76
g1340
sg69
(lp1352
S':'
asbag62
(g83
g64
NtRp1353
(dp1354
g67
(dp1355
sg76
g1340
sg69
(lp1356
g62
(g63
g64
NtRp1357
(dp1358
g67
(dp1359
g75
I4
ssg76
g1353
sg69
(lp1360
S'HTTP/1.1'
p1361
asbasbasbag62
(g78
g64
NtRp1362
(dp1363
g67
(dp1364
sg76
g679
sg69
(lp1365
g62
(g83
g64
NtRp1366
(dp1367
g67
(dp1368
g87
g88
ssg76
g1362
sg69
(lp1369
S'server_software'
p1370
asbag62
(g83
g64
NtRp1371
(dp1372
g67
(dp1373
g94
g95
ssg76
g1362
sg69
(lp1374
S':'
asbag62
(g83
g64
NtRp1375
(dp1376
g67
(dp1377
sg76
g1362
sg69
(lp1378
g62
(g63
g64
NtRp1379
(dp1380
g67
(dp1381
g75
I4
ssg76
g1375
sg69
(lp1382
S'Rocket 1.2.5'
p1383
asbasbasbag62
(g78
g64
NtRp1384
(dp1385
g67
(dp1386
sg76
g679
sg69
(lp1387
g62
(g83
g64
NtRp1388
(dp1389
g67
(dp1390
g87
g88
ssg76
g1384
sg69
(lp1391
S'web2py_path'
p1392
asbag62
(g83
g64
NtRp1393
(dp1394
g67
(dp1395
g94
g95
ssg76
g1384
sg69
(lp1396
S':'
asbag62
(g83
g64
NtRp1397
(dp1398
g67
(dp1399
sg76
g1384
sg69
(lp1400
g62
(g63
g64
NtRp1401
(dp1402
g67
(dp1403
g75
I4
ssg76
g1397
sg69
(lp1404
g726
asbasbasbag62
(g78
g64
NtRp1405
(dp1406
g67
(dp1407
sg76
g679
sg69
(lp1408
g62
(g83
g64
NtRp1409
(dp1410
g67
(dp1411
g87
g88
ssg76
g1405
sg69
(lp1412
S'web2py_version'
p1413
asbag62
(g83
g64
NtRp1414
(dp1415
g67
(dp1416
g94
g95
ssg76
g1405
sg69
(lp1417
S':'
asbag62
(g83
g64
NtRp1418
(dp1419
g67
(dp1420
sg76
g1405
sg69
(lp1421
g62
(g63
g64
NtRp1422
(dp1423
g67
(dp1424
g75
I4
ssg76
g1418
sg69
(lp1425
g62
(g71
g64
NtRp1426
(dp1427
g67
(dp1428
g75
I3
ssg76
Nsg69
(lp1429
g62
(g78
g64
NtRp1430
(dp1431
g67
(dp1432
sg76
g1426
sg69
(lp1433
g62
(g83
g64
NtRp1434
(dp1435
g67
(dp1436
sg76
g1430
sg69
(lp1437
g62
(g63
g64
NtRp1438
(dp1439
g67
(dp1440
g75
I3
ssg76
g1434
sg69
(lp1441
S'2'
asbasbasbag62
(g78
g64
NtRp1442
(dp1443
g67
(dp1444
sg76
g1426
sg69
(lp1445
g62
(g83
g64
NtRp1446
(dp1447
g67
(dp1448
sg76
g1442
sg69
(lp1449
g62
(g63
g64
NtRp1450
(dp1451
g67
(dp1452
g75
I3
ssg76
g1446
sg69
(lp1453
S'2'
asbasbasbag62
(g78
g64
NtRp1454
(dp1455
g67
(dp1456
sg76
g1426
sg69
(lp1457
g62
(g83
g64
NtRp1458
(dp1459
g67
(dp1460
sg76
g1454
sg69
(lp1461
g62
(g63
g64
NtRp1462
(dp1463
g67
(dp1464
g75
I3
ssg76
g1458
sg69
(lp1465
S'1'
asbasbasbag62
(g78
g64
NtRp1466
(dp1467
g67
(dp1468
sg76
g1426
sg69
(lp1469
g62
(g83
g64
NtRp1470
(dp1471
g67
(dp1472
sg76
g1466
sg69
(lp1473
g62
(g63
g64
NtRp1474
(dp1475
g67
(dp1476
g75
I3
ssg76
g1470
sg69
(lp1477
S'datetime.datetime(2012, 10, 21, 16, 57, 4)'
p1478
asbasbasbag62
(g78
g64
NtRp1479
(dp1480
g67
(dp1481
sg76
g1426
sg69
(lp1482
g62
(g83
g64
NtRp1483
(dp1484
g67
(dp1485
sg76
g1479
sg69
(lp1486
g62
(g63
g64
NtRp1487
(dp1488
g67
(dp1489
g75
I3
ssg76
g1483
sg69
(lp1490
S'stable'
p1491
asbasbasbasbasbasbasbag62
(g78
g64
NtRp1492
(dp1493
g67
(dp1494
sg76
g679
sg69
(lp1495
g62
(g83
g64
NtRp1496
(dp1497
g67
(dp1498
g87
g88
ssg76
g1492
sg69
(lp1499
S'wsgi_errors'
p1500
asbag62
(g83
g64
NtRp1501
(dp1502
g67
(dp1503
g94
g95
ssg76
g1492
sg69
(lp1504
S':'
asbag62
(g83
g64
NtRp1505
(dp1506
g67
(dp1507
sg76
g1492
sg69
(lp1508
g62
(g63
g64
NtRp1509
(dp1510
g67
(dp1511
g75
I4
ssg76
g1505
sg69
(lp1512
S"<open file '<stderr>', mode 'w' at 0x2b62e6c3a270>"
p1513
asbasbasbag62
(g78
g64
NtRp1514
(dp1515
g67
(dp1516
sg76
g679
sg69
(lp1517
g62
(g83
g64
NtRp1518
(dp1519
g67
(dp1520
g87
g88
ssg76
g1514
sg69
(lp1521
S'wsgi_file_wrapper'
p1522
asbag62
(g83
g64
NtRp1523
(dp1524
g67
(dp1525
g94
g95
ssg76
g1514
sg69
(lp1526
S':'
asbag62
(g83
g64
NtRp1527
(dp1528
g67
(dp1529
sg76
g1514
sg69
(lp1530
g62
(g63
g64
NtRp1531
(dp1532
g67
(dp1533
g75
I4
ssg76
g1527
sg69
(lp1534
S'<class wsgiref.util.FileWrapper at 0x16668a78>'
p1535
asbasbasbag62
(g78
g64
NtRp1536
(dp1537
g67
(dp1538
sg76
g679
sg69
(lp1539
g62
(g83
g64
NtRp1540
(dp1541
g67
(dp1542
g87
g88
ssg76
g1536
sg69
(lp1543
S'wsgi_input'
p1544
asbag62
(g83
g64
NtRp1545
(dp1546
g67
(dp1547
g94
g95
ssg76
g1536
sg69
(lp1548
S':'
asbag62
(g83
g64
NtRp1549
(dp1550
g67
(dp1551
sg76
g1536
sg69
(lp1552
g62
(g63
g64
NtRp1553
(dp1554
g67
(dp1555
g75
I4
ssg76
g1549
sg69
(lp1556
S'<socket._fileobject object at 0x1770b750>'
p1557
asbasbasbag62
(g78
g64
NtRp1558
(dp1559
g67
(dp1560
sg76
g679
sg69
(lp1561
g62
(g83
g64
NtRp1562
(dp1563
g67
(dp1564
g87
g88
ssg76
g1558
sg69
(lp1565
S'wsgi_multiprocess'
p1566
asbag62
(g83
g64
NtRp1567
(dp1568
g67
(dp1569
g94
g95
ssg76
g1558
sg69
(lp1570
S':'
asbag62
(g83
g64
NtRp1571
(dp1572
g67
(dp1573
sg76
g1558
sg69
(lp1574
g62
(g63
g64
NtRp1575
(dp1576
g67
(dp1577
g75
I4
ssg76
g1571
sg69
(lp1578
g105
asbasbasbag62
(g78
g64
NtRp1579
(dp1580
g67
(dp1581
sg76
g679
sg69
(lp1582
g62
(g83
g64
NtRp1583
(dp1584
g67
(dp1585
g87
g88
ssg76
g1579
sg69
(lp1586
S'wsgi_multithread'
p1587
asbag62
(g83
g64
NtRp1588
(dp1589
g67
(dp1590
g94
g95
ssg76
g1579
sg69
(lp1591
S':'
asbag62
(g83
g64
NtRp1592
(dp1593
g67
(dp1594
sg76
g1579
sg69
(lp1595
g62
(g63
g64
NtRp1596
(dp1597
g67
(dp1598
g75
I4
ssg76
g1592
sg69
(lp1599
S'True'
p1600
asbasbasbag62
(g78
g64
NtRp1601
(dp1602
g67
(dp1603
sg76
g679
sg69
(lp1604
g62
(g83
g64
NtRp1605
(dp1606
g67
(dp1607
g87
g88
ssg76
g1601
sg69
(lp1608
S'wsgi_run_once'
p1609
asbag62
(g83
g64
NtRp1610
(dp1611
g67
(dp1612
g94
g95
ssg76
g1601
sg69
(lp1613
S':'
asbag62
(g83
g64
NtRp1614
(dp1615
g67
(dp1616
sg76
g1601
sg69
(lp1617
g62
(g63
g64
NtRp1618
(dp1619
g67
(dp1620
g75
I4
ssg76
g1614
sg69
(lp1621
g105
asbasbasbag62
(g78
g64
NtRp1622
(dp1623
g67
(dp1624
sg76
g679
sg69
(lp1625
g62
(g83
g64
NtRp1626
(dp1627
g67
(dp1628
g87
g88
ssg76
g1622
sg69
(lp1629
S'wsgi_url_scheme'
p1630
asbag62
(g83
g64
NtRp1631
(dp1632
g67
(dp1633
g94
g95
ssg76
g1622
sg69
(lp1634
S':'
asbag62
(g83
g64
NtRp1635
(dp1636
g67
(dp1637
sg76
g1622
sg69
(lp1638
g62
(g63
g64
NtRp1639
(dp1640
g67
(dp1641
g75
I4
ssg76
g1635
sg69
(lp1642
S'http'
p1643
asbasbasbag62
(g78
g64
NtRp1644
(dp1645
g67
(dp1646
sg76
g679
sg69
(lp1647
g62
(g83
g64
NtRp1648
(dp1649
g67
(dp1650
g87
g88
ssg76
g1644
sg69
(lp1651
S'wsgi_version'
p1652
asbag62
(g83
g64
NtRp1653
(dp1654
g67
(dp1655
g94
g95
ssg76
g1644
sg69
(lp1656
S':'
asbag62
(g83
g64
NtRp1657
(dp1658
g67
(dp1659
sg76
g1644
sg69
(lp1660
g62
(g63
g64
NtRp1661
(dp1662
g67
(dp1663
g75
I4
ssg76
g1657
sg69
(lp1664
g62
(g71
g64
NtRp1665
(dp1666
g67
(dp1667
g75
I3
ssg76
Nsg69
(lp1668
g62
(g78
g64
NtRp1669
(dp1670
g67
(dp1671
sg76
g1665
sg69
(lp1672
g62
(g83
g64
NtRp1673
(dp1674
g67
(dp1675
sg76
g1669
sg69
(lp1676
g62
(g63
g64
NtRp1677
(dp1678
g67
(dp1679
g75
I3
ssg76
g1673
sg69
(lp1680
S'1'
asbasbasbag62
(g78
g64
NtRp1681
(dp1682
g67
(dp1683
sg76
g1665
sg69
(lp1684
g62
(g83
g64
NtRp1685
(dp1686
g67
(dp1687
sg76
g1681
sg69
(lp1688
g62
(g63
g64
NtRp1689
(dp1690
g67
(dp1691
g75
I3
ssg76
g1685
sg69
(lp1692
S'0'
asbasbasbasbasbasbasbasbasbasbasbag62
(g78
g64
NtRp1693
(dp1694
g67
(dp1695
sg76
g72
sg69
(lp1696
g62
(g83
g64
NtRp1697
(dp1698
g67
(dp1699
g87
g88
ssg76
g1693
sg69
(lp1700
S'extension'
p1701
asbag62
(g83
g64
NtRp1702
(dp1703
g67
(dp1704
g94
g95
ssg76
g1693
sg69
(lp1705
S':'
asbag62
(g83
g64
NtRp1706
(dp1707
g67
(dp1708
sg76
g1693
sg69
(lp1709
g62
(g63
g64
NtRp1710
(dp1711
g67
(dp1712
g75
I5
ssg76
g1706
sg69
(lp1713
S'html'
p1714
asbasbasbag62
(g78
g64
NtRp1715
(dp1716
g67
(dp1717
sg76
g72
sg69
(lp1718
g62
(g83
g64
NtRp1719
(dp1720
g67
(dp1721
g87
g88
ssg76
g1715
sg69
(lp1722
S'folder'
p1723
asbag62
(g83
g64
NtRp1724
(dp1725
g67
(dp1726
g94
g95
ssg76
g1715
sg69
(lp1727
S':'
asbag62
(g83
g64
NtRp1728
(dp1729
g67
(dp1730
sg76
g1715
sg69
(lp1731
g62
(g63
g64
NtRp1732
(dp1733
g67
(dp1734
g75
I5
ssg76
g1728
sg69
(lp1735
S'/home/xchen/web2py/applications/Betsy/'
p1736
asbasbasbag62
(g78
g64
NtRp1737
(dp1738
g67
(dp1739
sg76
g72
sg69
(lp1740
g62
(g83
g64
NtRp1741
(dp1742
g67
(dp1743
g87
g88
ssg76
g1737
sg69
(lp1744
S'function'
p1745
asbag62
(g83
g64
NtRp1746
(dp1747
g67
(dp1748
g94
g95
ssg76
g1737
sg69
(lp1749
S':'
asbag62
(g83
g64
NtRp1750
(dp1751
g67
(dp1752
sg76
g1737
sg69
(lp1753
g62
(g63
g64
NtRp1754
(dp1755
g67
(dp1756
g75
I5
ssg76
g1750
sg69
(lp1757
S'show_job'
p1758
asbasbasbag62
(g78
g64
NtRp1759
(dp1760
g67
(dp1761
sg76
g72
sg69
(lp1762
g62
(g83
g64
NtRp1763
(dp1764
g67
(dp1765
g87
g88
ssg76
g1759
sg69
(lp1766
S'get_vars'
p1767
asbag62
(g83
g64
NtRp1768
(dp1769
g67
(dp1770
g94
g95
ssg76
g1759
sg69
(lp1771
S':'
asbag62
(g83
g64
NtRp1772
(dp1773
g67
(dp1774
sg76
g1759
sg69
(lp1775
g62
(g63
g64
NtRp1776
(dp1777
g67
(dp1778
g75
I5
ssg76
g1772
sg69
(lp1779
g62
(g71
g64
NtRp1780
(dp1781
g67
(dp1782
g75
I4
ssg76
Nsg69
(lp1783
sbasbasbasbag62
(g78
g64
NtRp1784
(dp1785
g67
(dp1786
sg76
g72
sg69
(lp1787
g62
(g83
g64
NtRp1788
(dp1789
g67
(dp1790
g87
g88
ssg76
g1784
sg69
(lp1791
S'global_settings'
p1792
asbag62
(g83
g64
NtRp1793
(dp1794
g67
(dp1795
g94
g95
ssg76
g1784
sg69
(lp1796
S':'
asbag62
(g83
g64
NtRp1797
(dp1798
g67
(dp1799
sg76
g1784
sg69
(lp1800
g62
(g63
g64
NtRp1801
(dp1802
g67
(dp1803
g75
I5
ssg76
g1797
sg69
(lp1804
g62
(g71
g64
NtRp1805
(dp1806
g67
(dp1807
g75
I4
ssg76
Nsg69
(lp1808
g62
(g78
g64
NtRp1809
(dp1810
g67
(dp1811
sg76
g1805
sg69
(lp1812
g62
(g83
g64
NtRp1813
(dp1814
g67
(dp1815
g87
g88
ssg76
g1809
sg69
(lp1816
g691
asbag62
(g83
g64
NtRp1817
(dp1818
g67
(dp1819
g94
g95
ssg76
g1809
sg69
(lp1820
S':'
asbag62
(g83
g64
NtRp1821
(dp1822
g67
(dp1823
sg76
g1809
sg69
(lp1824
g62
(g63
g64
NtRp1825
(dp1826
g67
(dp1827
g75
I4
ssg76
g1821
sg69
(lp1828
S"set(['/home/xchen/web2py/applications/Betsy/', '/home/xchen/web2py/applications/admin/'])"
p1829
asbasbasbag62
(g78
g64
NtRp1830
(dp1831
g67
(dp1832
sg76
g1805
sg69
(lp1833
g62
(g83
g64
NtRp1834
(dp1835
g67
(dp1836
g87
g88
ssg76
g1830
sg69
(lp1837
g713
asbag62
(g83
g64
NtRp1838
(dp1839
g67
(dp1840
g94
g95
ssg76
g1830
sg69
(lp1841
S':'
asbag62
(g83
g64
NtRp1842
(dp1843
g67
(dp1844
sg76
g1830
sg69
(lp1845
g62
(g63
g64
NtRp1846
(dp1847
g67
(dp1848
g75
I4
ssg76
g1842
sg69
(lp1849
g726
asbasbasbag62
(g78
g64
NtRp1850
(dp1851
g67
(dp1852
sg76
g1805
sg69
(lp1853
g62
(g83
g64
NtRp1854
(dp1855
g67
(dp1856
g87
g88
ssg76
g1850
sg69
(lp1857
g735
asbag62
(g83
g64
NtRp1858
(dp1859
g67
(dp1860
g94
g95
ssg76
g1850
sg69
(lp1861
S':'
asbag62
(g83
g64
NtRp1862
(dp1863
g67
(dp1864
sg76
g1850
sg69
(lp1865
g62
(g63
g64
NtRp1866
(dp1867
g67
(dp1868
g75
I4
ssg76
g1862
sg69
(lp1869
g62
(g71
g64
NtRp1870
(dp1871
g67
(dp1872
g75
I3
ssg76
Nsg69
(lp1873
sbasbasbasbag62
(g78
g64
NtRp1874
(dp1875
g67
(dp1876
sg76
g1805
sg69
(lp1877
g62
(g83
g64
NtRp1878
(dp1879
g67
(dp1880
g87
g88
ssg76
g1874
sg69
(lp1881
g760
asbag62
(g83
g64
NtRp1882
(dp1883
g67
(dp1884
g94
g95
ssg76
g1874
sg69
(lp1885
S':'
asbag62
(g83
g64
NtRp1886
(dp1887
g67
(dp1888
sg76
g1874
sg69
(lp1889
g62
(g63
g64
NtRp1890
(dp1891
g67
(dp1892
g75
I4
ssg76
g1886
sg69
(lp1893
S"<Values at 0x1670ae18: {'verbose': False, 'ip': '127.0.0.1', 'with_scheduler': False, 'ips': [], 'shutdown_timeout': 5, 'taskbar': False, 'port': 8080, 'maxthreads': None, 'softcron': False, 'server_name': 'unicron.shis.uth.tmc.edu', 'bpython': False, 'nogui': False, 'pid_filename': 'httpserver.pid', 'extcron': False, 'runcron': False, 'run_system_tests': False, 'test': None, 'folder': '/home/xchen/web2py', 'config': '', 'minthreads': None, 'winservice': '', 'shell': None, 'run': '', 'log_filename': 'httpserver.log', 'debuglevel': 30, 'args': [''], 'socket_timeout': 5, 'ssl_ca_certificate': None, 'scheduler': None, 'profiler_filename': None, 'ssl_private_key': '', 'scheduler_groups': None, 'password': 'baby2008', 'request_queue_size': 5, 'ssl_certificate': '', 'cronjob': False, 'numthreads': None, 'quiet': False, 'interfaces': None, 'import_models': False, 'timeout': 10, 'plain': False, 'nobanner': False}>"
p1894
asbasbasbag62
(g78
g64
NtRp1895
(dp1896
g67
(dp1897
sg76
g1805
sg69
(lp1898
g62
(g83
g64
NtRp1899
(dp1900
g67
(dp1901
g87
g88
ssg76
g1895
sg69
(lp1902
g782
asbag62
(g83
g64
NtRp1903
(dp1904
g67
(dp1905
g94
g95
ssg76
g1895
sg69
(lp1906
S':'
asbag62
(g83
g64
NtRp1907
(dp1908
g67
(dp1909
sg76
g1895
sg69
(lp1910
g62
(g63
g64
NtRp1911
(dp1912
g67
(dp1913
g75
I4
ssg76
g1907
sg69
(lp1914
S'set([])'
p1915
asbasbasbag62
(g78
g64
NtRp1916
(dp1917
g67
(dp1918
sg76
g1805
sg69
(lp1919
g62
(g83
g64
NtRp1920
(dp1921
g67
(dp1922
g87
g88
ssg76
g1916
sg69
(lp1923
g804
asbag62
(g83
g64
NtRp1924
(dp1925
g67
(dp1926
g94
g95
ssg76
g1916
sg69
(lp1927
S':'
asbag62
(g83
g64
NtRp1928
(dp1929
g67
(dp1930
sg76
g1916
sg69
(lp1931
g62
(g63
g64
NtRp1932
(dp1933
g67
(dp1934
g75
I4
ssg76
g1928
sg69
(lp1935
g105
asbasbasbag62
(g78
g64
NtRp1936
(dp1937
g67
(dp1938
sg76
g1805
sg69
(lp1939
g62
(g83
g64
NtRp1940
(dp1941
g67
(dp1942
g87
g88
ssg76
g1936
sg69
(lp1943
g825
asbag62
(g83
g64
NtRp1944
(dp1945
g67
(dp1946
g94
g95
ssg76
g1936
sg69
(lp1947
S':'
asbag62
(g83
g64
NtRp1948
(dp1949
g67
(dp1950
sg76
g1936
sg69
(lp1951
g62
(g63
g64
NtRp1952
(dp1953
g67
(dp1954
g75
I4
ssg76
g1948
sg69
(lp1955
g838
asbasbasbag62
(g78
g64
NtRp1956
(dp1957
g67
(dp1958
sg76
g1805
sg69
(lp1959
g62
(g83
g64
NtRp1960
(dp1961
g67
(dp1962
g87
g88
ssg76
g1956
sg69
(lp1963
g1023
asbag62
(g83
g64
NtRp1964
(dp1965
g67
(dp1966
g94
g95
ssg76
g1956
sg69
(lp1967
S':'
asbag62
(g83
g64
NtRp1968
(dp1969
g67
(dp1970
sg76
g1956
sg69
(lp1971
g62
(g63
g64
NtRp1972
(dp1973
g67
(dp1974
g75
I4
ssg76
g1968
sg69
(lp1975
g105
asbasbasbag62
(g78
g64
NtRp1976
(dp1977
g67
(dp1978
sg76
g1805
sg69
(lp1979
g62
(g83
g64
NtRp1980
(dp1981
g67
(dp1982
g87
g88
ssg76
g1976
sg69
(lp1983
g1044
asbag62
(g83
g64
NtRp1984
(dp1985
g67
(dp1986
g94
g95
ssg76
g1976
sg69
(lp1987
S':'
asbag62
(g83
g64
NtRp1988
(dp1989
g67
(dp1990
sg76
g1976
sg69
(lp1991
g62
(g63
g64
NtRp1992
(dp1993
g67
(dp1994
g75
I4
ssg76
g1988
sg69
(lp1995
g105
asbasbasbag62
(g78
g64
NtRp1996
(dp1997
g67
(dp1998
sg76
g1805
sg69
(lp1999
g62
(g83
g64
NtRp2000
(dp2001
g67
(dp2002
g87
g88
ssg76
g1996
sg69
(lp2003
g1065
asbag62
(g83
g64
NtRp2004
(dp2005
g67
(dp2006
g94
g95
ssg76
g1996
sg69
(lp2007
S':'
asbag62
(g83
g64
NtRp2008
(dp2009
g67
(dp2010
sg76
g1996
sg69
(lp2011
g62
(g63
g64
NtRp2012
(dp2013
g67
(dp2014
g75
I4
ssg76
g2008
sg69
(lp2015
g62
(g71
g64
NtRp2016
(dp2017
g67
(dp2018
g75
I3
ssg76
Nsg69
(lp2019
g62
(g78
g64
NtRp2020
(dp2021
g67
(dp2022
sg76
g2016
sg69
(lp2023
g62
(g83
g64
NtRp2024
(dp2025
g67
(dp2026
sg76
g2020
sg69
(lp2027
g62
(g63
g64
NtRp2028
(dp2029
g67
(dp2030
g75
I3
ssg76
g2024
sg69
(lp2031
g1094
asbasbasbag62
(g78
g64
NtRp2032
(dp2033
g67
(dp2034
sg76
g2016
sg69
(lp2035
g62
(g83
g64
NtRp2036
(dp2037
g67
(dp2038
sg76
g2032
sg69
(lp2039
g62
(g63
g64
NtRp2040
(dp2041
g67
(dp2042
g75
I3
ssg76
g2036
sg69
(lp2043
g1107
asbasbasbag62
(g78
g64
NtRp2044
(dp2045
g67
(dp2046
sg76
g2016
sg69
(lp2047
g62
(g83
g64
NtRp2048
(dp2049
g67
(dp2050
sg76
g2044
sg69
(lp2051
g62
(g63
g64
NtRp2052
(dp2053
g67
(dp2054
g75
I3
ssg76
g2048
sg69
(lp2055
g1120
asbasbasbag62
(g78
g64
NtRp2056
(dp2057
g67
(dp2058
sg76
g2016
sg69
(lp2059
g62
(g83
g64
NtRp2060
(dp2061
g67
(dp2062
sg76
g2056
sg69
(lp2063
g62
(g63
g64
NtRp2064
(dp2065
g67
(dp2066
g75
I3
ssg76
g2060
sg69
(lp2067
g1133
asbasbasbag62
(g78
g64
NtRp2068
(dp2069
g67
(dp2070
sg76
g2016
sg69
(lp2071
g62
(g83
g64
NtRp2072
(dp2073
g67
(dp2074
sg76
g2068
sg69
(lp2075
g62
(g63
g64
NtRp2076
(dp2077
g67
(dp2078
g75
I3
ssg76
g2072
sg69
(lp2079
g1146
asbasbasbasbasbasbasbag62
(g78
g64
NtRp2080
(dp2081
g67
(dp2082
sg76
g1805
sg69
(lp2083
g62
(g83
g64
NtRp2084
(dp2085
g67
(dp2086
g87
g88
ssg76
g2080
sg69
(lp2087
g1413
asbag62
(g83
g64
NtRp2088
(dp2089
g67
(dp2090
g94
g95
ssg76
g2080
sg69
(lp2091
S':'
asbag62
(g83
g64
NtRp2092
(dp2093
g67
(dp2094
sg76
g2080
sg69
(lp2095
g62
(g63
g64
NtRp2096
(dp2097
g67
(dp2098
g75
I4
ssg76
g2092
sg69
(lp2099
g62
(g71
g64
NtRp2100
(dp2101
g67
(dp2102
g75
I3
ssg76
Nsg69
(lp2103
g62
(g78
g64
NtRp2104
(dp2105
g67
(dp2106
sg76
g2100
sg69
(lp2107
g62
(g83
g64
NtRp2108
(dp2109
g67
(dp2110
sg76
g2104
sg69
(lp2111
g62
(g63
g64
NtRp2112
(dp2113
g67
(dp2114
g75
I3
ssg76
g2108
sg69
(lp2115
S'2'
asbasbasbag62
(g78
g64
NtRp2116
(dp2117
g67
(dp2118
sg76
g2100
sg69
(lp2119
g62
(g83
g64
NtRp2120
(dp2121
g67
(dp2122
sg76
g2116
sg69
(lp2123
g62
(g63
g64
NtRp2124
(dp2125
g67
(dp2126
g75
I3
ssg76
g2120
sg69
(lp2127
S'2'
asbasbasbag62
(g78
g64
NtRp2128
(dp2129
g67
(dp2130
sg76
g2100
sg69
(lp2131
g62
(g83
g64
NtRp2132
(dp2133
g67
(dp2134
sg76
g2128
sg69
(lp2135
g62
(g63
g64
NtRp2136
(dp2137
g67
(dp2138
g75
I3
ssg76
g2132
sg69
(lp2139
S'1'
asbasbasbag62
(g78
g64
NtRp2140
(dp2141
g67
(dp2142
sg76
g2100
sg69
(lp2143
g62
(g83
g64
NtRp2144
(dp2145
g67
(dp2146
sg76
g2140
sg69
(lp2147
g62
(g63
g64
NtRp2148
(dp2149
g67
(dp2150
g75
I3
ssg76
g2144
sg69
(lp2151
S'datetime.datetime(2012, 10, 21, 16, 57, 4)'
p2152
asbasbasbag62
(g78
g64
NtRp2153
(dp2154
g67
(dp2155
sg76
g2100
sg69
(lp2156
g62
(g83
g64
NtRp2157
(dp2158
g67
(dp2159
sg76
g2153
sg69
(lp2160
g62
(g63
g64
NtRp2161
(dp2162
g67
(dp2163
g75
I3
ssg76
g2157
sg69
(lp2164
g1491
asbasbasbasbasbasbasbasbasbasbasbag62
(g78
g64
NtRp2165
(dp2166
g67
(dp2167
sg76
g72
sg69
(lp2168
g62
(g83
g64
NtRp2169
(dp2170
g67
(dp2171
g87
g88
ssg76
g2165
sg69
(lp2172
S'is_https'
p2173
asbag62
(g83
g64
NtRp2174
(dp2175
g67
(dp2176
g94
g95
ssg76
g2165
sg69
(lp2177
S':'
asbag62
(g83
g64
NtRp2178
(dp2179
g67
(dp2180
sg76
g2165
sg69
(lp2181
g62
(g63
g64
NtRp2182
(dp2183
g67
(dp2184
g75
I5
ssg76
g2178
sg69
(lp2185
g105
asbasbasbag62
(g78
g64
NtRp2186
(dp2187
g67
(dp2188
sg76
g72
sg69
(lp2189
g62
(g83
g64
NtRp2190
(dp2191
g67
(dp2192
g87
g88
ssg76
g2186
sg69
(lp2193
S'is_local'
p2194
asbag62
(g83
g64
NtRp2195
(dp2196
g67
(dp2197
g94
g95
ssg76
g2186
sg69
(lp2198
S':'
asbag62
(g83
g64
NtRp2199
(dp2200
g67
(dp2201
sg76
g2186
sg69
(lp2202
g62
(g63
g64
NtRp2203
(dp2204
g67
(dp2205
g75
I5
ssg76
g2199
sg69
(lp2206
g1600
asbasbasbag62
(g78
g64
NtRp2207
(dp2208
g67
(dp2209
sg76
g72
sg69
(lp2210
g62
(g83
g64
NtRp2211
(dp2212
g67
(dp2213
g87
g88
ssg76
g2207
sg69
(lp2214
S'is_restful'
p2215
asbag62
(g83
g64
NtRp2216
(dp2217
g67
(dp2218
g94
g95
ssg76
g2207
sg69
(lp2219
S':'
asbag62
(g83
g64
NtRp2220
(dp2221
g67
(dp2222
sg76
g2207
sg69
(lp2223
g62
(g63
g64
NtRp2224
(dp2225
g67
(dp2226
g75
I5
ssg76
g2220
sg69
(lp2227
g105
asbasbasbag62
(g78
g64
NtRp2228
(dp2229
g67
(dp2230
sg76
g72
sg69
(lp2231
g62
(g83
g64
NtRp2232
(dp2233
g67
(dp2234
g87
g88
ssg76
g2228
sg69
(lp2235
S'now'
p2236
asbag62
(g83
g64
NtRp2237
(dp2238
g67
(dp2239
g94
g95
ssg76
g2228
sg69
(lp2240
S':'
asbag62
(g83
g64
NtRp2241
(dp2242
g67
(dp2243
sg76
g2228
sg69
(lp2244
g62
(g63
g64
NtRp2245
(dp2246
g67
(dp2247
g75
I5
ssg76
g2241
sg69
(lp2248
S'datetime.datetime(2013, 2, 7, 11, 40, 13, 359516)'
p2249
asbasbasbag62
(g78
g64
NtRp2250
(dp2251
g67
(dp2252
sg76
g72
sg69
(lp2253
g62
(g83
g64
NtRp2254
(dp2255
g67
(dp2256
g87
g88
ssg76
g2250
sg69
(lp2257
S'post_vars'
p2258
asbag62
(g83
g64
NtRp2259
(dp2260
g67
(dp2261
g94
g95
ssg76
g2250
sg69
(lp2262
S':'
asbag62
(g83
g64
NtRp2263
(dp2264
g67
(dp2265
sg76
g2250
sg69
(lp2266
g62
(g63
g64
NtRp2267
(dp2268
g67
(dp2269
g75
I5
ssg76
g2263
sg69
(lp2270
g62
(g71
g64
NtRp2271
(dp2272
g67
(dp2273
g75
I4
ssg76
Nsg69
(lp2274
sbasbasbasbag62
(g78
g64
NtRp2275
(dp2276
g67
(dp2277
sg76
g72
sg69
(lp2278
g62
(g83
g64
NtRp2279
(dp2280
g67
(dp2281
g87
g88
ssg76
g2275
sg69
(lp2282
S'raw_args'
p2283
asbag62
(g83
g64
NtRp2284
(dp2285
g67
(dp2286
g94
g95
ssg76
g2275
sg69
(lp2287
S':'
asbag62
(g83
g64
NtRp2288
(dp2289
g67
(dp2290
sg76
g2275
sg69
(lp2291
g62
(g63
g64
NtRp2292
(dp2293
g67
(dp2294
g75
I5
ssg76
g2288
sg69
(lp2295
S'/131'
p2296
asbasbasbag62
(g78
g64
NtRp2297
(dp2298
g67
(dp2299
sg76
g72
sg69
(lp2300
g62
(g83
g64
NtRp2301
(dp2302
g67
(dp2303
g87
g88
ssg76
g2297
sg69
(lp2304
S'raw_extension'
p2305
asbag62
(g83
g64
NtRp2306
(dp2307
g67
(dp2308
g94
g95
ssg76
g2297
sg69
(lp2309
S':'
asbag62
(g83
g64
NtRp2310
(dp2311
g67
(dp2312
sg76
g2297
sg69
(lp2313
g62
(g63
g64
NtRp2314
(dp2315
g67
(dp2316
g75
I5
ssg76
g2310
sg69
(lp2317
S'None'
p2318
asbasbasbag62
(g78
g64
NtRp2319
(dp2320
g67
(dp2321
sg76
g72
sg69
(lp2322
g62
(g83
g64
NtRp2323
(dp2324
g67
(dp2325
g87
g88
ssg76
g2319
sg69
(lp2326
S'url'
p2327
asbag62
(g83
g64
NtRp2328
(dp2329
g67
(dp2330
g94
g95
ssg76
g2319
sg69
(lp2331
S':'
asbag62
(g83
g64
NtRp2332
(dp2333
g67
(dp2334
sg76
g2319
sg69
(lp2335
g62
(g63
g64
NtRp2336
(dp2337
g67
(dp2338
g75
I5
ssg76
g2332
sg69
(lp2339
g1168
asbasbasbag62
(g78
g64
NtRp2340
(dp2341
g67
(dp2342
sg76
g72
sg69
(lp2343
g62
(g83
g64
NtRp2344
(dp2345
g67
(dp2346
g87
g88
ssg76
g2340
sg69
(lp2347
S'utcnow'
p2348
asbag62
(g83
g64
NtRp2349
(dp2350
g67
(dp2351
g94
g95
ssg76
g2340
sg69
(lp2352
S':'
asbag62
(g83
g64
NtRp2353
(dp2354
g67
(dp2355
sg76
g2340
sg69
(lp2356
g62
(g63
g64
NtRp2357
(dp2358
g67
(dp2359
g75
I5
ssg76
g2353
sg69
(lp2360
S'datetime.datetime(2013, 2, 7, 17, 40, 13, 359523)'
p2361
asbasbasbag62
(g78
g64
NtRp2362
(dp2363
g67
(dp2364
sg76
g72
sg69
(lp2365
g62
(g83
g64
NtRp2366
(dp2367
g67
(dp2368
g87
g88
ssg76
g2362
sg69
(lp2369
S'uuid'
p2370
asbag62
(g83
g64
NtRp2371
(dp2372
g67
(dp2373
g94
g95
ssg76
g2362
sg69
(lp2374
S':'
asbag62
(g83
g64
NtRp2375
(dp2376
g67
(dp2377
sg76
g2362
sg69
(lp2378
g62
(g63
g64
NtRp2379
(dp2380
g67
(dp2381
g75
I5
ssg76
g2375
sg69
(lp2382
S'Betsy/127.0.0.1.2013-02-07.11-40-13.6fa64a63-2eb7-476f-9470-30630da1d9ff'
p2383
asbasbasbag62
(g78
g64
NtRp2384
(dp2385
g67
(dp2386
sg76
g72
sg69
(lp2387
g62
(g83
g64
NtRp2388
(dp2389
g67
(dp2390
g87
g88
ssg76
g2384
sg69
(lp2391
S'vars'
p2392
asbag62
(g83
g64
NtRp2393
(dp2394
g67
(dp2395
g94
g95
ssg76
g2384
sg69
(lp2396
S':'
asbag62
(g83
g64
NtRp2397
(dp2398
g67
(dp2399
sg76
g2384
sg69
(lp2400
g62
(g63
g64
NtRp2401
(dp2402
g67
(dp2403
g75
I5
ssg76
g2397
sg69
(lp2404
g62
(g71
g64
NtRp2405
(dp2406
g67
(dp2407
g75
I4
ssg76
Nsg69
(lp2408
sbasbasbasbag62
(g78
g64
NtRp2409
(dp2410
g67
(dp2411
sg76
g72
sg69
(lp2412
g62
(g83
g64
NtRp2413
(dp2414
g67
(dp2415
g87
g88
ssg76
g2409
sg69
(lp2416
S'wsgi'
p2417
asbag62
(g83
g64
NtRp2418
(dp2419
g67
(dp2420
g94
g95
ssg76
g2409
sg69
(lp2421
S':'
asbag62
(g83
g64
NtRp2422
(dp2423
g67
(dp2424
sg76
g2409
sg69
(lp2425
g62
(g63
g64
NtRp2426
(dp2427
g67
(dp2428
g75
I5
ssg76
g2422
sg69
(lp2429
g62
(g71
g64
NtRp2430
(dp2431
g67
(dp2432
g75
I4
ssg76
Nsg69
(lp2433
g62
(g78
g64
NtRp2434
(dp2435
g67
(dp2436
sg76
g2430
sg69
(lp2437
g62
(g83
g64
NtRp2438
(dp2439
g67
(dp2440
g87
g88
ssg76
g2434
sg69
(lp2441
S'environ'
p2442
asbag62
(g83
g64
NtRp2443
(dp2444
g67
(dp2445
g94
g95
ssg76
g2434
sg69
(lp2446
S':'
asbag62
(g83
g64
NtRp2447
(dp2448
g67
(dp2449
sg76
g2434
sg69
(lp2450
g62
(g63
g64
NtRp2451
(dp2452
g67
(dp2453
g75
I4
ssg76
g2447
sg69
(lp2454
g62
(g71
g64
NtRp2455
(dp2456
g67
(dp2457
g75
I3
ssg76
Nsg69
(lp2458
g62
(g78
g64
NtRp2459
(dp2460
g67
(dp2461
sg76
g2455
sg69
(lp2462
g62
(g83
g64
NtRp2463
(dp2464
g67
(dp2465
g87
g88
ssg76
g2459
sg69
(lp2466
S'HTTP_ACCEPT'
p2467
asbag62
(g83
g64
NtRp2468
(dp2469
g67
(dp2470
g94
g95
ssg76
g2459
sg69
(lp2471
S':'
asbag62
(g83
g64
NtRp2472
(dp2473
g67
(dp2474
sg76
g2459
sg69
(lp2475
g62
(g63
g64
NtRp2476
(dp2477
g67
(dp2478
g75
I3
ssg76
g2472
sg69
(lp2479
g860
asbasbasbag62
(g78
g64
NtRp2480
(dp2481
g67
(dp2482
sg76
g2455
sg69
(lp2483
g62
(g83
g64
NtRp2484
(dp2485
g67
(dp2486
g87
g88
ssg76
g2480
sg69
(lp2487
S'HTTP_ACCEPT_ENCODING'
p2488
asbag62
(g83
g64
NtRp2489
(dp2490
g67
(dp2491
g94
g95
ssg76
g2480
sg69
(lp2492
S':'
asbag62
(g83
g64
NtRp2493
(dp2494
g67
(dp2495
sg76
g2480
sg69
(lp2496
g62
(g63
g64
NtRp2497
(dp2498
g67
(dp2499
g75
I3
ssg76
g2493
sg69
(lp2500
g882
asbasbasbag62
(g78
g64
NtRp2501
(dp2502
g67
(dp2503
sg76
g2455
sg69
(lp2504
g62
(g83
g64
NtRp2505
(dp2506
g67
(dp2507
g87
g88
ssg76
g2501
sg69
(lp2508
S'HTTP_ACCEPT_LANGUAGE'
p2509
asbag62
(g83
g64
NtRp2510
(dp2511
g67
(dp2512
g94
g95
ssg76
g2501
sg69
(lp2513
S':'
asbag62
(g83
g64
NtRp2514
(dp2515
g67
(dp2516
sg76
g2501
sg69
(lp2517
g62
(g63
g64
NtRp2518
(dp2519
g67
(dp2520
g75
I3
ssg76
g2514
sg69
(lp2521
g904
asbasbasbag62
(g78
g64
NtRp2522
(dp2523
g67
(dp2524
sg76
g2455
sg69
(lp2525
g62
(g83
g64
NtRp2526
(dp2527
g67
(dp2528
g87
g88
ssg76
g2522
sg69
(lp2529
S'HTTP_CONNECTION'
p2530
asbag62
(g83
g64
NtRp2531
(dp2532
g67
(dp2533
g94
g95
ssg76
g2522
sg69
(lp2534
S':'
asbag62
(g83
g64
NtRp2535
(dp2536
g67
(dp2537
sg76
g2522
sg69
(lp2538
g62
(g63
g64
NtRp2539
(dp2540
g67
(dp2541
g75
I3
ssg76
g2535
sg69
(lp2542
g926
asbasbasbag62
(g78
g64
NtRp2543
(dp2544
g67
(dp2545
sg76
g2455
sg69
(lp2546
g62
(g83
g64
NtRp2547
(dp2548
g67
(dp2549
g87
g88
ssg76
g2543
sg69
(lp2550
S'HTTP_COOKIE'
p2551
asbag62
(g83
g64
NtRp2552
(dp2553
g67
(dp2554
g94
g95
ssg76
g2543
sg69
(lp2555
S':'
asbag62
(g83
g64
NtRp2556
(dp2557
g67
(dp2558
sg76
g2543
sg69
(lp2559
g62
(g63
g64
NtRp2560
(dp2561
g67
(dp2562
g75
I3
ssg76
g2556
sg69
(lp2563
g948
asbasbasbag62
(g78
g64
NtRp2564
(dp2565
g67
(dp2566
sg76
g2455
sg69
(lp2567
g62
(g83
g64
NtRp2568
(dp2569
g67
(dp2570
g87
g88
ssg76
g2564
sg69
(lp2571
S'HTTP_HOST'
p2572
asbag62
(g83
g64
NtRp2573
(dp2574
g67
(dp2575
g94
g95
ssg76
g2564
sg69
(lp2576
S':'
asbag62
(g83
g64
NtRp2577
(dp2578
g67
(dp2579
sg76
g2564
sg69
(lp2580
g62
(g63
g64
NtRp2581
(dp2582
g67
(dp2583
g75
I3
ssg76
g2577
sg69
(lp2584
g970
asbasbasbag62
(g78
g64
NtRp2585
(dp2586
g67
(dp2587
sg76
g2455
sg69
(lp2588
g62
(g83
g64
NtRp2589
(dp2590
g67
(dp2591
g87
g88
ssg76
g2585
sg69
(lp2592
S'HTTP_REFERER'
p2593
asbag62
(g83
g64
NtRp2594
(dp2595
g67
(dp2596
g94
g95
ssg76
g2585
sg69
(lp2597
S':'
asbag62
(g83
g64
NtRp2598
(dp2599
g67
(dp2600
sg76
g2585
sg69
(lp2601
g62
(g63
g64
NtRp2602
(dp2603
g67
(dp2604
g75
I3
ssg76
g2598
sg69
(lp2605
g992
asbasbasbag62
(g78
g64
NtRp2606
(dp2607
g67
(dp2608
sg76
g2455
sg69
(lp2609
g62
(g83
g64
NtRp2610
(dp2611
g67
(dp2612
g87
g88
ssg76
g2606
sg69
(lp2613
S'HTTP_USER_AGENT'
p2614
asbag62
(g83
g64
NtRp2615
(dp2616
g67
(dp2617
g94
g95
ssg76
g2606
sg69
(lp2618
S':'
asbag62
(g83
g64
NtRp2619
(dp2620
g67
(dp2621
sg76
g2606
sg69
(lp2622
g62
(g63
g64
NtRp2623
(dp2624
g67
(dp2625
g75
I3
ssg76
g2619
sg69
(lp2626
g1014
asbasbasbag62
(g78
g64
NtRp2627
(dp2628
g67
(dp2629
sg76
g2455
sg69
(lp2630
g62
(g83
g64
NtRp2631
(dp2632
g67
(dp2633
g87
g88
ssg76
g2627
sg69
(lp2634
S'PATH_INFO'
p2635
asbag62
(g83
g64
NtRp2636
(dp2637
g67
(dp2638
g94
g95
ssg76
g2627
sg69
(lp2639
S':'
asbag62
(g83
g64
NtRp2640
(dp2641
g67
(dp2642
sg76
g2627
sg69
(lp2643
g62
(g63
g64
NtRp2644
(dp2645
g67
(dp2646
g75
I3
ssg76
g2640
sg69
(lp2647
g1168
asbasbasbag62
(g78
g64
NtRp2648
(dp2649
g67
(dp2650
sg76
g2455
sg69
(lp2651
g62
(g83
g64
NtRp2652
(dp2653
g67
(dp2654
g87
g88
ssg76
g2648
sg69
(lp2655
S'QUERY_STRING'
p2656
asbag62
(g83
g64
NtRp2657
(dp2658
g67
(dp2659
g94
g95
ssg76
g2648
sg69
(lp2660
S':'
asbag62
(g83
g64
NtRp2661
(dp2662
g67
(dp2663
sg76
g2648
sg69
(lp2664
g62
(g63
g64
NtRp2665
(dp2666
g67
(dp2667
g75
I3
ssg76
g2661
sg69
(lp2668
S''
asbasbasbag62
(g78
g64
NtRp2669
(dp2670
g67
(dp2671
sg76
g2455
sg69
(lp2672
g62
(g83
g64
NtRp2673
(dp2674
g67
(dp2675
g87
g88
ssg76
g2669
sg69
(lp2676
S'REMOTE_ADDR'
p2677
asbag62
(g83
g64
NtRp2678
(dp2679
g67
(dp2680
g94
g95
ssg76
g2669
sg69
(lp2681
S':'
asbag62
(g83
g64
NtRp2682
(dp2683
g67
(dp2684
sg76
g2669
sg69
(lp2685
g62
(g63
g64
NtRp2686
(dp2687
g67
(dp2688
g75
I3
ssg76
g2682
sg69
(lp2689
g230
asbasbasbag62
(g78
g64
NtRp2690
(dp2691
g67
(dp2692
sg76
g2455
sg69
(lp2693
g62
(g83
g64
NtRp2694
(dp2695
g67
(dp2696
g87
g88
ssg76
g2690
sg69
(lp2697
S'REMOTE_PORT'
p2698
asbag62
(g83
g64
NtRp2699
(dp2700
g67
(dp2701
g94
g95
ssg76
g2690
sg69
(lp2702
S':'
asbag62
(g83
g64
NtRp2703
(dp2704
g67
(dp2705
sg76
g2690
sg69
(lp2706
g62
(g63
g64
NtRp2707
(dp2708
g67
(dp2709
g75
I3
ssg76
g2703
sg69
(lp2710
g1232
asbasbasbag62
(g78
g64
NtRp2711
(dp2712
g67
(dp2713
sg76
g2455
sg69
(lp2714
g62
(g83
g64
NtRp2715
(dp2716
g67
(dp2717
g87
g88
ssg76
g2711
sg69
(lp2718
S'REQUEST_METHOD'
p2719
asbag62
(g83
g64
NtRp2720
(dp2721
g67
(dp2722
g94
g95
ssg76
g2711
sg69
(lp2723
S':'
asbag62
(g83
g64
NtRp2724
(dp2725
g67
(dp2726
sg76
g2711
sg69
(lp2727
g62
(g63
g64
NtRp2728
(dp2729
g67
(dp2730
g75
I3
ssg76
g2724
sg69
(lp2731
g1254
asbasbasbag62
(g78
g64
NtRp2732
(dp2733
g67
(dp2734
sg76
g2455
sg69
(lp2735
g62
(g83
g64
NtRp2736
(dp2737
g67
(dp2738
g87
g88
ssg76
g2732
sg69
(lp2739
S'REQUEST_URI'
p2740
asbag62
(g83
g64
NtRp2741
(dp2742
g67
(dp2743
g94
g95
ssg76
g2732
sg69
(lp2744
S':'
asbag62
(g83
g64
NtRp2745
(dp2746
g67
(dp2747
sg76
g2732
sg69
(lp2748
g62
(g63
g64
NtRp2749
(dp2750
g67
(dp2751
g75
I3
ssg76
g2745
sg69
(lp2752
g1168
asbasbasbag62
(g78
g64
NtRp2753
(dp2754
g67
(dp2755
sg76
g2455
sg69
(lp2756
g62
(g83
g64
NtRp2757
(dp2758
g67
(dp2759
g87
g88
ssg76
g2753
sg69
(lp2760
S'SCRIPT_NAME'
p2761
asbag62
(g83
g64
NtRp2762
(dp2763
g67
(dp2764
g94
g95
ssg76
g2753
sg69
(lp2765
S':'
asbag62
(g83
g64
NtRp2766
(dp2767
g67
(dp2768
sg76
g2753
sg69
(lp2769
g62
(g63
g64
NtRp2770
(dp2771
g67
(dp2772
g75
I3
ssg76
g2766
sg69
(lp2773
S''
asbasbasbag62
(g78
g64
NtRp2774
(dp2775
g67
(dp2776
sg76
g2455
sg69
(lp2777
g62
(g83
g64
NtRp2778
(dp2779
g67
(dp2780
g87
g88
ssg76
g2774
sg69
(lp2781
S'SERVER_NAME'
p2782
asbag62
(g83
g64
NtRp2783
(dp2784
g67
(dp2785
g94
g95
ssg76
g2774
sg69
(lp2786
S':'
asbag62
(g83
g64
NtRp2787
(dp2788
g67
(dp2789
sg76
g2774
sg69
(lp2790
g62
(g63
g64
NtRp2791
(dp2792
g67
(dp2793
g75
I3
ssg76
g2787
sg69
(lp2794
g1133
asbasbasbag62
(g78
g64
NtRp2795
(dp2796
g67
(dp2797
sg76
g2455
sg69
(lp2798
g62
(g83
g64
NtRp2799
(dp2800
g67
(dp2801
g87
g88
ssg76
g2795
sg69
(lp2802
S'SERVER_PORT'
p2803
asbag62
(g83
g64
NtRp2804
(dp2805
g67
(dp2806
g94
g95
ssg76
g2795
sg69
(lp2807
S':'
asbag62
(g83
g64
NtRp2808
(dp2809
g67
(dp2810
sg76
g2795
sg69
(lp2811
g62
(g63
g64
NtRp2812
(dp2813
g67
(dp2814
g75
I3
ssg76
g2808
sg69
(lp2815
g1339
asbasbasbag62
(g78
g64
NtRp2816
(dp2817
g67
(dp2818
sg76
g2455
sg69
(lp2819
g62
(g83
g64
NtRp2820
(dp2821
g67
(dp2822
g87
g88
ssg76
g2816
sg69
(lp2823
S'SERVER_PROTOCOL'
p2824
asbag62
(g83
g64
NtRp2825
(dp2826
g67
(dp2827
g94
g95
ssg76
g2816
sg69
(lp2828
S':'
asbag62
(g83
g64
NtRp2829
(dp2830
g67
(dp2831
sg76
g2816
sg69
(lp2832
g62
(g63
g64
NtRp2833
(dp2834
g67
(dp2835
g75
I3
ssg76
g2829
sg69
(lp2836
g1361
asbasbasbag62
(g78
g64
NtRp2837
(dp2838
g67
(dp2839
sg76
g2455
sg69
(lp2840
g62
(g83
g64
NtRp2841
(dp2842
g67
(dp2843
g87
g88
ssg76
g2837
sg69
(lp2844
S'SERVER_SOFTWARE'
p2845
asbag62
(g83
g64
NtRp2846
(dp2847
g67
(dp2848
g94
g95
ssg76
g2837
sg69
(lp2849
S':'
asbag62
(g83
g64
NtRp2850
(dp2851
g67
(dp2852
sg76
g2837
sg69
(lp2853
g62
(g63
g64
NtRp2854
(dp2855
g67
(dp2856
g75
I3
ssg76
g2850
sg69
(lp2857
g1383
asbasbasbag62
(g78
g64
NtRp2858
(dp2859
g67
(dp2860
sg76
g2455
sg69
(lp2861
g62
(g83
g64
NtRp2862
(dp2863
g67
(dp2864
g87
g88
ssg76
g2858
sg69
(lp2865
S'wsgi.errors'
p2866
asbag62
(g83
g64
NtRp2867
(dp2868
g67
(dp2869
g94
g95
ssg76
g2858
sg69
(lp2870
S':'
asbag62
(g83
g64
NtRp2871
(dp2872
g67
(dp2873
sg76
g2858
sg69
(lp2874
g62
(g63
g64
NtRp2875
(dp2876
g67
(dp2877
g75
I3
ssg76
g2871
sg69
(lp2878
S"<open file '<stderr>', mode 'w' at 0x2b62e6c3a270>"
p2879
asbasbasbag62
(g78
g64
NtRp2880
(dp2881
g67
(dp2882
sg76
g2455
sg69
(lp2883
g62
(g83
g64
NtRp2884
(dp2885
g67
(dp2886
g87
g88
ssg76
g2880
sg69
(lp2887
S'wsgi.file_wrapper'
p2888
asbag62
(g83
g64
NtRp2889
(dp2890
g67
(dp2891
g94
g95
ssg76
g2880
sg69
(lp2892
S':'
asbag62
(g83
g64
NtRp2893
(dp2894
g67
(dp2895
sg76
g2880
sg69
(lp2896
g62
(g63
g64
NtRp2897
(dp2898
g67
(dp2899
g75
I3
ssg76
g2893
sg69
(lp2900
S'<class wsgiref.util.FileWrapper at 0x16668a78>'
p2901
asbasbasbag62
(g78
g64
NtRp2902
(dp2903
g67
(dp2904
sg76
g2455
sg69
(lp2905
g62
(g83
g64
NtRp2906
(dp2907
g67
(dp2908
g87
g88
ssg76
g2902
sg69
(lp2909
S'wsgi.input'
p2910
asbag62
(g83
g64
NtRp2911
(dp2912
g67
(dp2913
g94
g95
ssg76
g2902
sg69
(lp2914
S':'
asbag62
(g83
g64
NtRp2915
(dp2916
g67
(dp2917
sg76
g2902
sg69
(lp2918
g62
(g63
g64
NtRp2919
(dp2920
g67
(dp2921
g75
I3
ssg76
g2915
sg69
(lp2922
S'<cStringIO.StringO object at 0x173f1ce0>'
p2923
asbasbasbag62
(g78
g64
NtRp2924
(dp2925
g67
(dp2926
sg76
g2455
sg69
(lp2927
g62
(g83
g64
NtRp2928
(dp2929
g67
(dp2930
g87
g88
ssg76
g2924
sg69
(lp2931
S'wsgi.multiprocess'
p2932
asbag62
(g83
g64
NtRp2933
(dp2934
g67
(dp2935
g94
g95
ssg76
g2924
sg69
(lp2936
S':'
asbag62
(g83
g64
NtRp2937
(dp2938
g67
(dp2939
sg76
g2924
sg69
(lp2940
g62
(g63
g64
NtRp2941
(dp2942
g67
(dp2943
g75
I3
ssg76
g2937
sg69
(lp2944
g105
asbasbasbag62
(g78
g64
NtRp2945
(dp2946
g67
(dp2947
sg76
g2455
sg69
(lp2948
g62
(g83
g64
NtRp2949
(dp2950
g67
(dp2951
g87
g88
ssg76
g2945
sg69
(lp2952
S'wsgi.multithread'
p2953
asbag62
(g83
g64
NtRp2954
(dp2955
g67
(dp2956
g94
g95
ssg76
g2945
sg69
(lp2957
S':'
asbag62
(g83
g64
NtRp2958
(dp2959
g67
(dp2960
sg76
g2945
sg69
(lp2961
g62
(g63
g64
NtRp2962
(dp2963
g67
(dp2964
g75
I3
ssg76
g2958
sg69
(lp2965
g1600
asbasbasbag62
(g78
g64
NtRp2966
(dp2967
g67
(dp2968
sg76
g2455
sg69
(lp2969
g62
(g83
g64
NtRp2970
(dp2971
g67
(dp2972
g87
g88
ssg76
g2966
sg69
(lp2973
S'wsgi.run_once'
p2974
asbag62
(g83
g64
NtRp2975
(dp2976
g67
(dp2977
g94
g95
ssg76
g2966
sg69
(lp2978
S':'
asbag62
(g83
g64
NtRp2979
(dp2980
g67
(dp2981
sg76
g2966
sg69
(lp2982
g62
(g63
g64
NtRp2983
(dp2984
g67
(dp2985
g75
I3
ssg76
g2979
sg69
(lp2986
g105
asbasbasbag62
(g78
g64
NtRp2987
(dp2988
g67
(dp2989
sg76
g2455
sg69
(lp2990
g62
(g83
g64
NtRp2991
(dp2992
g67
(dp2993
g87
g88
ssg76
g2987
sg69
(lp2994
S'wsgi.url_scheme'
p2995
asbag62
(g83
g64
NtRp2996
(dp2997
g67
(dp2998
g94
g95
ssg76
g2987
sg69
(lp2999
S':'
asbag62
(g83
g64
NtRp3000
(dp3001
g67
(dp3002
sg76
g2987
sg69
(lp3003
g62
(g63
g64
NtRp3004
(dp3005
g67
(dp3006
g75
I3
ssg76
g3000
sg69
(lp3007
g1643
asbasbasbag62
(g78
g64
NtRp3008
(dp3009
g67
(dp3010
sg76
g2455
sg69
(lp3011
g62
(g83
g64
NtRp3012
(dp3013
g67
(dp3014
g87
g88
ssg76
g3008
sg69
(lp3015
S'wsgi.version'
p3016
asbag62
(g83
g64
NtRp3017
(dp3018
g67
(dp3019
g94
g95
ssg76
g3008
sg69
(lp3020
S':'
asbag62
(g83
g64
NtRp3021
(dp3022
g67
(dp3023
sg76
g3008
sg69
(lp3024
g62
(g63
g64
NtRp3025
(dp3026
g67
(dp3027
g75
I3
ssg76
g3021
sg69
(lp3028
S'1'
asbasbasbasbasbasbasbasbasbasbasbasbasbsS'frames'
p3029
(lp3030
(dp3031
S'file'
p3032
S'/home/xchen/web2py/gluon/restricted.py'
p3033
sS'dump'
p3034
(dp3035
S'environment'
p3036
S"{'A': <class 'gluon.html.A'>, 'Auth': <class 'gluon.tools.Auth'>, 'B': <class 'gluon.html.B'>, 'BEAUTIFY': <class 'gluon.html.BEAUTIFY'>, 'BODY': <class 'gluon.html.BODY'>, 'BR': <class 'gluon.html.BR'>, 'BUTTON': <class 'gluon.html.BUTTON'>, 'CAT': <class 'gluon.html.CAT'>, 'CENTER': <class 'gluon.html.CENTER'>, 'CLEANUP': <class 'gluon.validators.CLEANUP'>, ...}"
p3037
sS'ccode'
p3038
S'<code object <module> at 0x172e4230, file "/home...tions/Betsy/views/default/show_job.html", line 1>'
p3039
ssS'lnum'
p3040
I212
sS'lines'
p3041
(dp3042
I207
S'    try:'
p3043
sI208
S'        if isinstance(code, types.CodeType):'
p3044
sI209
S'            ccode = code'
p3045
sI210
S'        else:'
p3046
sI211
S'            ccode = compile2(code, layer)'
p3047
sI212
S'        exec ccode in environment'
p3048
sI213
S'    except HTTP:'
p3049
sI214
S'        raise'
p3050
sI215
S'    except RestrictedError:'
p3051
sI216
S'        # do not encapsulate (obfuscate) the original RestrictedError'
p3052
ssS'call'
p3053
S'(code=\'response.write(\\\'<!DOCTYPE html>\\\\n<!-- paulirish...."></script>\\\\n</body>\\\\n</html>\\\\n\\\\n\\\', escape=False)\', environment={\'A\': <class \'gluon.html.A\'>, \'Auth\': <class \'gluon.tools.Auth\'>, \'B\': <class \'gluon.html.B\'>, \'BEAUTIFY\': <class \'gluon.html.BEAUTIFY\'>, \'BODY\': <class \'gluon.html.BODY\'>, \'BR\': <class \'gluon.html.BR\'>, \'BUTTON\': <class \'gluon.html.BUTTON\'>, \'CAT\': <class \'gluon.html.CAT\'>, \'CENTER\': <class \'gluon.html.CENTER\'>, \'CLEANUP\': <class \'gluon.validators.CLEANUP\'>, ...}, layer=\'/home/xchen/web2py/applications/Betsy/views/default/show_job.html\')'
p3054
sS'func'
p3055
S'restricted'
p3056
sa(dp3057
g3032
S'/home/xchen/web2py/applications/Betsy/views/default/show_job.html'
p3058
sg3034
(dp3059
sg3040
I91
sg3041
(dp3060
I96
S"response.write('\\n', escape=False)"
p3061
sI97
S"response.write('\\n            ', escape=False)"
p3062
sI98
S"response.write('\\n        </div>\\n\\n        ', escape=False)"
p3063
sI99
S'if right_sidebar_enabled:'
p3064
sI100
S'    response.write(\'\\n        <div class="span3">\\n            \', escape=False)'
p3065
sI101
S"    response.write('\\n            <h3>Right Sidebar</h3>\\n            <p></p>\\n            ', escape=False)"
p3066
sI82
S"response.write('</h2>\\n', escape=False)"
p3067
sI83
S'for i in range(len(text)):'
p3068
sI84
S"    response.write('\\n', escape=False)"
p3069
sI85
S'    if text[i]==newtext[i]:'
p3070
sI86
S"        response.write('\\n\\t\\t', escape=False)"
p3071
sI87
S'        response.write(text[i])'
p3072
sI88
S"        response.write('<br />\\n\\t', escape=False)"
p3073
sI89
S'    else:'
p3074
sI90
S"        response.write('\\n', escape=False)"
p3075
sI91
S'        response.write(A(text[i],_href=file(newtext[i].strip()),_src=newtext[i].strip()))'
p3076
sI92
S"        response.write('<br />\\n    ', escape=False)"
p3077
sI93
S'        pass'
p3078
sI94
S"    response.write('\\n', escape=False)"
p3079
sI95
S'    pass'
p3080
ssg3053
S'()'
p3081
sg3055
S'<module>'
p3082
sasS'pyver'
p3083
S'Python 2.7.3: /usr/local/bin/python'
p3084
sS'session'
p3085
g62
(g63
g64
NtRp3086
(dp3087
g67
(dp3088
sg69
(lp3089
g62
(g71
g64
NtRp3090
(dp3091
g67
(dp3092
g75
I5
ssg76
Nsg69
(lp3093
g62
(g78
g64
NtRp3094
(dp3095
g67
(dp3096
sg76
g3090
sg69
(lp3097
g62
(g83
g64
NtRp3098
(dp3099
g67
(dp3100
g87
g88
ssg76
g3094
sg69
(lp3101
S'auth'
p3102
asbag62
(g83
g64
NtRp3103
(dp3104
g67
(dp3105
g94
g95
ssg76
g3094
sg69
(lp3106
S':'
asbag62
(g83
g64
NtRp3107
(dp3108
g67
(dp3109
sg76
g3094
sg69
(lp3110
g62
(g63
g64
NtRp3111
(dp3112
g67
(dp3113
g75
I5
ssg76
g3107
sg69
(lp3114
g62
(g71
g64
NtRp3115
(dp3116
g67
(dp3117
g75
I4
ssg76
Nsg69
(lp3118
g62
(g78
g64
NtRp3119
(dp3120
g67
(dp3121
sg76
g3115
sg69
(lp3122
g62
(g83
g64
NtRp3123
(dp3124
g67
(dp3125
g87
g88
ssg76
g3119
sg69
(lp3126
S'expiration'
p3127
asbag62
(g83
g64
NtRp3128
(dp3129
g67
(dp3130
g94
g95
ssg76
g3119
sg69
(lp3131
S':'
asbag62
(g83
g64
NtRp3132
(dp3133
g67
(dp3134
sg76
g3119
sg69
(lp3135
g62
(g63
g64
NtRp3136
(dp3137
g67
(dp3138
g75
I4
ssg76
g3132
sg69
(lp3139
S'2592000'
p3140
asbasbasbag62
(g78
g64
NtRp3141
(dp3142
g67
(dp3143
sg76
g3115
sg69
(lp3144
g62
(g83
g64
NtRp3145
(dp3146
g67
(dp3147
g87
g88
ssg76
g3141
sg69
(lp3148
S'hmac_key'
p3149
asbag62
(g83
g64
NtRp3150
(dp3151
g67
(dp3152
g94
g95
ssg76
g3141
sg69
(lp3153
S':'
asbag62
(g83
g64
NtRp3154
(dp3155
g67
(dp3156
sg76
g3141
sg69
(lp3157
g62
(g63
g64
NtRp3158
(dp3159
g67
(dp3160
g75
I4
ssg76
g3154
sg69
(lp3161
S'739afc94-a36b-429c-8715-edcd03ea4351'
p3162
asbasbasbag62
(g78
g64
NtRp3163
(dp3164
g67
(dp3165
sg76
g3115
sg69
(lp3166
g62
(g83
g64
NtRp3167
(dp3168
g67
(dp3169
g87
g88
ssg76
g3163
sg69
(lp3170
S'last_visit'
p3171
asbag62
(g83
g64
NtRp3172
(dp3173
g67
(dp3174
g94
g95
ssg76
g3163
sg69
(lp3175
S':'
asbag62
(g83
g64
NtRp3176
(dp3177
g67
(dp3178
sg76
g3163
sg69
(lp3179
g62
(g63
g64
NtRp3180
(dp3181
g67
(dp3182
g75
I4
ssg76
g3176
sg69
(lp3183
S'datetime.datetime(2013, 2, 4, 10, 24, 37, 237452)'
p3184
asbasbasbag62
(g78
g64
NtRp3185
(dp3186
g67
(dp3187
sg76
g3115
sg69
(lp3188
g62
(g83
g64
NtRp3189
(dp3190
g67
(dp3191
g87
g88
ssg76
g3185
sg69
(lp3192
S'remember'
p3193
asbag62
(g83
g64
NtRp3194
(dp3195
g67
(dp3196
g94
g95
ssg76
g3185
sg69
(lp3197
S':'
asbag62
(g83
g64
NtRp3198
(dp3199
g67
(dp3200
sg76
g3185
sg69
(lp3201
g62
(g63
g64
NtRp3202
(dp3203
g67
(dp3204
g75
I4
ssg76
g3198
sg69
(lp3205
g1600
asbasbasbag62
(g78
g64
NtRp3206
(dp3207
g67
(dp3208
sg76
g3115
sg69
(lp3209
g62
(g83
g64
NtRp3210
(dp3211
g67
(dp3212
g87
g88
ssg76
g3206
sg69
(lp3213
S'user'
p3214
asbag62
(g83
g64
NtRp3215
(dp3216
g67
(dp3217
g94
g95
ssg76
g3206
sg69
(lp3218
S':'
asbag62
(g83
g64
NtRp3219
(dp3220
g67
(dp3221
sg76
g3206
sg69
(lp3222
g62
(g63
g64
NtRp3223
(dp3224
g67
(dp3225
g75
I4
ssg76
g3219
sg69
(lp3226
g62
(g71
g64
NtRp3227
(dp3228
g67
(dp3229
g75
I3
ssg76
Nsg69
(lp3230
g62
(g78
g64
NtRp3231
(dp3232
g67
(dp3233
sg76
g3227
sg69
(lp3234
g62
(g83
g64
NtRp3235
(dp3236
g67
(dp3237
g87
g88
ssg76
g3231
sg69
(lp3238
S'email'
p3239
asbag62
(g83
g64
NtRp3240
(dp3241
g67
(dp3242
g94
g95
ssg76
g3231
sg69
(lp3243
S':'
asbag62
(g83
g64
NtRp3244
(dp3245
g67
(dp3246
sg76
g3231
sg69
(lp3247
g62
(g63
g64
NtRp3248
(dp3249
g67
(dp3250
g75
I3
ssg76
g3244
sg69
(lp3251
S'xiaoling.chen@uth.tmc.edu'
p3252
asbasbasbag62
(g78
g64
NtRp3253
(dp3254
g67
(dp3255
sg76
g3227
sg69
(lp3256
g62
(g83
g64
NtRp3257
(dp3258
g67
(dp3259
g87
g88
ssg76
g3253
sg69
(lp3260
S'first_name'
p3261
asbag62
(g83
g64
NtRp3262
(dp3263
g67
(dp3264
g94
g95
ssg76
g3253
sg69
(lp3265
S':'
asbag62
(g83
g64
NtRp3266
(dp3267
g67
(dp3268
sg76
g3253
sg69
(lp3269
g62
(g63
g64
NtRp3270
(dp3271
g67
(dp3272
g75
I3
ssg76
g3266
sg69
(lp3273
S'Xiaoling'
p3274
asbasbasbag62
(g78
g64
NtRp3275
(dp3276
g67
(dp3277
sg76
g3227
sg69
(lp3278
g62
(g83
g64
NtRp3279
(dp3280
g67
(dp3281
g87
g88
ssg76
g3275
sg69
(lp3282
S'id'
p3283
asbag62
(g83
g64
NtRp3284
(dp3285
g67
(dp3286
g94
g95
ssg76
g3275
sg69
(lp3287
S':'
asbag62
(g83
g64
NtRp3288
(dp3289
g67
(dp3290
sg76
g3275
sg69
(lp3291
g62
(g63
g64
NtRp3292
(dp3293
g67
(dp3294
g75
I3
ssg76
g3288
sg69
(lp3295
S'1'
asbasbasbag62
(g78
g64
NtRp3296
(dp3297
g67
(dp3298
sg76
g3227
sg69
(lp3299
g62
(g83
g64
NtRp3300
(dp3301
g67
(dp3302
g87
g88
ssg76
g3296
sg69
(lp3303
S'last_name'
p3304
asbag62
(g83
g64
NtRp3305
(dp3306
g67
(dp3307
g94
g95
ssg76
g3296
sg69
(lp3308
S':'
asbag62
(g83
g64
NtRp3309
(dp3310
g67
(dp3311
sg76
g3296
sg69
(lp3312
g62
(g63
g64
NtRp3313
(dp3314
g67
(dp3315
g75
I3
ssg76
g3309
sg69
(lp3316
S'Chen'
p3317
asbasbasbag62
(g78
g64
NtRp3318
(dp3319
g67
(dp3320
sg76
g3227
sg69
(lp3321
g62
(g83
g64
NtRp3322
(dp3323
g67
(dp3324
g87
g88
ssg76
g3318
sg69
(lp3325
S'registration_id'
p3326
asbag62
(g83
g64
NtRp3327
(dp3328
g67
(dp3329
g94
g95
ssg76
g3318
sg69
(lp3330
S':'
asbag62
(g83
g64
NtRp3331
(dp3332
g67
(dp3333
sg76
g3318
sg69
(lp3334
g62
(g63
g64
NtRp3335
(dp3336
g67
(dp3337
g75
I3
ssg76
g3331
sg69
(lp3338
S''
asbasbasbag62
(g78
g64
NtRp3339
(dp3340
g67
(dp3341
sg76
g3227
sg69
(lp3342
g62
(g83
g64
NtRp3343
(dp3344
g67
(dp3345
g87
g88
ssg76
g3339
sg69
(lp3346
S'registration_key'
p3347
asbag62
(g83
g64
NtRp3348
(dp3349
g67
(dp3350
g94
g95
ssg76
g3339
sg69
(lp3351
S':'
asbag62
(g83
g64
NtRp3352
(dp3353
g67
(dp3354
sg76
g3339
sg69
(lp3355
g62
(g63
g64
NtRp3356
(dp3357
g67
(dp3358
g75
I3
ssg76
g3352
sg69
(lp3359
S''
asbasbasbag62
(g78
g64
NtRp3360
(dp3361
g67
(dp3362
sg76
g3227
sg69
(lp3363
g62
(g83
g64
NtRp3364
(dp3365
g67
(dp3366
g87
g88
ssg76
g3360
sg69
(lp3367
S'reset_password_key'
p3368
asbag62
(g83
g64
NtRp3369
(dp3370
g67
(dp3371
g94
g95
ssg76
g3360
sg69
(lp3372
S':'
asbag62
(g83
g64
NtRp3373
(dp3374
g67
(dp3375
sg76
g3360
sg69
(lp3376
g62
(g63
g64
NtRp3377
(dp3378
g67
(dp3379
g75
I3
ssg76
g3373
sg69
(lp3380
S''
asbasbasbasbasbasbasbag62
(g78
g64
NtRp3381
(dp3382
g67
(dp3383
sg76
g3115
sg69
(lp3384
g62
(g83
g64
NtRp3385
(dp3386
g67
(dp3387
g87
g88
ssg76
g3381
sg69
(lp3388
S'user_groups'
p3389
asbag62
(g83
g64
NtRp3390
(dp3391
g67
(dp3392
g94
g95
ssg76
g3381
sg69
(lp3393
S':'
asbag62
(g83
g64
NtRp3394
(dp3395
g67
(dp3396
sg76
g3381
sg69
(lp3397
g62
(g63
g64
NtRp3398
(dp3399
g67
(dp3400
g75
I4
ssg76
g3394
sg69
(lp3401
g62
(g71
g64
NtRp3402
(dp3403
g67
(dp3404
g75
I3
ssg76
Nsg69
(lp3405
g62
(g78
g64
NtRp3406
(dp3407
g67
(dp3408
sg76
g3402
sg69
(lp3409
g62
(g83
g64
NtRp3410
(dp3411
g67
(dp3412
g87
g88
ssg76
g3406
sg69
(lp3413
S'1'
asbag62
(g83
g64
NtRp3414
(dp3415
g67
(dp3416
g94
g95
ssg76
g3406
sg69
(lp3417
S':'
asbag62
(g83
g64
NtRp3418
(dp3419
g67
(dp3420
sg76
g3406
sg69
(lp3421
g62
(g63
g64
NtRp3422
(dp3423
g67
(dp3424
g75
I3
ssg76
g3418
sg69
(lp3425
S'user_1'
p3426
asbasbasbasbasbasbasbasbasbasbasbag62
(g78
g64
NtRp3427
(dp3428
g67
(dp3429
sg76
g3090
sg69
(lp3430
g62
(g83
g64
NtRp3431
(dp3432
g67
(dp3433
g87
g88
ssg76
g3427
sg69
(lp3434
S'cmd'
p3435
asbag62
(g83
g64
NtRp3436
(dp3437
g67
(dp3438
g94
g95
ssg76
g3427
sg69
(lp3439
S':'
asbag62
(g83
g64
NtRp3440
(dp3441
g67
(dp3442
sg76
g3427
sg69
(lp3443
g62
(g63
g64
NtRp3444
(dp3445
g67
(dp3446
g75
I5
ssg76
g3440
sg69
(lp3447
g62
(g71
g64
NtRp3448
(dp3449
g67
(dp3450
g75
I4
ssg76
Nsg69
(lp3451
g62
(g78
g64
NtRp3452
(dp3453
g67
(dp3454
sg76
g3448
sg69
(lp3455
g62
(g83
g64
NtRp3456
(dp3457
g67
(dp3458
sg76
g3452
sg69
(lp3459
g62
(g63
g64
NtRp3460
(dp3461
g67
(dp3462
g75
I4
ssg76
g3456
sg69
(lp3463
S'python'
p3464
asbasbasbag62
(g78
g64
NtRp3465
(dp3466
g67
(dp3467
sg76
g3448
sg69
(lp3468
g62
(g83
g64
NtRp3469
(dp3470
g67
(dp3471
sg76
g3465
sg69
(lp3472
g62
(g63
g64
NtRp3473
(dp3474
g67
(dp3475
g75
I4
ssg76
g3469
sg69
(lp3476
S'/home/xchen/chencode/tmp/try_parallel/queue.py'
p3477
asbasbasbag62
(g78
g64
NtRp3478
(dp3479
g67
(dp3480
sg76
g3448
sg69
(lp3481
g62
(g83
g64
NtRp3482
(dp3483
g67
(dp3484
sg76
g3478
sg69
(lp3485
g62
(g63
g64
NtRp3486
(dp3487
g67
(dp3488
g75
I4
ssg76
g3482
sg69
(lp3489
S'python /home/xchen/chencode/Betsy/scripts/run_protocol.py --protocol normalize_file --input input_signal_file:/home/xchen/chencode/upload/no_table.myfile1.aa20f767627e694e.4368616e675f415230303431302e70636c.pcl --parameters has_missing_value:zero_fill --parameters preprocess:unknown_preprocess'
p3490
asbasbasbasbasbasbasbag62
(g78
g64
NtRp3491
(dp3492
g67
(dp3493
sg76
g3090
sg69
(lp3494
g62
(g83
g64
NtRp3495
(dp3496
g67
(dp3497
g87
g88
ssg76
g3491
sg69
(lp3498
S'command'
p3499
asbag62
(g83
g64
NtRp3500
(dp3501
g67
(dp3502
g94
g95
ssg76
g3491
sg69
(lp3503
S':'
asbag62
(g83
g64
NtRp3504
(dp3505
g67
(dp3506
sg76
g3491
sg69
(lp3507
g62
(g63
g64
NtRp3508
(dp3509
g67
(dp3510
g75
I5
ssg76
g3504
sg69
(lp3511
S'run_protocol.py  --protocol normalize_file --input input_signal_file:myfile1   --parameters has_missing_value:zero_fill --parameters preprocess:unknown_preprocess'
p3512
asbasbasbag62
(g78
g64
NtRp3513
(dp3514
g67
(dp3515
sg76
g3090
sg69
(lp3516
g62
(g83
g64
NtRp3517
(dp3518
g67
(dp3519
g87
g88
ssg76
g3513
sg69
(lp3520
S'flash'
p3521
asbag62
(g83
g64
NtRp3522
(dp3523
g67
(dp3524
g94
g95
ssg76
g3513
sg69
(lp3525
S':'
asbag62
(g83
g64
NtRp3526
(dp3527
g67
(dp3528
sg76
g3513
sg69
(lp3529
g62
(g63
g64
NtRp3530
(dp3531
g67
(dp3532
g75
I5
ssg76
g3526
sg69
(lp3533
S'None'
p3534
asbasbasbag62
(g78
g64
NtRp3535
(dp3536
g67
(dp3537
sg76
g3090
sg69
(lp3538
g62
(g83
g64
NtRp3539
(dp3540
g67
(dp3541
g87
g88
ssg76
g3535
sg69
(lp3542
S'last_orderby'
p3543
asbag62
(g83
g64
NtRp3544
(dp3545
g67
(dp3546
g94
g95
ssg76
g3535
sg69
(lp3547
S':'
asbag62
(g83
g64
NtRp3548
(dp3549
g67
(dp3550
sg76
g3535
sg69
(lp3551
g62
(g63
g64
NtRp3552
(dp3553
g67
(dp3554
g75
I5
ssg76
g3548
sg69
(lp3555
S'None'
p3556
asbasbasbag62
(g78
g64
NtRp3557
(dp3558
g67
(dp3559
sg76
g3090
sg69
(lp3560
g62
(g83
g64
NtRp3561
(dp3562
g67
(dp3563
g87
g88
ssg76
g3557
sg69
(lp3564
S'last_query'
p3565
asbag62
(g83
g64
NtRp3566
(dp3567
g67
(dp3568
g94
g95
ssg76
g3557
sg69
(lp3569
S':'
asbag62
(g83
g64
NtRp3570
(dp3571
g67
(dp3572
sg76
g3557
sg69
(lp3573
g62
(g63
g64
NtRp3574
(dp3575
g67
(dp3576
g75
I5
ssg76
g3570
sg69
(lp3577
S'db.status.id>0'
p3578
asbasbasbag62
(g78
g64
NtRp3579
(dp3580
g67
(dp3581
sg76
g3090
sg69
(lp3582
g62
(g83
g64
NtRp3583
(dp3584
g67
(dp3585
g87
g88
ssg76
g3579
sg69
(lp3586
S'myfile1'
p3587
asbag62
(g83
g64
NtRp3588
(dp3589
g67
(dp3590
g94
g95
ssg76
g3579
sg69
(lp3591
S':'
asbag62
(g83
g64
NtRp3592
(dp3593
g67
(dp3594
sg76
g3579
sg69
(lp3595
g62
(g63
g64
NtRp3596
(dp3597
g67
(dp3598
g75
I5
ssg76
g3592
sg69
(lp3599
S'no_table.myfile1.aa20f767627e694e.4368616e675f415230303431302e70636c.pcl'
p3600
asbasbasbag62
(g78
g64
NtRp3601
(dp3602
g67
(dp3603
sg76
g3090
sg69
(lp3604
g62
(g83
g64
NtRp3605
(dp3606
g67
(dp3607
g87
g88
ssg76
g3601
sg69
(lp3608
S'myfile2'
p3609
asbag62
(g83
g64
NtRp3610
(dp3611
g67
(dp3612
g94
g95
ssg76
g3601
sg69
(lp3613
S':'
asbag62
(g83
g64
NtRp3614
(dp3615
g67
(dp3616
sg76
g3601
sg69
(lp3617
g62
(g63
g64
NtRp3618
(dp3619
g67
(dp3620
g75
I5
ssg76
g3614
sg69
(lp3621
S''
asbasbasbag62
(g78
g64
NtRp3622
(dp3623
g67
(dp3624
sg76
g3090
sg69
(lp3625
g62
(g83
g64
NtRp3626
(dp3627
g67
(dp3628
g87
g88
ssg76
g3622
sg69
(lp3629
S'myfile3'
p3630
asbag62
(g83
g64
NtRp3631
(dp3632
g67
(dp3633
g94
g95
ssg76
g3622
sg69
(lp3634
S':'
asbag62
(g83
g64
NtRp3635
(dp3636
g67
(dp3637
sg76
g3622
sg69
(lp3638
g62
(g63
g64
NtRp3639
(dp3640
g67
(dp3641
g75
I5
ssg76
g3635
sg69
(lp3642
S''
asbasbasbag62
(g78
g64
NtRp3643
(dp3644
g67
(dp3645
sg76
g3090
sg69
(lp3646
g62
(g83
g64
NtRp3647
(dp3648
g67
(dp3649
g87
g88
ssg76
g3643
sg69
(lp3650
S'myfile4'
p3651
asbag62
(g83
g64
NtRp3652
(dp3653
g67
(dp3654
g94
g95
ssg76
g3643
sg69
(lp3655
S':'
asbag62
(g83
g64
NtRp3656
(dp3657
g67
(dp3658
sg76
g3643
sg69
(lp3659
g62
(g63
g64
NtRp3660
(dp3661
g67
(dp3662
g75
I5
ssg76
g3656
sg69
(lp3663
S''
asbasbasbag62
(g78
g64
NtRp3664
(dp3665
g67
(dp3666
sg76
g3090
sg69
(lp3667
g62
(g83
g64
NtRp3668
(dp3669
g67
(dp3670
g87
g88
ssg76
g3664
sg69
(lp3671
S'myfile5'
p3672
asbag62
(g83
g64
NtRp3673
(dp3674
g67
(dp3675
g94
g95
ssg76
g3664
sg69
(lp3676
S':'
asbag62
(g83
g64
NtRp3677
(dp3678
g67
(dp3679
sg76
g3664
sg69
(lp3680
g62
(g63
g64
NtRp3681
(dp3682
g67
(dp3683
g75
I5
ssg76
g3677
sg69
(lp3684
S''
asbasbasbag62
(g78
g64
NtRp3685
(dp3686
g67
(dp3687
sg76
g3090
sg69
(lp3688
g62
(g83
g64
NtRp3689
(dp3690
g67
(dp3691
g87
g88
ssg76
g3685
sg69
(lp3692
S'myfile6'
p3693
asbag62
(g83
g64
NtRp3694
(dp3695
g67
(dp3696
g94
g95
ssg76
g3685
sg69
(lp3697
S':'
asbag62
(g83
g64
NtRp3698
(dp3699
g67
(dp3700
sg76
g3685
sg69
(lp3701
g62
(g63
g64
NtRp3702
(dp3703
g67
(dp3704
g75
I5
ssg76
g3698
sg69
(lp3705
S''
asbasbasbag62
(g78
g64
NtRp3706
(dp3707
g67
(dp3708
sg76
g3090
sg69
(lp3709
g62
(g83
g64
NtRp3710
(dp3711
g67
(dp3712
g87
g88
ssg76
g3706
sg69
(lp3713
S'output'
p3714
asbag62
(g83
g64
NtRp3715
(dp3716
g67
(dp3717
g94
g95
ssg76
g3706
sg69
(lp3718
S':'
asbag62
(g83
g64
NtRp3719
(dp3720
g67
(dp3721
sg76
g3706
sg69
(lp3722
g62
(g63
g64
NtRp3723
(dp3724
g67
(dp3725
g75
I5
ssg76
g3719
sg69
(lp3726
g62
(g71
g64
NtRp3727
(dp3728
g67
(dp3729
g75
I4
ssg76
Nsg69
(lp3730
g62
(g78
g64
NtRp3731
(dp3732
g67
(dp3733
sg76
g3727
sg69
(lp3734
g62
(g83
g64
NtRp3735
(dp3736
g67
(dp3737
sg76
g3731
sg69
(lp3738
g62
(g63
g64
NtRp3739
(dp3740
g67
(dp3741
g75
I4
ssg76
g3735
sg69
(lp3742
S'Jobnumber\tJobname\tStatus\tStarted\tEnded\tSubmitted\tCommand'
p3743
asbasbasbag62
(g78
g64
NtRp3744
(dp3745
g67
(dp3746
sg76
g3727
sg69
(lp3747
g62
(g83
g64
NtRp3748
(dp3749
g67
(dp3750
sg76
g3744
sg69
(lp3751
g62
(g63
g64
NtRp3752
(dp3753
g67
(dp3754
g75
I4
ssg76
g3748
sg69
(lp3755
S'241\tF8QMFC\tkilled\tNA\t01/30/13:10:54:58\t01/30/13:10:54:41\tpython run_command.py'
p3756
asbasbasbag62
(g78
g64
NtRp3757
(dp3758
g67
(dp3759
sg76
g3727
sg69
(lp3760
g62
(g83
g64
NtRp3761
(dp3762
g67
(dp3763
sg76
g3757
sg69
(lp3764
g62
(g63
g64
NtRp3765
(dp3766
g67
(dp3767
g75
I4
ssg76
g3761
sg69
(lp3768
S'242\t1\tkilled\tNA\t01/30/13:10:56:50\t01/30/13:10:55:43\tpython run_command.py'
p3769
asbasbasbag62
(g78
g64
NtRp3770
(dp3771
g67
(dp3772
sg76
g3727
sg69
(lp3773
g62
(g83
g64
NtRp3774
(dp3775
g67
(dp3776
sg76
g3770
sg69
(lp3777
g62
(g63
g64
NtRp3778
(dp3779
g67
(dp3780
g75
I4
ssg76
g3774
sg69
(lp3781
S'243\t1JCM7W\tcompleted\tNA\t01/31/13:11:02:08\t01/30/13:16:23:56\tpython /home/xchen/chencode/Betsy/scripts/run_protocol.py --protocol normalize_file --input input_signal_file:/home/xchen/chencode/upload/no_table.myfile1.bc230362ce4171ba.616c6c5f616d6c5f747261696e5f66696c742e676374.gct --parameters has_missing_value:zero_fill --parameters preprocess:unknown_preprocess'
p3782
asbasbasbag62
(g78
g64
NtRp3783
(dp3784
g67
(dp3785
sg76
g3727
sg69
(lp3786
g62
(g83
g64
NtRp3787
(dp3788
g67
(dp3789
sg76
g3783
sg69
(lp3790
g62
(g63
g64
NtRp3791
(dp3792
g67
(dp3793
g75
I4
ssg76
g3787
sg69
(lp3794
S'244\tMD5OVN\tcompleted\tNA\t01/31/13:11:02:08\t01/30/13:16:26:25\tpython /home/xchen/chencode/Betsy/scripts/run_protocol.py --protocol normalize_file --input input_signal_file:/home/xchen/chencode/upload/no_table.myfile1.ac92b1b80e18666e.7369676e616c5f756e6c6f67747261696e2e70636c.pcl --parameters has_missing_value:zero_fill --parameters preprocess:unknown_preprocess'
p3795
asbasbasbag62
(g78
g64
NtRp3796
(dp3797
g67
(dp3798
sg76
g3727
sg69
(lp3799
g62
(g83
g64
NtRp3800
(dp3801
g67
(dp3802
sg76
g3796
sg69
(lp3803
g62
(g63
g64
NtRp3804
(dp3805
g67
(dp3806
g75
I4
ssg76
g3800
sg69
(lp3807
S'245\t2XXAAY\tcompleted\t01/31/13:11:02:08\t01/31/13:11:36:29\t01/31/13:11:02:08\tpython /home/xchen/chencode/Betsy/scripts/python run_command.py /home/xchen/chencode/upload/no_table.myfile1.9c934921a246486e.6a6f627175657565.txt'
p3808
asbasbasbag62
(g78
g64
NtRp3809
(dp3810
g67
(dp3811
sg76
g3727
sg69
(lp3812
g62
(g83
g64
NtRp3813
(dp3814
g67
(dp3815
sg76
g3809
sg69
(lp3816
g62
(g63
g64
NtRp3817
(dp3818
g67
(dp3819
g75
I4
ssg76
g3813
sg69
(lp3820
S'254\tKQFWA9\tcompleted\tNA\t02/04/13:15:52:33\t01/31/13:12:50:49\tpython /home/xchen/chencode/Betsy/scripts/python run_command.py /home/xchen/chencode/upload/no_table.myfile1.9c934921a246486e.6a6f627175657565.txt'
p3821
asbasbasbag62
(g78
g64
NtRp3822
(dp3823
g67
(dp3824
sg76
g3727
sg69
(lp3825
g62
(g83
g64
NtRp3826
(dp3827
g67
(dp3828
sg76
g3822
sg69
(lp3829
g62
(g63
g64
NtRp3830
(dp3831
g67
(dp3832
g75
I4
ssg76
g3826
sg69
(lp3833
S'255\t5O5TN9\tcompleted\tNA\t02/04/13:15:52:33\t01/31/13:13:38:12\tpython /home/xchen/chencode/Betsy/scripts/python run_command.py /home/xchen/chencode/upload/no_table.myfile1.9c934921a246486e.6a6f627175657565.txt'
p3834
asbasbasbag62
(g78
g64
NtRp3835
(dp3836
g67
(dp3837
sg76
g3727
sg69
(lp3838
g62
(g83
g64
NtRp3839
(dp3840
g67
(dp3841
sg76
g3835
sg69
(lp3842
g62
(g63
g64
NtRp3843
(dp3844
g67
(dp3845
g75
I4
ssg76
g3839
sg69
(lp3846
S'256\t66OKZZ\tcompleted\tNA\t02/04/13:15:52:33\t01/31/13:15:20:40\tpython /home/xchen/chencode/Betsy/scripts/run_rule.py --plin input_signal_file([contents,[a],status,given],[]) --plout signal_raw([contents,[a],format,tdf,is_logged,unknown_logged,preprocess,unknown_preprocess,predataset,no_predataset],A)'
p3847
asbasbasbag62
(g78
g64
NtRp3848
(dp3849
g67
(dp3850
sg76
g3727
sg69
(lp3851
g62
(g83
g64
NtRp3852
(dp3853
g67
(dp3854
sg76
g3848
sg69
(lp3855
g62
(g63
g64
NtRp3856
(dp3857
g67
(dp3858
g75
I4
ssg76
g3852
sg69
(lp3859
S''
asbasbasbasbasbasbasbasbasbsS'etype'
p3860
S"<type 'exceptions.IOError'>"
p3861
sS'date'
p3862
S'Thu Feb  7 11:40:13 2013'
p3863
sS'response'
p3864
g62
(g63
g64
NtRp3865
(dp3866
g67
(dp3867
sg69
(lp3868
g62
(g71
g64
NtRp3869
(dp3870
g67
(dp3871
g75
I5
ssg76
Nsg69
(lp3872
g62
(g78
g64
NtRp3873
(dp3874
g67
(dp3875
sg76
g3869
sg69
(lp3876
g62
(g83
g64
NtRp3877
(dp3878
g67
(dp3879
g87
g88
ssg76
g3873
sg69
(lp3880
g173
asbag62
(g83
g64
NtRp3881
(dp3882
g67
(dp3883
g94
g95
ssg76
g3873
sg69
(lp3884
S':'
asbag62
(g83
g64
NtRp3885
(dp3886
g67
(dp3887
sg76
g3873
sg69
(lp3888
g62
(g63
g64
NtRp3889
(dp3890
g67
(dp3891
g75
I5
ssg76
g3885
sg69
(lp3892
S'<cStringIO.StringO object at 0x16751f80>'
p3893
asbasbasbag62
(g78
g64
NtRp3894
(dp3895
g67
(dp3896
sg76
g3869
sg69
(lp3897
g62
(g83
g64
NtRp3898
(dp3899
g67
(dp3900
g87
g88
ssg76
g3894
sg69
(lp3901
g261
asbag62
(g83
g64
NtRp3902
(dp3903
g67
(dp3904
g94
g95
ssg76
g3894
sg69
(lp3905
S':'
asbag62
(g83
g64
NtRp3906
(dp3907
g67
(dp3908
sg76
g3894
sg69
(lp3909
g62
(g63
g64
NtRp3910
(dp3911
g67
(dp3912
g75
I5
ssg76
g3906
sg69
(lp3913
g62
(g71
g64
NtRp3914
(dp3915
g67
(dp3916
g75
I4
ssg76
Nsg69
(lp3917
g62
(g78
g64
NtRp3918
(dp3919
g67
(dp3920
sg76
g3914
sg69
(lp3921
g62
(g83
g64
NtRp3922
(dp3923
g67
(dp3924
g87
g88
ssg76
g3918
sg69
(lp3925
S'session_id_betsy'
p3926
asbag62
(g83
g64
NtRp3927
(dp3928
g67
(dp3929
g94
g95
ssg76
g3918
sg69
(lp3930
S':'
asbag62
(g83
g64
NtRp3931
(dp3932
g67
(dp3933
sg76
g3918
sg69
(lp3934
g62
(g63
g64
NtRp3935
(dp3936
g67
(dp3937
g75
I4
ssg76
g3931
sg69
(lp3938
g493
ag62
(g71
g64
NtRp3939
(dp3940
g67
(dp3941
g75
I3
ssg76
Nsg69
(lp3942
g62
(g78
g64
NtRp3943
(dp3944
g67
(dp3945
sg76
g3939
sg69
(lp3946
g62
(g83
g64
NtRp3947
(dp3948
g67
(dp3949
g87
g88
ssg76
g3943
sg69
(lp3950
g312
asbag62
(g83
g64
NtRp3951
(dp3952
g67
(dp3953
g94
g95
ssg76
g3943
sg69
(lp3954
S':'
asbag62
(g83
g64
NtRp3955
(dp3956
g67
(dp3957
sg76
g3943
sg69
(lp3958
g62
(g63
g64
NtRp3959
(dp3960
g67
(dp3961
g75
I3
ssg76
g3955
sg69
(lp3962
S''
asbasbasbag62
(g78
g64
NtRp3963
(dp3964
g67
(dp3965
sg76
g3939
sg69
(lp3966
g62
(g83
g64
NtRp3967
(dp3968
g67
(dp3969
g87
g88
ssg76
g3963
sg69
(lp3970
g333
asbag62
(g83
g64
NtRp3971
(dp3972
g67
(dp3973
g94
g95
ssg76
g3963
sg69
(lp3974
S':'
asbag62
(g83
g64
NtRp3975
(dp3976
g67
(dp3977
sg76
g3963
sg69
(lp3978
g62
(g63
g64
NtRp3979
(dp3980
g67
(dp3981
g75
I3
ssg76
g3975
sg69
(lp3982
S''
asbasbasbag62
(g78
g64
NtRp3983
(dp3984
g67
(dp3985
sg76
g3939
sg69
(lp3986
g62
(g83
g64
NtRp3987
(dp3988
g67
(dp3989
g87
g88
ssg76
g3983
sg69
(lp3990
g354
asbag62
(g83
g64
NtRp3991
(dp3992
g67
(dp3993
g94
g95
ssg76
g3983
sg69
(lp3994
S':'
asbag62
(g83
g64
NtRp3995
(dp3996
g67
(dp3997
sg76
g3983
sg69
(lp3998
g62
(g63
g64
NtRp3999
(dp4000
g67
(dp4001
g75
I3
ssg76
g3995
sg69
(lp4002
S'2592000'
p4003
asbasbasbag62
(g78
g64
NtRp4004
(dp4005
g67
(dp4006
sg76
g3939
sg69
(lp4007
g62
(g83
g64
NtRp4008
(dp4009
g67
(dp4010
g87
g88
ssg76
g4004
sg69
(lp4011
g375
asbag62
(g83
g64
NtRp4012
(dp4013
g67
(dp4014
g94
g95
ssg76
g4004
sg69
(lp4015
S':'
asbag62
(g83
g64
NtRp4016
(dp4017
g67
(dp4018
sg76
g4004
sg69
(lp4019
g62
(g63
g64
NtRp4020
(dp4021
g67
(dp4022
g75
I3
ssg76
g4016
sg69
(lp4023
S''
asbasbasbag62
(g78
g64
NtRp4024
(dp4025
g67
(dp4026
sg76
g3939
sg69
(lp4027
g62
(g83
g64
NtRp4028
(dp4029
g67
(dp4030
g87
g88
ssg76
g4024
sg69
(lp4031
g396
asbag62
(g83
g64
NtRp4032
(dp4033
g67
(dp4034
g94
g95
ssg76
g4024
sg69
(lp4035
S':'
asbag62
(g83
g64
NtRp4036
(dp4037
g67
(dp4038
sg76
g4024
sg69
(lp4039
g62
(g63
g64
NtRp4040
(dp4041
g67
(dp4042
g75
I3
ssg76
g4036
sg69
(lp4043
S''
asbasbasbag62
(g78
g64
NtRp4044
(dp4045
g67
(dp4046
sg76
g3939
sg69
(lp4047
g62
(g83
g64
NtRp4048
(dp4049
g67
(dp4050
g87
g88
ssg76
g4044
sg69
(lp4051
g417
asbag62
(g83
g64
NtRp4052
(dp4053
g67
(dp4054
g94
g95
ssg76
g4044
sg69
(lp4055
S':'
asbag62
(g83
g64
NtRp4056
(dp4057
g67
(dp4058
sg76
g4044
sg69
(lp4059
g62
(g63
g64
NtRp4060
(dp4061
g67
(dp4062
g75
I3
ssg76
g4056
sg69
(lp4063
S'/'
asbasbasbag62
(g78
g64
NtRp4064
(dp4065
g67
(dp4066
sg76
g3939
sg69
(lp4067
g62
(g83
g64
NtRp4068
(dp4069
g67
(dp4070
g87
g88
ssg76
g4064
sg69
(lp4071
g438
asbag62
(g83
g64
NtRp4072
(dp4073
g67
(dp4074
g94
g95
ssg76
g4064
sg69
(lp4075
S':'
asbag62
(g83
g64
NtRp4076
(dp4077
g67
(dp4078
sg76
g4064
sg69
(lp4079
g62
(g63
g64
NtRp4080
(dp4081
g67
(dp4082
g75
I3
ssg76
g4076
sg69
(lp4083
S''
asbasbasbag62
(g78
g64
NtRp4084
(dp4085
g67
(dp4086
sg76
g3939
sg69
(lp4087
g62
(g83
g64
NtRp4088
(dp4089
g67
(dp4090
g87
g88
ssg76
g4084
sg69
(lp4091
g459
asbag62
(g83
g64
NtRp4092
(dp4093
g67
(dp4094
g94
g95
ssg76
g4084
sg69
(lp4095
S':'
asbag62
(g83
g64
NtRp4096
(dp4097
g67
(dp4098
sg76
g4084
sg69
(lp4099
g62
(g63
g64
NtRp4100
(dp4101
g67
(dp4102
g75
I3
ssg76
g4096
sg69
(lp4103
S''
asbasbasbasbasbasbasbasbasbasbasbag62
(g78
g64
NtRp4104
(dp4105
g67
(dp4106
sg76
g3869
sg69
(lp4107
g62
(g83
g64
NtRp4108
(dp4109
g67
(dp4110
g87
g88
ssg76
g4104
sg69
(lp4111
S'delimiters'
p4112
asbag62
(g83
g64
NtRp4113
(dp4114
g67
(dp4115
g94
g95
ssg76
g4104
sg69
(lp4116
S':'
asbag62
(g83
g64
NtRp4117
(dp4118
g67
(dp4119
sg76
g4104
sg69
(lp4120
g62
(g63
g64
NtRp4121
(dp4122
g67
(dp4123
g75
I5
ssg76
g4117
sg69
(lp4124
g62
(g71
g64
NtRp4125
(dp4126
g67
(dp4127
g75
I4
ssg76
Nsg69
(lp4128
g62
(g78
g64
NtRp4129
(dp4130
g67
(dp4131
sg76
g4125
sg69
(lp4132
g62
(g83
g64
NtRp4133
(dp4134
g67
(dp4135
sg76
g4129
sg69
(lp4136
g62
(g63
g64
NtRp4137
(dp4138
g67
(dp4139
g75
I4
ssg76
g4133
sg69
(lp4140
S'{{'
p4141
asbasbasbag62
(g78
g64
NtRp4142
(dp4143
g67
(dp4144
sg76
g4125
sg69
(lp4145
g62
(g83
g64
NtRp4146
(dp4147
g67
(dp4148
sg76
g4142
sg69
(lp4149
g62
(g63
g64
NtRp4150
(dp4151
g67
(dp4152
g75
I4
ssg76
g4146
sg69
(lp4153
S'}}'
p4154
asbasbasbasbasbasbasbag62
(g78
g64
NtRp4155
(dp4156
g67
(dp4157
sg76
g3869
sg69
(lp4158
g62
(g83
g64
NtRp4159
(dp4160
g67
(dp4161
g87
g88
ssg76
g4155
sg69
(lp4162
S'files'
p4163
asbag62
(g83
g64
NtRp4164
(dp4165
g67
(dp4166
g94
g95
ssg76
g4155
sg69
(lp4167
S':'
asbag62
(g83
g64
NtRp4168
(dp4169
g67
(dp4170
sg76
g4155
sg69
(lp4171
g62
(g63
g64
NtRp4172
(dp4173
g67
(dp4174
g75
I5
ssg76
g4168
sg69
(lp4175
g62
(g71
g64
NtRp4176
(dp4177
g67
(dp4178
g75
I4
ssg76
Nsg69
(lp4179
g62
(g78
g64
NtRp4180
(dp4181
g67
(dp4182
sg76
g4176
sg69
(lp4183
g62
(g83
g64
NtRp4184
(dp4185
g67
(dp4186
sg76
g4180
sg69
(lp4187
g62
(g63
g64
NtRp4188
(dp4189
g67
(dp4190
g75
I4
ssg76
g4184
sg69
(lp4191
S'/Betsy/static/js/jquery.js'
p4192
asbasbasbag62
(g78
g64
NtRp4193
(dp4194
g67
(dp4195
sg76
g4176
sg69
(lp4196
g62
(g83
g64
NtRp4197
(dp4198
g67
(dp4199
sg76
g4193
sg69
(lp4200
g62
(g63
g64
NtRp4201
(dp4202
g67
(dp4203
g75
I4
ssg76
g4197
sg69
(lp4204
S'/Betsy/static/css/calendar.css'
p4205
asbasbasbag62
(g78
g64
NtRp4206
(dp4207
g67
(dp4208
sg76
g4176
sg69
(lp4209
g62
(g83
g64
NtRp4210
(dp4211
g67
(dp4212
sg76
g4206
sg69
(lp4213
g62
(g63
g64
NtRp4214
(dp4215
g67
(dp4216
g75
I4
ssg76
g4210
sg69
(lp4217
S'/Betsy/static/js/calendar.js'
p4218
asbasbasbag62
(g78
g64
NtRp4219
(dp4220
g67
(dp4221
sg76
g4176
sg69
(lp4222
g62
(g83
g64
NtRp4223
(dp4224
g67
(dp4225
sg76
g4219
sg69
(lp4226
g62
(g63
g64
NtRp4227
(dp4228
g67
(dp4229
g75
I4
ssg76
g4223
sg69
(lp4230
S'/Betsy/static/js/web2py.js'
p4231
asbasbasbag62
(g78
g64
NtRp4232
(dp4233
g67
(dp4234
sg76
g4176
sg69
(lp4235
g62
(g83
g64
NtRp4236
(dp4237
g67
(dp4238
sg76
g4232
sg69
(lp4239
g62
(g63
g64
NtRp4240
(dp4241
g67
(dp4242
g75
I4
ssg76
g4236
sg69
(lp4243
S'/Betsy/static/css/web2py.css'
p4244
asbasbasbag62
(g78
g64
NtRp4245
(dp4246
g67
(dp4247
sg76
g4176
sg69
(lp4248
g62
(g83
g64
NtRp4249
(dp4250
g67
(dp4251
sg76
g4245
sg69
(lp4252
g62
(g63
g64
NtRp4253
(dp4254
g67
(dp4255
g75
I4
ssg76
g4249
sg69
(lp4256
S'/Betsy/static/css/bootstrap.min.css'
p4257
asbasbasbag62
(g78
g64
NtRp4258
(dp4259
g67
(dp4260
sg76
g4176
sg69
(lp4261
g62
(g83
g64
NtRp4262
(dp4263
g67
(dp4264
sg76
g4258
sg69
(lp4265
g62
(g63
g64
NtRp4266
(dp4267
g67
(dp4268
g75
I4
ssg76
g4262
sg69
(lp4269
S'/Betsy/static/css/bootstrap-responsive.min.css'
p4270
asbasbasbag62
(g78
g64
NtRp4271
(dp4272
g67
(dp4273
sg76
g4176
sg69
(lp4274
g62
(g83
g64
NtRp4275
(dp4276
g67
(dp4277
sg76
g4271
sg69
(lp4278
g62
(g63
g64
NtRp4279
(dp4280
g67
(dp4281
g75
I4
ssg76
g4275
sg69
(lp4282
S'/Betsy/static/css/web2py_bootstrap.css'
p4283
asbasbasbasbasbasbasbag62
(g78
g64
NtRp4284
(dp4285
g67
(dp4286
sg76
g3869
sg69
(lp4287
g62
(g83
g64
NtRp4288
(dp4289
g67
(dp4290
g87
g88
ssg76
g4284
sg69
(lp4291
S'flash'
p4292
asbag62
(g83
g64
NtRp4293
(dp4294
g67
(dp4295
g94
g95
ssg76
g4284
sg69
(lp4296
S':'
asbag62
(g83
g64
NtRp4297
(dp4298
g67
(dp4299
sg76
g4284
sg69
(lp4300
g62
(g63
g64
NtRp4301
(dp4302
g67
(dp4303
g75
I5
ssg76
g4297
sg69
(lp4304
S''
asbasbasbag62
(g78
g64
NtRp4305
(dp4306
g67
(dp4307
sg76
g3869
sg69
(lp4308
g62
(g83
g64
NtRp4309
(dp4310
g67
(dp4311
g87
g88
ssg76
g4305
sg69
(lp4312
S'generic_patterns'
p4313
asbag62
(g83
g64
NtRp4314
(dp4315
g67
(dp4316
g94
g95
ssg76
g4305
sg69
(lp4317
S':'
asbag62
(g83
g64
NtRp4318
(dp4319
g67
(dp4320
sg76
g4305
sg69
(lp4321
g62
(g63
g64
NtRp4322
(dp4323
g67
(dp4324
g75
I5
ssg76
g4318
sg69
(lp4325
g62
(g71
g64
NtRp4326
(dp4327
g67
(dp4328
g75
I4
ssg76
Nsg69
(lp4329
g62
(g78
g64
NtRp4330
(dp4331
g67
(dp4332
sg76
g4326
sg69
(lp4333
g62
(g83
g64
NtRp4334
(dp4335
g67
(dp4336
sg76
g4330
sg69
(lp4337
g62
(g63
g64
NtRp4338
(dp4339
g67
(dp4340
g75
I4
ssg76
g4334
sg69
(lp4341
S'*'
asbasbasbasbasbasbasbag62
(g78
g64
NtRp4342
(dp4343
g67
(dp4344
sg76
g3869
sg69
(lp4345
g62
(g83
g64
NtRp4346
(dp4347
g67
(dp4348
g87
g88
ssg76
g4342
sg69
(lp4349
S'google_analytics_id'
p4350
asbag62
(g83
g64
NtRp4351
(dp4352
g67
(dp4353
g94
g95
ssg76
g4342
sg69
(lp4354
S':'
asbag62
(g83
g64
NtRp4355
(dp4356
g67
(dp4357
sg76
g4342
sg69
(lp4358
g62
(g63
g64
NtRp4359
(dp4360
g67
(dp4361
g75
I5
ssg76
g4355
sg69
(lp4362
S'None'
p4363
asbasbasbag62
(g78
g64
NtRp4364
(dp4365
g67
(dp4366
sg76
g3869
sg69
(lp4367
g62
(g83
g64
NtRp4368
(dp4369
g67
(dp4370
g87
g88
ssg76
g4364
sg69
(lp4371
S'headers'
p4372
asbag62
(g83
g64
NtRp4373
(dp4374
g67
(dp4375
g94
g95
ssg76
g4364
sg69
(lp4376
S':'
asbag62
(g83
g64
NtRp4377
(dp4378
g67
(dp4379
sg76
g4364
sg69
(lp4380
g62
(g63
g64
NtRp4381
(dp4382
g67
(dp4383
g75
I5
ssg76
g4377
sg69
(lp4384
g62
(g71
g64
NtRp4385
(dp4386
g67
(dp4387
g75
I4
ssg76
Nsg69
(lp4388
g62
(g78
g64
NtRp4389
(dp4390
g67
(dp4391
sg76
g4385
sg69
(lp4392
g62
(g83
g64
NtRp4393
(dp4394
g67
(dp4395
g87
g88
ssg76
g4389
sg69
(lp4396
S'X-Powered-By'
p4397
asbag62
(g83
g64
NtRp4398
(dp4399
g67
(dp4400
g94
g95
ssg76
g4389
sg69
(lp4401
S':'
asbag62
(g83
g64
NtRp4402
(dp4403
g67
(dp4404
sg76
g4389
sg69
(lp4405
g62
(g63
g64
NtRp4406
(dp4407
g67
(dp4408
g75
I4
ssg76
g4402
sg69
(lp4409
S'web2py'
p4410
asbasbasbasbasbasbasbag62
(g78
g64
NtRp4411
(dp4412
g67
(dp4413
sg76
g3869
sg69
(lp4414
g62
(g83
g64
NtRp4415
(dp4416
g67
(dp4417
g87
g88
ssg76
g4411
sg69
(lp4418
S'menu'
p4419
asbag62
(g83
g64
NtRp4420
(dp4421
g67
(dp4422
g94
g95
ssg76
g4411
sg69
(lp4423
S':'
asbag62
(g83
g64
NtRp4424
(dp4425
g67
(dp4426
sg76
g4411
sg69
(lp4427
g62
(g63
g64
NtRp4428
(dp4429
g67
(dp4430
g75
I5
ssg76
g4424
sg69
(lp4431
g62
(g71
g64
NtRp4432
(dp4433
g67
(dp4434
g75
I4
ssg76
Nsg69
(lp4435
g62
(g78
g64
NtRp4436
(dp4437
g67
(dp4438
sg76
g4432
sg69
(lp4439
g62
(g83
g64
NtRp4440
(dp4441
g67
(dp4442
sg76
g4436
sg69
(lp4443
g62
(g63
g64
NtRp4444
(dp4445
g67
(dp4446
g75
I4
ssg76
g4440
sg69
(lp4447
g62
(g71
g64
NtRp4448
(dp4449
g67
(dp4450
g75
I3
ssg76
Nsg69
(lp4451
g62
(g78
g64
NtRp4452
(dp4453
g67
(dp4454
sg76
g4448
sg69
(lp4455
g62
(g83
g64
NtRp4456
(dp4457
g67
(dp4458
sg76
g4452
sg69
(lp4459
g62
(g63
g64
NtRp4460
(dp4461
g67
(dp4462
g75
I3
ssg76
g4456
sg69
(lp4463
cgluon.languages
lazyT_unpickle
p4464
(S's\x04\x00\x00\x00Home'
tRp4465
asbasbasbag62
(g78
g64
NtRp4466
(dp4467
g67
(dp4468
sg76
g4448
sg69
(lp4469
g62
(g83
g64
NtRp4470
(dp4471
g67
(dp4472
sg76
g4466
sg69
(lp4473
g62
(g63
g64
NtRp4474
(dp4475
g67
(dp4476
g75
I3
ssg76
g4470
sg69
(lp4477
g105
asbasbasbag62
(g78
g64
NtRp4478
(dp4479
g67
(dp4480
sg76
g4448
sg69
(lp4481
g62
(g83
g64
NtRp4482
(dp4483
g67
(dp4484
sg76
g4478
sg69
(lp4485
g62
(g63
g64
NtRp4486
(dp4487
g67
(dp4488
g75
I3
ssg76
g4482
sg69
(lp4489
S'/Betsy/default/index'
p4490
asbasbasbag62
(g78
g64
NtRp4491
(dp4492
g67
(dp4493
sg76
g4448
sg69
(lp4494
g62
(g83
g64
NtRp4495
(dp4496
g67
(dp4497
sg76
g4491
sg69
(lp4498
g62
(g63
g64
NtRp4499
(dp4500
g67
(dp4501
g75
I3
ssg76
g4495
sg69
(lp4502
g62
(g71
g64
NtRp4503
(dp4504
g67
(dp4505
g75
I2
ssg76
Nsg69
(lp4506
sbasbasbasbasbasbasbasbag62
(g78
g64
NtRp4507
(dp4508
g67
(dp4509
sg76
g4432
sg69
(lp4510
g62
(g83
g64
NtRp4511
(dp4512
g67
(dp4513
sg76
g4507
sg69
(lp4514
g62
(g63
g64
NtRp4515
(dp4516
g67
(dp4517
g75
I4
ssg76
g4511
sg69
(lp4518
g62
(g71
g64
NtRp4519
(dp4520
g67
(dp4521
g75
I3
ssg76
Nsg69
(lp4522
g62
(g78
g64
NtRp4523
(dp4524
g67
(dp4525
sg76
g4519
sg69
(lp4526
g62
(g83
g64
NtRp4527
(dp4528
g67
(dp4529
sg76
g4523
sg69
(lp4530
g62
(g63
g64
NtRp4531
(dp4532
g67
(dp4533
g75
I3
ssg76
g4527
sg69
(lp4534
g62
(cgluon.html
SPAN
p4535
g64
NtRp4536
(dp4537
g67
(dp4538
S'_class'
p4539
S'highlighted'
p4540
ssg76
g62
(cgluon.html
A
p4541
g64
NtRp4542
(dp4543
g67
(dp4544
S'_href'
p4545
S'http://web2py.com'
p4546
ssg76
g62
(cgluon.html
LI
p4547
g64
NtRp4548
(dp4549
g67
(dp4550
g4539
S'dropdown'
p4551
ssg76
g62
(cgluon.html
UL
p4552
g64
NtRp4553
(dp4554
g67
(dp4555
S'li_class'
p4556
g4551
sS'mobile'
p4557
I00
sg4539
S'nav'
p4558
sS'ul_class'
p4559
S'dropdown-menu'
p4560
sS'li_active'
p4561
S'web2py-menu-active'
p4562
ssg76
Nsg69
(lp4563
g62
(g4547
g64
NtRp4564
(dp4565
g67
(dp4566
sg76
g4553
sg69
(lp4567
g62
(g4541
g64
NtRp4568
(dp4569
g67
(dp4570
g4545
g4490
ssg76
g4564
sg69
(lp4571
g4465
asbasbag4548
asbsg69
(lp4572
g4542
ag62
(g4552
g64
NtRp4573
(dp4574
g67
(dp4575
g4539
g4560
ssg76
g4548
sg69
(lp4576
g62
(g4547
g64
NtRp4577
(dp4578
g67
(dp4579
sg76
g4573
sg69
(lp4580
g62
(g4541
g64
NtRp4581
(dp4582
g67
(dp4583
g4545
S'/admin/default/site'
p4584
ssg76
g4577
sg69
(lp4585
g4464
(S's\x08\x00\x00\x00My Sites'
tRp4586
asbasbag62
(g4547
g64
NtRp4587
(dp4588
g67
(dp4589
g4539
g4551
ssg76
g4573
sg69
(lp4590
g62
(g4541
g64
NtRp4591
(dp4592
g67
(dp4593
g4545
S'/admin/default/design/Betsy'
p4594
ssg76
g4587
sg69
(lp4595
g4464
(S's\x08\x00\x00\x00This App'
tRp4596
asbag62
(g4552
g64
NtRp4597
(dp4598
g67
(dp4599
g4539
g4560
ssg76
g4587
sg69
(lp4600
g62
(g4547
g64
NtRp4601
(dp4602
g67
(dp4603
sg76
g4597
sg69
(lp4604
g62
(g4541
g64
NtRp4605
(dp4606
g67
(dp4607
g4545
S'/admin/default/edit/Betsy/controllers/default.py'
p4608
ssg76
g4601
sg69
(lp4609
g4464
(S's\n\x00\x00\x00Controller'
tRp4610
asbasbag62
(g4547
g64
NtRp4611
(dp4612
g67
(dp4613
sg76
g4597
sg69
(lp4614
g62
(g4541
g64
NtRp4615
(dp4616
g67
(dp4617
g4545
S'/admin/default/edit/Betsy/views/default/show_job.html'
p4618
ssg76
g4611
sg69
(lp4619
g4464
(S's\x04\x00\x00\x00View'
tRp4620
asbasbag62
(g4547
g64
NtRp4621
(dp4622
g67
(dp4623
sg76
g4597
sg69
(lp4624
g62
(g4541
g64
NtRp4625
(dp4626
g67
(dp4627
g4545
S'/admin/default/edit/Betsy/views/layout.html'
p4628
ssg76
g4621
sg69
(lp4629
g4464
(S's\x06\x00\x00\x00Layout'
tRp4630
asbasbag62
(g4547
g64
NtRp4631
(dp4632
g67
(dp4633
sg76
g4597
sg69
(lp4634
g62
(g4541
g64
NtRp4635
(dp4636
g67
(dp4637
g4545
S'/admin/default/edit/Betsy/static/css/web2py.css'
p4638
ssg76
g4631
sg69
(lp4639
g4464
(S's\n\x00\x00\x00Stylesheet'
tRp4640
asbasbag62
(g4547
g64
NtRp4641
(dp4642
g67
(dp4643
sg76
g4597
sg69
(lp4644
g62
(g4541
g64
NtRp4645
(dp4646
g67
(dp4647
g4545
S'/admin/default/edit/Betsy/models/db.py'
p4648
ssg76
g4641
sg69
(lp4649
g4464
(S's\x08\x00\x00\x00DB Model'
tRp4650
asbasbag62
(g4547
g64
NtRp4651
(dp4652
g67
(dp4653
sg76
g4597
sg69
(lp4654
g62
(g4541
g64
NtRp4655
(dp4656
g67
(dp4657
g4545
S'/admin/default/edit/Betsy/models/menu.py'
p4658
ssg76
g4651
sg69
(lp4659
g4464
(S's\n\x00\x00\x00Menu Model'
tRp4660
asbasbag62
(g4547
g64
NtRp4661
(dp4662
g67
(dp4663
sg76
g4597
sg69
(lp4664
g62
(g4541
g64
NtRp4665
(dp4666
g67
(dp4667
g4545
S'/Betsy/appadmin/index'
p4668
ssg76
g4661
sg69
(lp4669
g4464
(S's\x08\x00\x00\x00Database'
tRp4670
asbasbag62
(g4547
g64
NtRp4671
(dp4672
g67
(dp4673
sg76
g4597
sg69
(lp4674
g62
(g4541
g64
NtRp4675
(dp4676
g67
(dp4677
g4545
S'/admin/default/errors/Betsy'
p4678
ssg76
g4671
sg69
(lp4679
g4464
(S's\x06\x00\x00\x00Errors'
tRp4680
asbasbag62
(g4547
g64
NtRp4681
(dp4682
g67
(dp4683
sg76
g4597
sg69
(lp4684
g62
(g4541
g64
NtRp4685
(dp4686
g67
(dp4687
g4545
S'/admin/default/about/Betsy'
p4688
ssg76
g4681
sg69
(lp4689
g4464
(S's\x05\x00\x00\x00About'
tRp4690
asbasbasbasbag62
(g4547
g64
NtRp4691
(dp4692
g67
(dp4693
g4539
g4551
ssg76
g4573
sg69
(lp4694
g62
(g4541
g64
NtRp4695
(dp4696
g67
(dp4697
g4545
S'http://www.web2py.com'
p4698
ssg76
g4691
sg69
(lp4699
S'web2py.com'
p4700
asbag62
(g4552
g64
NtRp4701
(dp4702
g67
(dp4703
g4539
g4560
ssg76
g4691
sg69
(lp4704
g62
(g4547
g64
NtRp4705
(dp4706
g67
(dp4707
sg76
g4701
sg69
(lp4708
g62
(g4541
g64
NtRp4709
(dp4710
g67
(dp4711
g4545
S'http://www.web2py.com/examples/default/download'
p4712
ssg76
g4705
sg69
(lp4713
g4464
(S's\x08\x00\x00\x00Download'
tRp4714
asbasbag62
(g4547
g64
NtRp4715
(dp4716
g67
(dp4717
sg76
g4701
sg69
(lp4718
g62
(g4541
g64
NtRp4719
(dp4720
g67
(dp4721
g4545
S'http://www.web2py.com/examples/default/support'
p4722
ssg76
g4715
sg69
(lp4723
g4464
(S's\x07\x00\x00\x00Support'
tRp4724
asbasbag62
(g4547
g64
NtRp4725
(dp4726
g67
(dp4727
sg76
g4701
sg69
(lp4728
g62
(g4541
g64
NtRp4729
(dp4730
g67
(dp4731
g4545
S'http://web2py.com/demo_admin'
p4732
ssg76
g4725
sg69
(lp4733
g4464
(S's\x04\x00\x00\x00Demo'
tRp4734
asbasbag62
(g4547
g64
NtRp4735
(dp4736
g67
(dp4737
sg76
g4701
sg69
(lp4738
g62
(g4541
g64
NtRp4739
(dp4740
g67
(dp4741
g4545
S'http://web2py.com/examples/default/examples'
p4742
ssg76
g4735
sg69
(lp4743
g4464
(S's\x0e\x00\x00\x00Quick Examples'
tRp4744
asbasbag62
(g4547
g64
NtRp4745
(dp4746
g67
(dp4747
sg76
g4701
sg69
(lp4748
g62
(g4541
g64
NtRp4749
(dp4750
g67
(dp4751
g4545
S'http://web2py.com/AlterEgo'
p4752
ssg76
g4745
sg69
(lp4753
g4464
(S's\x03\x00\x00\x00FAQ'
tRp4754
asbasbag62
(g4547
g64
NtRp4755
(dp4756
g67
(dp4757
sg76
g4701
sg69
(lp4758
g62
(g4541
g64
NtRp4759
(dp4760
g67
(dp4761
g4545
S'http://www.web2py.com/examples/default/videos/'
p4762
ssg76
g4755
sg69
(lp4763
g4464
(S's\x06\x00\x00\x00Videos'
tRp4764
asbasbag62
(g4547
g64
NtRp4765
(dp4766
g67
(dp4767
sg76
g4701
sg69
(lp4768
g62
(g4541
g64
NtRp4769
(dp4770
g67
(dp4771
g4545
S'http://web2py.com/appliances'
p4772
ssg76
g4765
sg69
(lp4773
g4464
(S's\x11\x00\x00\x00Free Applications'
tRp4774
asbasbag62
(g4547
g64
NtRp4775
(dp4776
g67
(dp4777
sg76
g4701
sg69
(lp4778
g62
(g4541
g64
NtRp4779
(dp4780
g67
(dp4781
g4545
S'http://web2py.com/plugins'
p4782
ssg76
g4775
sg69
(lp4783
g4464
(S's\x07\x00\x00\x00Plugins'
tRp4784
asbasbag62
(g4547
g64
NtRp4785
(dp4786
g67
(dp4787
sg76
g4701
sg69
(lp4788
g62
(g4541
g64
NtRp4789
(dp4790
g67
(dp4791
g4545
S'http://web2py.com/layouts'
p4792
ssg76
g4785
sg69
(lp4793
g4464
(S's\x07\x00\x00\x00Layouts'
tRp4794
asbasbag62
(g4547
g64
NtRp4795
(dp4796
g67
(dp4797
sg76
g4701
sg69
(lp4798
g62
(g4541
g64
NtRp4799
(dp4800
g67
(dp4801
g4545
S'http://web2pyslices.com/'
p4802
ssg76
g4795
sg69
(lp4803
g4464
(S's\x07\x00\x00\x00Recipes'
tRp4804
asbasbag62
(g4547
g64
NtRp4805
(dp4806
g67
(dp4807
sg76
g4701
sg69
(lp4808
g62
(g4541
g64
NtRp4809
(dp4810
g67
(dp4811
g4545
S'http://web2py.com/semantic'
p4812
ssg76
g4805
sg69
(lp4813
g4464
(S's\x08\x00\x00\x00Semantic'
tRp4814
asbasbasbasbag62
(g4547
g64
NtRp4815
(dp4816
g67
(dp4817
g4539
g4551
ssg76
g4573
sg69
(lp4818
g62
(g4541
g64
NtRp4819
(dp4820
g67
(dp4821
g4545
S'http://www.web2py.com/book'
p4822
ssg76
g4815
sg69
(lp4823
g4464
(S's\r\x00\x00\x00Documentation'
tRp4824
asbag62
(g4552
g64
NtRp4825
(dp4826
g67
(dp4827
g4539
g4560
ssg76
g4815
sg69
(lp4828
g62
(g4547
g64
NtRp4829
(dp4830
g67
(dp4831
sg76
g4825
sg69
(lp4832
g62
(g4541
g64
NtRp4833
(dp4834
g67
(dp4835
g4545
S'http://www.web2py.com/book/default/chapter/00'
p4836
ssg76
g4829
sg69
(lp4837
g4464
(S's\x07\x00\x00\x00Preface'
tRp4838
asbasbag62
(g4547
g64
NtRp4839
(dp4840
g67
(dp4841
sg76
g4825
sg69
(lp4842
g62
(g4541
g64
NtRp4843
(dp4844
g67
(dp4845
g4545
S'http://www.web2py.com/book/default/chapter/01'
p4846
ssg76
g4839
sg69
(lp4847
g4464
(S's\x0c\x00\x00\x00Introduction'
tRp4848
asbasbag62
(g4547
g64
NtRp4849
(dp4850
g67
(dp4851
sg76
g4825
sg69
(lp4852
g62
(g4541
g64
NtRp4853
(dp4854
g67
(dp4855
g4545
S'http://www.web2py.com/book/default/chapter/02'
p4856
ssg76
g4849
sg69
(lp4857
g4464
(S's\x06\x00\x00\x00Python'
tRp4858
asbasbag62
(g4547
g64
NtRp4859
(dp4860
g67
(dp4861
sg76
g4825
sg69
(lp4862
g62
(g4541
g64
NtRp4863
(dp4864
g67
(dp4865
g4545
S'http://www.web2py.com/book/default/chapter/03'
p4866
ssg76
g4859
sg69
(lp4867
g4464
(S's\x08\x00\x00\x00Overview'
tRp4868
asbasbag62
(g4547
g64
NtRp4869
(dp4870
g67
(dp4871
sg76
g4825
sg69
(lp4872
g62
(g4541
g64
NtRp4873
(dp4874
g67
(dp4875
g4545
S'http://www.web2py.com/book/default/chapter/04'
p4876
ssg76
g4869
sg69
(lp4877
g4464
(S's\x08\x00\x00\x00The Core'
tRp4878
asbasbag62
(g4547
g64
NtRp4879
(dp4880
g67
(dp4881
sg76
g4825
sg69
(lp4882
g62
(g4541
g64
NtRp4883
(dp4884
g67
(dp4885
g4545
S'http://www.web2py.com/book/default/chapter/05'
p4886
ssg76
g4879
sg69
(lp4887
g4464
(S's\t\x00\x00\x00The Views'
tRp4888
asbasbag62
(g4547
g64
NtRp4889
(dp4890
g67
(dp4891
sg76
g4825
sg69
(lp4892
g62
(g4541
g64
NtRp4893
(dp4894
g67
(dp4895
g4545
S'http://www.web2py.com/book/default/chapter/06'
p4896
ssg76
g4889
sg69
(lp4897
g4464
(S's\x08\x00\x00\x00Database'
tRp4898
asbasbag62
(g4547
g64
NtRp4899
(dp4900
g67
(dp4901
sg76
g4825
sg69
(lp4902
g62
(g4541
g64
NtRp4903
(dp4904
g67
(dp4905
g4545
S'http://www.web2py.com/book/default/chapter/07'
p4906
ssg76
g4899
sg69
(lp4907
g4464
(S's\x14\x00\x00\x00Forms and Validators'
tRp4908
asbasbag62
(g4547
g64
NtRp4909
(dp4910
g67
(dp4911
sg76
g4825
sg69
(lp4912
g62
(g4541
g64
NtRp4913
(dp4914
g67
(dp4915
g4545
S'http://www.web2py.com/book/default/chapter/08'
p4916
ssg76
g4909
sg69
(lp4917
g4464
(S's\r\x00\x00\x00Email and SMS'
tRp4918
asbasbag62
(g4547
g64
NtRp4919
(dp4920
g67
(dp4921
sg76
g4825
sg69
(lp4922
g62
(g4541
g64
NtRp4923
(dp4924
g67
(dp4925
g4545
S'http://www.web2py.com/book/default/chapter/09'
p4926
ssg76
g4919
sg69
(lp4927
g4464
(S's\x0e\x00\x00\x00Access Control'
tRp4928
asbasbag62
(g4547
g64
NtRp4929
(dp4930
g67
(dp4931
sg76
g4825
sg69
(lp4932
g62
(g4541
g64
NtRp4933
(dp4934
g67
(dp4935
g4545
S'http://www.web2py.com/book/default/chapter/10'
p4936
ssg76
g4929
sg69
(lp4937
g4464
(S's\x08\x00\x00\x00Services'
tRp4938
asbasbag62
(g4547
g64
NtRp4939
(dp4940
g67
(dp4941
sg76
g4825
sg69
(lp4942
g62
(g4541
g64
NtRp4943
(dp4944
g67
(dp4945
g4545
S'http://www.web2py.com/book/default/chapter/11'
p4946
ssg76
g4939
sg69
(lp4947
g4464
(S's\x0c\x00\x00\x00Ajax Recipes'
tRp4948
asbasbag62
(g4547
g64
NtRp4949
(dp4950
g67
(dp4951
sg76
g4825
sg69
(lp4952
g62
(g4541
g64
NtRp4953
(dp4954
g67
(dp4955
g4545
S'http://www.web2py.com/book/default/chapter/12'
p4956
ssg76
g4949
sg69
(lp4957
g4464
(S's\x16\x00\x00\x00Components and Plugins'
tRp4958
asbasbag62
(g4547
g64
NtRp4959
(dp4960
g67
(dp4961
sg76
g4825
sg69
(lp4962
g62
(g4541
g64
NtRp4963
(dp4964
g67
(dp4965
g4545
S'http://www.web2py.com/book/default/chapter/13'
p4966
ssg76
g4959
sg69
(lp4967
g4464
(S's\x12\x00\x00\x00Deployment Recipes'
tRp4968
asbasbag62
(g4547
g64
NtRp4969
(dp4970
g67
(dp4971
sg76
g4825
sg69
(lp4972
g62
(g4541
g64
NtRp4973
(dp4974
g67
(dp4975
g4545
S'http://www.web2py.com/book/default/chapter/14'
p4976
ssg76
g4969
sg69
(lp4977
g4464
(S's\r\x00\x00\x00Other Recipes'
tRp4978
asbasbag62
(g4547
g64
NtRp4979
(dp4980
g67
(dp4981
sg76
g4825
sg69
(lp4982
g62
(g4541
g64
NtRp4983
(dp4984
g67
(dp4985
g4545
S'http://stores.lulu.com/web2py'
p4986
ssg76
g4979
sg69
(lp4987
g4464
(S's\r\x00\x00\x00Buy this book'
tRp4988
asbasbasbasbag62
(g4547
g64
NtRp4989
(dp4990
g67
(dp4991
g4539
g4551
ssg76
g4573
sg69
(lp4992
g62
(g4541
g64
NtRp4993
(dp4994
g67
(dp4995
S'_onclick'
p4996
S'javascript:void(0);return false;'
p4997
sg4545
S'#'
ssg76
g4989
sg69
(lp4998
g4464
(S's\t\x00\x00\x00Community'
tRp4999
asbag62
(g4552
g64
NtRp5000
(dp5001
g67
(dp5002
g4539
g4560
ssg76
g4989
sg69
(lp5003
g62
(g4547
g64
NtRp5004
(dp5005
g67
(dp5006
sg76
g5000
sg69
(lp5007
g62
(g4541
g64
NtRp5008
(dp5009
g67
(dp5010
g4545
S'http://www.web2py.com/examples/default/usergroups'
p5011
ssg76
g5004
sg69
(lp5012
g4464
(S's\x06\x00\x00\x00Groups'
tRp5013
asbasbag62
(g4547
g64
NtRp5014
(dp5015
g67
(dp5016
sg76
g5000
sg69
(lp5017
g62
(g4541
g64
NtRp5018
(dp5019
g67
(dp5020
g4545
S'http://twitter.com/web2py'
p5021
ssg76
g5014
sg69
(lp5022
g4464
(S's\x07\x00\x00\x00Twitter'
tRp5023
asbasbag62
(g4547
g64
NtRp5024
(dp5025
g67
(dp5026
sg76
g5000
sg69
(lp5027
g62
(g4541
g64
NtRp5028
(dp5029
g67
(dp5030
g4545
S'http://webchat.freenode.net/?channels=web2py'
p5031
ssg76
g5024
sg69
(lp5032
g4464
(S's\t\x00\x00\x00Live Chat'
tRp5033
asbasbasbasbag62
(g4547
g64
NtRp5034
(dp5035
g67
(dp5036
g4539
g4551
ssg76
g4573
sg69
(lp5037
g62
(g4541
g64
NtRp5038
(dp5039
g67
(dp5040
g4996
g4997
sg4545
S'#'
ssg76
g5034
sg69
(lp5041
g4464
(S's\x07\x00\x00\x00Plugins'
tRp5042
asbag62
(g4552
g64
NtRp5043
(dp5044
g67
(dp5045
g4539
g4560
ssg76
g5034
sg69
(lp5046
g62
(g4547
g64
NtRp5047
(dp5048
g67
(dp5049
sg76
g5043
sg69
(lp5050
g62
(g4541
g64
NtRp5051
(dp5052
g67
(dp5053
g4545
S'http://web2py.com/examples/default/download'
p5054
ssg76
g5047
sg69
(lp5055
S'plugin_wiki'
p5056
asbasbag62
(g4547
g64
NtRp5057
(dp5058
g67
(dp5059
sg76
g5043
sg69
(lp5060
g62
(g4541
g64
NtRp5061
(dp5062
g67
(dp5063
g4545
g4782
ssg76
g5057
sg69
(lp5064
g4464
(S's\r\x00\x00\x00Other Plugins'
tRp5065
asbasbag62
(g4547
g64
NtRp5066
(dp5067
g67
(dp5068
sg76
g5043
sg69
(lp5069
g62
(g4541
g64
NtRp5070
(dp5071
g67
(dp5072
g4545
g4792
ssg76
g5066
sg69
(lp5073
g4464
(S's\x0e\x00\x00\x00Layout Plugins'
tRp5074
asbasbasbasbasbasbsg69
(lp5075
g4536
asbsg69
(lp5076
g4410
asbasbasbasbag62
(g78
g64
NtRp5077
(dp5078
g67
(dp5079
sg76
g4519
sg69
(lp5080
g62
(g83
g64
NtRp5081
(dp5082
g67
(dp5083
sg76
g5077
sg69
(lp5084
g62
(g63
g64
NtRp5085
(dp5086
g67
(dp5087
g75
I3
ssg76
g5081
sg69
(lp5088
g105
asbasbasbag62
(g78
g64
NtRp5089
(dp5090
g67
(dp5091
sg76
g4519
sg69
(lp5092
g62
(g83
g64
NtRp5093
(dp5094
g67
(dp5095
sg76
g5089
sg69
(lp5096
g62
(g63
g64
NtRp5097
(dp5098
g67
(dp5099
g75
I3
ssg76
g5093
sg69
(lp5100
g4546
asbasbasbag62
(g78
g64
NtRp5101
(dp5102
g67
(dp5103
sg76
g4519
sg69
(lp5104
g62
(g83
g64
NtRp5105
(dp5106
g67
(dp5107
sg76
g5101
sg69
(lp5108
g62
(g63
g64
NtRp5109
(dp5110
g67
(dp5111
g75
I3
ssg76
g5105
sg69
(lp5112
g62
(g71
g64
NtRp5113
(dp5114
g67
(dp5115
g75
I2
ssg76
Nsg69
(lp5116
g62
(g78
g64
NtRp5117
(dp5118
g67
(dp5119
sg76
g5113
sg69
(lp5120
g62
(g83
g64
NtRp5121
(dp5122
g67
(dp5123
sg76
g5117
sg69
(lp5124
g62
(g63
g64
NtRp5125
(dp5126
g67
(dp5127
g75
I2
ssg76
g5121
sg69
(lp5128
g62
(g71
g64
NtRp5129
(dp5130
g67
(dp5131
g75
I1
ssg76
Nsg69
(lp5132
g62
(g78
g64
NtRp5133
(dp5134
g67
(dp5135
sg76
g5129
sg69
(lp5136
g62
(g83
g64
NtRp5137
(dp5138
g67
(dp5139
sg76
g5133
sg69
(lp5140
g62
(g63
g64
NtRp5141
(dp5142
g67
(dp5143
g75
I1
ssg76
g5137
sg69
(lp5144
g4586
asbasbasbag62
(g78
g64
NtRp5145
(dp5146
g67
(dp5147
sg76
g5129
sg69
(lp5148
g62
(g83
g64
NtRp5149
(dp5150
g67
(dp5151
sg76
g5145
sg69
(lp5152
g62
(g63
g64
NtRp5153
(dp5154
g67
(dp5155
g75
I1
ssg76
g5149
sg69
(lp5156
I00
asbasbasbag62
(g78
g64
NtRp5157
(dp5158
g67
(dp5159
sg76
g5129
sg69
(lp5160
g62
(g83
g64
NtRp5161
(dp5162
g67
(dp5163
sg76
g5157
sg69
(lp5164
g62
(g63
g64
NtRp5165
(dp5166
g67
(dp5167
g75
I1
ssg76
g5161
sg69
(lp5168
g4584
asbasbasbasbasbasbasbag62
(g78
g64
NtRp5169
(dp5170
g67
(dp5171
sg76
g5113
sg69
(lp5172
g62
(g83
g64
NtRp5173
(dp5174
g67
(dp5175
sg76
g5169
sg69
(lp5176
g62
(g63
g64
NtRp5177
(dp5178
g67
(dp5179
g75
I2
ssg76
g5173
sg69
(lp5180
g62
(g71
g64
NtRp5181
(dp5182
g67
(dp5183
g75
I1
ssg76
Nsg69
(lp5184
g62
(g78
g64
NtRp5185
(dp5186
g67
(dp5187
sg76
g5181
sg69
(lp5188
g62
(g83
g64
NtRp5189
(dp5190
g67
(dp5191
sg76
g5185
sg69
(lp5192
g62
(g63
g64
NtRp5193
(dp5194
g67
(dp5195
g75
I1
ssg76
g5189
sg69
(lp5196
g4596
asbasbasbag62
(g78
g64
NtRp5197
(dp5198
g67
(dp5199
sg76
g5181
sg69
(lp5200
g62
(g83
g64
NtRp5201
(dp5202
g67
(dp5203
sg76
g5197
sg69
(lp5204
g62
(g63
g64
NtRp5205
(dp5206
g67
(dp5207
g75
I1
ssg76
g5201
sg69
(lp5208
I00
asbasbasbag62
(g78
g64
NtRp5209
(dp5210
g67
(dp5211
sg76
g5181
sg69
(lp5212
g62
(g83
g64
NtRp5213
(dp5214
g67
(dp5215
sg76
g5209
sg69
(lp5216
g62
(g63
g64
NtRp5217
(dp5218
g67
(dp5219
g75
I1
ssg76
g5213
sg69
(lp5220
g4594
asbasbasbag62
(g78
g64
NtRp5221
(dp5222
g67
(dp5223
sg76
g5181
sg69
(lp5224
g62
(g83
g64
NtRp5225
(dp5226
g67
(dp5227
sg76
g5221
sg69
(lp5228
g62
(g63
g64
NtRp5229
(dp5230
g67
(dp5231
g75
I1
ssg76
g5225
sg69
(lp5232
(lp5233
(g4610
I00
g4608
tp5234
a(g4620
I00
g4618
tp5235
a(g4630
I00
g4628
tp5236
a(g4640
I00
g4638
tp5237
a(g4650
I00
g4648
tp5238
a(g4660
I00
g4658
tp5239
a(g4670
I00
g4668
tp5240
a(g4680
I00
g4678
tp5241
a(g4690
I00
g4688
tp5242
aasbasbasbasbasbasbasbag62
(g78
g64
NtRp5243
(dp5244
g67
(dp5245
sg76
g5113
sg69
(lp5246
g62
(g83
g64
NtRp5247
(dp5248
g67
(dp5249
sg76
g5243
sg69
(lp5250
g62
(g63
g64
NtRp5251
(dp5252
g67
(dp5253
g75
I2
ssg76
g5247
sg69
(lp5254
g62
(g71
g64
NtRp5255
(dp5256
g67
(dp5257
g75
I1
ssg76
Nsg69
(lp5258
g62
(g78
g64
NtRp5259
(dp5260
g67
(dp5261
sg76
g5255
sg69
(lp5262
g62
(g83
g64
NtRp5263
(dp5264
g67
(dp5265
sg76
g5259
sg69
(lp5266
g62
(g63
g64
NtRp5267
(dp5268
g67
(dp5269
g75
I1
ssg76
g5263
sg69
(lp5270
g4700
asbasbasbag62
(g78
g64
NtRp5271
(dp5272
g67
(dp5273
sg76
g5255
sg69
(lp5274
g62
(g83
g64
NtRp5275
(dp5276
g67
(dp5277
sg76
g5271
sg69
(lp5278
g62
(g63
g64
NtRp5279
(dp5280
g67
(dp5281
g75
I1
ssg76
g5275
sg69
(lp5282
I00
asbasbasbag62
(g78
g64
NtRp5283
(dp5284
g67
(dp5285
sg76
g5255
sg69
(lp5286
g62
(g83
g64
NtRp5287
(dp5288
g67
(dp5289
sg76
g5283
sg69
(lp5290
g62
(g63
g64
NtRp5291
(dp5292
g67
(dp5293
g75
I1
ssg76
g5287
sg69
(lp5294
g4698
asbasbasbag62
(g78
g64
NtRp5295
(dp5296
g67
(dp5297
sg76
g5255
sg69
(lp5298
g62
(g83
g64
NtRp5299
(dp5300
g67
(dp5301
sg76
g5295
sg69
(lp5302
g62
(g63
g64
NtRp5303
(dp5304
g67
(dp5305
g75
I1
ssg76
g5299
sg69
(lp5306
(lp5307
(g4714
I00
g4712
tp5308
a(g4724
I00
g4722
tp5309
a(g4734
I00
g4732
tp5310
a(g4744
I00
g4742
tp5311
a(g4754
I00
g4752
tp5312
a(g4764
I00
g4762
tp5313
a(g4774
I00
g4772
tp5314
a(g4784
I00
g4782
tp5315
a(g4794
I00
g4792
tp5316
a(g4804
I00
g4802
tp5317
a(g4814
I00
g4812
tp5318
aasbasbasbasbasbasbasbag62
(g78
g64
NtRp5319
(dp5320
g67
(dp5321
sg76
g5113
sg69
(lp5322
g62
(g83
g64
NtRp5323
(dp5324
g67
(dp5325
sg76
g5319
sg69
(lp5326
g62
(g63
g64
NtRp5327
(dp5328
g67
(dp5329
g75
I2
ssg76
g5323
sg69
(lp5330
g62
(g71
g64
NtRp5331
(dp5332
g67
(dp5333
g75
I1
ssg76
Nsg69
(lp5334
g62
(g78
g64
NtRp5335
(dp5336
g67
(dp5337
sg76
g5331
sg69
(lp5338
g62
(g83
g64
NtRp5339
(dp5340
g67
(dp5341
sg76
g5335
sg69
(lp5342
g62
(g63
g64
NtRp5343
(dp5344
g67
(dp5345
g75
I1
ssg76
g5339
sg69
(lp5346
g4824
asbasbasbag62
(g78
g64
NtRp5347
(dp5348
g67
(dp5349
sg76
g5331
sg69
(lp5350
g62
(g83
g64
NtRp5351
(dp5352
g67
(dp5353
sg76
g5347
sg69
(lp5354
g62
(g63
g64
NtRp5355
(dp5356
g67
(dp5357
g75
I1
ssg76
g5351
sg69
(lp5358
I00
asbasbasbag62
(g78
g64
NtRp5359
(dp5360
g67
(dp5361
sg76
g5331
sg69
(lp5362
g62
(g83
g64
NtRp5363
(dp5364
g67
(dp5365
sg76
g5359
sg69
(lp5366
g62
(g63
g64
NtRp5367
(dp5368
g67
(dp5369
g75
I1
ssg76
g5363
sg69
(lp5370
g4822
asbasbasbag62
(g78
g64
NtRp5371
(dp5372
g67
(dp5373
sg76
g5331
sg69
(lp5374
g62
(g83
g64
NtRp5375
(dp5376
g67
(dp5377
sg76
g5371
sg69
(lp5378
g62
(g63
g64
NtRp5379
(dp5380
g67
(dp5381
g75
I1
ssg76
g5375
sg69
(lp5382
(lp5383
(g4838
I00
g4836
tp5384
a(g4848
I00
g4846
tp5385
a(g4858
I00
g4856
tp5386
a(g4868
I00
g4866
tp5387
a(g4878
I00
g4876
tp5388
a(g4888
I00
g4886
tp5389
a(g4898
I00
g4896
tp5390
a(g4908
I00
g4906
tp5391
a(g4918
I00
g4916
tp5392
a(g4928
I00
g4926
tp5393
a(g4938
I00
g4936
tp5394
a(g4948
I00
g4946
tp5395
a(g4958
I00
g4956
tp5396
a(g4968
I00
g4966
tp5397
a(g4978
I00
g4976
tp5398
a(g4988
I00
g4986
tp5399
aasbasbasbasbasbasbasbag62
(g78
g64
NtRp5400
(dp5401
g67
(dp5402
sg76
g5113
sg69
(lp5403
g62
(g83
g64
NtRp5404
(dp5405
g67
(dp5406
sg76
g5400
sg69
(lp5407
g62
(g63
g64
NtRp5408
(dp5409
g67
(dp5410
g75
I2
ssg76
g5404
sg69
(lp5411
g62
(g71
g64
NtRp5412
(dp5413
g67
(dp5414
g75
I1
ssg76
Nsg69
(lp5415
g62
(g78
g64
NtRp5416
(dp5417
g67
(dp5418
sg76
g5412
sg69
(lp5419
g62
(g83
g64
NtRp5420
(dp5421
g67
(dp5422
sg76
g5416
sg69
(lp5423
g62
(g63
g64
NtRp5424
(dp5425
g67
(dp5426
g75
I1
ssg76
g5420
sg69
(lp5427
g4999
asbasbasbag62
(g78
g64
NtRp5428
(dp5429
g67
(dp5430
sg76
g5412
sg69
(lp5431
g62
(g83
g64
NtRp5432
(dp5433
g67
(dp5434
sg76
g5428
sg69
(lp5435
g62
(g63
g64
NtRp5436
(dp5437
g67
(dp5438
g75
I1
ssg76
g5432
sg69
(lp5439
I00
asbasbasbag62
(g78
g64
NtRp5440
(dp5441
g67
(dp5442
sg76
g5412
sg69
(lp5443
g62
(g83
g64
NtRp5444
(dp5445
g67
(dp5446
sg76
g5440
sg69
(lp5447
g62
(g63
g64
NtRp5448
(dp5449
g67
(dp5450
g75
I1
ssg76
g5444
sg69
(lp5451
Nasbasbasbag62
(g78
g64
NtRp5452
(dp5453
g67
(dp5454
sg76
g5412
sg69
(lp5455
g62
(g83
g64
NtRp5456
(dp5457
g67
(dp5458
sg76
g5452
sg69
(lp5459
g62
(g63
g64
NtRp5460
(dp5461
g67
(dp5462
g75
I1
ssg76
g5456
sg69
(lp5463
(lp5464
(g5013
I00
g5011
tp5465
a(g5023
I00
g5021
tp5466
a(g5033
I00
g5031
tp5467
aasbasbasbasbasbasbasbag62
(g78
g64
NtRp5468
(dp5469
g67
(dp5470
sg76
g5113
sg69
(lp5471
g62
(g83
g64
NtRp5472
(dp5473
g67
(dp5474
sg76
g5468
sg69
(lp5475
g62
(g63
g64
NtRp5476
(dp5477
g67
(dp5478
g75
I2
ssg76
g5472
sg69
(lp5479
g62
(g71
g64
NtRp5480
(dp5481
g67
(dp5482
g75
I1
ssg76
Nsg69
(lp5483
g62
(g78
g64
NtRp5484
(dp5485
g67
(dp5486
sg76
g5480
sg69
(lp5487
g62
(g83
g64
NtRp5488
(dp5489
g67
(dp5490
sg76
g5484
sg69
(lp5491
g62
(g63
g64
NtRp5492
(dp5493
g67
(dp5494
g75
I1
ssg76
g5488
sg69
(lp5495
g5042
asbasbasbag62
(g78
g64
NtRp5496
(dp5497
g67
(dp5498
sg76
g5480
sg69
(lp5499
g62
(g83
g64
NtRp5500
(dp5501
g67
(dp5502
sg76
g5496
sg69
(lp5503
g62
(g63
g64
NtRp5504
(dp5505
g67
(dp5506
g75
I1
ssg76
g5500
sg69
(lp5507
I00
asbasbasbag62
(g78
g64
NtRp5508
(dp5509
g67
(dp5510
sg76
g5480
sg69
(lp5511
g62
(g83
g64
NtRp5512
(dp5513
g67
(dp5514
sg76
g5508
sg69
(lp5515
g62
(g63
g64
NtRp5516
(dp5517
g67
(dp5518
g75
I1
ssg76
g5512
sg69
(lp5519
Nasbasbasbag62
(g78
g64
NtRp5520
(dp5521
g67
(dp5522
sg76
g5480
sg69
(lp5523
g62
(g83
g64
NtRp5524
(dp5525
g67
(dp5526
sg76
g5520
sg69
(lp5527
g62
(g63
g64
NtRp5528
(dp5529
g67
(dp5530
g75
I1
ssg76
g5524
sg69
(lp5531
(lp5532
(g5056
I00
g5054
tp5533
a(g5065
I00
g4782
tp5534
a(g5074
I00
g4792
tp5535
aasbasbasbasbasbasbasbasbasbasbasbasbasbasbasbasbasbasbasbag62
(g78
g64
NtRp5536
(dp5537
g67
(dp5538
sg76
g3869
sg69
(lp5539
g62
(g83
g64
NtRp5540
(dp5541
g67
(dp5542
g87
g88
ssg76
g5536
sg69
(lp5543
S'meta'
p5544
asbag62
(g83
g64
NtRp5545
(dp5546
g67
(dp5547
g94
g95
ssg76
g5536
sg69
(lp5548
S':'
asbag62
(g83
g64
NtRp5549
(dp5550
g67
(dp5551
sg76
g5536
sg69
(lp5552
g62
(g63
g64
NtRp5553
(dp5554
g67
(dp5555
g75
I5
ssg76
g5549
sg69
(lp5556
g62
(g71
g64
NtRp5557
(dp5558
g67
(dp5559
g75
I4
ssg76
Nsg69
(lp5560
g62
(g78
g64
NtRp5561
(dp5562
g67
(dp5563
sg76
g5557
sg69
(lp5564
g62
(g83
g64
NtRp5565
(dp5566
g67
(dp5567
g87
g88
ssg76
g5561
sg69
(lp5568
S'author'
p5569
asbag62
(g83
g64
NtRp5570
(dp5571
g67
(dp5572
g94
g95
ssg76
g5561
sg69
(lp5573
S':'
asbag62
(g83
g64
NtRp5574
(dp5575
g67
(dp5576
sg76
g5561
sg69
(lp5577
g62
(g63
g64
NtRp5578
(dp5579
g67
(dp5580
g75
I4
ssg76
g5574
sg69
(lp5581
S'Your Name <you@example.com>'
p5582
asbasbasbag62
(g78
g64
NtRp5583
(dp5584
g67
(dp5585
sg76
g5557
sg69
(lp5586
g62
(g83
g64
NtRp5587
(dp5588
g67
(dp5589
g87
g88
ssg76
g5583
sg69
(lp5590
S'description'
p5591
asbag62
(g83
g64
NtRp5592
(dp5593
g67
(dp5594
g94
g95
ssg76
g5583
sg69
(lp5595
S':'
asbag62
(g83
g64
NtRp5596
(dp5597
g67
(dp5598
sg76
g5583
sg69
(lp5599
g62
(g63
g64
NtRp5600
(dp5601
g67
(dp5602
g75
I4
ssg76
g5596
sg69
(lp5603
S'a cool new app'
p5604
asbasbasbag62
(g78
g64
NtRp5605
(dp5606
g67
(dp5607
sg76
g5557
sg69
(lp5608
g62
(g83
g64
NtRp5609
(dp5610
g67
(dp5611
g87
g88
ssg76
g5605
sg69
(lp5612
S'generator'
p5613
asbag62
(g83
g64
NtRp5614
(dp5615
g67
(dp5616
g94
g95
ssg76
g5605
sg69
(lp5617
S':'
asbag62
(g83
g64
NtRp5618
(dp5619
g67
(dp5620
sg76
g5605
sg69
(lp5621
g62
(g63
g64
NtRp5622
(dp5623
g67
(dp5624
g75
I4
ssg76
g5618
sg69
(lp5625
S'Web2py Web Framework'
p5626
asbasbasbag62
(g78
g64
NtRp5627
(dp5628
g67
(dp5629
sg76
g5557
sg69
(lp5630
g62
(g83
g64
NtRp5631
(dp5632
g67
(dp5633
g87
g88
ssg76
g5627
sg69
(lp5634
S'keywords'
p5635
asbag62
(g83
g64
NtRp5636
(dp5637
g67
(dp5638
g94
g95
ssg76
g5627
sg69
(lp5639
S':'
asbag62
(g83
g64
NtRp5640
(dp5641
g67
(dp5642
sg76
g5627
sg69
(lp5643
g62
(g63
g64
NtRp5644
(dp5645
g67
(dp5646
g75
I4
ssg76
g5640
sg69
(lp5647
S'web2py, python, framework'
p5648
asbasbasbasbasbasbasbag62
(g78
g64
NtRp5649
(dp5650
g67
(dp5651
sg76
g3869
sg69
(lp5652
g62
(g83
g64
NtRp5653
(dp5654
g67
(dp5655
g87
g88
ssg76
g5649
sg69
(lp5656
S'models_to_run'
p5657
asbag62
(g83
g64
NtRp5658
(dp5659
g67
(dp5660
g94
g95
ssg76
g5649
sg69
(lp5661
S':'
asbag62
(g83
g64
NtRp5662
(dp5663
g67
(dp5664
sg76
g5649
sg69
(lp5665
g62
(g63
g64
NtRp5666
(dp5667
g67
(dp5668
g75
I5
ssg76
g5662
sg69
(lp5669
g62
(g71
g64
NtRp5670
(dp5671
g67
(dp5672
g75
I4
ssg76
Nsg69
(lp5673
g62
(g78
g64
NtRp5674
(dp5675
g67
(dp5676
sg76
g5670
sg69
(lp5677
g62
(g83
g64
NtRp5678
(dp5679
g67
(dp5680
sg76
g5674
sg69
(lp5681
g62
(g63
g64
NtRp5682
(dp5683
g67
(dp5684
g75
I4
ssg76
g5678
sg69
(lp5685
S'^\\w+\\.py$'
p5686
asbasbasbag62
(g78
g64
NtRp5687
(dp5688
g67
(dp5689
sg76
g5670
sg69
(lp5690
g62
(g83
g64
NtRp5691
(dp5692
g67
(dp5693
sg76
g5687
sg69
(lp5694
g62
(g63
g64
NtRp5695
(dp5696
g67
(dp5697
g75
I4
ssg76
g5691
sg69
(lp5698
S'^default/\\w+\\.py$'
p5699
asbasbasbag62
(g78
g64
NtRp5700
(dp5701
g67
(dp5702
sg76
g5670
sg69
(lp5703
g62
(g83
g64
NtRp5704
(dp5705
g67
(dp5706
sg76
g5700
sg69
(lp5707
g62
(g63
g64
NtRp5708
(dp5709
g67
(dp5710
g75
I4
ssg76
g5704
sg69
(lp5711
S'^default/show_job/\\w+\\.py$'
p5712
asbasbasbasbasbasbasbag62
(g78
g64
NtRp5713
(dp5714
g67
(dp5715
sg76
g3869
sg69
(lp5716
g62
(g83
g64
NtRp5717
(dp5718
g67
(dp5719
g87
g88
ssg76
g5713
sg69
(lp5720
S'postprocessing'
p5721
asbag62
(g83
g64
NtRp5722
(dp5723
g67
(dp5724
g94
g95
ssg76
g5713
sg69
(lp5725
S':'
asbag62
(g83
g64
NtRp5726
(dp5727
g67
(dp5728
sg76
g5713
sg69
(lp5729
g62
(g63
g64
NtRp5730
(dp5731
g67
(dp5732
g75
I5
ssg76
g5726
sg69
(lp5733
g62
(g71
g64
NtRp5734
(dp5735
g67
(dp5736
g75
I4
ssg76
Nsg69
(lp5737
sbasbasbasbag62
(g78
g64
NtRp5738
(dp5739
g67
(dp5740
sg76
g3869
sg69
(lp5741
g62
(g83
g64
NtRp5742
(dp5743
g67
(dp5744
g87
g88
ssg76
g5738
sg69
(lp5745
S'session_cookie_expires'
p5746
asbag62
(g83
g64
NtRp5747
(dp5748
g67
(dp5749
g94
g95
ssg76
g5738
sg69
(lp5750
S':'
asbag62
(g83
g64
NtRp5751
(dp5752
g67
(dp5753
sg76
g5738
sg69
(lp5754
g62
(g63
g64
NtRp5755
(dp5756
g67
(dp5757
g75
I5
ssg76
g5751
sg69
(lp5758
S'None'
p5759
asbasbasbag62
(g78
g64
NtRp5760
(dp5761
g67
(dp5762
sg76
g3869
sg69
(lp5763
g62
(g83
g64
NtRp5764
(dp5765
g67
(dp5766
g87
g88
ssg76
g5760
sg69
(lp5767
S'session_data_name'
p5768
asbag62
(g83
g64
NtRp5769
(dp5770
g67
(dp5771
g94
g95
ssg76
g5760
sg69
(lp5772
S':'
asbag62
(g83
g64
NtRp5773
(dp5774
g67
(dp5775
sg76
g5760
sg69
(lp5776
g62
(g63
g64
NtRp5777
(dp5778
g67
(dp5779
g75
I5
ssg76
g5773
sg69
(lp5780
S'session_data_betsy'
p5781
asbasbasbag62
(g78
g64
NtRp5782
(dp5783
g67
(dp5784
sg76
g3869
sg69
(lp5785
g62
(g83
g64
NtRp5786
(dp5787
g67
(dp5788
g87
g88
ssg76
g5782
sg69
(lp5789
S'session_file'
p5790
asbag62
(g83
g64
NtRp5791
(dp5792
g67
(dp5793
g94
g95
ssg76
g5782
sg69
(lp5794
S':'
asbag62
(g83
g64
NtRp5795
(dp5796
g67
(dp5797
sg76
g5782
sg69
(lp5798
g62
(g63
g64
NtRp5799
(dp5800
g67
(dp5801
g75
I5
ssg76
g5795
sg69
(lp5802
S"<open file '/home/xchen/web2py/applications/Betsy/sessions/127.0.0.1-70d52105-0f5d-4884-a4e3-dce6830f30e0', mode 'rb+' at 0x178b4390>"
p5803
asbasbasbag62
(g78
g64
NtRp5804
(dp5805
g67
(dp5806
sg76
g3869
sg69
(lp5807
g62
(g83
g64
NtRp5808
(dp5809
g67
(dp5810
g87
g88
ssg76
g5804
sg69
(lp5811
S'session_filename'
p5812
asbag62
(g83
g64
NtRp5813
(dp5814
g67
(dp5815
g94
g95
ssg76
g5804
sg69
(lp5816
S':'
asbag62
(g83
g64
NtRp5817
(dp5818
g67
(dp5819
sg76
g5804
sg69
(lp5820
g62
(g63
g64
NtRp5821
(dp5822
g67
(dp5823
g75
I5
ssg76
g5817
sg69
(lp5824
S'/home/xchen/web2py/applications/Betsy/sessions/127.0.0.1-70d52105-0f5d-4884-a4e3-dce6830f30e0'
p5825
asbasbasbag62
(g78
g64
NtRp5826
(dp5827
g67
(dp5828
sg76
g3869
sg69
(lp5829
g62
(g83
g64
NtRp5830
(dp5831
g67
(dp5832
g87
g88
ssg76
g5826
sg69
(lp5833
S'session_id'
p5834
asbag62
(g83
g64
NtRp5835
(dp5836
g67
(dp5837
g94
g95
ssg76
g5826
sg69
(lp5838
S':'
asbag62
(g83
g64
NtRp5839
(dp5840
g67
(dp5841
sg76
g5826
sg69
(lp5842
g62
(g63
g64
NtRp5843
(dp5844
g67
(dp5845
g75
I5
ssg76
g5839
sg69
(lp5846
g493
asbasbasbag62
(g78
g64
NtRp5847
(dp5848
g67
(dp5849
sg76
g3869
sg69
(lp5850
g62
(g83
g64
NtRp5851
(dp5852
g67
(dp5853
g87
g88
ssg76
g5847
sg69
(lp5854
S'session_id_name'
p5855
asbag62
(g83
g64
NtRp5856
(dp5857
g67
(dp5858
g94
g95
ssg76
g5847
sg69
(lp5859
S':'
asbag62
(g83
g64
NtRp5860
(dp5861
g67
(dp5862
sg76
g5847
sg69
(lp5863
g62
(g63
g64
NtRp5864
(dp5865
g67
(dp5866
g75
I5
ssg76
g5860
sg69
(lp5867
g3926
asbasbasbag62
(g78
g64
NtRp5868
(dp5869
g67
(dp5870
sg76
g3869
sg69
(lp5871
g62
(g83
g64
NtRp5872
(dp5873
g67
(dp5874
g87
g88
ssg76
g5868
sg69
(lp5875
S'session_locked'
p5876
asbag62
(g83
g64
NtRp5877
(dp5878
g67
(dp5879
g94
g95
ssg76
g5868
sg69
(lp5880
S':'
asbag62
(g83
g64
NtRp5881
(dp5882
g67
(dp5883
sg76
g5868
sg69
(lp5884
g62
(g63
g64
NtRp5885
(dp5886
g67
(dp5887
g75
I5
ssg76
g5881
sg69
(lp5888
g1600
asbasbasbag62
(g78
g64
NtRp5889
(dp5890
g67
(dp5891
sg76
g3869
sg69
(lp5892
g62
(g83
g64
NtRp5893
(dp5894
g67
(dp5895
g87
g88
ssg76
g5889
sg69
(lp5896
S'session_new'
p5897
asbag62
(g83
g64
NtRp5898
(dp5899
g67
(dp5900
g94
g95
ssg76
g5889
sg69
(lp5901
S':'
asbag62
(g83
g64
NtRp5902
(dp5903
g67
(dp5904
sg76
g5889
sg69
(lp5905
g62
(g63
g64
NtRp5906
(dp5907
g67
(dp5908
g75
I5
ssg76
g5902
sg69
(lp5909
g105
asbasbasbag62
(g78
g64
NtRp5910
(dp5911
g67
(dp5912
sg76
g3869
sg69
(lp5913
g62
(g83
g64
NtRp5914
(dp5915
g67
(dp5916
g87
g88
ssg76
g5910
sg69
(lp5917
S'session_storage_type'
p5918
asbag62
(g83
g64
NtRp5919
(dp5920
g67
(dp5921
g94
g95
ssg76
g5910
sg69
(lp5922
S':'
asbag62
(g83
g64
NtRp5923
(dp5924
g67
(dp5925
sg76
g5910
sg69
(lp5926
g62
(g63
g64
NtRp5927
(dp5928
g67
(dp5929
g75
I5
ssg76
g5923
sg69
(lp5930
g3032
asbasbasbag62
(g78
g64
NtRp5931
(dp5932
g67
(dp5933
sg76
g3869
sg69
(lp5934
g62
(g83
g64
NtRp5935
(dp5936
g67
(dp5937
g87
g88
ssg76
g5931
sg69
(lp5938
S'status'
p5939
asbag62
(g83
g64
NtRp5940
(dp5941
g67
(dp5942
g94
g95
ssg76
g5931
sg69
(lp5943
S':'
asbag62
(g83
g64
NtRp5944
(dp5945
g67
(dp5946
sg76
g5931
sg69
(lp5947
g62
(g63
g64
NtRp5948
(dp5949
g67
(dp5950
g75
I5
ssg76
g5944
sg69
(lp5951
S'200'
p5952
asbasbasbag62
(g78
g64
NtRp5953
(dp5954
g67
(dp5955
sg76
g3869
sg69
(lp5956
g62
(g83
g64
NtRp5957
(dp5958
g67
(dp5959
g87
g88
ssg76
g5953
sg69
(lp5960
S'subtitle'
p5961
asbag62
(g83
g64
NtRp5962
(dp5963
g67
(dp5964
g94
g95
ssg76
g5953
sg69
(lp5965
S':'
asbag62
(g83
g64
NtRp5966
(dp5967
g67
(dp5968
sg76
g5953
sg69
(lp5969
g62
(g63
g64
NtRp5970
(dp5971
g67
(dp5972
g75
I5
ssg76
g5966
sg69
(lp5973
g4464
(S's\r\x00\x00\x00customize me!'
tRp5974
asbasbasbag62
(g78
g64
NtRp5975
(dp5976
g67
(dp5977
sg76
g3869
sg69
(lp5978
g62
(g83
g64
NtRp5979
(dp5980
g67
(dp5981
g87
g88
ssg76
g5975
sg69
(lp5982
S'title'
p5983
asbag62
(g83
g64
NtRp5984
(dp5985
g67
(dp5986
g94
g95
ssg76
g5975
sg69
(lp5987
S':'
asbag62
(g83
g64
NtRp5988
(dp5989
g67
(dp5990
sg76
g5975
sg69
(lp5991
g62
(g63
g64
NtRp5992
(dp5993
g67
(dp5994
g75
I5
ssg76
g5988
sg69
(lp5995
S'Betsy'
p5996
asbasbasbag62
(g78
g64
NtRp5997
(dp5998
g67
(dp5999
sg76
g3869
sg69
(lp6000
g62
(g83
g64
NtRp6001
(dp6002
g67
(dp6003
g87
g88
ssg76
g5997
sg69
(lp6004
S'view'
p6005
asbag62
(g83
g64
NtRp6006
(dp6007
g67
(dp6008
g94
g95
ssg76
g5997
sg69
(lp6009
S':'
asbag62
(g83
g64
NtRp6010
(dp6011
g67
(dp6012
sg76
g5997
sg69
(lp6013
g62
(g63
g64
NtRp6014
(dp6015
g67
(dp6016
g75
I5
ssg76
g6010
sg69
(lp6017
S'default/show_job.html'
p6018
asbasbasbasbasbsS'locals'
p6019
(dp6020
S'Service'
p6021
S"<class 'gluon.tools.Service'>"
p6022
sS'text'
p6023
S"['Generating pipelines...', '6 pipelines have been generated.', '', 'Pipeline1: Preprocessing the signal file.\\r', '[ 3:36PM] 1.convert_signal_to_tdf', '[ 3:36PM] 2.log_signal', '[ 3:36PM] 3.fill_missing_with_zeros', '[ 3:36PM] 4.annotate_probes', '[ 3:43PM] Completed successfully and generated a file:', '/home/xchen/chencode/examples/sample_analysis/an...7627e694e.4368616e675f415230303431302e70636c.txt\\r', '\\r', 'Pipeline2: Making a PCA plot of the samples before normalization.\\r', '[ 3:43PM] 1.convert_signal_to_tdf', '[ 3:43PM] 2.log_signal', '[ 3:43PM] 3.fill_missing_with_median', '[ 3:43PM] 4.make_class_label_file', '[ 3:43PM] 5.convert_signal_to_tdf', '[ 3:44PM] 6.log_signal', '[ 3:44PM] 7.fill_missing_with_zeros', '[ 3:44PM] 8.analyze_samples_pca', ...]"
p6024
sS'OBJECT'
p6025
S"<class 'gluon.html.OBJECT'>"
p6026
sS'SQLDB'
p6027
S"<class 'gluon.dal.DAL'>"
p6028
sg3085
S"<Storage {'cmd': ['python', '/home/xchen/chencod...ssion_hash': '3bc321d1c292dadd2a3a2aafe912fd1a'}>"
p6029
sS'LINK'
p6030
S"<class 'gluon.html.LINK'>"
p6031
sS'BR'
p6032
S"<class 'gluon.html.BR'>"
p6033
sS'local_import'
p6034
S'<function <lambda>>'
p6035
sS'OPTGROUP'
p6036
S"<class 'gluon.html.OPTGROUP'>"
p6037
sS'__package__'
p6038
S'None'
p6039
sS'PRE'
p6040
S"<class 'gluon.html.PRE'>"
p6041
sS'IS_INT_IN_RANGE'
p6042
S"<class 'gluon.validators.IS_INT_IN_RANGE'>"
p6043
sS'left_sidebar_enabled'
p6044
g105
sS'IS_LOWER'
p6045
S"<class 'gluon.validators.IS_LOWER'>"
p6046
sS'IS_STRONG'
p6047
S"<class 'gluon.validators.IS_STRONG'>"
p6048
sS'cache'
p6049
S'<gluon.cache.Cache object>'
p6050
sS'IS_IN_DB'
p6051
S"<class 'gluon.validators.IS_IN_DB'>"
p6052
sS'TAG'
p6053
S'<gluon.html.__TAG__ object>'
p6054
sS'SQLField'
p6055
S"<class 'gluon.dal.Field'>"
p6056
sS'mail'
p6057
S'<gluon.tools.Mail object>'
p6058
sS'BODY'
p6059
S"<class 'gluon.html.BODY'>"
p6060
sS'IS_DATE_IN_RANGE'
p6061
S"<class 'gluon.validators.IS_DATE_IN_RANGE'>"
p6062
sS'IFRAME'
p6063
S"<class 'gluon.html.IFRAME'>"
p6064
sS'URL'
p6065
S'<function URL>'
p6066
sS'__file__'
p6067
S"'/home/xchen/web2py/applications/Betsy/views/default/show_job.html'"
p6068
sS'db'
p6069
S'<DAL uri="sqlite://storage.sqlite">'
p6070
sS'auth'
p6071
S'<gluon.tools.Auth object>'
p6072
sS'P'
S"<class 'gluon.html.P'>"
p6073
sS'TFOOT'
p6074
S"<class 'gluon.html.TFOOT'>"
p6075
sS'XHTML'
p6076
S"<class 'gluon.html.XHTML'>"
p6077
sS'ON'
p6078
g1600
sS'OL'
p6079
S"<class 'gluon.html.OL'>"
p6080
sS'TEXTAREA'
p6081
S"<class 'gluon.html.TEXTAREA'>"
p6082
sS'MENU'
p6083
S"<class 'gluon.html.MENU'>"
p6084
sS'IS_IMAGE'
p6085
S"<class 'gluon.validators.IS_IMAGE'>"
p6086
sS'EM'
p6087
S"<class 'gluon.html.EM'>"
p6088
sS'CODE'
p6089
S"<class 'gluon.html.CODE'>"
p6090
sS'HTTP'
p6091
S"<class 'gluon.http.HTTP'>"
p6092
sS'HR'
p6093
S"<class 'gluon.html.HR'>"
p6094
sS'IS_DATETIME'
p6095
S"<class 'gluon.validators.IS_DATETIME'>"
p6096
sS'STYLE'
p6097
S"<class 'gluon.html.STYLE'>"
p6098
sS'LABEL'
p6099
S"<class 'gluon.html.LABEL'>"
p6100
sS'CLEANUP'
p6101
S"<class 'gluon.validators.CLEANUP'>"
p6102
sS'plugins'
p6103
S'<gluon.tools.PluginManager object>'
p6104
sS'SELECT'
p6105
S"<class 'gluon.html.SELECT'>"
p6106
sS'use_janrain'
p6107
S'<function use_janrain>'
p6108
sS'CENTER'
p6109
S"<class 'gluon.html.CENTER'>"
p6110
sS'prettydate'
p6111
S'<function prettydate>'
p6112
sS'Crud'
p6113
S"<class 'gluon.tools.Crud'>"
p6114
sS'Auth'
p6115
S"<class 'gluon.tools.Auth'>"
p6116
sS'__builtins__'
p6117
S"{'ArithmeticError': <type 'exceptions.ArithmeticError'>, 'AssertionError': <type 'exceptions.AssertionError'>, 'AttributeError': <type 'exceptions.AttributeError'>, 'BaseException': <type 'exceptions.BaseException'>, 'BufferError': <type 'exceptions.BufferError'>, 'BytesWarning': <type 'exceptions.BytesWarning'>, 'DeprecationWarning': <type 'exceptions.DeprecationWarning'>, 'EOFError': <type 'exceptions.EOFError'>, 'Ellipsis': Ellipsis, 'EnvironmentError': <type 'exceptions.EnvironmentError'>, ...}"
p6118
sS'HTML'
p6119
S"<class 'gluon.html.HTML'>"
p6120
sS'SQLFORM'
p6121
S"<class 'gluon.sqlhtml.SQLFORM'>"
p6122
sS'LOAD'
p6123
S'<function LOAD>'
p6124
sS'redirect'
p6125
S'<function redirect>'
p6126
sS'FIELDSET'
p6127
S"<class 'gluon.html.FIELDSET'>"
p6128
sS'IS_EQUAL_TO'
p6129
S"<class 'gluon.validators.IS_EQUAL_TO'>"
p6130
sS'embed64'
p6131
S'<function embed64>'
p6132
sS'IS_LIST_OF'
p6133
S"<class 'gluon.validators.IS_LIST_OF'>"
p6134
sS'newtext'
p6135
S"['Generating pipelines...', '6 pipelines have been generated.', '', 'Pipeline1: Preprocessing the signal file.\\r', '[ 3:36PM] 1.convert_signal_to_tdf', '[ 3:36PM] 2.log_signal', '[ 3:36PM] 3.fill_missing_with_zeros', '[ 3:36PM] 4.annotate_probes', '[ 3:43PM] Completed successfully and generated a file:', '/Users/xchen2/Desktop/unicron/chencode/examples/...67627e694e.4368616e675f415230303431302e70636c.txt', '\\r', 'Pipeline2: Making a PCA plot of the samples before normalization.\\r', '[ 3:43PM] 1.convert_signal_to_tdf', '[ 3:43PM] 2.log_signal', '[ 3:43PM] 3.fill_missing_with_median', '[ 3:43PM] 4.make_class_label_file', '[ 3:43PM] 5.convert_signal_to_tdf', '[ 3:44PM] 6.log_signal', '[ 3:44PM] 7.fill_missing_with_zeros', '[ 3:44PM] 8.analyze_samples_pca', ...]"
p6136
sS'INPUT'
p6137
S"<class 'gluon.html.INPUT'>"
p6138
sS'EMBED'
p6139
S"<class 'gluon.html.EMBED'>"
p6140
sS'_'
S'<function _>'
p6141
sS'H2'
p6142
S"<class 'gluon.html.H2'>"
p6143
sS'H3'
p6144
S"<class 'gluon.html.H3'>"
p6145
sS'BUTTON'
p6146
S"<class 'gluon.html.BUTTON'>"
p6147
sS'H1'
p6148
S"<class 'gluon.html.H1'>"
p6149
sS'H6'
p6150
S"<class 'gluon.html.H6'>"
p6151
sS'job'
p6152
S"<Row {'Status': 'completed', 'Submitted': '02/06...bname': 'IWAMNY', 'id': 131, 'Jobnumber': '337'}>"
p6153
sS'H4'
p6154
S"<class 'gluon.html.H4'>"
p6155
sS'H5'
p6156
S"<class 'gluon.html.H5'>"
p6157
sS'UL'
p6158
S"<class 'gluon.html.UL'>"
p6159
sS'IS_UPPER'
p6160
S"<class 'gluon.validators.IS_UPPER'>"
p6161
sS'xmlescape'
p6162
S'<function xmlescape>'
p6163
sS'IS_TIME'
p6164
S"<class 'gluon.validators.IS_TIME'>"
p6165
sS'OPTION'
p6166
S"<class 'gluon.html.OPTION'>"
p6167
sS'TITLE'
p6168
S"<class 'gluon.html.TITLE'>"
p6169
sS'CRYPT'
p6170
S"<class 'gluon.validators.CRYPT'>"
p6171
sS'IS_EMPTY_OR'
p6172
S"<class 'gluon.validators.IS_EMPTY_OR'>"
p6173
sS'MARKMIN'
p6174
S"<class 'gluon.html.MARKMIN'>"
p6175
sS'__name__'
p6176
S"'__restricted__'"
p6177
sS'STRONG'
p6178
S"<class 'gluon.html.STRONG'>"
p6179
sS'COL'
p6180
S"<class 'gluon.html.COL'>"
p6181
sS'service'
p6182
S'<gluon.tools.Service object>'
p6183
sS'SCRIPT'
p6184
S"<class 'gluon.html.SCRIPT'>"
p6185
sS'is_mobile'
p6186
g105
sS'TABLE'
p6187
S"<class 'gluon.html.TABLE'>"
p6188
sS'IS_IPV4'
p6189
S"<class 'gluon.validators.IS_IPV4'>"
p6190
sS'IS_LENGTH'
p6191
S"<class 'gluon.validators.IS_LENGTH'>"
p6192
sS'XML'
p6193
S"<class 'gluon.html.XML'>"
p6194
sS'B'
S"<class 'gluon.html.B'>"
p6195
sS'IMG'
p6196
S"<class 'gluon.html.IMG'>"
p6197
sS'SQLTABLE'
p6198
S"<class 'gluon.sqlhtml.SQLTABLE'>"
p6199
sS'IS_MATCH'
p6200
S"<class 'gluon.validators.IS_MATCH'>"
p6201
sS'IS_ALPHANUMERIC'
p6202
S"<class 'gluon.validators.IS_ALPHANUMERIC'>"
p6203
sS'info'
p6204
S"'Job is completed'"
p6205
sS'SPAN'
p6206
S"<class 'gluon.html.SPAN'>"
p6207
sS'IS_SLUG'
p6208
S"<class 'gluon.validators.IS_SLUG'>"
p6209
sS'BEAUTIFY'
p6210
S"<class 'gluon.html.BEAUTIFY'>"
p6211
sS'META'
p6212
S"<class 'gluon.html.META'>"
p6213
sS'IS_DATE'
p6214
S"<class 'gluon.validators.IS_DATE'>"
p6215
sS'IS_EMAIL'
p6216
S"<class 'gluon.validators.IS_EMAIL'>"
p6217
sS'IS_NOT_EMPTY'
p6218
S"<class 'gluon.validators.IS_NOT_EMPTY'>"
p6219
sS'IS_FLOAT_IN_RANGE'
p6220
S"<class 'gluon.validators.IS_FLOAT_IN_RANGE'>"
p6221
sS'TBODY'
p6222
S"<class 'gluon.html.TBODY'>"
p6223
sS'CAT'
p6224
S"<class 'gluon.html.CAT'>"
p6225
sS'Field'
p6226
S"<class 'gluon.dal.Field'>"
p6227
sS'middle_columns'
p6228
S"'span12'"
p6229
sS'DIV'
p6230
S"<class 'gluon.html.DIV'>"
p6231
sS'LEGEND'
p6232
S"<class 'gluon.html.LEGEND'>"
p6233
sS'COLGROUP'
p6234
S"<class 'gluon.html.COLGROUP'>"
p6235
sS'DAL'
p6236
S"<class 'gluon.dal.DAL'>"
p6237
sS'TT'
p6238
S"<class 'gluon.html.TT'>"
p6239
sS'TR'
p6240
S"<class 'gluon.html.TR'>"
p6241
sS'LI'
p6242
S"<class 'gluon.html.LI'>"
p6243
sS'right_sidebar_enabled'
p6244
g105
sS'TH'
p6245
S"<class 'gluon.html.TH'>"
p6246
sS'TD'
p6247
S"<class 'gluon.html.TD'>"
p6248
sS'PluginManager'
p6249
S"<class 'gluon.tools.PluginManager'>"
p6250
sS'IS_URL'
p6251
S"<class 'gluon.validators.IS_URL'>"
p6252
sS'A'
S"<class 'gluon.html.A'>"
p6253
sS'HEAD'
p6254
S"<class 'gluon.html.HEAD'>"
p6255
sS'IS_DATETIME_IN_RANGE'
p6256
S"<class 'gluon.validators.IS_DATETIME_IN_RANGE'>"
p6257
sS'FORM'
p6258
S"<class 'gluon.html.FORM'>"
p6259
sS'I'
S"<class 'gluon.html.I'>"
p6260
sS'crud'
p6261
S'<gluon.tools.Crud object>'
p6262
sS'IS_NOT_IN_DB'
p6263
S"<class 'gluon.validators.IS_NOT_IN_DB'>"
p6264
sg3864
S"<Storage {'body': <cStringIO.StringO object at 0...at 0x172551b8>, 'view': 'default/show_job.html'}>"
p6265
sS'THEAD'
p6266
S"<class 'gluon.html.THEAD'>"
p6267
sS'IS_NULL_OR'
p6268
S"<class 'gluon.validators.IS_EMPTY_OR'>"
p6269
sS'i'
S'9'
sg61
S"<Storage {'function': 'show_job', 'body': <cStri...applications/Betsy/', 'post_vars': <Storage {}>}>"
p6270
sS'IS_EXPR'
p6271
S"<class 'gluon.validators.IS_EXPR'>"
p6272
sS'T'
S'<gluon.languages.translator object>'
p6273
sS'IS_IN_SET'
p6274
S"<class 'gluon.validators.IS_IN_SET'>"
p6275
sS'IS_UPLOAD_FILENAME'
p6276
S"<class 'gluon.validators.IS_UPLOAD_FILENAME'>"
p6277
sS'IS_DECIMAL_IN_RANGE'
p6278
S"<class 'gluon.validators.IS_DECIMAL_IN_RANGE'>"
p6279
sssS'traceback'
p6280
S'Traceback (most recent call last):\n  File "/home/xchen/web2py/gluon/restricted.py", line 212, in restricted\n    exec ccode in environment\n  File "/home/xchen/web2py/applications/Betsy/views/default/show_job.html", line 91, in <module>\nIOError: [Errno 2] No such file or directory: \'/Users/xchen2/Desktop/unicron/chencode/examples/sample_analysis/annotate_probes_BETSYHASH1_7fcb308fbdee74d4fb71527bb5fe33c2/signal_file_annot_table.myfile1.aa20f767627e694e.4368616e675f415230303431302e70636c.txt\'\n'
p6281
s.