(dp1
S'output'
p2
S"<type 'exceptions.NameError'> global name 'Jobnumber' is not defined"
p3
sS'layer'
p4
S'/home/xchen/web2py/applications/Betsy/controllers/default.py'
p5
sS'code'
p6
S'# -*- coding: utf-8 -*-\n# this file is released under public domain and you can use without limitations\n\n#########################################################################\n## This is a samples controller\n## - index is the default action of any application\n## - user is required for authentication and authorization\n## - download is for downloading files uploaded in the db (does streaming)\n## - call exposes all registered services (none by default)\n#########################################################################\n\nupload_path = \'/home/xchen/chencode/upload/\'\n@auth.requires_login()\ndef first():\n    form = SQLFORM.factory(Field(\'command\',requires=IS_NOT_EMPTY()),\n        Field(\'myfile1\', \'upload\',\n        uploadfolder=upload_path),\n        Field(\'myfile2\', \'upload\',\n        uploadfolder=upload_path),\n        Field(\'myfile3\', \'upload\',\n        uploadfolder=upload_path),\n        Field(\'myfile4\', \'upload\',\n        uploadfolder=upload_path),\n        Field(\'myfile5\', \'upload\',\n        uploadfolder=upload_path),\n        Field(\'myfile6\', \'upload\',\n        uploadfolder=upload_path),\n        )\n    form_queue = FORM(INPUT(_type=\'submit\',_value=\'show jobs status\'))\n    if form.process().accepted:\n        session.command=form.vars.command\n        session.myfile1 = form.vars.myfile1\n        session.myfile2 = form.vars.myfile2\n        session.myfile3 = form.vars.myfile3\n        session.myfile4 = form.vars.myfile4\n        session.myfile5 = form.vars.myfile5\n        session.myfile6 = form.vars.myfile6\n        redirect(URL(\'second\'))\n    if form_queue.process().accepted:\n        redirect(URL(\'show_status\'))\n    return dict(form=form,form_queue=form_queue)\n    \n    \ndef show_status():\n    import subprocess\n    all_cmd = [\'python\',\'/home/xchen/chencode/tmp/try_parallel/queue.py\',\'--list\']    \n    process = subprocess.Popen(all_cmd, shell=False,\n                               stdout=subprocess.PIPE,\n                               stderr=subprocess.STDOUT)\n    process.wait()\n    log_information = process.stdout.read().split(\'\\n\')\n    log_information = [i for i in log_information if i]\n    print db.status[Jobnumber]\n    for log_line in log_information:\n        lines = log_line.split(\'\\t\')\n        \n        db.status.insert(Jobnumber=lines[0],Jobname=lines[1], Status=lines[2], Started=lines[3],\n            Ended=lines[4],Submitted=lines[5],Command=lines[6],Link=\'\')\n    form=db().select(db.status.ALL)\n    return dict(form=form)\n    \ndef second():\n    if session.command:\n        import subprocess\n        import os\n        command = session.command.replace(\'myfile1\',os.path.join(upload_path,session.myfile1))\n        command = command.replace(\'myfile2\',os.path.join(upload_path,session.myfile2))\n        command = command.replace(\'myfile3\',os.path.join(upload_path,session.myfile3))\n        command = command.replace(\'myfile4\',os.path.join(upload_path,session.myfile4))\n        command = command.replace(\'myfile5\',os.path.join(upload_path,session.myfile5))\n        command = command.replace(\'myfile6\',os.path.join(upload_path,session.myfile6))\n        command_list=command.split()\n        \n        cmd = [\'python\',os.path.join(\'/home/xchen/chencode/Betsy/scripts\',command_list[0])]+command_list[1:]\n        all_cmd = [\'python\',\'/home/xchen/chencode/tmp/try_parallel/queue.py\' ,\' \' .join(cmd)]\n        session.cmd=all_cmd\n        process1 = subprocess.Popen(all_cmd, shell=False,\n                               stdout=subprocess.PIPE,\n                               stderr=subprocess.STDOUT)\n        process1.wait()                       \n        all_cmd = [\'python\',\'/home/xchen/chencode/tmp/try_parallel/queue.py\',\'--list\']    \n        process2 = subprocess.Popen(all_cmd, shell=False,\n                               stdout=subprocess.PIPE,\n                               stderr=subprocess.STDOUT)\n        process2.wait()\n        session.output = process2.stdout.read().split(\'\\n\')\n        \n    return dict()\n    \n    \ndef index():\n    """\n    example action using the internationalization operator T and flash\n    rendered by views/default/index.html or views/generic.html\n\n    if you need a simple wiki simple replace the two lines below with:\n    return auth.wiki()\n    """\n    #response.flash = T("Welcome to web2py!")\n    #return dict(message=T(\'Hello World\'))\n\n\ndef user():\n    """\n    exposes:\n    http://..../[app]/default/user/login\n    http://..../[app]/default/user/logout\n    http://..../[app]/default/user/register\n    http://..../[app]/default/user/profile\n    http://..../[app]/default/user/retrieve_password\n    http://..../[app]/default/user/change_password\n    use @auth.requires_login()\n        @auth.requires_membership(\'group name\')\n        @auth.requires_permission(\'read\',\'table name\',record_id)\n    to decorate functions that need access control\n    """\n    return dict(form=auth())\n\n\ndef download():\n    """\n    allows downloading of uploaded files\n    http://..../[app]/default/download/[filename]\n    """\n    return response.download(request, db)\n\n\ndef call():\n    """\n    exposes services. for example:\n    http://..../[app]/default/call/jsonrpc\n    decorate with @services.jsonrpc the functions to expose\n    supports xml, json, xmlrpc, jsonrpc, amfrpc, rss, csv\n    """\n    return service()\n\n\n@auth.requires_signature()\ndef data():\n    """\n    http://..../[app]/default/data/tables\n    http://..../[app]/default/data/create/[table]\n    http://..../[app]/default/data/read/[table]/[id]\n    http://..../[app]/default/data/update/[table]/[id]\n    http://..../[app]/default/data/delete/[table]/[id]\n    http://..../[app]/default/data/select/[table]\n    http://..../[app]/default/data/search/[table]\n    but URLs must be signed, i.e. linked with\n      A(\'table\',_href=URL(\'data/tables\',user_signature=True))\n    or with the signed load operator\n      LOAD(\'default\',\'data.load\',args=\'tables\',ajax=True,user_signature=True)\n    """\n    return dict(form=crud())\n\nresponse._vars=response._caller(show_status)\n'
p7
sS'snapshot'
p8
(dp9
S'exception'
p10
(dp11
S'__hash__'
p12
S"<method-wrapper '__hash__' of exceptions.NameError object>"
p13
sS'__setattr__'
p14
S"<method-wrapper '__setattr__' of exceptions.NameError object>"
p15
sS'__reduce_ex__'
p16
S'<built-in method __reduce_ex__ of exceptions.NameError object>'
p17
sS'__getslice__'
p18
S"<method-wrapper '__getslice__' of exceptions.NameError object>"
p19
sS'__getitem__'
p20
S"<method-wrapper '__getitem__' of exceptions.NameError object>"
p21
sS'__setstate__'
p22
S'<built-in method __setstate__ of exceptions.NameError object>'
p23
sS'args'
p24
S'("global name \'Jobnumber\' is not defined",)'
p25
sS'__reduce__'
p26
S'<built-in method __reduce__ of exceptions.NameError object>'
p27
sS'__str__'
p28
S"<method-wrapper '__str__' of exceptions.NameError object>"
p29
sS'__format__'
p30
S'<built-in method __format__ of exceptions.NameError object>'
p31
sS'__getattribute__'
p32
S"<method-wrapper '__getattribute__' of exceptions.NameError object>"
p33
sS'__class__'
p34
S"<type 'exceptions.NameError'>"
p35
sS'__unicode__'
p36
S'<built-in method __unicode__ of exceptions.NameError object>'
p37
sS'__delattr__'
p38
S"<method-wrapper '__delattr__' of exceptions.NameError object>"
p39
sS'__subclasshook__'
p40
S'<built-in method __subclasshook__ of type object>'
p41
sS'__repr__'
p42
S"<method-wrapper '__repr__' of exceptions.NameError object>"
p43
sS'__dict__'
p44
S'{}'
p45
sS'__sizeof__'
p46
S'<built-in method __sizeof__ of exceptions.NameError object>'
p47
sS'__doc__'
p48
S"'Name not found globally.'"
p49
sS'__init__'
p50
S"<method-wrapper '__init__' of exceptions.NameError object>"
p51
sS'__new__'
p52
S'<built-in method __new__ of type object>'
p53
ssS'evalue'
p54
S"global name 'Jobnumber' is not defined"
p55
sS'request'
p56
ccopy_reg
_reconstructor
p57
(cgluon.html
BEAUTIFY
p58
c__builtin__
object
p59
NtRp60
(dp61
S'attributes'
p62
(dp63
sS'components'
p64
(lp65
g57
(cgluon.html
TABLE
p66
g59
NtRp67
(dp68
g62
(dp69
S'level'
p70
I5
ssS'parent'
p71
Nsg64
(lp72
g57
(cgluon.html
TR
p73
g59
NtRp74
(dp75
g62
(dp76
sg71
g67
sg64
(lp77
g57
(cgluon.html
TD
p78
g59
NtRp79
(dp80
g62
(dp81
S'_style'
p82
S'font-weight:bold;vertical-align:top'
p83
ssg71
g74
sg64
(lp84
S'ajax'
p85
asbag57
(g78
g59
NtRp86
(dp87
g62
(dp88
S'_valign'
p89
S'top'
p90
ssg71
g74
sg64
(lp91
S':'
asbag57
(g78
g59
NtRp92
(dp93
g62
(dp94
sg71
g74
sg64
(lp95
g57
(g58
g59
NtRp96
(dp97
g62
(dp98
g70
I5
ssg71
g92
sg64
(lp99
S'False'
p100
asbasbasbag57
(g73
g59
NtRp101
(dp102
g62
(dp103
sg71
g67
sg64
(lp104
g57
(g78
g59
NtRp105
(dp106
g62
(dp107
g82
g83
ssg71
g101
sg64
(lp108
S'application'
p109
asbag57
(g78
g59
NtRp110
(dp111
g62
(dp112
g89
g90
ssg71
g101
sg64
(lp113
S':'
asbag57
(g78
g59
NtRp114
(dp115
g62
(dp116
sg71
g101
sg64
(lp117
g57
(g58
g59
NtRp118
(dp119
g62
(dp120
g70
I5
ssg71
g114
sg64
(lp121
S'Betsy'
p122
asbasbasbag57
(g73
g59
NtRp123
(dp124
g62
(dp125
sg71
g67
sg64
(lp126
g57
(g78
g59
NtRp127
(dp128
g62
(dp129
g82
g83
ssg71
g123
sg64
(lp130
g24
asbag57
(g78
g59
NtRp131
(dp132
g62
(dp133
g89
g90
ssg71
g123
sg64
(lp134
S':'
asbag57
(g78
g59
NtRp135
(dp136
g62
(dp137
sg71
g123
sg64
(lp138
g57
(g58
g59
NtRp139
(dp140
g62
(dp141
g70
I5
ssg71
g135
sg64
(lp142
g57
(g66
g59
NtRp143
(dp144
g62
(dp145
g70
I4
ssg71
Nsg64
(lp146
sbasbasbasbag57
(g73
g59
NtRp147
(dp148
g62
(dp149
sg71
g67
sg64
(lp150
g57
(g78
g59
NtRp151
(dp152
g62
(dp153
g82
g83
ssg71
g147
sg64
(lp154
S'body'
p155
asbag57
(g78
g59
NtRp156
(dp157
g62
(dp158
g89
g90
ssg71
g147
sg64
(lp159
S':'
asbag57
(g78
g59
NtRp160
(dp161
g62
(dp162
sg71
g147
sg64
(lp163
g57
(g58
g59
NtRp164
(dp165
g62
(dp166
g70
I5
ssg71
g160
sg64
(lp167
S'<cStringIO.StringO object at 0x1a9a56f8>'
p168
asbasbasbag57
(g73
g59
NtRp169
(dp170
g62
(dp171
sg71
g67
sg64
(lp172
g57
(g78
g59
NtRp173
(dp174
g62
(dp175
g82
g83
ssg71
g169
sg64
(lp176
S'cid'
p177
asbag57
(g78
g59
NtRp178
(dp179
g62
(dp180
g89
g90
ssg71
g169
sg64
(lp181
S':'
asbag57
(g78
g59
NtRp182
(dp183
g62
(dp184
sg71
g169
sg64
(lp185
g57
(g58
g59
NtRp186
(dp187
g62
(dp188
g70
I5
ssg71
g182
sg64
(lp189
S'None'
p190
asbasbasbag57
(g73
g59
NtRp191
(dp192
g62
(dp193
sg71
g67
sg64
(lp194
g57
(g78
g59
NtRp195
(dp196
g62
(dp197
g82
g83
ssg71
g191
sg64
(lp198
S'client'
p199
asbag57
(g78
g59
NtRp200
(dp201
g62
(dp202
g89
g90
ssg71
g191
sg64
(lp203
S':'
asbag57
(g78
g59
NtRp204
(dp205
g62
(dp206
sg71
g191
sg64
(lp207
g57
(g58
g59
NtRp208
(dp209
g62
(dp210
g70
I5
ssg71
g204
sg64
(lp211
S'127.0.0.1'
p212
asbasbasbag57
(g73
g59
NtRp213
(dp214
g62
(dp215
sg71
g67
sg64
(lp216
g57
(g78
g59
NtRp217
(dp218
g62
(dp219
g82
g83
ssg71
g213
sg64
(lp220
S'controller'
p221
asbag57
(g78
g59
NtRp222
(dp223
g62
(dp224
g89
g90
ssg71
g213
sg64
(lp225
S':'
asbag57
(g78
g59
NtRp226
(dp227
g62
(dp228
sg71
g213
sg64
(lp229
g57
(g58
g59
NtRp230
(dp231
g62
(dp232
g70
I5
ssg71
g226
sg64
(lp233
S'default'
p234
asbasbasbag57
(g73
g59
NtRp235
(dp236
g62
(dp237
sg71
g67
sg64
(lp238
g57
(g78
g59
NtRp239
(dp240
g62
(dp241
g82
g83
ssg71
g235
sg64
(lp242
S'cookies'
p243
asbag57
(g78
g59
NtRp244
(dp245
g62
(dp246
g89
g90
ssg71
g235
sg64
(lp247
S':'
asbag57
(g78
g59
NtRp248
(dp249
g62
(dp250
sg71
g235
sg64
(lp251
g57
(g58
g59
NtRp252
(dp253
g62
(dp254
g70
I5
ssg71
g248
sg64
(lp255
g57
(g66
g59
NtRp256
(dp257
g62
(dp258
g70
I4
ssg71
Nsg64
(lp259
g57
(g73
g59
NtRp260
(dp261
g62
(dp262
sg71
g256
sg64
(lp263
g57
(g78
g59
NtRp264
(dp265
g62
(dp266
g82
g83
ssg71
g260
sg64
(lp267
S'session_id_admin'
p268
asbag57
(g78
g59
NtRp269
(dp270
g62
(dp271
g89
g90
ssg71
g260
sg64
(lp272
S':'
asbag57
(g78
g59
NtRp273
(dp274
g62
(dp275
sg71
g260
sg64
(lp276
g57
(g58
g59
NtRp277
(dp278
g62
(dp279
g70
I4
ssg71
g273
sg64
(lp280
S'127.0.0.1-4ff97c33-9373-41bc-bf95-984240ad1aeb'
p281
ag57
(g66
g59
NtRp282
(dp283
g62
(dp284
g70
I3
ssg71
Nsg64
(lp285
g57
(g73
g59
NtRp286
(dp287
g62
(dp288
sg71
g282
sg64
(lp289
g57
(g78
g59
NtRp290
(dp291
g62
(dp292
g82
g83
ssg71
g286
sg64
(lp293
S'comment'
p294
asbag57
(g78
g59
NtRp295
(dp296
g62
(dp297
g89
g90
ssg71
g286
sg64
(lp298
S':'
asbag57
(g78
g59
NtRp299
(dp300
g62
(dp301
sg71
g286
sg64
(lp302
g57
(g58
g59
NtRp303
(dp304
g62
(dp305
g70
I3
ssg71
g299
sg64
(lp306
S''
asbasbasbag57
(g73
g59
NtRp307
(dp308
g62
(dp309
sg71
g282
sg64
(lp310
g57
(g78
g59
NtRp311
(dp312
g62
(dp313
g82
g83
ssg71
g307
sg64
(lp314
S'domain'
p315
asbag57
(g78
g59
NtRp316
(dp317
g62
(dp318
g89
g90
ssg71
g307
sg64
(lp319
S':'
asbag57
(g78
g59
NtRp320
(dp321
g62
(dp322
sg71
g307
sg64
(lp323
g57
(g58
g59
NtRp324
(dp325
g62
(dp326
g70
I3
ssg71
g320
sg64
(lp327
S''
asbasbasbag57
(g73
g59
NtRp328
(dp329
g62
(dp330
sg71
g282
sg64
(lp331
g57
(g78
g59
NtRp332
(dp333
g62
(dp334
g82
g83
ssg71
g328
sg64
(lp335
S'expires'
p336
asbag57
(g78
g59
NtRp337
(dp338
g62
(dp339
g89
g90
ssg71
g328
sg64
(lp340
S':'
asbag57
(g78
g59
NtRp341
(dp342
g62
(dp343
sg71
g328
sg64
(lp344
g57
(g58
g59
NtRp345
(dp346
g62
(dp347
g70
I3
ssg71
g341
sg64
(lp348
S''
asbasbasbag57
(g73
g59
NtRp349
(dp350
g62
(dp351
sg71
g282
sg64
(lp352
g57
(g78
g59
NtRp353
(dp354
g62
(dp355
g82
g83
ssg71
g349
sg64
(lp356
S'httponly'
p357
asbag57
(g78
g59
NtRp358
(dp359
g62
(dp360
g89
g90
ssg71
g349
sg64
(lp361
S':'
asbag57
(g78
g59
NtRp362
(dp363
g62
(dp364
sg71
g349
sg64
(lp365
g57
(g58
g59
NtRp366
(dp367
g62
(dp368
g70
I3
ssg71
g362
sg64
(lp369
S''
asbasbasbag57
(g73
g59
NtRp370
(dp371
g62
(dp372
sg71
g282
sg64
(lp373
g57
(g78
g59
NtRp374
(dp375
g62
(dp376
g82
g83
ssg71
g370
sg64
(lp377
S'max-age'
p378
asbag57
(g78
g59
NtRp379
(dp380
g62
(dp381
g89
g90
ssg71
g370
sg64
(lp382
S':'
asbag57
(g78
g59
NtRp383
(dp384
g62
(dp385
sg71
g370
sg64
(lp386
g57
(g58
g59
NtRp387
(dp388
g62
(dp389
g70
I3
ssg71
g383
sg64
(lp390
S''
asbasbasbag57
(g73
g59
NtRp391
(dp392
g62
(dp393
sg71
g282
sg64
(lp394
g57
(g78
g59
NtRp395
(dp396
g62
(dp397
g82
g83
ssg71
g391
sg64
(lp398
S'path'
p399
asbag57
(g78
g59
NtRp400
(dp401
g62
(dp402
g89
g90
ssg71
g391
sg64
(lp403
S':'
asbag57
(g78
g59
NtRp404
(dp405
g62
(dp406
sg71
g391
sg64
(lp407
g57
(g58
g59
NtRp408
(dp409
g62
(dp410
g70
I3
ssg71
g404
sg64
(lp411
S''
asbasbasbag57
(g73
g59
NtRp412
(dp413
g62
(dp414
sg71
g282
sg64
(lp415
g57
(g78
g59
NtRp416
(dp417
g62
(dp418
g82
g83
ssg71
g412
sg64
(lp419
S'secure'
p420
asbag57
(g78
g59
NtRp421
(dp422
g62
(dp423
g89
g90
ssg71
g412
sg64
(lp424
S':'
asbag57
(g78
g59
NtRp425
(dp426
g62
(dp427
sg71
g412
sg64
(lp428
g57
(g58
g59
NtRp429
(dp430
g62
(dp431
g70
I3
ssg71
g425
sg64
(lp432
S''
asbasbasbag57
(g73
g59
NtRp433
(dp434
g62
(dp435
sg71
g282
sg64
(lp436
g57
(g78
g59
NtRp437
(dp438
g62
(dp439
g82
g83
ssg71
g433
sg64
(lp440
S'version'
p441
asbag57
(g78
g59
NtRp442
(dp443
g62
(dp444
g89
g90
ssg71
g433
sg64
(lp445
S':'
asbag57
(g78
g59
NtRp446
(dp447
g62
(dp448
sg71
g433
sg64
(lp449
g57
(g58
g59
NtRp450
(dp451
g62
(dp452
g70
I3
ssg71
g446
sg64
(lp453
S''
asbasbasbasbasbasbasbag57
(g73
g59
NtRp454
(dp455
g62
(dp456
sg71
g256
sg64
(lp457
g57
(g78
g59
NtRp458
(dp459
g62
(dp460
g82
g83
ssg71
g454
sg64
(lp461
S'session_id_betsy'
p462
asbag57
(g78
g59
NtRp463
(dp464
g62
(dp465
g89
g90
ssg71
g454
sg64
(lp466
S':'
asbag57
(g78
g59
NtRp467
(dp468
g62
(dp469
sg71
g454
sg64
(lp470
g57
(g58
g59
NtRp471
(dp472
g62
(dp473
g70
I4
ssg71
g467
sg64
(lp474
S'127.0.0.1-70d52105-0f5d-4884-a4e3-dce6830f30e0'
p475
ag57
(g66
g59
NtRp476
(dp477
g62
(dp478
g70
I3
ssg71
Nsg64
(lp479
g57
(g73
g59
NtRp480
(dp481
g62
(dp482
sg71
g476
sg64
(lp483
g57
(g78
g59
NtRp484
(dp485
g62
(dp486
g82
g83
ssg71
g480
sg64
(lp487
g294
asbag57
(g78
g59
NtRp488
(dp489
g62
(dp490
g89
g90
ssg71
g480
sg64
(lp491
S':'
asbag57
(g78
g59
NtRp492
(dp493
g62
(dp494
sg71
g480
sg64
(lp495
g57
(g58
g59
NtRp496
(dp497
g62
(dp498
g70
I3
ssg71
g492
sg64
(lp499
S''
asbasbasbag57
(g73
g59
NtRp500
(dp501
g62
(dp502
sg71
g476
sg64
(lp503
g57
(g78
g59
NtRp504
(dp505
g62
(dp506
g82
g83
ssg71
g500
sg64
(lp507
g315
asbag57
(g78
g59
NtRp508
(dp509
g62
(dp510
g89
g90
ssg71
g500
sg64
(lp511
S':'
asbag57
(g78
g59
NtRp512
(dp513
g62
(dp514
sg71
g500
sg64
(lp515
g57
(g58
g59
NtRp516
(dp517
g62
(dp518
g70
I3
ssg71
g512
sg64
(lp519
S''
asbasbasbag57
(g73
g59
NtRp520
(dp521
g62
(dp522
sg71
g476
sg64
(lp523
g57
(g78
g59
NtRp524
(dp525
g62
(dp526
g82
g83
ssg71
g520
sg64
(lp527
g336
asbag57
(g78
g59
NtRp528
(dp529
g62
(dp530
g89
g90
ssg71
g520
sg64
(lp531
S':'
asbag57
(g78
g59
NtRp532
(dp533
g62
(dp534
sg71
g520
sg64
(lp535
g57
(g58
g59
NtRp536
(dp537
g62
(dp538
g70
I3
ssg71
g532
sg64
(lp539
S''
asbasbasbag57
(g73
g59
NtRp540
(dp541
g62
(dp542
sg71
g476
sg64
(lp543
g57
(g78
g59
NtRp544
(dp545
g62
(dp546
g82
g83
ssg71
g540
sg64
(lp547
g357
asbag57
(g78
g59
NtRp548
(dp549
g62
(dp550
g89
g90
ssg71
g540
sg64
(lp551
S':'
asbag57
(g78
g59
NtRp552
(dp553
g62
(dp554
sg71
g540
sg64
(lp555
g57
(g58
g59
NtRp556
(dp557
g62
(dp558
g70
I3
ssg71
g552
sg64
(lp559
S''
asbasbasbag57
(g73
g59
NtRp560
(dp561
g62
(dp562
sg71
g476
sg64
(lp563
g57
(g78
g59
NtRp564
(dp565
g62
(dp566
g82
g83
ssg71
g560
sg64
(lp567
g378
asbag57
(g78
g59
NtRp568
(dp569
g62
(dp570
g89
g90
ssg71
g560
sg64
(lp571
S':'
asbag57
(g78
g59
NtRp572
(dp573
g62
(dp574
sg71
g560
sg64
(lp575
g57
(g58
g59
NtRp576
(dp577
g62
(dp578
g70
I3
ssg71
g572
sg64
(lp579
S''
asbasbasbag57
(g73
g59
NtRp580
(dp581
g62
(dp582
sg71
g476
sg64
(lp583
g57
(g78
g59
NtRp584
(dp585
g62
(dp586
g82
g83
ssg71
g580
sg64
(lp587
g399
asbag57
(g78
g59
NtRp588
(dp589
g62
(dp590
g89
g90
ssg71
g580
sg64
(lp591
S':'
asbag57
(g78
g59
NtRp592
(dp593
g62
(dp594
sg71
g580
sg64
(lp595
g57
(g58
g59
NtRp596
(dp597
g62
(dp598
g70
I3
ssg71
g592
sg64
(lp599
S''
asbasbasbag57
(g73
g59
NtRp600
(dp601
g62
(dp602
sg71
g476
sg64
(lp603
g57
(g78
g59
NtRp604
(dp605
g62
(dp606
g82
g83
ssg71
g600
sg64
(lp607
g420
asbag57
(g78
g59
NtRp608
(dp609
g62
(dp610
g89
g90
ssg71
g600
sg64
(lp611
S':'
asbag57
(g78
g59
NtRp612
(dp613
g62
(dp614
sg71
g600
sg64
(lp615
g57
(g58
g59
NtRp616
(dp617
g62
(dp618
g70
I3
ssg71
g612
sg64
(lp619
S''
asbasbasbag57
(g73
g59
NtRp620
(dp621
g62
(dp622
sg71
g476
sg64
(lp623
g57
(g78
g59
NtRp624
(dp625
g62
(dp626
g82
g83
ssg71
g620
sg64
(lp627
g441
asbag57
(g78
g59
NtRp628
(dp629
g62
(dp630
g89
g90
ssg71
g620
sg64
(lp631
S':'
asbag57
(g78
g59
NtRp632
(dp633
g62
(dp634
sg71
g620
sg64
(lp635
g57
(g58
g59
NtRp636
(dp637
g62
(dp638
g70
I3
ssg71
g632
sg64
(lp639
S''
asbasbasbasbasbasbasbag57
(g73
g59
NtRp640
(dp641
g62
(dp642
sg71
g256
sg64
(lp643
g57
(g78
g59
NtRp644
(dp645
g62
(dp646
g82
g83
ssg71
g640
sg64
(lp647
S'session_id_welcome'
p648
asbag57
(g78
g59
NtRp649
(dp650
g62
(dp651
g89
g90
ssg71
g640
sg64
(lp652
S':'
asbag57
(g78
g59
NtRp653
(dp654
g62
(dp655
sg71
g640
sg64
(lp656
g57
(g58
g59
NtRp657
(dp658
g62
(dp659
g70
I4
ssg71
g653
sg64
(lp660
S'127.0.0.1-533f3f4f-bab3-44d0-a5c6-4c1f3e175539'
p661
ag57
(g66
g59
NtRp662
(dp663
g62
(dp664
g70
I3
ssg71
Nsg64
(lp665
g57
(g73
g59
NtRp666
(dp667
g62
(dp668
sg71
g662
sg64
(lp669
g57
(g78
g59
NtRp670
(dp671
g62
(dp672
g82
g83
ssg71
g666
sg64
(lp673
g294
asbag57
(g78
g59
NtRp674
(dp675
g62
(dp676
g89
g90
ssg71
g666
sg64
(lp677
S':'
asbag57
(g78
g59
NtRp678
(dp679
g62
(dp680
sg71
g666
sg64
(lp681
g57
(g58
g59
NtRp682
(dp683
g62
(dp684
g70
I3
ssg71
g678
sg64
(lp685
S''
asbasbasbag57
(g73
g59
NtRp686
(dp687
g62
(dp688
sg71
g662
sg64
(lp689
g57
(g78
g59
NtRp690
(dp691
g62
(dp692
g82
g83
ssg71
g686
sg64
(lp693
g315
asbag57
(g78
g59
NtRp694
(dp695
g62
(dp696
g89
g90
ssg71
g686
sg64
(lp697
S':'
asbag57
(g78
g59
NtRp698
(dp699
g62
(dp700
sg71
g686
sg64
(lp701
g57
(g58
g59
NtRp702
(dp703
g62
(dp704
g70
I3
ssg71
g698
sg64
(lp705
S''
asbasbasbag57
(g73
g59
NtRp706
(dp707
g62
(dp708
sg71
g662
sg64
(lp709
g57
(g78
g59
NtRp710
(dp711
g62
(dp712
g82
g83
ssg71
g706
sg64
(lp713
g336
asbag57
(g78
g59
NtRp714
(dp715
g62
(dp716
g89
g90
ssg71
g706
sg64
(lp717
S':'
asbag57
(g78
g59
NtRp718
(dp719
g62
(dp720
sg71
g706
sg64
(lp721
g57
(g58
g59
NtRp722
(dp723
g62
(dp724
g70
I3
ssg71
g718
sg64
(lp725
S''
asbasbasbag57
(g73
g59
NtRp726
(dp727
g62
(dp728
sg71
g662
sg64
(lp729
g57
(g78
g59
NtRp730
(dp731
g62
(dp732
g82
g83
ssg71
g726
sg64
(lp733
g357
asbag57
(g78
g59
NtRp734
(dp735
g62
(dp736
g89
g90
ssg71
g726
sg64
(lp737
S':'
asbag57
(g78
g59
NtRp738
(dp739
g62
(dp740
sg71
g726
sg64
(lp741
g57
(g58
g59
NtRp742
(dp743
g62
(dp744
g70
I3
ssg71
g738
sg64
(lp745
S''
asbasbasbag57
(g73
g59
NtRp746
(dp747
g62
(dp748
sg71
g662
sg64
(lp749
g57
(g78
g59
NtRp750
(dp751
g62
(dp752
g82
g83
ssg71
g746
sg64
(lp753
g378
asbag57
(g78
g59
NtRp754
(dp755
g62
(dp756
g89
g90
ssg71
g746
sg64
(lp757
S':'
asbag57
(g78
g59
NtRp758
(dp759
g62
(dp760
sg71
g746
sg64
(lp761
g57
(g58
g59
NtRp762
(dp763
g62
(dp764
g70
I3
ssg71
g758
sg64
(lp765
S''
asbasbasbag57
(g73
g59
NtRp766
(dp767
g62
(dp768
sg71
g662
sg64
(lp769
g57
(g78
g59
NtRp770
(dp771
g62
(dp772
g82
g83
ssg71
g766
sg64
(lp773
g399
asbag57
(g78
g59
NtRp774
(dp775
g62
(dp776
g89
g90
ssg71
g766
sg64
(lp777
S':'
asbag57
(g78
g59
NtRp778
(dp779
g62
(dp780
sg71
g766
sg64
(lp781
g57
(g58
g59
NtRp782
(dp783
g62
(dp784
g70
I3
ssg71
g778
sg64
(lp785
S''
asbasbasbag57
(g73
g59
NtRp786
(dp787
g62
(dp788
sg71
g662
sg64
(lp789
g57
(g78
g59
NtRp790
(dp791
g62
(dp792
g82
g83
ssg71
g786
sg64
(lp793
g420
asbag57
(g78
g59
NtRp794
(dp795
g62
(dp796
g89
g90
ssg71
g786
sg64
(lp797
S':'
asbag57
(g78
g59
NtRp798
(dp799
g62
(dp800
sg71
g786
sg64
(lp801
g57
(g58
g59
NtRp802
(dp803
g62
(dp804
g70
I3
ssg71
g798
sg64
(lp805
S''
asbasbasbag57
(g73
g59
NtRp806
(dp807
g62
(dp808
sg71
g662
sg64
(lp809
g57
(g78
g59
NtRp810
(dp811
g62
(dp812
g82
g83
ssg71
g806
sg64
(lp813
g441
asbag57
(g78
g59
NtRp814
(dp815
g62
(dp816
g89
g90
ssg71
g806
sg64
(lp817
S':'
asbag57
(g78
g59
NtRp818
(dp819
g62
(dp820
sg71
g806
sg64
(lp821
g57
(g58
g59
NtRp822
(dp823
g62
(dp824
g70
I3
ssg71
g818
sg64
(lp825
S''
asbasbasbasbasbasbasbasbasbasbasbag57
(g73
g59
NtRp826
(dp827
g62
(dp828
sg71
g67
sg64
(lp829
g57
(g78
g59
NtRp830
(dp831
g62
(dp832
g82
g83
ssg71
g826
sg64
(lp833
S'env'
p834
asbag57
(g78
g59
NtRp835
(dp836
g62
(dp837
g89
g90
ssg71
g826
sg64
(lp838
S':'
asbag57
(g78
g59
NtRp839
(dp840
g62
(dp841
sg71
g826
sg64
(lp842
g57
(g58
g59
NtRp843
(dp844
g62
(dp845
g70
I5
ssg71
g839
sg64
(lp846
g57
(g66
g59
NtRp847
(dp848
g62
(dp849
g70
I4
ssg71
Nsg64
(lp850
g57
(g73
g59
NtRp851
(dp852
g62
(dp853
sg71
g847
sg64
(lp854
g57
(g78
g59
NtRp855
(dp856
g62
(dp857
g82
g83
ssg71
g851
sg64
(lp858
S'app_folders'
p859
asbag57
(g78
g59
NtRp860
(dp861
g62
(dp862
g89
g90
ssg71
g851
sg64
(lp863
S':'
asbag57
(g78
g59
NtRp864
(dp865
g62
(dp866
sg71
g851
sg64
(lp867
g57
(g58
g59
NtRp868
(dp869
g62
(dp870
g70
I4
ssg71
g864
sg64
(lp871
S"set(['/home/xchen/web2py/applications/Betsy/', '/home/xchen/web2py/applications/admin/', '/home/xchen/web2py/applications/welcome/'])"
p872
asbasbasbag57
(g73
g59
NtRp873
(dp874
g62
(dp875
sg71
g847
sg64
(lp876
g57
(g78
g59
NtRp877
(dp878
g62
(dp879
g82
g83
ssg71
g873
sg64
(lp880
S'applications_parent'
p881
asbag57
(g78
g59
NtRp882
(dp883
g62
(dp884
g89
g90
ssg71
g873
sg64
(lp885
S':'
asbag57
(g78
g59
NtRp886
(dp887
g62
(dp888
sg71
g873
sg64
(lp889
g57
(g58
g59
NtRp890
(dp891
g62
(dp892
g70
I4
ssg71
g886
sg64
(lp893
S'/home/xchen/web2py'
p894
asbasbasbag57
(g73
g59
NtRp895
(dp896
g62
(dp897
sg71
g847
sg64
(lp898
g57
(g78
g59
NtRp899
(dp900
g62
(dp901
g82
g83
ssg71
g895
sg64
(lp902
S'cmd_args'
p903
asbag57
(g78
g59
NtRp904
(dp905
g62
(dp906
g89
g90
ssg71
g895
sg64
(lp907
S':'
asbag57
(g78
g59
NtRp908
(dp909
g62
(dp910
sg71
g895
sg64
(lp911
g57
(g58
g59
NtRp912
(dp913
g62
(dp914
g70
I4
ssg71
g908
sg64
(lp915
g57
(g66
g59
NtRp916
(dp917
g62
(dp918
g70
I3
ssg71
Nsg64
(lp919
sbasbasbasbag57
(g73
g59
NtRp920
(dp921
g62
(dp922
sg71
g847
sg64
(lp923
g57
(g78
g59
NtRp924
(dp925
g62
(dp926
g82
g83
ssg71
g920
sg64
(lp927
S'cmd_options'
p928
asbag57
(g78
g59
NtRp929
(dp930
g62
(dp931
g89
g90
ssg71
g920
sg64
(lp932
S':'
asbag57
(g78
g59
NtRp933
(dp934
g62
(dp935
sg71
g920
sg64
(lp936
g57
(g58
g59
NtRp937
(dp938
g62
(dp939
g70
I4
ssg71
g933
sg64
(lp940
S"<Values at 0x19e61e18: {'verbose': False, 'ip': '127.0.0.1', 'with_scheduler': False, 'ips': [], 'shutdown_timeout': 5, 'taskbar': False, 'port': 8080, 'maxthreads': None, 'softcron': False, 'server_name': 'unicron.shis.uth.tmc.edu', 'bpython': False, 'nogui': False, 'pid_filename': 'httpserver.pid', 'extcron': False, 'runcron': False, 'run_system_tests': False, 'test': None, 'folder': '/home/xchen/web2py', 'config': '', 'minthreads': None, 'winservice': '', 'shell': None, 'run': '', 'log_filename': 'httpserver.log', 'debuglevel': 30, 'args': [''], 'socket_timeout': 5, 'ssl_ca_certificate': None, 'scheduler': None, 'profiler_filename': None, 'ssl_private_key': '', 'scheduler_groups': None, 'password': 'baby2008', 'request_queue_size': 5, 'ssl_certificate': '', 'cronjob': False, 'numthreads': None, 'quiet': False, 'interfaces': None, 'import_models': False, 'timeout': 10, 'plain': False, 'nobanner': False}>"
p941
asbasbasbag57
(g73
g59
NtRp942
(dp943
g62
(dp944
sg71
g847
sg64
(lp945
g57
(g78
g59
NtRp946
(dp947
g62
(dp948
g82
g83
ssg71
g942
sg64
(lp949
S'db_sessions'
p950
asbag57
(g78
g59
NtRp951
(dp952
g62
(dp953
g89
g90
ssg71
g942
sg64
(lp954
S':'
asbag57
(g78
g59
NtRp955
(dp956
g62
(dp957
sg71
g942
sg64
(lp958
g57
(g58
g59
NtRp959
(dp960
g62
(dp961
g70
I4
ssg71
g955
sg64
(lp962
S'set([])'
p963
asbasbasbag57
(g73
g59
NtRp964
(dp965
g62
(dp966
sg71
g847
sg64
(lp967
g57
(g78
g59
NtRp968
(dp969
g62
(dp970
g82
g83
ssg71
g964
sg64
(lp971
S'debugging'
p972
asbag57
(g78
g59
NtRp973
(dp974
g62
(dp975
g89
g90
ssg71
g964
sg64
(lp976
S':'
asbag57
(g78
g59
NtRp977
(dp978
g62
(dp979
sg71
g964
sg64
(lp980
g57
(g58
g59
NtRp981
(dp982
g62
(dp983
g70
I4
ssg71
g977
sg64
(lp984
g100
asbasbasbag57
(g73
g59
NtRp985
(dp986
g62
(dp987
sg71
g847
sg64
(lp988
g57
(g78
g59
NtRp989
(dp990
g62
(dp991
g82
g83
ssg71
g985
sg64
(lp992
S'gluon_parent'
p993
asbag57
(g78
g59
NtRp994
(dp995
g62
(dp996
g89
g90
ssg71
g985
sg64
(lp997
S':'
asbag57
(g78
g59
NtRp998
(dp999
g62
(dp1000
sg71
g985
sg64
(lp1001
g57
(g58
g59
NtRp1002
(dp1003
g62
(dp1004
g70
I4
ssg71
g998
sg64
(lp1005
S'/home/xchen/web2py'
p1006
asbasbasbag57
(g73
g59
NtRp1007
(dp1008
g62
(dp1009
sg71
g847
sg64
(lp1010
g57
(g78
g59
NtRp1011
(dp1012
g62
(dp1013
g82
g83
ssg71
g1007
sg64
(lp1014
S'http_accept'
p1015
asbag57
(g78
g59
NtRp1016
(dp1017
g62
(dp1018
g89
g90
ssg71
g1007
sg64
(lp1019
S':'
asbag57
(g78
g59
NtRp1020
(dp1021
g62
(dp1022
sg71
g1007
sg64
(lp1023
g57
(g58
g59
NtRp1024
(dp1025
g62
(dp1026
g70
I4
ssg71
g1020
sg64
(lp1027
S'text/html,application/xhtml+xml,application/xml;q=0.9,*/*;q=0.8'
p1028
asbasbasbag57
(g73
g59
NtRp1029
(dp1030
g62
(dp1031
sg71
g847
sg64
(lp1032
g57
(g78
g59
NtRp1033
(dp1034
g62
(dp1035
g82
g83
ssg71
g1029
sg64
(lp1036
S'http_accept_encoding'
p1037
asbag57
(g78
g59
NtRp1038
(dp1039
g62
(dp1040
g89
g90
ssg71
g1029
sg64
(lp1041
S':'
asbag57
(g78
g59
NtRp1042
(dp1043
g62
(dp1044
sg71
g1029
sg64
(lp1045
g57
(g58
g59
NtRp1046
(dp1047
g62
(dp1048
g70
I4
ssg71
g1042
sg64
(lp1049
S'gzip, deflate'
p1050
asbasbasbag57
(g73
g59
NtRp1051
(dp1052
g62
(dp1053
sg71
g847
sg64
(lp1054
g57
(g78
g59
NtRp1055
(dp1056
g62
(dp1057
g82
g83
ssg71
g1051
sg64
(lp1058
S'http_accept_language'
p1059
asbag57
(g78
g59
NtRp1060
(dp1061
g62
(dp1062
g89
g90
ssg71
g1051
sg64
(lp1063
S':'
asbag57
(g78
g59
NtRp1064
(dp1065
g62
(dp1066
sg71
g1051
sg64
(lp1067
g57
(g58
g59
NtRp1068
(dp1069
g62
(dp1070
g70
I4
ssg71
g1064
sg64
(lp1071
S'en-US,en;q=0.5'
p1072
asbasbasbag57
(g73
g59
NtRp1073
(dp1074
g62
(dp1075
sg71
g847
sg64
(lp1076
g57
(g78
g59
NtRp1077
(dp1078
g62
(dp1079
g82
g83
ssg71
g1073
sg64
(lp1080
S'http_cache_control'
p1081
asbag57
(g78
g59
NtRp1082
(dp1083
g62
(dp1084
g89
g90
ssg71
g1073
sg64
(lp1085
S':'
asbag57
(g78
g59
NtRp1086
(dp1087
g62
(dp1088
sg71
g1073
sg64
(lp1089
g57
(g58
g59
NtRp1090
(dp1091
g62
(dp1092
g70
I4
ssg71
g1086
sg64
(lp1093
S'max-age=0'
p1094
asbasbasbag57
(g73
g59
NtRp1095
(dp1096
g62
(dp1097
sg71
g847
sg64
(lp1098
g57
(g78
g59
NtRp1099
(dp1100
g62
(dp1101
g82
g83
ssg71
g1095
sg64
(lp1102
S'http_connection'
p1103
asbag57
(g78
g59
NtRp1104
(dp1105
g62
(dp1106
g89
g90
ssg71
g1095
sg64
(lp1107
S':'
asbag57
(g78
g59
NtRp1108
(dp1109
g62
(dp1110
sg71
g1095
sg64
(lp1111
g57
(g58
g59
NtRp1112
(dp1113
g62
(dp1114
g70
I4
ssg71
g1108
sg64
(lp1115
S'keep-alive'
p1116
asbasbasbag57
(g73
g59
NtRp1117
(dp1118
g62
(dp1119
sg71
g847
sg64
(lp1120
g57
(g78
g59
NtRp1121
(dp1122
g62
(dp1123
g82
g83
ssg71
g1117
sg64
(lp1124
S'http_cookie'
p1125
asbag57
(g78
g59
NtRp1126
(dp1127
g62
(dp1128
g89
g90
ssg71
g1117
sg64
(lp1129
S':'
asbag57
(g78
g59
NtRp1130
(dp1131
g62
(dp1132
sg71
g1117
sg64
(lp1133
g57
(g58
g59
NtRp1134
(dp1135
g62
(dp1136
g70
I4
ssg71
g1130
sg64
(lp1137
S'session_id_betsy=127.0.0.1-70d52105-0f5d-4884-a4e3-dce6830f30e0; session_id_admin=127.0.0.1-4ff97c33-9373-41bc-bf95-984240ad1aeb; session_id_welcome=127.0.0.1-533f3f4f-bab3-44d0-a5c6-4c1f3e175539'
p1138
asbasbasbag57
(g73
g59
NtRp1139
(dp1140
g62
(dp1141
sg71
g847
sg64
(lp1142
g57
(g78
g59
NtRp1143
(dp1144
g62
(dp1145
g82
g83
ssg71
g1139
sg64
(lp1146
S'http_host'
p1147
asbag57
(g78
g59
NtRp1148
(dp1149
g62
(dp1150
g89
g90
ssg71
g1139
sg64
(lp1151
S':'
asbag57
(g78
g59
NtRp1152
(dp1153
g62
(dp1154
sg71
g1139
sg64
(lp1155
g57
(g58
g59
NtRp1156
(dp1157
g62
(dp1158
g70
I4
ssg71
g1152
sg64
(lp1159
S'localhost:8080'
p1160
asbasbasbag57
(g73
g59
NtRp1161
(dp1162
g62
(dp1163
sg71
g847
sg64
(lp1164
g57
(g78
g59
NtRp1165
(dp1166
g62
(dp1167
g82
g83
ssg71
g1161
sg64
(lp1168
S'http_referer'
p1169
asbag57
(g78
g59
NtRp1170
(dp1171
g62
(dp1172
g89
g90
ssg71
g1161
sg64
(lp1173
S':'
asbag57
(g78
g59
NtRp1174
(dp1175
g62
(dp1176
sg71
g1161
sg64
(lp1177
g57
(g58
g59
NtRp1178
(dp1179
g62
(dp1180
g70
I4
ssg71
g1174
sg64
(lp1181
S'http://localhost:8080/Betsy/default/first'
p1182
asbasbasbag57
(g73
g59
NtRp1183
(dp1184
g62
(dp1185
sg71
g847
sg64
(lp1186
g57
(g78
g59
NtRp1187
(dp1188
g62
(dp1189
g82
g83
ssg71
g1183
sg64
(lp1190
S'http_user_agent'
p1191
asbag57
(g78
g59
NtRp1192
(dp1193
g62
(dp1194
g89
g90
ssg71
g1183
sg64
(lp1195
S':'
asbag57
(g78
g59
NtRp1196
(dp1197
g62
(dp1198
sg71
g1183
sg64
(lp1199
g57
(g58
g59
NtRp1200
(dp1201
g62
(dp1202
g70
I4
ssg71
g1196
sg64
(lp1203
S'Mozilla/5.0 (Macintosh; Intel Mac OS X 10.6; rv:18.0) Gecko/20100101 Firefox/18.0'
p1204
asbasbasbag57
(g73
g59
NtRp1205
(dp1206
g62
(dp1207
sg71
g847
sg64
(lp1208
g57
(g78
g59
NtRp1209
(dp1210
g62
(dp1211
g82
g83
ssg71
g1205
sg64
(lp1212
S'is_jython'
p1213
asbag57
(g78
g59
NtRp1214
(dp1215
g62
(dp1216
g89
g90
ssg71
g1205
sg64
(lp1217
S':'
asbag57
(g78
g59
NtRp1218
(dp1219
g62
(dp1220
sg71
g1205
sg64
(lp1221
g57
(g58
g59
NtRp1222
(dp1223
g62
(dp1224
g70
I4
ssg71
g1218
sg64
(lp1225
g100
asbasbasbag57
(g73
g59
NtRp1226
(dp1227
g62
(dp1228
sg71
g847
sg64
(lp1229
g57
(g78
g59
NtRp1230
(dp1231
g62
(dp1232
g82
g83
ssg71
g1226
sg64
(lp1233
S'is_pypy'
p1234
asbag57
(g78
g59
NtRp1235
(dp1236
g62
(dp1237
g89
g90
ssg71
g1226
sg64
(lp1238
S':'
asbag57
(g78
g59
NtRp1239
(dp1240
g62
(dp1241
sg71
g1226
sg64
(lp1242
g57
(g58
g59
NtRp1243
(dp1244
g62
(dp1245
g70
I4
ssg71
g1239
sg64
(lp1246
g100
asbasbasbag57
(g73
g59
NtRp1247
(dp1248
g62
(dp1249
sg71
g847
sg64
(lp1250
g57
(g78
g59
NtRp1251
(dp1252
g62
(dp1253
g82
g83
ssg71
g1247
sg64
(lp1254
S'local_hosts'
p1255
asbag57
(g78
g59
NtRp1256
(dp1257
g62
(dp1258
g89
g90
ssg71
g1247
sg64
(lp1259
S':'
asbag57
(g78
g59
NtRp1260
(dp1261
g62
(dp1262
sg71
g1247
sg64
(lp1263
g57
(g58
g59
NtRp1264
(dp1265
g62
(dp1266
g70
I4
ssg71
g1260
sg64
(lp1267
g57
(g66
g59
NtRp1268
(dp1269
g62
(dp1270
g70
I3
ssg71
Nsg64
(lp1271
g57
(g73
g59
NtRp1272
(dp1273
g62
(dp1274
sg71
g1268
sg64
(lp1275
g57
(g78
g59
NtRp1276
(dp1277
g62
(dp1278
sg71
g1272
sg64
(lp1279
g57
(g58
g59
NtRp1280
(dp1281
g62
(dp1282
g70
I3
ssg71
g1276
sg64
(lp1283
S'127.0.0.1'
p1284
asbasbasbag57
(g73
g59
NtRp1285
(dp1286
g62
(dp1287
sg71
g1268
sg64
(lp1288
g57
(g78
g59
NtRp1289
(dp1290
g62
(dp1291
sg71
g1285
sg64
(lp1292
g57
(g58
g59
NtRp1293
(dp1294
g62
(dp1295
g70
I3
ssg71
g1289
sg64
(lp1296
S'::ffff:127.0.0.1'
p1297
asbasbasbag57
(g73
g59
NtRp1298
(dp1299
g62
(dp1300
sg71
g1268
sg64
(lp1301
g57
(g78
g59
NtRp1302
(dp1303
g62
(dp1304
sg71
g1298
sg64
(lp1305
g57
(g58
g59
NtRp1306
(dp1307
g62
(dp1308
g70
I3
ssg71
g1302
sg64
(lp1309
S'unicron.shis.uth.tmc.edu'
p1310
asbasbasbag57
(g73
g59
NtRp1311
(dp1312
g62
(dp1313
sg71
g1268
sg64
(lp1314
g57
(g78
g59
NtRp1315
(dp1316
g62
(dp1317
sg71
g1311
sg64
(lp1318
g57
(g58
g59
NtRp1319
(dp1320
g62
(dp1321
g70
I3
ssg71
g1315
sg64
(lp1322
S'unicron.shis.uth.tmc.edu'
p1323
asbasbasbag57
(g73
g59
NtRp1324
(dp1325
g62
(dp1326
sg71
g1268
sg64
(lp1327
g57
(g78
g59
NtRp1328
(dp1329
g62
(dp1330
sg71
g1324
sg64
(lp1331
g57
(g58
g59
NtRp1332
(dp1333
g62
(dp1334
g70
I3
ssg71
g1328
sg64
(lp1335
S'127.0.0.1'
p1336
asbasbasbasbasbasbasbag57
(g73
g59
NtRp1337
(dp1338
g62
(dp1339
sg71
g847
sg64
(lp1340
g57
(g78
g59
NtRp1341
(dp1342
g62
(dp1343
g82
g83
ssg71
g1337
sg64
(lp1344
S'path_info'
p1345
asbag57
(g78
g59
NtRp1346
(dp1347
g62
(dp1348
g89
g90
ssg71
g1337
sg64
(lp1349
S':'
asbag57
(g78
g59
NtRp1350
(dp1351
g62
(dp1352
sg71
g1337
sg64
(lp1353
g57
(g58
g59
NtRp1354
(dp1355
g62
(dp1356
g70
I4
ssg71
g1350
sg64
(lp1357
S'/Betsy/default/show_status'
p1358
asbasbasbag57
(g73
g59
NtRp1359
(dp1360
g62
(dp1361
sg71
g847
sg64
(lp1362
g57
(g78
g59
NtRp1363
(dp1364
g62
(dp1365
g82
g83
ssg71
g1359
sg64
(lp1366
S'query_string'
p1367
asbag57
(g78
g59
NtRp1368
(dp1369
g62
(dp1370
g89
g90
ssg71
g1359
sg64
(lp1371
S':'
asbag57
(g78
g59
NtRp1372
(dp1373
g62
(dp1374
sg71
g1359
sg64
(lp1375
g57
(g58
g59
NtRp1376
(dp1377
g62
(dp1378
g70
I4
ssg71
g1372
sg64
(lp1379
S''
asbasbasbag57
(g73
g59
NtRp1380
(dp1381
g62
(dp1382
sg71
g847
sg64
(lp1383
g57
(g78
g59
NtRp1384
(dp1385
g62
(dp1386
g82
g83
ssg71
g1380
sg64
(lp1387
S'remote_addr'
p1388
asbag57
(g78
g59
NtRp1389
(dp1390
g62
(dp1391
g89
g90
ssg71
g1380
sg64
(lp1392
S':'
asbag57
(g78
g59
NtRp1393
(dp1394
g62
(dp1395
sg71
g1380
sg64
(lp1396
g57
(g58
g59
NtRp1397
(dp1398
g62
(dp1399
g70
I4
ssg71
g1393
sg64
(lp1400
g212
asbasbasbag57
(g73
g59
NtRp1401
(dp1402
g62
(dp1403
sg71
g847
sg64
(lp1404
g57
(g78
g59
NtRp1405
(dp1406
g62
(dp1407
g82
g83
ssg71
g1401
sg64
(lp1408
S'remote_port'
p1409
asbag57
(g78
g59
NtRp1410
(dp1411
g62
(dp1412
g89
g90
ssg71
g1401
sg64
(lp1413
S':'
asbag57
(g78
g59
NtRp1414
(dp1415
g62
(dp1416
sg71
g1401
sg64
(lp1417
g57
(g58
g59
NtRp1418
(dp1419
g62
(dp1420
g70
I4
ssg71
g1414
sg64
(lp1421
S'53112'
p1422
asbasbasbag57
(g73
g59
NtRp1423
(dp1424
g62
(dp1425
sg71
g847
sg64
(lp1426
g57
(g78
g59
NtRp1427
(dp1428
g62
(dp1429
g82
g83
ssg71
g1423
sg64
(lp1430
S'request_method'
p1431
asbag57
(g78
g59
NtRp1432
(dp1433
g62
(dp1434
g89
g90
ssg71
g1423
sg64
(lp1435
S':'
asbag57
(g78
g59
NtRp1436
(dp1437
g62
(dp1438
sg71
g1423
sg64
(lp1439
g57
(g58
g59
NtRp1440
(dp1441
g62
(dp1442
g70
I4
ssg71
g1436
sg64
(lp1443
S'GET'
p1444
asbasbasbag57
(g73
g59
NtRp1445
(dp1446
g62
(dp1447
sg71
g847
sg64
(lp1448
g57
(g78
g59
NtRp1449
(dp1450
g62
(dp1451
g82
g83
ssg71
g1445
sg64
(lp1452
S'request_uri'
p1453
asbag57
(g78
g59
NtRp1454
(dp1455
g62
(dp1456
g89
g90
ssg71
g1445
sg64
(lp1457
S':'
asbag57
(g78
g59
NtRp1458
(dp1459
g62
(dp1460
sg71
g1445
sg64
(lp1461
g57
(g58
g59
NtRp1462
(dp1463
g62
(dp1464
g70
I4
ssg71
g1458
sg64
(lp1465
g1358
asbasbasbag57
(g73
g59
NtRp1466
(dp1467
g62
(dp1468
sg71
g847
sg64
(lp1469
g57
(g78
g59
NtRp1470
(dp1471
g62
(dp1472
g82
g83
ssg71
g1466
sg64
(lp1473
S'script_name'
p1474
asbag57
(g78
g59
NtRp1475
(dp1476
g62
(dp1477
g89
g90
ssg71
g1466
sg64
(lp1478
S':'
asbag57
(g78
g59
NtRp1479
(dp1480
g62
(dp1481
sg71
g1466
sg64
(lp1482
g57
(g58
g59
NtRp1483
(dp1484
g62
(dp1485
g70
I4
ssg71
g1479
sg64
(lp1486
S''
asbasbasbag57
(g73
g59
NtRp1487
(dp1488
g62
(dp1489
sg71
g847
sg64
(lp1490
g57
(g78
g59
NtRp1491
(dp1492
g62
(dp1493
g82
g83
ssg71
g1487
sg64
(lp1494
S'server_name'
p1495
asbag57
(g78
g59
NtRp1496
(dp1497
g62
(dp1498
g89
g90
ssg71
g1487
sg64
(lp1499
S':'
asbag57
(g78
g59
NtRp1500
(dp1501
g62
(dp1502
sg71
g1487
sg64
(lp1503
g57
(g58
g59
NtRp1504
(dp1505
g62
(dp1506
g70
I4
ssg71
g1500
sg64
(lp1507
g1323
asbasbasbag57
(g73
g59
NtRp1508
(dp1509
g62
(dp1510
sg71
g847
sg64
(lp1511
g57
(g78
g59
NtRp1512
(dp1513
g62
(dp1514
g82
g83
ssg71
g1508
sg64
(lp1515
S'server_port'
p1516
asbag57
(g78
g59
NtRp1517
(dp1518
g62
(dp1519
g89
g90
ssg71
g1508
sg64
(lp1520
S':'
asbag57
(g78
g59
NtRp1521
(dp1522
g62
(dp1523
sg71
g1508
sg64
(lp1524
g57
(g58
g59
NtRp1525
(dp1526
g62
(dp1527
g70
I4
ssg71
g1521
sg64
(lp1528
S'8080'
p1529
asbasbasbag57
(g73
g59
NtRp1530
(dp1531
g62
(dp1532
sg71
g847
sg64
(lp1533
g57
(g78
g59
NtRp1534
(dp1535
g62
(dp1536
g82
g83
ssg71
g1530
sg64
(lp1537
S'server_protocol'
p1538
asbag57
(g78
g59
NtRp1539
(dp1540
g62
(dp1541
g89
g90
ssg71
g1530
sg64
(lp1542
S':'
asbag57
(g78
g59
NtRp1543
(dp1544
g62
(dp1545
sg71
g1530
sg64
(lp1546
g57
(g58
g59
NtRp1547
(dp1548
g62
(dp1549
g70
I4
ssg71
g1543
sg64
(lp1550
S'HTTP/1.1'
p1551
asbasbasbag57
(g73
g59
NtRp1552
(dp1553
g62
(dp1554
sg71
g847
sg64
(lp1555
g57
(g78
g59
NtRp1556
(dp1557
g62
(dp1558
g82
g83
ssg71
g1552
sg64
(lp1559
S'server_software'
p1560
asbag57
(g78
g59
NtRp1561
(dp1562
g62
(dp1563
g89
g90
ssg71
g1552
sg64
(lp1564
S':'
asbag57
(g78
g59
NtRp1565
(dp1566
g62
(dp1567
sg71
g1552
sg64
(lp1568
g57
(g58
g59
NtRp1569
(dp1570
g62
(dp1571
g70
I4
ssg71
g1565
sg64
(lp1572
S'Rocket 1.2.5'
p1573
asbasbasbag57
(g73
g59
NtRp1574
(dp1575
g62
(dp1576
sg71
g847
sg64
(lp1577
g57
(g78
g59
NtRp1578
(dp1579
g62
(dp1580
g82
g83
ssg71
g1574
sg64
(lp1581
S'web2py_path'
p1582
asbag57
(g78
g59
NtRp1583
(dp1584
g62
(dp1585
g89
g90
ssg71
g1574
sg64
(lp1586
S':'
asbag57
(g78
g59
NtRp1587
(dp1588
g62
(dp1589
sg71
g1574
sg64
(lp1590
g57
(g58
g59
NtRp1591
(dp1592
g62
(dp1593
g70
I4
ssg71
g1587
sg64
(lp1594
g894
asbasbasbag57
(g73
g59
NtRp1595
(dp1596
g62
(dp1597
sg71
g847
sg64
(lp1598
g57
(g78
g59
NtRp1599
(dp1600
g62
(dp1601
g82
g83
ssg71
g1595
sg64
(lp1602
S'web2py_version'
p1603
asbag57
(g78
g59
NtRp1604
(dp1605
g62
(dp1606
g89
g90
ssg71
g1595
sg64
(lp1607
S':'
asbag57
(g78
g59
NtRp1608
(dp1609
g62
(dp1610
sg71
g1595
sg64
(lp1611
g57
(g58
g59
NtRp1612
(dp1613
g62
(dp1614
g70
I4
ssg71
g1608
sg64
(lp1615
g57
(g66
g59
NtRp1616
(dp1617
g62
(dp1618
g70
I3
ssg71
Nsg64
(lp1619
g57
(g73
g59
NtRp1620
(dp1621
g62
(dp1622
sg71
g1616
sg64
(lp1623
g57
(g78
g59
NtRp1624
(dp1625
g62
(dp1626
sg71
g1620
sg64
(lp1627
g57
(g58
g59
NtRp1628
(dp1629
g62
(dp1630
g70
I3
ssg71
g1624
sg64
(lp1631
S'2'
asbasbasbag57
(g73
g59
NtRp1632
(dp1633
g62
(dp1634
sg71
g1616
sg64
(lp1635
g57
(g78
g59
NtRp1636
(dp1637
g62
(dp1638
sg71
g1632
sg64
(lp1639
g57
(g58
g59
NtRp1640
(dp1641
g62
(dp1642
g70
I3
ssg71
g1636
sg64
(lp1643
S'2'
asbasbasbag57
(g73
g59
NtRp1644
(dp1645
g62
(dp1646
sg71
g1616
sg64
(lp1647
g57
(g78
g59
NtRp1648
(dp1649
g62
(dp1650
sg71
g1644
sg64
(lp1651
g57
(g58
g59
NtRp1652
(dp1653
g62
(dp1654
g70
I3
ssg71
g1648
sg64
(lp1655
S'1'
asbasbasbag57
(g73
g59
NtRp1656
(dp1657
g62
(dp1658
sg71
g1616
sg64
(lp1659
g57
(g78
g59
NtRp1660
(dp1661
g62
(dp1662
sg71
g1656
sg64
(lp1663
g57
(g58
g59
NtRp1664
(dp1665
g62
(dp1666
g70
I3
ssg71
g1660
sg64
(lp1667
S'datetime.datetime(2012, 10, 21, 16, 57, 4)'
p1668
asbasbasbag57
(g73
g59
NtRp1669
(dp1670
g62
(dp1671
sg71
g1616
sg64
(lp1672
g57
(g78
g59
NtRp1673
(dp1674
g62
(dp1675
sg71
g1669
sg64
(lp1676
g57
(g58
g59
NtRp1677
(dp1678
g62
(dp1679
g70
I3
ssg71
g1673
sg64
(lp1680
S'stable'
p1681
asbasbasbasbasbasbasbag57
(g73
g59
NtRp1682
(dp1683
g62
(dp1684
sg71
g847
sg64
(lp1685
g57
(g78
g59
NtRp1686
(dp1687
g62
(dp1688
g82
g83
ssg71
g1682
sg64
(lp1689
S'wsgi_errors'
p1690
asbag57
(g78
g59
NtRp1691
(dp1692
g62
(dp1693
g89
g90
ssg71
g1682
sg64
(lp1694
S':'
asbag57
(g78
g59
NtRp1695
(dp1696
g62
(dp1697
sg71
g1682
sg64
(lp1698
g57
(g58
g59
NtRp1699
(dp1700
g62
(dp1701
g70
I4
ssg71
g1695
sg64
(lp1702
S"<open file '<stderr>', mode 'w' at 0x2b1166cb5270>"
p1703
asbasbasbag57
(g73
g59
NtRp1704
(dp1705
g62
(dp1706
sg71
g847
sg64
(lp1707
g57
(g78
g59
NtRp1708
(dp1709
g62
(dp1710
g82
g83
ssg71
g1704
sg64
(lp1711
S'wsgi_file_wrapper'
p1712
asbag57
(g78
g59
NtRp1713
(dp1714
g62
(dp1715
g89
g90
ssg71
g1704
sg64
(lp1716
S':'
asbag57
(g78
g59
NtRp1717
(dp1718
g62
(dp1719
sg71
g1704
sg64
(lp1720
g57
(g58
g59
NtRp1721
(dp1722
g62
(dp1723
g70
I4
ssg71
g1717
sg64
(lp1724
S'<class wsgiref.util.FileWrapper at 0x19dbfa78>'
p1725
asbasbasbag57
(g73
g59
NtRp1726
(dp1727
g62
(dp1728
sg71
g847
sg64
(lp1729
g57
(g78
g59
NtRp1730
(dp1731
g62
(dp1732
g82
g83
ssg71
g1726
sg64
(lp1733
S'wsgi_input'
p1734
asbag57
(g78
g59
NtRp1735
(dp1736
g62
(dp1737
g89
g90
ssg71
g1726
sg64
(lp1738
S':'
asbag57
(g78
g59
NtRp1739
(dp1740
g62
(dp1741
sg71
g1726
sg64
(lp1742
g57
(g58
g59
NtRp1743
(dp1744
g62
(dp1745
g70
I4
ssg71
g1739
sg64
(lp1746
S'<socket._fileobject object at 0x1ee68cd0>'
p1747
asbasbasbag57
(g73
g59
NtRp1748
(dp1749
g62
(dp1750
sg71
g847
sg64
(lp1751
g57
(g78
g59
NtRp1752
(dp1753
g62
(dp1754
g82
g83
ssg71
g1748
sg64
(lp1755
S'wsgi_multiprocess'
p1756
asbag57
(g78
g59
NtRp1757
(dp1758
g62
(dp1759
g89
g90
ssg71
g1748
sg64
(lp1760
S':'
asbag57
(g78
g59
NtRp1761
(dp1762
g62
(dp1763
sg71
g1748
sg64
(lp1764
g57
(g58
g59
NtRp1765
(dp1766
g62
(dp1767
g70
I4
ssg71
g1761
sg64
(lp1768
g100
asbasbasbag57
(g73
g59
NtRp1769
(dp1770
g62
(dp1771
sg71
g847
sg64
(lp1772
g57
(g78
g59
NtRp1773
(dp1774
g62
(dp1775
g82
g83
ssg71
g1769
sg64
(lp1776
S'wsgi_multithread'
p1777
asbag57
(g78
g59
NtRp1778
(dp1779
g62
(dp1780
g89
g90
ssg71
g1769
sg64
(lp1781
S':'
asbag57
(g78
g59
NtRp1782
(dp1783
g62
(dp1784
sg71
g1769
sg64
(lp1785
g57
(g58
g59
NtRp1786
(dp1787
g62
(dp1788
g70
I4
ssg71
g1782
sg64
(lp1789
S'True'
p1790
asbasbasbag57
(g73
g59
NtRp1791
(dp1792
g62
(dp1793
sg71
g847
sg64
(lp1794
g57
(g78
g59
NtRp1795
(dp1796
g62
(dp1797
g82
g83
ssg71
g1791
sg64
(lp1798
S'wsgi_run_once'
p1799
asbag57
(g78
g59
NtRp1800
(dp1801
g62
(dp1802
g89
g90
ssg71
g1791
sg64
(lp1803
S':'
asbag57
(g78
g59
NtRp1804
(dp1805
g62
(dp1806
sg71
g1791
sg64
(lp1807
g57
(g58
g59
NtRp1808
(dp1809
g62
(dp1810
g70
I4
ssg71
g1804
sg64
(lp1811
g100
asbasbasbag57
(g73
g59
NtRp1812
(dp1813
g62
(dp1814
sg71
g847
sg64
(lp1815
g57
(g78
g59
NtRp1816
(dp1817
g62
(dp1818
g82
g83
ssg71
g1812
sg64
(lp1819
S'wsgi_url_scheme'
p1820
asbag57
(g78
g59
NtRp1821
(dp1822
g62
(dp1823
g89
g90
ssg71
g1812
sg64
(lp1824
S':'
asbag57
(g78
g59
NtRp1825
(dp1826
g62
(dp1827
sg71
g1812
sg64
(lp1828
g57
(g58
g59
NtRp1829
(dp1830
g62
(dp1831
g70
I4
ssg71
g1825
sg64
(lp1832
S'http'
p1833
asbasbasbag57
(g73
g59
NtRp1834
(dp1835
g62
(dp1836
sg71
g847
sg64
(lp1837
g57
(g78
g59
NtRp1838
(dp1839
g62
(dp1840
g82
g83
ssg71
g1834
sg64
(lp1841
S'wsgi_version'
p1842
asbag57
(g78
g59
NtRp1843
(dp1844
g62
(dp1845
g89
g90
ssg71
g1834
sg64
(lp1846
S':'
asbag57
(g78
g59
NtRp1847
(dp1848
g62
(dp1849
sg71
g1834
sg64
(lp1850
g57
(g58
g59
NtRp1851
(dp1852
g62
(dp1853
g70
I4
ssg71
g1847
sg64
(lp1854
g57
(g66
g59
NtRp1855
(dp1856
g62
(dp1857
g70
I3
ssg71
Nsg64
(lp1858
g57
(g73
g59
NtRp1859
(dp1860
g62
(dp1861
sg71
g1855
sg64
(lp1862
g57
(g78
g59
NtRp1863
(dp1864
g62
(dp1865
sg71
g1859
sg64
(lp1866
g57
(g58
g59
NtRp1867
(dp1868
g62
(dp1869
g70
I3
ssg71
g1863
sg64
(lp1870
S'1'
asbasbasbag57
(g73
g59
NtRp1871
(dp1872
g62
(dp1873
sg71
g1855
sg64
(lp1874
g57
(g78
g59
NtRp1875
(dp1876
g62
(dp1877
sg71
g1871
sg64
(lp1878
g57
(g58
g59
NtRp1879
(dp1880
g62
(dp1881
g70
I3
ssg71
g1875
sg64
(lp1882
S'0'
asbasbasbasbasbasbasbasbasbasbasbag57
(g73
g59
NtRp1883
(dp1884
g62
(dp1885
sg71
g67
sg64
(lp1886
g57
(g78
g59
NtRp1887
(dp1888
g62
(dp1889
g82
g83
ssg71
g1883
sg64
(lp1890
S'extension'
p1891
asbag57
(g78
g59
NtRp1892
(dp1893
g62
(dp1894
g89
g90
ssg71
g1883
sg64
(lp1895
S':'
asbag57
(g78
g59
NtRp1896
(dp1897
g62
(dp1898
sg71
g1883
sg64
(lp1899
g57
(g58
g59
NtRp1900
(dp1901
g62
(dp1902
g70
I5
ssg71
g1896
sg64
(lp1903
S'html'
p1904
asbasbasbag57
(g73
g59
NtRp1905
(dp1906
g62
(dp1907
sg71
g67
sg64
(lp1908
g57
(g78
g59
NtRp1909
(dp1910
g62
(dp1911
g82
g83
ssg71
g1905
sg64
(lp1912
S'folder'
p1913
asbag57
(g78
g59
NtRp1914
(dp1915
g62
(dp1916
g89
g90
ssg71
g1905
sg64
(lp1917
S':'
asbag57
(g78
g59
NtRp1918
(dp1919
g62
(dp1920
sg71
g1905
sg64
(lp1921
g57
(g58
g59
NtRp1922
(dp1923
g62
(dp1924
g70
I5
ssg71
g1918
sg64
(lp1925
S'/home/xchen/web2py/applications/Betsy/'
p1926
asbasbasbag57
(g73
g59
NtRp1927
(dp1928
g62
(dp1929
sg71
g67
sg64
(lp1930
g57
(g78
g59
NtRp1931
(dp1932
g62
(dp1933
g82
g83
ssg71
g1927
sg64
(lp1934
S'function'
p1935
asbag57
(g78
g59
NtRp1936
(dp1937
g62
(dp1938
g89
g90
ssg71
g1927
sg64
(lp1939
S':'
asbag57
(g78
g59
NtRp1940
(dp1941
g62
(dp1942
sg71
g1927
sg64
(lp1943
g57
(g58
g59
NtRp1944
(dp1945
g62
(dp1946
g70
I5
ssg71
g1940
sg64
(lp1947
S'show_status'
p1948
asbasbasbag57
(g73
g59
NtRp1949
(dp1950
g62
(dp1951
sg71
g67
sg64
(lp1952
g57
(g78
g59
NtRp1953
(dp1954
g62
(dp1955
g82
g83
ssg71
g1949
sg64
(lp1956
S'get_vars'
p1957
asbag57
(g78
g59
NtRp1958
(dp1959
g62
(dp1960
g89
g90
ssg71
g1949
sg64
(lp1961
S':'
asbag57
(g78
g59
NtRp1962
(dp1963
g62
(dp1964
sg71
g1949
sg64
(lp1965
g57
(g58
g59
NtRp1966
(dp1967
g62
(dp1968
g70
I5
ssg71
g1962
sg64
(lp1969
g57
(g66
g59
NtRp1970
(dp1971
g62
(dp1972
g70
I4
ssg71
Nsg64
(lp1973
sbasbasbasbag57
(g73
g59
NtRp1974
(dp1975
g62
(dp1976
sg71
g67
sg64
(lp1977
g57
(g78
g59
NtRp1978
(dp1979
g62
(dp1980
g82
g83
ssg71
g1974
sg64
(lp1981
S'global_settings'
p1982
asbag57
(g78
g59
NtRp1983
(dp1984
g62
(dp1985
g89
g90
ssg71
g1974
sg64
(lp1986
S':'
asbag57
(g78
g59
NtRp1987
(dp1988
g62
(dp1989
sg71
g1974
sg64
(lp1990
g57
(g58
g59
NtRp1991
(dp1992
g62
(dp1993
g70
I5
ssg71
g1987
sg64
(lp1994
g57
(g66
g59
NtRp1995
(dp1996
g62
(dp1997
g70
I4
ssg71
Nsg64
(lp1998
g57
(g73
g59
NtRp1999
(dp2000
g62
(dp2001
sg71
g1995
sg64
(lp2002
g57
(g78
g59
NtRp2003
(dp2004
g62
(dp2005
g82
g83
ssg71
g1999
sg64
(lp2006
g859
asbag57
(g78
g59
NtRp2007
(dp2008
g62
(dp2009
g89
g90
ssg71
g1999
sg64
(lp2010
S':'
asbag57
(g78
g59
NtRp2011
(dp2012
g62
(dp2013
sg71
g1999
sg64
(lp2014
g57
(g58
g59
NtRp2015
(dp2016
g62
(dp2017
g70
I4
ssg71
g2011
sg64
(lp2018
S"set(['/home/xchen/web2py/applications/Betsy/', '/home/xchen/web2py/applications/admin/', '/home/xchen/web2py/applications/welcome/'])"
p2019
asbasbasbag57
(g73
g59
NtRp2020
(dp2021
g62
(dp2022
sg71
g1995
sg64
(lp2023
g57
(g78
g59
NtRp2024
(dp2025
g62
(dp2026
g82
g83
ssg71
g2020
sg64
(lp2027
g881
asbag57
(g78
g59
NtRp2028
(dp2029
g62
(dp2030
g89
g90
ssg71
g2020
sg64
(lp2031
S':'
asbag57
(g78
g59
NtRp2032
(dp2033
g62
(dp2034
sg71
g2020
sg64
(lp2035
g57
(g58
g59
NtRp2036
(dp2037
g62
(dp2038
g70
I4
ssg71
g2032
sg64
(lp2039
g894
asbasbasbag57
(g73
g59
NtRp2040
(dp2041
g62
(dp2042
sg71
g1995
sg64
(lp2043
g57
(g78
g59
NtRp2044
(dp2045
g62
(dp2046
g82
g83
ssg71
g2040
sg64
(lp2047
g903
asbag57
(g78
g59
NtRp2048
(dp2049
g62
(dp2050
g89
g90
ssg71
g2040
sg64
(lp2051
S':'
asbag57
(g78
g59
NtRp2052
(dp2053
g62
(dp2054
sg71
g2040
sg64
(lp2055
g57
(g58
g59
NtRp2056
(dp2057
g62
(dp2058
g70
I4
ssg71
g2052
sg64
(lp2059
g57
(g66
g59
NtRp2060
(dp2061
g62
(dp2062
g70
I3
ssg71
Nsg64
(lp2063
sbasbasbasbag57
(g73
g59
NtRp2064
(dp2065
g62
(dp2066
sg71
g1995
sg64
(lp2067
g57
(g78
g59
NtRp2068
(dp2069
g62
(dp2070
g82
g83
ssg71
g2064
sg64
(lp2071
g928
asbag57
(g78
g59
NtRp2072
(dp2073
g62
(dp2074
g89
g90
ssg71
g2064
sg64
(lp2075
S':'
asbag57
(g78
g59
NtRp2076
(dp2077
g62
(dp2078
sg71
g2064
sg64
(lp2079
g57
(g58
g59
NtRp2080
(dp2081
g62
(dp2082
g70
I4
ssg71
g2076
sg64
(lp2083
S"<Values at 0x19e61e18: {'verbose': False, 'ip': '127.0.0.1', 'with_scheduler': False, 'ips': [], 'shutdown_timeout': 5, 'taskbar': False, 'port': 8080, 'maxthreads': None, 'softcron': False, 'server_name': 'unicron.shis.uth.tmc.edu', 'bpython': False, 'nogui': False, 'pid_filename': 'httpserver.pid', 'extcron': False, 'runcron': False, 'run_system_tests': False, 'test': None, 'folder': '/home/xchen/web2py', 'config': '', 'minthreads': None, 'winservice': '', 'shell': None, 'run': '', 'log_filename': 'httpserver.log', 'debuglevel': 30, 'args': [''], 'socket_timeout': 5, 'ssl_ca_certificate': None, 'scheduler': None, 'profiler_filename': None, 'ssl_private_key': '', 'scheduler_groups': None, 'password': 'baby2008', 'request_queue_size': 5, 'ssl_certificate': '', 'cronjob': False, 'numthreads': None, 'quiet': False, 'interfaces': None, 'import_models': False, 'timeout': 10, 'plain': False, 'nobanner': False}>"
p2084
asbasbasbag57
(g73
g59
NtRp2085
(dp2086
g62
(dp2087
sg71
g1995
sg64
(lp2088
g57
(g78
g59
NtRp2089
(dp2090
g62
(dp2091
g82
g83
ssg71
g2085
sg64
(lp2092
g950
asbag57
(g78
g59
NtRp2093
(dp2094
g62
(dp2095
g89
g90
ssg71
g2085
sg64
(lp2096
S':'
asbag57
(g78
g59
NtRp2097
(dp2098
g62
(dp2099
sg71
g2085
sg64
(lp2100
g57
(g58
g59
NtRp2101
(dp2102
g62
(dp2103
g70
I4
ssg71
g2097
sg64
(lp2104
S'set([])'
p2105
asbasbasbag57
(g73
g59
NtRp2106
(dp2107
g62
(dp2108
sg71
g1995
sg64
(lp2109
g57
(g78
g59
NtRp2110
(dp2111
g62
(dp2112
g82
g83
ssg71
g2106
sg64
(lp2113
g972
asbag57
(g78
g59
NtRp2114
(dp2115
g62
(dp2116
g89
g90
ssg71
g2106
sg64
(lp2117
S':'
asbag57
(g78
g59
NtRp2118
(dp2119
g62
(dp2120
sg71
g2106
sg64
(lp2121
g57
(g58
g59
NtRp2122
(dp2123
g62
(dp2124
g70
I4
ssg71
g2118
sg64
(lp2125
g100
asbasbasbag57
(g73
g59
NtRp2126
(dp2127
g62
(dp2128
sg71
g1995
sg64
(lp2129
g57
(g78
g59
NtRp2130
(dp2131
g62
(dp2132
g82
g83
ssg71
g2126
sg64
(lp2133
g993
asbag57
(g78
g59
NtRp2134
(dp2135
g62
(dp2136
g89
g90
ssg71
g2126
sg64
(lp2137
S':'
asbag57
(g78
g59
NtRp2138
(dp2139
g62
(dp2140
sg71
g2126
sg64
(lp2141
g57
(g58
g59
NtRp2142
(dp2143
g62
(dp2144
g70
I4
ssg71
g2138
sg64
(lp2145
g1006
asbasbasbag57
(g73
g59
NtRp2146
(dp2147
g62
(dp2148
sg71
g1995
sg64
(lp2149
g57
(g78
g59
NtRp2150
(dp2151
g62
(dp2152
g82
g83
ssg71
g2146
sg64
(lp2153
g1213
asbag57
(g78
g59
NtRp2154
(dp2155
g62
(dp2156
g89
g90
ssg71
g2146
sg64
(lp2157
S':'
asbag57
(g78
g59
NtRp2158
(dp2159
g62
(dp2160
sg71
g2146
sg64
(lp2161
g57
(g58
g59
NtRp2162
(dp2163
g62
(dp2164
g70
I4
ssg71
g2158
sg64
(lp2165
g100
asbasbasbag57
(g73
g59
NtRp2166
(dp2167
g62
(dp2168
sg71
g1995
sg64
(lp2169
g57
(g78
g59
NtRp2170
(dp2171
g62
(dp2172
g82
g83
ssg71
g2166
sg64
(lp2173
g1234
asbag57
(g78
g59
NtRp2174
(dp2175
g62
(dp2176
g89
g90
ssg71
g2166
sg64
(lp2177
S':'
asbag57
(g78
g59
NtRp2178
(dp2179
g62
(dp2180
sg71
g2166
sg64
(lp2181
g57
(g58
g59
NtRp2182
(dp2183
g62
(dp2184
g70
I4
ssg71
g2178
sg64
(lp2185
g100
asbasbasbag57
(g73
g59
NtRp2186
(dp2187
g62
(dp2188
sg71
g1995
sg64
(lp2189
g57
(g78
g59
NtRp2190
(dp2191
g62
(dp2192
g82
g83
ssg71
g2186
sg64
(lp2193
g1255
asbag57
(g78
g59
NtRp2194
(dp2195
g62
(dp2196
g89
g90
ssg71
g2186
sg64
(lp2197
S':'
asbag57
(g78
g59
NtRp2198
(dp2199
g62
(dp2200
sg71
g2186
sg64
(lp2201
g57
(g58
g59
NtRp2202
(dp2203
g62
(dp2204
g70
I4
ssg71
g2198
sg64
(lp2205
g57
(g66
g59
NtRp2206
(dp2207
g62
(dp2208
g70
I3
ssg71
Nsg64
(lp2209
g57
(g73
g59
NtRp2210
(dp2211
g62
(dp2212
sg71
g2206
sg64
(lp2213
g57
(g78
g59
NtRp2214
(dp2215
g62
(dp2216
sg71
g2210
sg64
(lp2217
g57
(g58
g59
NtRp2218
(dp2219
g62
(dp2220
g70
I3
ssg71
g2214
sg64
(lp2221
g1284
asbasbasbag57
(g73
g59
NtRp2222
(dp2223
g62
(dp2224
sg71
g2206
sg64
(lp2225
g57
(g78
g59
NtRp2226
(dp2227
g62
(dp2228
sg71
g2222
sg64
(lp2229
g57
(g58
g59
NtRp2230
(dp2231
g62
(dp2232
g70
I3
ssg71
g2226
sg64
(lp2233
g1297
asbasbasbag57
(g73
g59
NtRp2234
(dp2235
g62
(dp2236
sg71
g2206
sg64
(lp2237
g57
(g78
g59
NtRp2238
(dp2239
g62
(dp2240
sg71
g2234
sg64
(lp2241
g57
(g58
g59
NtRp2242
(dp2243
g62
(dp2244
g70
I3
ssg71
g2238
sg64
(lp2245
g1310
asbasbasbag57
(g73
g59
NtRp2246
(dp2247
g62
(dp2248
sg71
g2206
sg64
(lp2249
g57
(g78
g59
NtRp2250
(dp2251
g62
(dp2252
sg71
g2246
sg64
(lp2253
g57
(g58
g59
NtRp2254
(dp2255
g62
(dp2256
g70
I3
ssg71
g2250
sg64
(lp2257
g1323
asbasbasbag57
(g73
g59
NtRp2258
(dp2259
g62
(dp2260
sg71
g2206
sg64
(lp2261
g57
(g78
g59
NtRp2262
(dp2263
g62
(dp2264
sg71
g2258
sg64
(lp2265
g57
(g58
g59
NtRp2266
(dp2267
g62
(dp2268
g70
I3
ssg71
g2262
sg64
(lp2269
g1336
asbasbasbasbasbasbasbag57
(g73
g59
NtRp2270
(dp2271
g62
(dp2272
sg71
g1995
sg64
(lp2273
g57
(g78
g59
NtRp2274
(dp2275
g62
(dp2276
g82
g83
ssg71
g2270
sg64
(lp2277
g1603
asbag57
(g78
g59
NtRp2278
(dp2279
g62
(dp2280
g89
g90
ssg71
g2270
sg64
(lp2281
S':'
asbag57
(g78
g59
NtRp2282
(dp2283
g62
(dp2284
sg71
g2270
sg64
(lp2285
g57
(g58
g59
NtRp2286
(dp2287
g62
(dp2288
g70
I4
ssg71
g2282
sg64
(lp2289
g57
(g66
g59
NtRp2290
(dp2291
g62
(dp2292
g70
I3
ssg71
Nsg64
(lp2293
g57
(g73
g59
NtRp2294
(dp2295
g62
(dp2296
sg71
g2290
sg64
(lp2297
g57
(g78
g59
NtRp2298
(dp2299
g62
(dp2300
sg71
g2294
sg64
(lp2301
g57
(g58
g59
NtRp2302
(dp2303
g62
(dp2304
g70
I3
ssg71
g2298
sg64
(lp2305
S'2'
asbasbasbag57
(g73
g59
NtRp2306
(dp2307
g62
(dp2308
sg71
g2290
sg64
(lp2309
g57
(g78
g59
NtRp2310
(dp2311
g62
(dp2312
sg71
g2306
sg64
(lp2313
g57
(g58
g59
NtRp2314
(dp2315
g62
(dp2316
g70
I3
ssg71
g2310
sg64
(lp2317
S'2'
asbasbasbag57
(g73
g59
NtRp2318
(dp2319
g62
(dp2320
sg71
g2290
sg64
(lp2321
g57
(g78
g59
NtRp2322
(dp2323
g62
(dp2324
sg71
g2318
sg64
(lp2325
g57
(g58
g59
NtRp2326
(dp2327
g62
(dp2328
g70
I3
ssg71
g2322
sg64
(lp2329
S'1'
asbasbasbag57
(g73
g59
NtRp2330
(dp2331
g62
(dp2332
sg71
g2290
sg64
(lp2333
g57
(g78
g59
NtRp2334
(dp2335
g62
(dp2336
sg71
g2330
sg64
(lp2337
g57
(g58
g59
NtRp2338
(dp2339
g62
(dp2340
g70
I3
ssg71
g2334
sg64
(lp2341
S'datetime.datetime(2012, 10, 21, 16, 57, 4)'
p2342
asbasbasbag57
(g73
g59
NtRp2343
(dp2344
g62
(dp2345
sg71
g2290
sg64
(lp2346
g57
(g78
g59
NtRp2347
(dp2348
g62
(dp2349
sg71
g2343
sg64
(lp2350
g57
(g58
g59
NtRp2351
(dp2352
g62
(dp2353
g70
I3
ssg71
g2347
sg64
(lp2354
g1681
asbasbasbasbasbasbasbasbasbasbasbag57
(g73
g59
NtRp2355
(dp2356
g62
(dp2357
sg71
g67
sg64
(lp2358
g57
(g78
g59
NtRp2359
(dp2360
g62
(dp2361
g82
g83
ssg71
g2355
sg64
(lp2362
S'is_https'
p2363
asbag57
(g78
g59
NtRp2364
(dp2365
g62
(dp2366
g89
g90
ssg71
g2355
sg64
(lp2367
S':'
asbag57
(g78
g59
NtRp2368
(dp2369
g62
(dp2370
sg71
g2355
sg64
(lp2371
g57
(g58
g59
NtRp2372
(dp2373
g62
(dp2374
g70
I5
ssg71
g2368
sg64
(lp2375
g100
asbasbasbag57
(g73
g59
NtRp2376
(dp2377
g62
(dp2378
sg71
g67
sg64
(lp2379
g57
(g78
g59
NtRp2380
(dp2381
g62
(dp2382
g82
g83
ssg71
g2376
sg64
(lp2383
S'is_local'
p2384
asbag57
(g78
g59
NtRp2385
(dp2386
g62
(dp2387
g89
g90
ssg71
g2376
sg64
(lp2388
S':'
asbag57
(g78
g59
NtRp2389
(dp2390
g62
(dp2391
sg71
g2376
sg64
(lp2392
g57
(g58
g59
NtRp2393
(dp2394
g62
(dp2395
g70
I5
ssg71
g2389
sg64
(lp2396
g1790
asbasbasbag57
(g73
g59
NtRp2397
(dp2398
g62
(dp2399
sg71
g67
sg64
(lp2400
g57
(g78
g59
NtRp2401
(dp2402
g62
(dp2403
g82
g83
ssg71
g2397
sg64
(lp2404
S'is_restful'
p2405
asbag57
(g78
g59
NtRp2406
(dp2407
g62
(dp2408
g89
g90
ssg71
g2397
sg64
(lp2409
S':'
asbag57
(g78
g59
NtRp2410
(dp2411
g62
(dp2412
sg71
g2397
sg64
(lp2413
g57
(g58
g59
NtRp2414
(dp2415
g62
(dp2416
g70
I5
ssg71
g2410
sg64
(lp2417
g100
asbasbasbag57
(g73
g59
NtRp2418
(dp2419
g62
(dp2420
sg71
g67
sg64
(lp2421
g57
(g78
g59
NtRp2422
(dp2423
g62
(dp2424
g82
g83
ssg71
g2418
sg64
(lp2425
S'now'
p2426
asbag57
(g78
g59
NtRp2427
(dp2428
g62
(dp2429
g89
g90
ssg71
g2418
sg64
(lp2430
S':'
asbag57
(g78
g59
NtRp2431
(dp2432
g62
(dp2433
sg71
g2418
sg64
(lp2434
g57
(g58
g59
NtRp2435
(dp2436
g62
(dp2437
g70
I5
ssg71
g2431
sg64
(lp2438
S'datetime.datetime(2013, 2, 5, 10, 49, 44, 610591)'
p2439
asbasbasbag57
(g73
g59
NtRp2440
(dp2441
g62
(dp2442
sg71
g67
sg64
(lp2443
g57
(g78
g59
NtRp2444
(dp2445
g62
(dp2446
g82
g83
ssg71
g2440
sg64
(lp2447
S'post_vars'
p2448
asbag57
(g78
g59
NtRp2449
(dp2450
g62
(dp2451
g89
g90
ssg71
g2440
sg64
(lp2452
S':'
asbag57
(g78
g59
NtRp2453
(dp2454
g62
(dp2455
sg71
g2440
sg64
(lp2456
g57
(g58
g59
NtRp2457
(dp2458
g62
(dp2459
g70
I5
ssg71
g2453
sg64
(lp2460
g57
(g66
g59
NtRp2461
(dp2462
g62
(dp2463
g70
I4
ssg71
Nsg64
(lp2464
sbasbasbasbag57
(g73
g59
NtRp2465
(dp2466
g62
(dp2467
sg71
g67
sg64
(lp2468
g57
(g78
g59
NtRp2469
(dp2470
g62
(dp2471
g82
g83
ssg71
g2465
sg64
(lp2472
S'raw_args'
p2473
asbag57
(g78
g59
NtRp2474
(dp2475
g62
(dp2476
g89
g90
ssg71
g2465
sg64
(lp2477
S':'
asbag57
(g78
g59
NtRp2478
(dp2479
g62
(dp2480
sg71
g2465
sg64
(lp2481
g57
(g58
g59
NtRp2482
(dp2483
g62
(dp2484
g70
I5
ssg71
g2478
sg64
(lp2485
S''
asbasbasbag57
(g73
g59
NtRp2486
(dp2487
g62
(dp2488
sg71
g67
sg64
(lp2489
g57
(g78
g59
NtRp2490
(dp2491
g62
(dp2492
g82
g83
ssg71
g2486
sg64
(lp2493
S'raw_extension'
p2494
asbag57
(g78
g59
NtRp2495
(dp2496
g62
(dp2497
g89
g90
ssg71
g2486
sg64
(lp2498
S':'
asbag57
(g78
g59
NtRp2499
(dp2500
g62
(dp2501
sg71
g2486
sg64
(lp2502
g57
(g58
g59
NtRp2503
(dp2504
g62
(dp2505
g70
I5
ssg71
g2499
sg64
(lp2506
S'None'
p2507
asbasbasbag57
(g73
g59
NtRp2508
(dp2509
g62
(dp2510
sg71
g67
sg64
(lp2511
g57
(g78
g59
NtRp2512
(dp2513
g62
(dp2514
g82
g83
ssg71
g2508
sg64
(lp2515
S'url'
p2516
asbag57
(g78
g59
NtRp2517
(dp2518
g62
(dp2519
g89
g90
ssg71
g2508
sg64
(lp2520
S':'
asbag57
(g78
g59
NtRp2521
(dp2522
g62
(dp2523
sg71
g2508
sg64
(lp2524
g57
(g58
g59
NtRp2525
(dp2526
g62
(dp2527
g70
I5
ssg71
g2521
sg64
(lp2528
g1358
asbasbasbag57
(g73
g59
NtRp2529
(dp2530
g62
(dp2531
sg71
g67
sg64
(lp2532
g57
(g78
g59
NtRp2533
(dp2534
g62
(dp2535
g82
g83
ssg71
g2529
sg64
(lp2536
S'utcnow'
p2537
asbag57
(g78
g59
NtRp2538
(dp2539
g62
(dp2540
g89
g90
ssg71
g2529
sg64
(lp2541
S':'
asbag57
(g78
g59
NtRp2542
(dp2543
g62
(dp2544
sg71
g2529
sg64
(lp2545
g57
(g58
g59
NtRp2546
(dp2547
g62
(dp2548
g70
I5
ssg71
g2542
sg64
(lp2549
S'datetime.datetime(2013, 2, 5, 16, 49, 44, 610597)'
p2550
asbasbasbag57
(g73
g59
NtRp2551
(dp2552
g62
(dp2553
sg71
g67
sg64
(lp2554
g57
(g78
g59
NtRp2555
(dp2556
g62
(dp2557
g82
g83
ssg71
g2551
sg64
(lp2558
S'uuid'
p2559
asbag57
(g78
g59
NtRp2560
(dp2561
g62
(dp2562
g89
g90
ssg71
g2551
sg64
(lp2563
S':'
asbag57
(g78
g59
NtRp2564
(dp2565
g62
(dp2566
sg71
g2551
sg64
(lp2567
g57
(g58
g59
NtRp2568
(dp2569
g62
(dp2570
g70
I5
ssg71
g2564
sg64
(lp2571
S'Betsy/127.0.0.1.2013-02-05.10-49-44.ac5341e2-d240-430d-8204-4dae26ddf3bf'
p2572
asbasbasbag57
(g73
g59
NtRp2573
(dp2574
g62
(dp2575
sg71
g67
sg64
(lp2576
g57
(g78
g59
NtRp2577
(dp2578
g62
(dp2579
g82
g83
ssg71
g2573
sg64
(lp2580
S'vars'
p2581
asbag57
(g78
g59
NtRp2582
(dp2583
g62
(dp2584
g89
g90
ssg71
g2573
sg64
(lp2585
S':'
asbag57
(g78
g59
NtRp2586
(dp2587
g62
(dp2588
sg71
g2573
sg64
(lp2589
g57
(g58
g59
NtRp2590
(dp2591
g62
(dp2592
g70
I5
ssg71
g2586
sg64
(lp2593
g57
(g66
g59
NtRp2594
(dp2595
g62
(dp2596
g70
I4
ssg71
Nsg64
(lp2597
sbasbasbasbag57
(g73
g59
NtRp2598
(dp2599
g62
(dp2600
sg71
g67
sg64
(lp2601
g57
(g78
g59
NtRp2602
(dp2603
g62
(dp2604
g82
g83
ssg71
g2598
sg64
(lp2605
S'wsgi'
p2606
asbag57
(g78
g59
NtRp2607
(dp2608
g62
(dp2609
g89
g90
ssg71
g2598
sg64
(lp2610
S':'
asbag57
(g78
g59
NtRp2611
(dp2612
g62
(dp2613
sg71
g2598
sg64
(lp2614
g57
(g58
g59
NtRp2615
(dp2616
g62
(dp2617
g70
I5
ssg71
g2611
sg64
(lp2618
g57
(g66
g59
NtRp2619
(dp2620
g62
(dp2621
g70
I4
ssg71
Nsg64
(lp2622
g57
(g73
g59
NtRp2623
(dp2624
g62
(dp2625
sg71
g2619
sg64
(lp2626
g57
(g78
g59
NtRp2627
(dp2628
g62
(dp2629
g82
g83
ssg71
g2623
sg64
(lp2630
S'environ'
p2631
asbag57
(g78
g59
NtRp2632
(dp2633
g62
(dp2634
g89
g90
ssg71
g2623
sg64
(lp2635
S':'
asbag57
(g78
g59
NtRp2636
(dp2637
g62
(dp2638
sg71
g2623
sg64
(lp2639
g57
(g58
g59
NtRp2640
(dp2641
g62
(dp2642
g70
I4
ssg71
g2636
sg64
(lp2643
g57
(g66
g59
NtRp2644
(dp2645
g62
(dp2646
g70
I3
ssg71
Nsg64
(lp2647
g57
(g73
g59
NtRp2648
(dp2649
g62
(dp2650
sg71
g2644
sg64
(lp2651
g57
(g78
g59
NtRp2652
(dp2653
g62
(dp2654
g82
g83
ssg71
g2648
sg64
(lp2655
S'HTTP_ACCEPT'
p2656
asbag57
(g78
g59
NtRp2657
(dp2658
g62
(dp2659
g89
g90
ssg71
g2648
sg64
(lp2660
S':'
asbag57
(g78
g59
NtRp2661
(dp2662
g62
(dp2663
sg71
g2648
sg64
(lp2664
g57
(g58
g59
NtRp2665
(dp2666
g62
(dp2667
g70
I3
ssg71
g2661
sg64
(lp2668
g1028
asbasbasbag57
(g73
g59
NtRp2669
(dp2670
g62
(dp2671
sg71
g2644
sg64
(lp2672
g57
(g78
g59
NtRp2673
(dp2674
g62
(dp2675
g82
g83
ssg71
g2669
sg64
(lp2676
S'HTTP_ACCEPT_ENCODING'
p2677
asbag57
(g78
g59
NtRp2678
(dp2679
g62
(dp2680
g89
g90
ssg71
g2669
sg64
(lp2681
S':'
asbag57
(g78
g59
NtRp2682
(dp2683
g62
(dp2684
sg71
g2669
sg64
(lp2685
g57
(g58
g59
NtRp2686
(dp2687
g62
(dp2688
g70
I3
ssg71
g2682
sg64
(lp2689
g1050
asbasbasbag57
(g73
g59
NtRp2690
(dp2691
g62
(dp2692
sg71
g2644
sg64
(lp2693
g57
(g78
g59
NtRp2694
(dp2695
g62
(dp2696
g82
g83
ssg71
g2690
sg64
(lp2697
S'HTTP_ACCEPT_LANGUAGE'
p2698
asbag57
(g78
g59
NtRp2699
(dp2700
g62
(dp2701
g89
g90
ssg71
g2690
sg64
(lp2702
S':'
asbag57
(g78
g59
NtRp2703
(dp2704
g62
(dp2705
sg71
g2690
sg64
(lp2706
g57
(g58
g59
NtRp2707
(dp2708
g62
(dp2709
g70
I3
ssg71
g2703
sg64
(lp2710
g1072
asbasbasbag57
(g73
g59
NtRp2711
(dp2712
g62
(dp2713
sg71
g2644
sg64
(lp2714
g57
(g78
g59
NtRp2715
(dp2716
g62
(dp2717
g82
g83
ssg71
g2711
sg64
(lp2718
S'HTTP_CACHE_CONTROL'
p2719
asbag57
(g78
g59
NtRp2720
(dp2721
g62
(dp2722
g89
g90
ssg71
g2711
sg64
(lp2723
S':'
asbag57
(g78
g59
NtRp2724
(dp2725
g62
(dp2726
sg71
g2711
sg64
(lp2727
g57
(g58
g59
NtRp2728
(dp2729
g62
(dp2730
g70
I3
ssg71
g2724
sg64
(lp2731
g1094
asbasbasbag57
(g73
g59
NtRp2732
(dp2733
g62
(dp2734
sg71
g2644
sg64
(lp2735
g57
(g78
g59
NtRp2736
(dp2737
g62
(dp2738
g82
g83
ssg71
g2732
sg64
(lp2739
S'HTTP_CONNECTION'
p2740
asbag57
(g78
g59
NtRp2741
(dp2742
g62
(dp2743
g89
g90
ssg71
g2732
sg64
(lp2744
S':'
asbag57
(g78
g59
NtRp2745
(dp2746
g62
(dp2747
sg71
g2732
sg64
(lp2748
g57
(g58
g59
NtRp2749
(dp2750
g62
(dp2751
g70
I3
ssg71
g2745
sg64
(lp2752
g1116
asbasbasbag57
(g73
g59
NtRp2753
(dp2754
g62
(dp2755
sg71
g2644
sg64
(lp2756
g57
(g78
g59
NtRp2757
(dp2758
g62
(dp2759
g82
g83
ssg71
g2753
sg64
(lp2760
S'HTTP_COOKIE'
p2761
asbag57
(g78
g59
NtRp2762
(dp2763
g62
(dp2764
g89
g90
ssg71
g2753
sg64
(lp2765
S':'
asbag57
(g78
g59
NtRp2766
(dp2767
g62
(dp2768
sg71
g2753
sg64
(lp2769
g57
(g58
g59
NtRp2770
(dp2771
g62
(dp2772
g70
I3
ssg71
g2766
sg64
(lp2773
g1138
asbasbasbag57
(g73
g59
NtRp2774
(dp2775
g62
(dp2776
sg71
g2644
sg64
(lp2777
g57
(g78
g59
NtRp2778
(dp2779
g62
(dp2780
g82
g83
ssg71
g2774
sg64
(lp2781
S'HTTP_HOST'
p2782
asbag57
(g78
g59
NtRp2783
(dp2784
g62
(dp2785
g89
g90
ssg71
g2774
sg64
(lp2786
S':'
asbag57
(g78
g59
NtRp2787
(dp2788
g62
(dp2789
sg71
g2774
sg64
(lp2790
g57
(g58
g59
NtRp2791
(dp2792
g62
(dp2793
g70
I3
ssg71
g2787
sg64
(lp2794
g1160
asbasbasbag57
(g73
g59
NtRp2795
(dp2796
g62
(dp2797
sg71
g2644
sg64
(lp2798
g57
(g78
g59
NtRp2799
(dp2800
g62
(dp2801
g82
g83
ssg71
g2795
sg64
(lp2802
S'HTTP_REFERER'
p2803
asbag57
(g78
g59
NtRp2804
(dp2805
g62
(dp2806
g89
g90
ssg71
g2795
sg64
(lp2807
S':'
asbag57
(g78
g59
NtRp2808
(dp2809
g62
(dp2810
sg71
g2795
sg64
(lp2811
g57
(g58
g59
NtRp2812
(dp2813
g62
(dp2814
g70
I3
ssg71
g2808
sg64
(lp2815
g1182
asbasbasbag57
(g73
g59
NtRp2816
(dp2817
g62
(dp2818
sg71
g2644
sg64
(lp2819
g57
(g78
g59
NtRp2820
(dp2821
g62
(dp2822
g82
g83
ssg71
g2816
sg64
(lp2823
S'HTTP_USER_AGENT'
p2824
asbag57
(g78
g59
NtRp2825
(dp2826
g62
(dp2827
g89
g90
ssg71
g2816
sg64
(lp2828
S':'
asbag57
(g78
g59
NtRp2829
(dp2830
g62
(dp2831
sg71
g2816
sg64
(lp2832
g57
(g58
g59
NtRp2833
(dp2834
g62
(dp2835
g70
I3
ssg71
g2829
sg64
(lp2836
g1204
asbasbasbag57
(g73
g59
NtRp2837
(dp2838
g62
(dp2839
sg71
g2644
sg64
(lp2840
g57
(g78
g59
NtRp2841
(dp2842
g62
(dp2843
g82
g83
ssg71
g2837
sg64
(lp2844
S'PATH_INFO'
p2845
asbag57
(g78
g59
NtRp2846
(dp2847
g62
(dp2848
g89
g90
ssg71
g2837
sg64
(lp2849
S':'
asbag57
(g78
g59
NtRp2850
(dp2851
g62
(dp2852
sg71
g2837
sg64
(lp2853
g57
(g58
g59
NtRp2854
(dp2855
g62
(dp2856
g70
I3
ssg71
g2850
sg64
(lp2857
g1358
asbasbasbag57
(g73
g59
NtRp2858
(dp2859
g62
(dp2860
sg71
g2644
sg64
(lp2861
g57
(g78
g59
NtRp2862
(dp2863
g62
(dp2864
g82
g83
ssg71
g2858
sg64
(lp2865
S'QUERY_STRING'
p2866
asbag57
(g78
g59
NtRp2867
(dp2868
g62
(dp2869
g89
g90
ssg71
g2858
sg64
(lp2870
S':'
asbag57
(g78
g59
NtRp2871
(dp2872
g62
(dp2873
sg71
g2858
sg64
(lp2874
g57
(g58
g59
NtRp2875
(dp2876
g62
(dp2877
g70
I3
ssg71
g2871
sg64
(lp2878
S''
asbasbasbag57
(g73
g59
NtRp2879
(dp2880
g62
(dp2881
sg71
g2644
sg64
(lp2882
g57
(g78
g59
NtRp2883
(dp2884
g62
(dp2885
g82
g83
ssg71
g2879
sg64
(lp2886
S'REMOTE_ADDR'
p2887
asbag57
(g78
g59
NtRp2888
(dp2889
g62
(dp2890
g89
g90
ssg71
g2879
sg64
(lp2891
S':'
asbag57
(g78
g59
NtRp2892
(dp2893
g62
(dp2894
sg71
g2879
sg64
(lp2895
g57
(g58
g59
NtRp2896
(dp2897
g62
(dp2898
g70
I3
ssg71
g2892
sg64
(lp2899
g212
asbasbasbag57
(g73
g59
NtRp2900
(dp2901
g62
(dp2902
sg71
g2644
sg64
(lp2903
g57
(g78
g59
NtRp2904
(dp2905
g62
(dp2906
g82
g83
ssg71
g2900
sg64
(lp2907
S'REMOTE_PORT'
p2908
asbag57
(g78
g59
NtRp2909
(dp2910
g62
(dp2911
g89
g90
ssg71
g2900
sg64
(lp2912
S':'
asbag57
(g78
g59
NtRp2913
(dp2914
g62
(dp2915
sg71
g2900
sg64
(lp2916
g57
(g58
g59
NtRp2917
(dp2918
g62
(dp2919
g70
I3
ssg71
g2913
sg64
(lp2920
g1422
asbasbasbag57
(g73
g59
NtRp2921
(dp2922
g62
(dp2923
sg71
g2644
sg64
(lp2924
g57
(g78
g59
NtRp2925
(dp2926
g62
(dp2927
g82
g83
ssg71
g2921
sg64
(lp2928
S'REQUEST_METHOD'
p2929
asbag57
(g78
g59
NtRp2930
(dp2931
g62
(dp2932
g89
g90
ssg71
g2921
sg64
(lp2933
S':'
asbag57
(g78
g59
NtRp2934
(dp2935
g62
(dp2936
sg71
g2921
sg64
(lp2937
g57
(g58
g59
NtRp2938
(dp2939
g62
(dp2940
g70
I3
ssg71
g2934
sg64
(lp2941
g1444
asbasbasbag57
(g73
g59
NtRp2942
(dp2943
g62
(dp2944
sg71
g2644
sg64
(lp2945
g57
(g78
g59
NtRp2946
(dp2947
g62
(dp2948
g82
g83
ssg71
g2942
sg64
(lp2949
S'REQUEST_URI'
p2950
asbag57
(g78
g59
NtRp2951
(dp2952
g62
(dp2953
g89
g90
ssg71
g2942
sg64
(lp2954
S':'
asbag57
(g78
g59
NtRp2955
(dp2956
g62
(dp2957
sg71
g2942
sg64
(lp2958
g57
(g58
g59
NtRp2959
(dp2960
g62
(dp2961
g70
I3
ssg71
g2955
sg64
(lp2962
g1358
asbasbasbag57
(g73
g59
NtRp2963
(dp2964
g62
(dp2965
sg71
g2644
sg64
(lp2966
g57
(g78
g59
NtRp2967
(dp2968
g62
(dp2969
g82
g83
ssg71
g2963
sg64
(lp2970
S'SCRIPT_NAME'
p2971
asbag57
(g78
g59
NtRp2972
(dp2973
g62
(dp2974
g89
g90
ssg71
g2963
sg64
(lp2975
S':'
asbag57
(g78
g59
NtRp2976
(dp2977
g62
(dp2978
sg71
g2963
sg64
(lp2979
g57
(g58
g59
NtRp2980
(dp2981
g62
(dp2982
g70
I3
ssg71
g2976
sg64
(lp2983
S''
asbasbasbag57
(g73
g59
NtRp2984
(dp2985
g62
(dp2986
sg71
g2644
sg64
(lp2987
g57
(g78
g59
NtRp2988
(dp2989
g62
(dp2990
g82
g83
ssg71
g2984
sg64
(lp2991
S'SERVER_NAME'
p2992
asbag57
(g78
g59
NtRp2993
(dp2994
g62
(dp2995
g89
g90
ssg71
g2984
sg64
(lp2996
S':'
asbag57
(g78
g59
NtRp2997
(dp2998
g62
(dp2999
sg71
g2984
sg64
(lp3000
g57
(g58
g59
NtRp3001
(dp3002
g62
(dp3003
g70
I3
ssg71
g2997
sg64
(lp3004
g1323
asbasbasbag57
(g73
g59
NtRp3005
(dp3006
g62
(dp3007
sg71
g2644
sg64
(lp3008
g57
(g78
g59
NtRp3009
(dp3010
g62
(dp3011
g82
g83
ssg71
g3005
sg64
(lp3012
S'SERVER_PORT'
p3013
asbag57
(g78
g59
NtRp3014
(dp3015
g62
(dp3016
g89
g90
ssg71
g3005
sg64
(lp3017
S':'
asbag57
(g78
g59
NtRp3018
(dp3019
g62
(dp3020
sg71
g3005
sg64
(lp3021
g57
(g58
g59
NtRp3022
(dp3023
g62
(dp3024
g70
I3
ssg71
g3018
sg64
(lp3025
g1529
asbasbasbag57
(g73
g59
NtRp3026
(dp3027
g62
(dp3028
sg71
g2644
sg64
(lp3029
g57
(g78
g59
NtRp3030
(dp3031
g62
(dp3032
g82
g83
ssg71
g3026
sg64
(lp3033
S'SERVER_PROTOCOL'
p3034
asbag57
(g78
g59
NtRp3035
(dp3036
g62
(dp3037
g89
g90
ssg71
g3026
sg64
(lp3038
S':'
asbag57
(g78
g59
NtRp3039
(dp3040
g62
(dp3041
sg71
g3026
sg64
(lp3042
g57
(g58
g59
NtRp3043
(dp3044
g62
(dp3045
g70
I3
ssg71
g3039
sg64
(lp3046
g1551
asbasbasbag57
(g73
g59
NtRp3047
(dp3048
g62
(dp3049
sg71
g2644
sg64
(lp3050
g57
(g78
g59
NtRp3051
(dp3052
g62
(dp3053
g82
g83
ssg71
g3047
sg64
(lp3054
S'SERVER_SOFTWARE'
p3055
asbag57
(g78
g59
NtRp3056
(dp3057
g62
(dp3058
g89
g90
ssg71
g3047
sg64
(lp3059
S':'
asbag57
(g78
g59
NtRp3060
(dp3061
g62
(dp3062
sg71
g3047
sg64
(lp3063
g57
(g58
g59
NtRp3064
(dp3065
g62
(dp3066
g70
I3
ssg71
g3060
sg64
(lp3067
g1573
asbasbasbag57
(g73
g59
NtRp3068
(dp3069
g62
(dp3070
sg71
g2644
sg64
(lp3071
g57
(g78
g59
NtRp3072
(dp3073
g62
(dp3074
g82
g83
ssg71
g3068
sg64
(lp3075
S'wsgi.errors'
p3076
asbag57
(g78
g59
NtRp3077
(dp3078
g62
(dp3079
g89
g90
ssg71
g3068
sg64
(lp3080
S':'
asbag57
(g78
g59
NtRp3081
(dp3082
g62
(dp3083
sg71
g3068
sg64
(lp3084
g57
(g58
g59
NtRp3085
(dp3086
g62
(dp3087
g70
I3
ssg71
g3081
sg64
(lp3088
S"<open file '<stderr>', mode 'w' at 0x2b1166cb5270>"
p3089
asbasbasbag57
(g73
g59
NtRp3090
(dp3091
g62
(dp3092
sg71
g2644
sg64
(lp3093
g57
(g78
g59
NtRp3094
(dp3095
g62
(dp3096
g82
g83
ssg71
g3090
sg64
(lp3097
S'wsgi.file_wrapper'
p3098
asbag57
(g78
g59
NtRp3099
(dp3100
g62
(dp3101
g89
g90
ssg71
g3090
sg64
(lp3102
S':'
asbag57
(g78
g59
NtRp3103
(dp3104
g62
(dp3105
sg71
g3090
sg64
(lp3106
g57
(g58
g59
NtRp3107
(dp3108
g62
(dp3109
g70
I3
ssg71
g3103
sg64
(lp3110
S'<class wsgiref.util.FileWrapper at 0x19dbfa78>'
p3111
asbasbasbag57
(g73
g59
NtRp3112
(dp3113
g62
(dp3114
sg71
g2644
sg64
(lp3115
g57
(g78
g59
NtRp3116
(dp3117
g62
(dp3118
g82
g83
ssg71
g3112
sg64
(lp3119
S'wsgi.input'
p3120
asbag57
(g78
g59
NtRp3121
(dp3122
g62
(dp3123
g89
g90
ssg71
g3112
sg64
(lp3124
S':'
asbag57
(g78
g59
NtRp3125
(dp3126
g62
(dp3127
sg71
g3112
sg64
(lp3128
g57
(g58
g59
NtRp3129
(dp3130
g62
(dp3131
g70
I3
ssg71
g3125
sg64
(lp3132
S'<cStringIO.StringO object at 0x1a9a56f8>'
p3133
asbasbasbag57
(g73
g59
NtRp3134
(dp3135
g62
(dp3136
sg71
g2644
sg64
(lp3137
g57
(g78
g59
NtRp3138
(dp3139
g62
(dp3140
g82
g83
ssg71
g3134
sg64
(lp3141
S'wsgi.multiprocess'
p3142
asbag57
(g78
g59
NtRp3143
(dp3144
g62
(dp3145
g89
g90
ssg71
g3134
sg64
(lp3146
S':'
asbag57
(g78
g59
NtRp3147
(dp3148
g62
(dp3149
sg71
g3134
sg64
(lp3150
g57
(g58
g59
NtRp3151
(dp3152
g62
(dp3153
g70
I3
ssg71
g3147
sg64
(lp3154
g100
asbasbasbag57
(g73
g59
NtRp3155
(dp3156
g62
(dp3157
sg71
g2644
sg64
(lp3158
g57
(g78
g59
NtRp3159
(dp3160
g62
(dp3161
g82
g83
ssg71
g3155
sg64
(lp3162
S'wsgi.multithread'
p3163
asbag57
(g78
g59
NtRp3164
(dp3165
g62
(dp3166
g89
g90
ssg71
g3155
sg64
(lp3167
S':'
asbag57
(g78
g59
NtRp3168
(dp3169
g62
(dp3170
sg71
g3155
sg64
(lp3171
g57
(g58
g59
NtRp3172
(dp3173
g62
(dp3174
g70
I3
ssg71
g3168
sg64
(lp3175
g1790
asbasbasbag57
(g73
g59
NtRp3176
(dp3177
g62
(dp3178
sg71
g2644
sg64
(lp3179
g57
(g78
g59
NtRp3180
(dp3181
g62
(dp3182
g82
g83
ssg71
g3176
sg64
(lp3183
S'wsgi.run_once'
p3184
asbag57
(g78
g59
NtRp3185
(dp3186
g62
(dp3187
g89
g90
ssg71
g3176
sg64
(lp3188
S':'
asbag57
(g78
g59
NtRp3189
(dp3190
g62
(dp3191
sg71
g3176
sg64
(lp3192
g57
(g58
g59
NtRp3193
(dp3194
g62
(dp3195
g70
I3
ssg71
g3189
sg64
(lp3196
g100
asbasbasbag57
(g73
g59
NtRp3197
(dp3198
g62
(dp3199
sg71
g2644
sg64
(lp3200
g57
(g78
g59
NtRp3201
(dp3202
g62
(dp3203
g82
g83
ssg71
g3197
sg64
(lp3204
S'wsgi.url_scheme'
p3205
asbag57
(g78
g59
NtRp3206
(dp3207
g62
(dp3208
g89
g90
ssg71
g3197
sg64
(lp3209
S':'
asbag57
(g78
g59
NtRp3210
(dp3211
g62
(dp3212
sg71
g3197
sg64
(lp3213
g57
(g58
g59
NtRp3214
(dp3215
g62
(dp3216
g70
I3
ssg71
g3210
sg64
(lp3217
g1833
asbasbasbag57
(g73
g59
NtRp3218
(dp3219
g62
(dp3220
sg71
g2644
sg64
(lp3221
g57
(g78
g59
NtRp3222
(dp3223
g62
(dp3224
g82
g83
ssg71
g3218
sg64
(lp3225
S'wsgi.version'
p3226
asbag57
(g78
g59
NtRp3227
(dp3228
g62
(dp3229
g89
g90
ssg71
g3218
sg64
(lp3230
S':'
asbag57
(g78
g59
NtRp3231
(dp3232
g62
(dp3233
sg71
g3218
sg64
(lp3234
g57
(g58
g59
NtRp3235
(dp3236
g62
(dp3237
g70
I3
ssg71
g3231
sg64
(lp3238
S'1'
asbasbasbasbasbasbasbasbasbasbasbasbasbsS'frames'
p3239
(lp3240
(dp3241
S'file'
p3242
S'/home/xchen/web2py/gluon/restricted.py'
p3243
sS'dump'
p3244
(dp3245
S'environment'
p3246
S"{'A': <class 'gluon.html.A'>, 'Auth': <class 'gluon.tools.Auth'>, 'B': <class 'gluon.html.B'>, 'BEAUTIFY': <class 'gluon.html.BEAUTIFY'>, 'BODY': <class 'gluon.html.BODY'>, 'BR': <class 'gluon.html.BR'>, 'BUTTON': <class 'gluon.html.BUTTON'>, 'CAT': <class 'gluon.html.CAT'>, 'CENTER': <class 'gluon.html.CENTER'>, 'CLEANUP': <class 'gluon.validators.CLEANUP'>, ...}"
p3247
sS'ccode'
p3248
S'<code object <module> at 0x1aaa21b0, file "/home...lications/Betsy/controllers/default.py", line 12>'
p3249
ssS'lnum'
p3250
I212
sS'lines'
p3251
(dp3252
I207
S'    try:'
p3253
sI208
S'        if isinstance(code, types.CodeType):'
p3254
sI209
S'            ccode = code'
p3255
sI210
S'        else:'
p3256
sI211
S'            ccode = compile2(code, layer)'
p3257
sI212
S'        exec ccode in environment'
p3258
sI213
S'    except HTTP:'
p3259
sI214
S'        raise'
p3260
sI215
S'    except RestrictedError:'
p3261
sI216
S'        # do not encapsulate (obfuscate) the original RestrictedError'
p3262
ssS'call'
p3263
S"(code='# -*- coding: utf-8 -*-\\n# this file is released ...))\\n\\nresponse._vars=response._caller(show_status)\\n', environment={'A': <class 'gluon.html.A'>, 'Auth': <class 'gluon.tools.Auth'>, 'B': <class 'gluon.html.B'>, 'BEAUTIFY': <class 'gluon.html.BEAUTIFY'>, 'BODY': <class 'gluon.html.BODY'>, 'BR': <class 'gluon.html.BR'>, 'BUTTON': <class 'gluon.html.BUTTON'>, 'CAT': <class 'gluon.html.CAT'>, 'CENTER': <class 'gluon.html.CENTER'>, 'CLEANUP': <class 'gluon.validators.CLEANUP'>, ...}, layer='/home/xchen/web2py/applications/Betsy/controllers/default.py')"
p3264
sS'func'
p3265
S'restricted'
p3266
sa(dp3267
g3242
S'/home/xchen/web2py/applications/Betsy/controllers/default.py'
p3268
sg3244
(dp3269
sg3250
I155
sg3251
(dp3270
I144
S'    http://..../[app]/default/data/update/[table]/[id]'
p3271
sI145
S'    http://..../[app]/default/data/delete/[table]/[id]'
p3272
sI146
S'    http://..../[app]/default/data/select/[table]'
p3273
sI147
S'    http://..../[app]/default/data/search/[table]'
p3274
sI148
S'    but URLs must be signed, i.e. linked with'
p3275
sI149
S"      A('table',_href=URL('data/tables',user_signature=True))"
p3276
sI150
S'    or with the signed load operator'
p3277
sI151
S"      LOAD('default','data.load',args='tables',ajax=True,user_signature=True)"
p3278
sI152
S'    """'
p3279
sI153
S'    return dict(form=crud())'
p3280
ssg3263
S'()'
p3281
sg3265
S'<module>'
p3282
sa(dp3283
g3242
S'/home/xchen/web2py/gluon/globals.py'
p3284
sg3244
(dp3285
S'self'
p3286
S'undefined'
p3287
sS'f'
S'<function show_status>'
p3288
ssg3250
I188
sg3251
(dp3289
I192
S''
sI183
S'        self.menu = []             # used by the default view layout'
p3290
sI184
S'        self.files = []            # used by web2py_ajax.html'
p3291
sI185
S'        self.generic_patterns = []  # patterns to allow generic views'
p3292
sI186
S"        self.delimiters = ('{{', '}}')"
p3293
sI187
S'        self._vars = None'
p3294
sI188
S'        self._caller = lambda f: f()'
p3295
sI189
S'        self._view_environment = None'
p3296
sI190
S'        self._custom_commit = None'
p3297
sI191
S'        self._custom_rollback = None'
p3298
ssg3263
S'(f=<function show_status>)'
p3299
sg3265
S'<lambda>'
p3300
sa(dp3301
g3242
S'/home/xchen/web2py/applications/Betsy/controllers/default.py'
p3302
sg3244
(dp3303
S'global db'
p3304
S'<DAL uri="sqlite://storage.sqlite">'
p3305
sS'db.status'
p3306
S'<Table status (id,Jobnumber,Jobname,Status,Started,Ended,Submitted,Command,Link)>'
p3307
sS'Jobnumber'
p3308
g3287
ssg3250
I53
sg3251
(dp3309
I48
S'                               stdout=subprocess.PIPE,'
p3310
sI49
S'                               stderr=subprocess.STDOUT)'
p3311
sI50
S'    process.wait()'
p3312
sI51
S"    log_information = process.stdout.read().split('\\n')"
p3313
sI52
S'    log_information = [i for i in log_information if i]'
p3314
sI53
S'    print db.status[Jobnumber]'
p3315
sI54
S'    for log_line in log_information:'
p3316
sI55
S"        lines = log_line.split('\\t')"
p3317
sI56
S''
sI57
S'        db.status.insert(Jobnumber=lines[0],Jobname=lines[1], Status=lines[2], Started=lines[3],'
p3318
ssg3263
S'()'
p3319
sg3265
S'show_status'
p3320
sasS'pyver'
p3321
S'Python 2.7.3: /usr/local/bin/python'
p3322
sS'session'
p3323
g57
(g58
g59
NtRp3324
(dp3325
g62
(dp3326
sg64
(lp3327
g57
(g66
g59
NtRp3328
(dp3329
g62
(dp3330
g70
I5
ssg71
Nsg64
(lp3331
g57
(g73
g59
NtRp3332
(dp3333
g62
(dp3334
sg71
g3328
sg64
(lp3335
g57
(g78
g59
NtRp3336
(dp3337
g62
(dp3338
g82
g83
ssg71
g3332
sg64
(lp3339
S'auth'
p3340
asbag57
(g78
g59
NtRp3341
(dp3342
g62
(dp3343
g89
g90
ssg71
g3332
sg64
(lp3344
S':'
asbag57
(g78
g59
NtRp3345
(dp3346
g62
(dp3347
sg71
g3332
sg64
(lp3348
g57
(g58
g59
NtRp3349
(dp3350
g62
(dp3351
g70
I5
ssg71
g3345
sg64
(lp3352
g57
(g66
g59
NtRp3353
(dp3354
g62
(dp3355
g70
I4
ssg71
Nsg64
(lp3356
g57
(g73
g59
NtRp3357
(dp3358
g62
(dp3359
sg71
g3353
sg64
(lp3360
g57
(g78
g59
NtRp3361
(dp3362
g62
(dp3363
g82
g83
ssg71
g3357
sg64
(lp3364
S'expiration'
p3365
asbag57
(g78
g59
NtRp3366
(dp3367
g62
(dp3368
g89
g90
ssg71
g3357
sg64
(lp3369
S':'
asbag57
(g78
g59
NtRp3370
(dp3371
g62
(dp3372
sg71
g3357
sg64
(lp3373
g57
(g58
g59
NtRp3374
(dp3375
g62
(dp3376
g70
I4
ssg71
g3370
sg64
(lp3377
S'2592000'
p3378
asbasbasbag57
(g73
g59
NtRp3379
(dp3380
g62
(dp3381
sg71
g3353
sg64
(lp3382
g57
(g78
g59
NtRp3383
(dp3384
g62
(dp3385
g82
g83
ssg71
g3379
sg64
(lp3386
S'hmac_key'
p3387
asbag57
(g78
g59
NtRp3388
(dp3389
g62
(dp3390
g89
g90
ssg71
g3379
sg64
(lp3391
S':'
asbag57
(g78
g59
NtRp3392
(dp3393
g62
(dp3394
sg71
g3379
sg64
(lp3395
g57
(g58
g59
NtRp3396
(dp3397
g62
(dp3398
g70
I4
ssg71
g3392
sg64
(lp3399
S'739afc94-a36b-429c-8715-edcd03ea4351'
p3400
asbasbasbag57
(g73
g59
NtRp3401
(dp3402
g62
(dp3403
sg71
g3353
sg64
(lp3404
g57
(g78
g59
NtRp3405
(dp3406
g62
(dp3407
g82
g83
ssg71
g3401
sg64
(lp3408
S'last_visit'
p3409
asbag57
(g78
g59
NtRp3410
(dp3411
g62
(dp3412
g89
g90
ssg71
g3401
sg64
(lp3413
S':'
asbag57
(g78
g59
NtRp3414
(dp3415
g62
(dp3416
sg71
g3401
sg64
(lp3417
g57
(g58
g59
NtRp3418
(dp3419
g62
(dp3420
g70
I4
ssg71
g3414
sg64
(lp3421
S'datetime.datetime(2013, 2, 4, 10, 24, 37, 237452)'
p3422
asbasbasbag57
(g73
g59
NtRp3423
(dp3424
g62
(dp3425
sg71
g3353
sg64
(lp3426
g57
(g78
g59
NtRp3427
(dp3428
g62
(dp3429
g82
g83
ssg71
g3423
sg64
(lp3430
S'remember'
p3431
asbag57
(g78
g59
NtRp3432
(dp3433
g62
(dp3434
g89
g90
ssg71
g3423
sg64
(lp3435
S':'
asbag57
(g78
g59
NtRp3436
(dp3437
g62
(dp3438
sg71
g3423
sg64
(lp3439
g57
(g58
g59
NtRp3440
(dp3441
g62
(dp3442
g70
I4
ssg71
g3436
sg64
(lp3443
g1790
asbasbasbag57
(g73
g59
NtRp3444
(dp3445
g62
(dp3446
sg71
g3353
sg64
(lp3447
g57
(g78
g59
NtRp3448
(dp3449
g62
(dp3450
g82
g83
ssg71
g3444
sg64
(lp3451
S'user'
p3452
asbag57
(g78
g59
NtRp3453
(dp3454
g62
(dp3455
g89
g90
ssg71
g3444
sg64
(lp3456
S':'
asbag57
(g78
g59
NtRp3457
(dp3458
g62
(dp3459
sg71
g3444
sg64
(lp3460
g57
(g58
g59
NtRp3461
(dp3462
g62
(dp3463
g70
I4
ssg71
g3457
sg64
(lp3464
g57
(g66
g59
NtRp3465
(dp3466
g62
(dp3467
g70
I3
ssg71
Nsg64
(lp3468
g57
(g73
g59
NtRp3469
(dp3470
g62
(dp3471
sg71
g3465
sg64
(lp3472
g57
(g78
g59
NtRp3473
(dp3474
g62
(dp3475
g82
g83
ssg71
g3469
sg64
(lp3476
S'email'
p3477
asbag57
(g78
g59
NtRp3478
(dp3479
g62
(dp3480
g89
g90
ssg71
g3469
sg64
(lp3481
S':'
asbag57
(g78
g59
NtRp3482
(dp3483
g62
(dp3484
sg71
g3469
sg64
(lp3485
g57
(g58
g59
NtRp3486
(dp3487
g62
(dp3488
g70
I3
ssg71
g3482
sg64
(lp3489
S'xiaoling.chen@uth.tmc.edu'
p3490
asbasbasbag57
(g73
g59
NtRp3491
(dp3492
g62
(dp3493
sg71
g3465
sg64
(lp3494
g57
(g78
g59
NtRp3495
(dp3496
g62
(dp3497
g82
g83
ssg71
g3491
sg64
(lp3498
S'first_name'
p3499
asbag57
(g78
g59
NtRp3500
(dp3501
g62
(dp3502
g89
g90
ssg71
g3491
sg64
(lp3503
S':'
asbag57
(g78
g59
NtRp3504
(dp3505
g62
(dp3506
sg71
g3491
sg64
(lp3507
g57
(g58
g59
NtRp3508
(dp3509
g62
(dp3510
g70
I3
ssg71
g3504
sg64
(lp3511
S'Xiaoling'
p3512
asbasbasbag57
(g73
g59
NtRp3513
(dp3514
g62
(dp3515
sg71
g3465
sg64
(lp3516
g57
(g78
g59
NtRp3517
(dp3518
g62
(dp3519
g82
g83
ssg71
g3513
sg64
(lp3520
S'id'
p3521
asbag57
(g78
g59
NtRp3522
(dp3523
g62
(dp3524
g89
g90
ssg71
g3513
sg64
(lp3525
S':'
asbag57
(g78
g59
NtRp3526
(dp3527
g62
(dp3528
sg71
g3513
sg64
(lp3529
g57
(g58
g59
NtRp3530
(dp3531
g62
(dp3532
g70
I3
ssg71
g3526
sg64
(lp3533
S'1'
asbasbasbag57
(g73
g59
NtRp3534
(dp3535
g62
(dp3536
sg71
g3465
sg64
(lp3537
g57
(g78
g59
NtRp3538
(dp3539
g62
(dp3540
g82
g83
ssg71
g3534
sg64
(lp3541
S'last_name'
p3542
asbag57
(g78
g59
NtRp3543
(dp3544
g62
(dp3545
g89
g90
ssg71
g3534
sg64
(lp3546
S':'
asbag57
(g78
g59
NtRp3547
(dp3548
g62
(dp3549
sg71
g3534
sg64
(lp3550
g57
(g58
g59
NtRp3551
(dp3552
g62
(dp3553
g70
I3
ssg71
g3547
sg64
(lp3554
S'Chen'
p3555
asbasbasbag57
(g73
g59
NtRp3556
(dp3557
g62
(dp3558
sg71
g3465
sg64
(lp3559
g57
(g78
g59
NtRp3560
(dp3561
g62
(dp3562
g82
g83
ssg71
g3556
sg64
(lp3563
S'registration_id'
p3564
asbag57
(g78
g59
NtRp3565
(dp3566
g62
(dp3567
g89
g90
ssg71
g3556
sg64
(lp3568
S':'
asbag57
(g78
g59
NtRp3569
(dp3570
g62
(dp3571
sg71
g3556
sg64
(lp3572
g57
(g58
g59
NtRp3573
(dp3574
g62
(dp3575
g70
I3
ssg71
g3569
sg64
(lp3576
S''
asbasbasbag57
(g73
g59
NtRp3577
(dp3578
g62
(dp3579
sg71
g3465
sg64
(lp3580
g57
(g78
g59
NtRp3581
(dp3582
g62
(dp3583
g82
g83
ssg71
g3577
sg64
(lp3584
S'registration_key'
p3585
asbag57
(g78
g59
NtRp3586
(dp3587
g62
(dp3588
g89
g90
ssg71
g3577
sg64
(lp3589
S':'
asbag57
(g78
g59
NtRp3590
(dp3591
g62
(dp3592
sg71
g3577
sg64
(lp3593
g57
(g58
g59
NtRp3594
(dp3595
g62
(dp3596
g70
I3
ssg71
g3590
sg64
(lp3597
S''
asbasbasbag57
(g73
g59
NtRp3598
(dp3599
g62
(dp3600
sg71
g3465
sg64
(lp3601
g57
(g78
g59
NtRp3602
(dp3603
g62
(dp3604
g82
g83
ssg71
g3598
sg64
(lp3605
S'reset_password_key'
p3606
asbag57
(g78
g59
NtRp3607
(dp3608
g62
(dp3609
g89
g90
ssg71
g3598
sg64
(lp3610
S':'
asbag57
(g78
g59
NtRp3611
(dp3612
g62
(dp3613
sg71
g3598
sg64
(lp3614
g57
(g58
g59
NtRp3615
(dp3616
g62
(dp3617
g70
I3
ssg71
g3611
sg64
(lp3618
S''
asbasbasbasbasbasbasbag57
(g73
g59
NtRp3619
(dp3620
g62
(dp3621
sg71
g3353
sg64
(lp3622
g57
(g78
g59
NtRp3623
(dp3624
g62
(dp3625
g82
g83
ssg71
g3619
sg64
(lp3626
S'user_groups'
p3627
asbag57
(g78
g59
NtRp3628
(dp3629
g62
(dp3630
g89
g90
ssg71
g3619
sg64
(lp3631
S':'
asbag57
(g78
g59
NtRp3632
(dp3633
g62
(dp3634
sg71
g3619
sg64
(lp3635
g57
(g58
g59
NtRp3636
(dp3637
g62
(dp3638
g70
I4
ssg71
g3632
sg64
(lp3639
g57
(g66
g59
NtRp3640
(dp3641
g62
(dp3642
g70
I3
ssg71
Nsg64
(lp3643
g57
(g73
g59
NtRp3644
(dp3645
g62
(dp3646
sg71
g3640
sg64
(lp3647
g57
(g78
g59
NtRp3648
(dp3649
g62
(dp3650
g82
g83
ssg71
g3644
sg64
(lp3651
S'1'
asbag57
(g78
g59
NtRp3652
(dp3653
g62
(dp3654
g89
g90
ssg71
g3644
sg64
(lp3655
S':'
asbag57
(g78
g59
NtRp3656
(dp3657
g62
(dp3658
sg71
g3644
sg64
(lp3659
g57
(g58
g59
NtRp3660
(dp3661
g62
(dp3662
g70
I3
ssg71
g3656
sg64
(lp3663
S'user_1'
p3664
asbasbasbasbasbasbasbasbasbasbasbag57
(g73
g59
NtRp3665
(dp3666
g62
(dp3667
sg71
g3328
sg64
(lp3668
g57
(g78
g59
NtRp3669
(dp3670
g62
(dp3671
g82
g83
ssg71
g3665
sg64
(lp3672
S'flash'
p3673
asbag57
(g78
g59
NtRp3674
(dp3675
g62
(dp3676
g89
g90
ssg71
g3665
sg64
(lp3677
S':'
asbag57
(g78
g59
NtRp3678
(dp3679
g62
(dp3680
sg71
g3665
sg64
(lp3681
g57
(g58
g59
NtRp3682
(dp3683
g62
(dp3684
g70
I5
ssg71
g3678
sg64
(lp3685
S'None'
p3686
asbasbasbag57
(g73
g59
NtRp3687
(dp3688
g62
(dp3689
sg71
g3328
sg64
(lp3690
g57
(g78
g59
NtRp3691
(dp3692
g62
(dp3693
g82
g83
ssg71
g3687
sg64
(lp3694
S'last_orderby'
p3695
asbag57
(g78
g59
NtRp3696
(dp3697
g62
(dp3698
g89
g90
ssg71
g3687
sg64
(lp3699
S':'
asbag57
(g78
g59
NtRp3700
(dp3701
g62
(dp3702
sg71
g3687
sg64
(lp3703
g57
(g58
g59
NtRp3704
(dp3705
g62
(dp3706
g70
I5
ssg71
g3700
sg64
(lp3707
S'None'
p3708
asbasbasbag57
(g73
g59
NtRp3709
(dp3710
g62
(dp3711
sg71
g3328
sg64
(lp3712
g57
(g78
g59
NtRp3713
(dp3714
g62
(dp3715
g82
g83
ssg71
g3709
sg64
(lp3716
S'last_query'
p3717
asbag57
(g78
g59
NtRp3718
(dp3719
g62
(dp3720
g89
g90
ssg71
g3709
sg64
(lp3721
S':'
asbag57
(g78
g59
NtRp3722
(dp3723
g62
(dp3724
sg71
g3709
sg64
(lp3725
g57
(g58
g59
NtRp3726
(dp3727
g62
(dp3728
g70
I5
ssg71
g3722
sg64
(lp3729
S'db.status.id>0'
p3730
asbasbasbag57
(g73
g59
NtRp3731
(dp3732
g62
(dp3733
sg71
g3328
sg64
(lp3734
g57
(g78
g59
NtRp3735
(dp3736
g62
(dp3737
g82
g83
ssg71
g3731
sg64
(lp3738
S'output'
p3739
asbag57
(g78
g59
NtRp3740
(dp3741
g62
(dp3742
g89
g90
ssg71
g3731
sg64
(lp3743
S':'
asbag57
(g78
g59
NtRp3744
(dp3745
g62
(dp3746
sg71
g3731
sg64
(lp3747
g57
(g58
g59
NtRp3748
(dp3749
g62
(dp3750
g70
I5
ssg71
g3744
sg64
(lp3751
g57
(g66
g59
NtRp3752
(dp3753
g62
(dp3754
g70
I4
ssg71
Nsg64
(lp3755
g57
(g73
g59
NtRp3756
(dp3757
g62
(dp3758
sg71
g3752
sg64
(lp3759
g57
(g78
g59
NtRp3760
(dp3761
g62
(dp3762
sg71
g3756
sg64
(lp3763
g57
(g58
g59
NtRp3764
(dp3765
g62
(dp3766
g70
I4
ssg71
g3760
sg64
(lp3767
S'Jobnumber\tJobname\tStatus\tStarted\tEnded\tSubmitted\tCommand'
p3768
asbasbasbag57
(g73
g59
NtRp3769
(dp3770
g62
(dp3771
sg71
g3752
sg64
(lp3772
g57
(g78
g59
NtRp3773
(dp3774
g62
(dp3775
sg71
g3769
sg64
(lp3776
g57
(g58
g59
NtRp3777
(dp3778
g62
(dp3779
g70
I4
ssg71
g3773
sg64
(lp3780
S'241\tF8QMFC\tkilled\tNA\t01/30/13:10:54:58\t01/30/13:10:54:41\tpython run_command.py'
p3781
asbasbasbag57
(g73
g59
NtRp3782
(dp3783
g62
(dp3784
sg71
g3752
sg64
(lp3785
g57
(g78
g59
NtRp3786
(dp3787
g62
(dp3788
sg71
g3782
sg64
(lp3789
g57
(g58
g59
NtRp3790
(dp3791
g62
(dp3792
g70
I4
ssg71
g3786
sg64
(lp3793
S'242\t1\tkilled\tNA\t01/30/13:10:56:50\t01/30/13:10:55:43\tpython run_command.py'
p3794
asbasbasbag57
(g73
g59
NtRp3795
(dp3796
g62
(dp3797
sg71
g3752
sg64
(lp3798
g57
(g78
g59
NtRp3799
(dp3800
g62
(dp3801
sg71
g3795
sg64
(lp3802
g57
(g58
g59
NtRp3803
(dp3804
g62
(dp3805
g70
I4
ssg71
g3799
sg64
(lp3806
S'243\t1JCM7W\tcompleted\tNA\t01/31/13:11:02:08\t01/30/13:16:23:56\tpython /home/xchen/chencode/Betsy/scripts/run_protocol.py --protocol normalize_file --input input_signal_file:/home/xchen/chencode/upload/no_table.myfile1.bc230362ce4171ba.616c6c5f616d6c5f747261696e5f66696c742e676374.gct --parameters has_missing_value:zero_fill --parameters preprocess:unknown_preprocess'
p3807
asbasbasbag57
(g73
g59
NtRp3808
(dp3809
g62
(dp3810
sg71
g3752
sg64
(lp3811
g57
(g78
g59
NtRp3812
(dp3813
g62
(dp3814
sg71
g3808
sg64
(lp3815
g57
(g58
g59
NtRp3816
(dp3817
g62
(dp3818
g70
I4
ssg71
g3812
sg64
(lp3819
S'244\tMD5OVN\tcompleted\tNA\t01/31/13:11:02:08\t01/30/13:16:26:25\tpython /home/xchen/chencode/Betsy/scripts/run_protocol.py --protocol normalize_file --input input_signal_file:/home/xchen/chencode/upload/no_table.myfile1.ac92b1b80e18666e.7369676e616c5f756e6c6f67747261696e2e70636c.pcl --parameters has_missing_value:zero_fill --parameters preprocess:unknown_preprocess'
p3820
asbasbasbag57
(g73
g59
NtRp3821
(dp3822
g62
(dp3823
sg71
g3752
sg64
(lp3824
g57
(g78
g59
NtRp3825
(dp3826
g62
(dp3827
sg71
g3821
sg64
(lp3828
g57
(g58
g59
NtRp3829
(dp3830
g62
(dp3831
g70
I4
ssg71
g3825
sg64
(lp3832
S'245\t2XXAAY\tcompleted\t01/31/13:11:02:08\t01/31/13:11:36:29\t01/31/13:11:02:08\tpython /home/xchen/chencode/Betsy/scripts/python run_command.py /home/xchen/chencode/upload/no_table.myfile1.9c934921a246486e.6a6f627175657565.txt'
p3833
asbasbasbag57
(g73
g59
NtRp3834
(dp3835
g62
(dp3836
sg71
g3752
sg64
(lp3837
g57
(g78
g59
NtRp3838
(dp3839
g62
(dp3840
sg71
g3834
sg64
(lp3841
g57
(g58
g59
NtRp3842
(dp3843
g62
(dp3844
g70
I4
ssg71
g3838
sg64
(lp3845
S'254\tKQFWA9\tcompleted\tNA\t02/04/13:15:52:33\t01/31/13:12:50:49\tpython /home/xchen/chencode/Betsy/scripts/python run_command.py /home/xchen/chencode/upload/no_table.myfile1.9c934921a246486e.6a6f627175657565.txt'
p3846
asbasbasbag57
(g73
g59
NtRp3847
(dp3848
g62
(dp3849
sg71
g3752
sg64
(lp3850
g57
(g78
g59
NtRp3851
(dp3852
g62
(dp3853
sg71
g3847
sg64
(lp3854
g57
(g58
g59
NtRp3855
(dp3856
g62
(dp3857
g70
I4
ssg71
g3851
sg64
(lp3858
S'255\t5O5TN9\tcompleted\tNA\t02/04/13:15:52:33\t01/31/13:13:38:12\tpython /home/xchen/chencode/Betsy/scripts/python run_command.py /home/xchen/chencode/upload/no_table.myfile1.9c934921a246486e.6a6f627175657565.txt'
p3859
asbasbasbag57
(g73
g59
NtRp3860
(dp3861
g62
(dp3862
sg71
g3752
sg64
(lp3863
g57
(g78
g59
NtRp3864
(dp3865
g62
(dp3866
sg71
g3860
sg64
(lp3867
g57
(g58
g59
NtRp3868
(dp3869
g62
(dp3870
g70
I4
ssg71
g3864
sg64
(lp3871
S'256\t66OKZZ\tcompleted\tNA\t02/04/13:15:52:33\t01/31/13:15:20:40\tpython /home/xchen/chencode/Betsy/scripts/run_rule.py --plin input_signal_file([contents,[a],status,given],[]) --plout signal_raw([contents,[a],format,tdf,is_logged,unknown_logged,preprocess,unknown_preprocess,predataset,no_predataset],A)'
p3872
asbasbasbag57
(g73
g59
NtRp3873
(dp3874
g62
(dp3875
sg71
g3752
sg64
(lp3876
g57
(g78
g59
NtRp3877
(dp3878
g62
(dp3879
sg71
g3873
sg64
(lp3880
g57
(g58
g59
NtRp3881
(dp3882
g62
(dp3883
g70
I4
ssg71
g3877
sg64
(lp3884
S''
asbasbasbasbasbasbasbasbasbsS'etype'
p3885
S"<type 'exceptions.NameError'>"
p3886
sS'date'
p3887
S'Tue Feb  5 10:49:44 2013'
p3888
sS'response'
p3889
g57
(g58
g59
NtRp3890
(dp3891
g62
(dp3892
sg64
(lp3893
g57
(g66
g59
NtRp3894
(dp3895
g62
(dp3896
g70
I5
ssg71
Nsg64
(lp3897
g57
(g73
g59
NtRp3898
(dp3899
g62
(dp3900
sg71
g3894
sg64
(lp3901
g57
(g78
g59
NtRp3902
(dp3903
g62
(dp3904
g82
g83
ssg71
g3898
sg64
(lp3905
g155
asbag57
(g78
g59
NtRp3906
(dp3907
g62
(dp3908
g89
g90
ssg71
g3898
sg64
(lp3909
S':'
asbag57
(g78
g59
NtRp3910
(dp3911
g62
(dp3912
sg71
g3898
sg64
(lp3913
g57
(g58
g59
NtRp3914
(dp3915
g62
(dp3916
g70
I5
ssg71
g3910
sg64
(lp3917
S'<cStringIO.StringO object at 0x1dac0df8>'
p3918
asbasbasbag57
(g73
g59
NtRp3919
(dp3920
g62
(dp3921
sg71
g3894
sg64
(lp3922
g57
(g78
g59
NtRp3923
(dp3924
g62
(dp3925
g82
g83
ssg71
g3919
sg64
(lp3926
g243
asbag57
(g78
g59
NtRp3927
(dp3928
g62
(dp3929
g89
g90
ssg71
g3919
sg64
(lp3930
S':'
asbag57
(g78
g59
NtRp3931
(dp3932
g62
(dp3933
sg71
g3919
sg64
(lp3934
g57
(g58
g59
NtRp3935
(dp3936
g62
(dp3937
g70
I5
ssg71
g3931
sg64
(lp3938
g57
(g66
g59
NtRp3939
(dp3940
g62
(dp3941
g70
I4
ssg71
Nsg64
(lp3942
g57
(g73
g59
NtRp3943
(dp3944
g62
(dp3945
sg71
g3939
sg64
(lp3946
g57
(g78
g59
NtRp3947
(dp3948
g62
(dp3949
g82
g83
ssg71
g3943
sg64
(lp3950
S'session_id_betsy'
p3951
asbag57
(g78
g59
NtRp3952
(dp3953
g62
(dp3954
g89
g90
ssg71
g3943
sg64
(lp3955
S':'
asbag57
(g78
g59
NtRp3956
(dp3957
g62
(dp3958
sg71
g3943
sg64
(lp3959
g57
(g58
g59
NtRp3960
(dp3961
g62
(dp3962
g70
I4
ssg71
g3956
sg64
(lp3963
g475
ag57
(g66
g59
NtRp3964
(dp3965
g62
(dp3966
g70
I3
ssg71
Nsg64
(lp3967
g57
(g73
g59
NtRp3968
(dp3969
g62
(dp3970
sg71
g3964
sg64
(lp3971
g57
(g78
g59
NtRp3972
(dp3973
g62
(dp3974
g82
g83
ssg71
g3968
sg64
(lp3975
g294
asbag57
(g78
g59
NtRp3976
(dp3977
g62
(dp3978
g89
g90
ssg71
g3968
sg64
(lp3979
S':'
asbag57
(g78
g59
NtRp3980
(dp3981
g62
(dp3982
sg71
g3968
sg64
(lp3983
g57
(g58
g59
NtRp3984
(dp3985
g62
(dp3986
g70
I3
ssg71
g3980
sg64
(lp3987
S''
asbasbasbag57
(g73
g59
NtRp3988
(dp3989
g62
(dp3990
sg71
g3964
sg64
(lp3991
g57
(g78
g59
NtRp3992
(dp3993
g62
(dp3994
g82
g83
ssg71
g3988
sg64
(lp3995
g315
asbag57
(g78
g59
NtRp3996
(dp3997
g62
(dp3998
g89
g90
ssg71
g3988
sg64
(lp3999
S':'
asbag57
(g78
g59
NtRp4000
(dp4001
g62
(dp4002
sg71
g3988
sg64
(lp4003
g57
(g58
g59
NtRp4004
(dp4005
g62
(dp4006
g70
I3
ssg71
g4000
sg64
(lp4007
S''
asbasbasbag57
(g73
g59
NtRp4008
(dp4009
g62
(dp4010
sg71
g3964
sg64
(lp4011
g57
(g78
g59
NtRp4012
(dp4013
g62
(dp4014
g82
g83
ssg71
g4008
sg64
(lp4015
g336
asbag57
(g78
g59
NtRp4016
(dp4017
g62
(dp4018
g89
g90
ssg71
g4008
sg64
(lp4019
S':'
asbag57
(g78
g59
NtRp4020
(dp4021
g62
(dp4022
sg71
g4008
sg64
(lp4023
g57
(g58
g59
NtRp4024
(dp4025
g62
(dp4026
g70
I3
ssg71
g4020
sg64
(lp4027
S'2592000'
p4028
asbasbasbag57
(g73
g59
NtRp4029
(dp4030
g62
(dp4031
sg71
g3964
sg64
(lp4032
g57
(g78
g59
NtRp4033
(dp4034
g62
(dp4035
g82
g83
ssg71
g4029
sg64
(lp4036
g357
asbag57
(g78
g59
NtRp4037
(dp4038
g62
(dp4039
g89
g90
ssg71
g4029
sg64
(lp4040
S':'
asbag57
(g78
g59
NtRp4041
(dp4042
g62
(dp4043
sg71
g4029
sg64
(lp4044
g57
(g58
g59
NtRp4045
(dp4046
g62
(dp4047
g70
I3
ssg71
g4041
sg64
(lp4048
S''
asbasbasbag57
(g73
g59
NtRp4049
(dp4050
g62
(dp4051
sg71
g3964
sg64
(lp4052
g57
(g78
g59
NtRp4053
(dp4054
g62
(dp4055
g82
g83
ssg71
g4049
sg64
(lp4056
g378
asbag57
(g78
g59
NtRp4057
(dp4058
g62
(dp4059
g89
g90
ssg71
g4049
sg64
(lp4060
S':'
asbag57
(g78
g59
NtRp4061
(dp4062
g62
(dp4063
sg71
g4049
sg64
(lp4064
g57
(g58
g59
NtRp4065
(dp4066
g62
(dp4067
g70
I3
ssg71
g4061
sg64
(lp4068
S''
asbasbasbag57
(g73
g59
NtRp4069
(dp4070
g62
(dp4071
sg71
g3964
sg64
(lp4072
g57
(g78
g59
NtRp4073
(dp4074
g62
(dp4075
g82
g83
ssg71
g4069
sg64
(lp4076
g399
asbag57
(g78
g59
NtRp4077
(dp4078
g62
(dp4079
g89
g90
ssg71
g4069
sg64
(lp4080
S':'
asbag57
(g78
g59
NtRp4081
(dp4082
g62
(dp4083
sg71
g4069
sg64
(lp4084
g57
(g58
g59
NtRp4085
(dp4086
g62
(dp4087
g70
I3
ssg71
g4081
sg64
(lp4088
S'/'
asbasbasbag57
(g73
g59
NtRp4089
(dp4090
g62
(dp4091
sg71
g3964
sg64
(lp4092
g57
(g78
g59
NtRp4093
(dp4094
g62
(dp4095
g82
g83
ssg71
g4089
sg64
(lp4096
g420
asbag57
(g78
g59
NtRp4097
(dp4098
g62
(dp4099
g89
g90
ssg71
g4089
sg64
(lp4100
S':'
asbag57
(g78
g59
NtRp4101
(dp4102
g62
(dp4103
sg71
g4089
sg64
(lp4104
g57
(g58
g59
NtRp4105
(dp4106
g62
(dp4107
g70
I3
ssg71
g4101
sg64
(lp4108
S''
asbasbasbag57
(g73
g59
NtRp4109
(dp4110
g62
(dp4111
sg71
g3964
sg64
(lp4112
g57
(g78
g59
NtRp4113
(dp4114
g62
(dp4115
g82
g83
ssg71
g4109
sg64
(lp4116
g441
asbag57
(g78
g59
NtRp4117
(dp4118
g62
(dp4119
g89
g90
ssg71
g4109
sg64
(lp4120
S':'
asbag57
(g78
g59
NtRp4121
(dp4122
g62
(dp4123
sg71
g4109
sg64
(lp4124
g57
(g58
g59
NtRp4125
(dp4126
g62
(dp4127
g70
I3
ssg71
g4121
sg64
(lp4128
S''
asbasbasbasbasbasbasbasbasbasbasbag57
(g73
g59
NtRp4129
(dp4130
g62
(dp4131
sg71
g3894
sg64
(lp4132
g57
(g78
g59
NtRp4133
(dp4134
g62
(dp4135
g82
g83
ssg71
g4129
sg64
(lp4136
S'delimiters'
p4137
asbag57
(g78
g59
NtRp4138
(dp4139
g62
(dp4140
g89
g90
ssg71
g4129
sg64
(lp4141
S':'
asbag57
(g78
g59
NtRp4142
(dp4143
g62
(dp4144
sg71
g4129
sg64
(lp4145
g57
(g58
g59
NtRp4146
(dp4147
g62
(dp4148
g70
I5
ssg71
g4142
sg64
(lp4149
g57
(g66
g59
NtRp4150
(dp4151
g62
(dp4152
g70
I4
ssg71
Nsg64
(lp4153
g57
(g73
g59
NtRp4154
(dp4155
g62
(dp4156
sg71
g4150
sg64
(lp4157
g57
(g78
g59
NtRp4158
(dp4159
g62
(dp4160
sg71
g4154
sg64
(lp4161
g57
(g58
g59
NtRp4162
(dp4163
g62
(dp4164
g70
I4
ssg71
g4158
sg64
(lp4165
S'{{'
p4166
asbasbasbag57
(g73
g59
NtRp4167
(dp4168
g62
(dp4169
sg71
g4150
sg64
(lp4170
g57
(g78
g59
NtRp4171
(dp4172
g62
(dp4173
sg71
g4167
sg64
(lp4174
g57
(g58
g59
NtRp4175
(dp4176
g62
(dp4177
g70
I4
ssg71
g4171
sg64
(lp4178
S'}}'
p4179
asbasbasbasbasbasbasbag57
(g73
g59
NtRp4180
(dp4181
g62
(dp4182
sg71
g3894
sg64
(lp4183
g57
(g78
g59
NtRp4184
(dp4185
g62
(dp4186
g82
g83
ssg71
g4180
sg64
(lp4187
S'files'
p4188
asbag57
(g78
g59
NtRp4189
(dp4190
g62
(dp4191
g89
g90
ssg71
g4180
sg64
(lp4192
S':'
asbag57
(g78
g59
NtRp4193
(dp4194
g62
(dp4195
sg71
g4180
sg64
(lp4196
g57
(g58
g59
NtRp4197
(dp4198
g62
(dp4199
g70
I5
ssg71
g4193
sg64
(lp4200
g57
(g66
g59
NtRp4201
(dp4202
g62
(dp4203
g70
I4
ssg71
Nsg64
(lp4204
sbasbasbasbag57
(g73
g59
NtRp4205
(dp4206
g62
(dp4207
sg71
g3894
sg64
(lp4208
g57
(g78
g59
NtRp4209
(dp4210
g62
(dp4211
g82
g83
ssg71
g4205
sg64
(lp4212
S'flash'
p4213
asbag57
(g78
g59
NtRp4214
(dp4215
g62
(dp4216
g89
g90
ssg71
g4205
sg64
(lp4217
S':'
asbag57
(g78
g59
NtRp4218
(dp4219
g62
(dp4220
sg71
g4205
sg64
(lp4221
g57
(g58
g59
NtRp4222
(dp4223
g62
(dp4224
g70
I5
ssg71
g4218
sg64
(lp4225
S''
asbasbasbag57
(g73
g59
NtRp4226
(dp4227
g62
(dp4228
sg71
g3894
sg64
(lp4229
g57
(g78
g59
NtRp4230
(dp4231
g62
(dp4232
g82
g83
ssg71
g4226
sg64
(lp4233
S'generic_patterns'
p4234
asbag57
(g78
g59
NtRp4235
(dp4236
g62
(dp4237
g89
g90
ssg71
g4226
sg64
(lp4238
S':'
asbag57
(g78
g59
NtRp4239
(dp4240
g62
(dp4241
sg71
g4226
sg64
(lp4242
g57
(g58
g59
NtRp4243
(dp4244
g62
(dp4245
g70
I5
ssg71
g4239
sg64
(lp4246
g57
(g66
g59
NtRp4247
(dp4248
g62
(dp4249
g70
I4
ssg71
Nsg64
(lp4250
g57
(g73
g59
NtRp4251
(dp4252
g62
(dp4253
sg71
g4247
sg64
(lp4254
g57
(g78
g59
NtRp4255
(dp4256
g62
(dp4257
sg71
g4251
sg64
(lp4258
g57
(g58
g59
NtRp4259
(dp4260
g62
(dp4261
g70
I4
ssg71
g4255
sg64
(lp4262
S'*'
asbasbasbasbasbasbasbag57
(g73
g59
NtRp4263
(dp4264
g62
(dp4265
sg71
g3894
sg64
(lp4266
g57
(g78
g59
NtRp4267
(dp4268
g62
(dp4269
g82
g83
ssg71
g4263
sg64
(lp4270
S'google_analytics_id'
p4271
asbag57
(g78
g59
NtRp4272
(dp4273
g62
(dp4274
g89
g90
ssg71
g4263
sg64
(lp4275
S':'
asbag57
(g78
g59
NtRp4276
(dp4277
g62
(dp4278
sg71
g4263
sg64
(lp4279
g57
(g58
g59
NtRp4280
(dp4281
g62
(dp4282
g70
I5
ssg71
g4276
sg64
(lp4283
S'None'
p4284
asbasbasbag57
(g73
g59
NtRp4285
(dp4286
g62
(dp4287
sg71
g3894
sg64
(lp4288
g57
(g78
g59
NtRp4289
(dp4290
g62
(dp4291
g82
g83
ssg71
g4285
sg64
(lp4292
S'headers'
p4293
asbag57
(g78
g59
NtRp4294
(dp4295
g62
(dp4296
g89
g90
ssg71
g4285
sg64
(lp4297
S':'
asbag57
(g78
g59
NtRp4298
(dp4299
g62
(dp4300
sg71
g4285
sg64
(lp4301
g57
(g58
g59
NtRp4302
(dp4303
g62
(dp4304
g70
I5
ssg71
g4298
sg64
(lp4305
g57
(g66
g59
NtRp4306
(dp4307
g62
(dp4308
g70
I4
ssg71
Nsg64
(lp4309
g57
(g73
g59
NtRp4310
(dp4311
g62
(dp4312
sg71
g4306
sg64
(lp4313
g57
(g78
g59
NtRp4314
(dp4315
g62
(dp4316
g82
g83
ssg71
g4310
sg64
(lp4317
S'X-Powered-By'
p4318
asbag57
(g78
g59
NtRp4319
(dp4320
g62
(dp4321
g89
g90
ssg71
g4310
sg64
(lp4322
S':'
asbag57
(g78
g59
NtRp4323
(dp4324
g62
(dp4325
sg71
g4310
sg64
(lp4326
g57
(g58
g59
NtRp4327
(dp4328
g62
(dp4329
g70
I4
ssg71
g4323
sg64
(lp4330
S'web2py'
p4331
asbasbasbasbasbasbasbag57
(g73
g59
NtRp4332
(dp4333
g62
(dp4334
sg71
g3894
sg64
(lp4335
g57
(g78
g59
NtRp4336
(dp4337
g62
(dp4338
g82
g83
ssg71
g4332
sg64
(lp4339
S'menu'
p4340
asbag57
(g78
g59
NtRp4341
(dp4342
g62
(dp4343
g89
g90
ssg71
g4332
sg64
(lp4344
S':'
asbag57
(g78
g59
NtRp4345
(dp4346
g62
(dp4347
sg71
g4332
sg64
(lp4348
g57
(g58
g59
NtRp4349
(dp4350
g62
(dp4351
g70
I5
ssg71
g4345
sg64
(lp4352
g57
(g66
g59
NtRp4353
(dp4354
g62
(dp4355
g70
I4
ssg71
Nsg64
(lp4356
g57
(g73
g59
NtRp4357
(dp4358
g62
(dp4359
sg71
g4353
sg64
(lp4360
g57
(g78
g59
NtRp4361
(dp4362
g62
(dp4363
sg71
g4357
sg64
(lp4364
g57
(g58
g59
NtRp4365
(dp4366
g62
(dp4367
g70
I4
ssg71
g4361
sg64
(lp4368
g57
(g66
g59
NtRp4369
(dp4370
g62
(dp4371
g70
I3
ssg71
Nsg64
(lp4372
g57
(g73
g59
NtRp4373
(dp4374
g62
(dp4375
sg71
g4369
sg64
(lp4376
g57
(g78
g59
NtRp4377
(dp4378
g62
(dp4379
sg71
g4373
sg64
(lp4380
g57
(g58
g59
NtRp4381
(dp4382
g62
(dp4383
g70
I3
ssg71
g4377
sg64
(lp4384
cgluon.languages
lazyT_unpickle
p4385
(S's\x04\x00\x00\x00Home'
tRp4386
asbasbasbag57
(g73
g59
NtRp4387
(dp4388
g62
(dp4389
sg71
g4369
sg64
(lp4390
g57
(g78
g59
NtRp4391
(dp4392
g62
(dp4393
sg71
g4387
sg64
(lp4394
g57
(g58
g59
NtRp4395
(dp4396
g62
(dp4397
g70
I3
ssg71
g4391
sg64
(lp4398
g100
asbasbasbag57
(g73
g59
NtRp4399
(dp4400
g62
(dp4401
sg71
g4369
sg64
(lp4402
g57
(g78
g59
NtRp4403
(dp4404
g62
(dp4405
sg71
g4399
sg64
(lp4406
g57
(g58
g59
NtRp4407
(dp4408
g62
(dp4409
g70
I3
ssg71
g4403
sg64
(lp4410
S'/Betsy/default/index'
p4411
asbasbasbag57
(g73
g59
NtRp4412
(dp4413
g62
(dp4414
sg71
g4369
sg64
(lp4415
g57
(g78
g59
NtRp4416
(dp4417
g62
(dp4418
sg71
g4412
sg64
(lp4419
g57
(g58
g59
NtRp4420
(dp4421
g62
(dp4422
g70
I3
ssg71
g4416
sg64
(lp4423
g57
(g66
g59
NtRp4424
(dp4425
g62
(dp4426
g70
I2
ssg71
Nsg64
(lp4427
sbasbasbasbasbasbasbasbag57
(g73
g59
NtRp4428
(dp4429
g62
(dp4430
sg71
g4353
sg64
(lp4431
g57
(g78
g59
NtRp4432
(dp4433
g62
(dp4434
sg71
g4428
sg64
(lp4435
g57
(g58
g59
NtRp4436
(dp4437
g62
(dp4438
g70
I4
ssg71
g4432
sg64
(lp4439
g57
(g66
g59
NtRp4440
(dp4441
g62
(dp4442
g70
I3
ssg71
Nsg64
(lp4443
g57
(g73
g59
NtRp4444
(dp4445
g62
(dp4446
sg71
g4440
sg64
(lp4447
g57
(g78
g59
NtRp4448
(dp4449
g62
(dp4450
sg71
g4444
sg64
(lp4451
g57
(g58
g59
NtRp4452
(dp4453
g62
(dp4454
g70
I3
ssg71
g4448
sg64
(lp4455
g57
(cgluon.html
SPAN
p4456
g59
NtRp4457
(dp4458
g62
(dp4459
S'_class'
p4460
S'highlighted'
p4461
ssg71
Nsg64
(lp4462
g4331
asbasbasbasbag57
(g73
g59
NtRp4463
(dp4464
g62
(dp4465
sg71
g4440
sg64
(lp4466
g57
(g78
g59
NtRp4467
(dp4468
g62
(dp4469
sg71
g4463
sg64
(lp4470
g57
(g58
g59
NtRp4471
(dp4472
g62
(dp4473
g70
I3
ssg71
g4467
sg64
(lp4474
g100
asbasbasbag57
(g73
g59
NtRp4475
(dp4476
g62
(dp4477
sg71
g4440
sg64
(lp4478
g57
(g78
g59
NtRp4479
(dp4480
g62
(dp4481
sg71
g4475
sg64
(lp4482
g57
(g58
g59
NtRp4483
(dp4484
g62
(dp4485
g70
I3
ssg71
g4479
sg64
(lp4486
S'http://web2py.com'
p4487
asbasbasbag57
(g73
g59
NtRp4488
(dp4489
g62
(dp4490
sg71
g4440
sg64
(lp4491
g57
(g78
g59
NtRp4492
(dp4493
g62
(dp4494
sg71
g4488
sg64
(lp4495
g57
(g58
g59
NtRp4496
(dp4497
g62
(dp4498
g70
I3
ssg71
g4492
sg64
(lp4499
g57
(g66
g59
NtRp4500
(dp4501
g62
(dp4502
g70
I2
ssg71
Nsg64
(lp4503
g57
(g73
g59
NtRp4504
(dp4505
g62
(dp4506
sg71
g4500
sg64
(lp4507
g57
(g78
g59
NtRp4508
(dp4509
g62
(dp4510
sg71
g4504
sg64
(lp4511
g57
(g58
g59
NtRp4512
(dp4513
g62
(dp4514
g70
I2
ssg71
g4508
sg64
(lp4515
g57
(g66
g59
NtRp4516
(dp4517
g62
(dp4518
g70
I1
ssg71
Nsg64
(lp4519
g57
(g73
g59
NtRp4520
(dp4521
g62
(dp4522
sg71
g4516
sg64
(lp4523
g57
(g78
g59
NtRp4524
(dp4525
g62
(dp4526
sg71
g4520
sg64
(lp4527
g57
(g58
g59
NtRp4528
(dp4529
g62
(dp4530
g70
I1
ssg71
g4524
sg64
(lp4531
g4385
(S's\x08\x00\x00\x00My Sites'
tRp4532
asbasbasbag57
(g73
g59
NtRp4533
(dp4534
g62
(dp4535
sg71
g4516
sg64
(lp4536
g57
(g78
g59
NtRp4537
(dp4538
g62
(dp4539
sg71
g4533
sg64
(lp4540
g57
(g58
g59
NtRp4541
(dp4542
g62
(dp4543
g70
I1
ssg71
g4537
sg64
(lp4544
I00
asbasbasbag57
(g73
g59
NtRp4545
(dp4546
g62
(dp4547
sg71
g4516
sg64
(lp4548
g57
(g78
g59
NtRp4549
(dp4550
g62
(dp4551
sg71
g4545
sg64
(lp4552
g57
(g58
g59
NtRp4553
(dp4554
g62
(dp4555
g70
I1
ssg71
g4549
sg64
(lp4556
S'/admin/default/site'
p4557
asbasbasbasbasbasbasbag57
(g73
g59
NtRp4558
(dp4559
g62
(dp4560
sg71
g4500
sg64
(lp4561
g57
(g78
g59
NtRp4562
(dp4563
g62
(dp4564
sg71
g4558
sg64
(lp4565
g57
(g58
g59
NtRp4566
(dp4567
g62
(dp4568
g70
I2
ssg71
g4562
sg64
(lp4569
g57
(g66
g59
NtRp4570
(dp4571
g62
(dp4572
g70
I1
ssg71
Nsg64
(lp4573
g57
(g73
g59
NtRp4574
(dp4575
g62
(dp4576
sg71
g4570
sg64
(lp4577
g57
(g78
g59
NtRp4578
(dp4579
g62
(dp4580
sg71
g4574
sg64
(lp4581
g57
(g58
g59
NtRp4582
(dp4583
g62
(dp4584
g70
I1
ssg71
g4578
sg64
(lp4585
g4385
(S's\x08\x00\x00\x00This App'
tRp4586
asbasbasbag57
(g73
g59
NtRp4587
(dp4588
g62
(dp4589
sg71
g4570
sg64
(lp4590
g57
(g78
g59
NtRp4591
(dp4592
g62
(dp4593
sg71
g4587
sg64
(lp4594
g57
(g58
g59
NtRp4595
(dp4596
g62
(dp4597
g70
I1
ssg71
g4591
sg64
(lp4598
I00
asbasbasbag57
(g73
g59
NtRp4599
(dp4600
g62
(dp4601
sg71
g4570
sg64
(lp4602
g57
(g78
g59
NtRp4603
(dp4604
g62
(dp4605
sg71
g4599
sg64
(lp4606
g57
(g58
g59
NtRp4607
(dp4608
g62
(dp4609
g70
I1
ssg71
g4603
sg64
(lp4610
S'/admin/default/design/Betsy'
p4611
asbasbasbag57
(g73
g59
NtRp4612
(dp4613
g62
(dp4614
sg71
g4570
sg64
(lp4615
g57
(g78
g59
NtRp4616
(dp4617
g62
(dp4618
sg71
g4612
sg64
(lp4619
g57
(g58
g59
NtRp4620
(dp4621
g62
(dp4622
g70
I1
ssg71
g4616
sg64
(lp4623
(lp4624
(g4385
(S's\n\x00\x00\x00Controller'
tRp4625
I00
S'/admin/default/edit/Betsy/controllers/default.py'
tp4626
a(g4385
(S's\x04\x00\x00\x00View'
tRp4627
I00
S'/admin/default/edit/Betsy/views/default/show_status.html'
tp4628
a(g4385
(S's\x06\x00\x00\x00Layout'
tRp4629
I00
S'/admin/default/edit/Betsy/views/layout.html'
tp4630
a(g4385
(S's\n\x00\x00\x00Stylesheet'
tRp4631
I00
S'/admin/default/edit/Betsy/static/css/web2py.css'
tp4632
a(g4385
(S's\x08\x00\x00\x00DB Model'
tRp4633
I00
S'/admin/default/edit/Betsy/models/db.py'
tp4634
a(g4385
(S's\n\x00\x00\x00Menu Model'
tRp4635
I00
S'/admin/default/edit/Betsy/models/menu.py'
tp4636
a(g4385
(S's\x08\x00\x00\x00Database'
tRp4637
I00
S'/Betsy/appadmin/index'
tp4638
a(g4385
(S's\x06\x00\x00\x00Errors'
tRp4639
I00
S'/admin/default/errors/Betsy'
tp4640
a(g4385
(S's\x05\x00\x00\x00About'
tRp4641
I00
S'/admin/default/about/Betsy'
tp4642
aasbasbasbasbasbasbasbag57
(g73
g59
NtRp4643
(dp4644
g62
(dp4645
sg71
g4500
sg64
(lp4646
g57
(g78
g59
NtRp4647
(dp4648
g62
(dp4649
sg71
g4643
sg64
(lp4650
g57
(g58
g59
NtRp4651
(dp4652
g62
(dp4653
g70
I2
ssg71
g4647
sg64
(lp4654
g57
(g66
g59
NtRp4655
(dp4656
g62
(dp4657
g70
I1
ssg71
Nsg64
(lp4658
g57
(g73
g59
NtRp4659
(dp4660
g62
(dp4661
sg71
g4655
sg64
(lp4662
g57
(g78
g59
NtRp4663
(dp4664
g62
(dp4665
sg71
g4659
sg64
(lp4666
g57
(g58
g59
NtRp4667
(dp4668
g62
(dp4669
g70
I1
ssg71
g4663
sg64
(lp4670
S'web2py.com'
p4671
asbasbasbag57
(g73
g59
NtRp4672
(dp4673
g62
(dp4674
sg71
g4655
sg64
(lp4675
g57
(g78
g59
NtRp4676
(dp4677
g62
(dp4678
sg71
g4672
sg64
(lp4679
g57
(g58
g59
NtRp4680
(dp4681
g62
(dp4682
g70
I1
ssg71
g4676
sg64
(lp4683
I00
asbasbasbag57
(g73
g59
NtRp4684
(dp4685
g62
(dp4686
sg71
g4655
sg64
(lp4687
g57
(g78
g59
NtRp4688
(dp4689
g62
(dp4690
sg71
g4684
sg64
(lp4691
g57
(g58
g59
NtRp4692
(dp4693
g62
(dp4694
g70
I1
ssg71
g4688
sg64
(lp4695
S'http://www.web2py.com'
p4696
asbasbasbag57
(g73
g59
NtRp4697
(dp4698
g62
(dp4699
sg71
g4655
sg64
(lp4700
g57
(g78
g59
NtRp4701
(dp4702
g62
(dp4703
sg71
g4697
sg64
(lp4704
g57
(g58
g59
NtRp4705
(dp4706
g62
(dp4707
g70
I1
ssg71
g4701
sg64
(lp4708
(lp4709
(g4385
(S's\x08\x00\x00\x00Download'
tRp4710
I00
S'http://www.web2py.com/examples/default/download'
p4711
tp4712
a(g4385
(S's\x07\x00\x00\x00Support'
tRp4713
I00
S'http://www.web2py.com/examples/default/support'
p4714
tp4715
a(g4385
(S's\x04\x00\x00\x00Demo'
tRp4716
I00
S'http://web2py.com/demo_admin'
p4717
tp4718
a(g4385
(S's\x0e\x00\x00\x00Quick Examples'
tRp4719
I00
S'http://web2py.com/examples/default/examples'
p4720
tp4721
a(g4385
(S's\x03\x00\x00\x00FAQ'
tRp4722
I00
S'http://web2py.com/AlterEgo'
p4723
tp4724
a(g4385
(S's\x06\x00\x00\x00Videos'
tRp4725
I00
S'http://www.web2py.com/examples/default/videos/'
p4726
tp4727
a(g4385
(S's\x11\x00\x00\x00Free Applications'
tRp4728
I00
S'http://web2py.com/appliances'
p4729
tp4730
a(g4385
(S's\x07\x00\x00\x00Plugins'
tRp4731
I00
S'http://web2py.com/plugins'
p4732
tp4733
a(g4385
(S's\x07\x00\x00\x00Layouts'
tRp4734
I00
S'http://web2py.com/layouts'
p4735
tp4736
a(g4385
(S's\x07\x00\x00\x00Recipes'
tRp4737
I00
S'http://web2pyslices.com/'
p4738
tp4739
a(g4385
(S's\x08\x00\x00\x00Semantic'
tRp4740
I00
S'http://web2py.com/semantic'
p4741
tp4742
aasbasbasbasbasbasbasbag57
(g73
g59
NtRp4743
(dp4744
g62
(dp4745
sg71
g4500
sg64
(lp4746
g57
(g78
g59
NtRp4747
(dp4748
g62
(dp4749
sg71
g4743
sg64
(lp4750
g57
(g58
g59
NtRp4751
(dp4752
g62
(dp4753
g70
I2
ssg71
g4747
sg64
(lp4754
g57
(g66
g59
NtRp4755
(dp4756
g62
(dp4757
g70
I1
ssg71
Nsg64
(lp4758
g57
(g73
g59
NtRp4759
(dp4760
g62
(dp4761
sg71
g4755
sg64
(lp4762
g57
(g78
g59
NtRp4763
(dp4764
g62
(dp4765
sg71
g4759
sg64
(lp4766
g57
(g58
g59
NtRp4767
(dp4768
g62
(dp4769
g70
I1
ssg71
g4763
sg64
(lp4770
g4385
(S's\r\x00\x00\x00Documentation'
tRp4771
asbasbasbag57
(g73
g59
NtRp4772
(dp4773
g62
(dp4774
sg71
g4755
sg64
(lp4775
g57
(g78
g59
NtRp4776
(dp4777
g62
(dp4778
sg71
g4772
sg64
(lp4779
g57
(g58
g59
NtRp4780
(dp4781
g62
(dp4782
g70
I1
ssg71
g4776
sg64
(lp4783
I00
asbasbasbag57
(g73
g59
NtRp4784
(dp4785
g62
(dp4786
sg71
g4755
sg64
(lp4787
g57
(g78
g59
NtRp4788
(dp4789
g62
(dp4790
sg71
g4784
sg64
(lp4791
g57
(g58
g59
NtRp4792
(dp4793
g62
(dp4794
g70
I1
ssg71
g4788
sg64
(lp4795
S'http://www.web2py.com/book'
p4796
asbasbasbag57
(g73
g59
NtRp4797
(dp4798
g62
(dp4799
sg71
g4755
sg64
(lp4800
g57
(g78
g59
NtRp4801
(dp4802
g62
(dp4803
sg71
g4797
sg64
(lp4804
g57
(g58
g59
NtRp4805
(dp4806
g62
(dp4807
g70
I1
ssg71
g4801
sg64
(lp4808
(lp4809
(g4385
(S's\x07\x00\x00\x00Preface'
tRp4810
I00
S'http://www.web2py.com/book/default/chapter/00'
p4811
tp4812
a(g4385
(S's\x0c\x00\x00\x00Introduction'
tRp4813
I00
S'http://www.web2py.com/book/default/chapter/01'
p4814
tp4815
a(g4385
(S's\x06\x00\x00\x00Python'
tRp4816
I00
S'http://www.web2py.com/book/default/chapter/02'
p4817
tp4818
a(g4385
(S's\x08\x00\x00\x00Overview'
tRp4819
I00
S'http://www.web2py.com/book/default/chapter/03'
p4820
tp4821
a(g4385
(S's\x08\x00\x00\x00The Core'
tRp4822
I00
S'http://www.web2py.com/book/default/chapter/04'
p4823
tp4824
a(g4385
(S's\t\x00\x00\x00The Views'
tRp4825
I00
S'http://www.web2py.com/book/default/chapter/05'
p4826
tp4827
a(g4385
(S's\x08\x00\x00\x00Database'
tRp4828
I00
S'http://www.web2py.com/book/default/chapter/06'
p4829
tp4830
a(g4385
(S's\x14\x00\x00\x00Forms and Validators'
tRp4831
I00
S'http://www.web2py.com/book/default/chapter/07'
p4832
tp4833
a(g4385
(S's\r\x00\x00\x00Email and SMS'
tRp4834
I00
S'http://www.web2py.com/book/default/chapter/08'
p4835
tp4836
a(g4385
(S's\x0e\x00\x00\x00Access Control'
tRp4837
I00
S'http://www.web2py.com/book/default/chapter/09'
p4838
tp4839
a(g4385
(S's\x08\x00\x00\x00Services'
tRp4840
I00
S'http://www.web2py.com/book/default/chapter/10'
p4841
tp4842
a(g4385
(S's\x0c\x00\x00\x00Ajax Recipes'
tRp4843
I00
S'http://www.web2py.com/book/default/chapter/11'
p4844
tp4845
a(g4385
(S's\x16\x00\x00\x00Components and Plugins'
tRp4846
I00
S'http://www.web2py.com/book/default/chapter/12'
p4847
tp4848
a(g4385
(S's\x12\x00\x00\x00Deployment Recipes'
tRp4849
I00
S'http://www.web2py.com/book/default/chapter/13'
p4850
tp4851
a(g4385
(S's\r\x00\x00\x00Other Recipes'
tRp4852
I00
S'http://www.web2py.com/book/default/chapter/14'
p4853
tp4854
a(g4385
(S's\r\x00\x00\x00Buy this book'
tRp4855
I00
S'http://stores.lulu.com/web2py'
p4856
tp4857
aasbasbasbasbasbasbasbag57
(g73
g59
NtRp4858
(dp4859
g62
(dp4860
sg71
g4500
sg64
(lp4861
g57
(g78
g59
NtRp4862
(dp4863
g62
(dp4864
sg71
g4858
sg64
(lp4865
g57
(g58
g59
NtRp4866
(dp4867
g62
(dp4868
g70
I2
ssg71
g4862
sg64
(lp4869
g57
(g66
g59
NtRp4870
(dp4871
g62
(dp4872
g70
I1
ssg71
Nsg64
(lp4873
g57
(g73
g59
NtRp4874
(dp4875
g62
(dp4876
sg71
g4870
sg64
(lp4877
g57
(g78
g59
NtRp4878
(dp4879
g62
(dp4880
sg71
g4874
sg64
(lp4881
g57
(g58
g59
NtRp4882
(dp4883
g62
(dp4884
g70
I1
ssg71
g4878
sg64
(lp4885
g4385
(S's\t\x00\x00\x00Community'
tRp4886
asbasbasbag57
(g73
g59
NtRp4887
(dp4888
g62
(dp4889
sg71
g4870
sg64
(lp4890
g57
(g78
g59
NtRp4891
(dp4892
g62
(dp4893
sg71
g4887
sg64
(lp4894
g57
(g58
g59
NtRp4895
(dp4896
g62
(dp4897
g70
I1
ssg71
g4891
sg64
(lp4898
I00
asbasbasbag57
(g73
g59
NtRp4899
(dp4900
g62
(dp4901
sg71
g4870
sg64
(lp4902
g57
(g78
g59
NtRp4903
(dp4904
g62
(dp4905
sg71
g4899
sg64
(lp4906
g57
(g58
g59
NtRp4907
(dp4908
g62
(dp4909
g70
I1
ssg71
g4903
sg64
(lp4910
Nasbasbasbag57
(g73
g59
NtRp4911
(dp4912
g62
(dp4913
sg71
g4870
sg64
(lp4914
g57
(g78
g59
NtRp4915
(dp4916
g62
(dp4917
sg71
g4911
sg64
(lp4918
g57
(g58
g59
NtRp4919
(dp4920
g62
(dp4921
g70
I1
ssg71
g4915
sg64
(lp4922
(lp4923
(g4385
(S's\x06\x00\x00\x00Groups'
tRp4924
I00
S'http://www.web2py.com/examples/default/usergroups'
p4925
tp4926
a(g4385
(S's\x07\x00\x00\x00Twitter'
tRp4927
I00
S'http://twitter.com/web2py'
p4928
tp4929
a(g4385
(S's\t\x00\x00\x00Live Chat'
tRp4930
I00
S'http://webchat.freenode.net/?channels=web2py'
p4931
tp4932
aasbasbasbasbasbasbasbag57
(g73
g59
NtRp4933
(dp4934
g62
(dp4935
sg71
g4500
sg64
(lp4936
g57
(g78
g59
NtRp4937
(dp4938
g62
(dp4939
sg71
g4933
sg64
(lp4940
g57
(g58
g59
NtRp4941
(dp4942
g62
(dp4943
g70
I2
ssg71
g4937
sg64
(lp4944
g57
(g66
g59
NtRp4945
(dp4946
g62
(dp4947
g70
I1
ssg71
Nsg64
(lp4948
g57
(g73
g59
NtRp4949
(dp4950
g62
(dp4951
sg71
g4945
sg64
(lp4952
g57
(g78
g59
NtRp4953
(dp4954
g62
(dp4955
sg71
g4949
sg64
(lp4956
g57
(g58
g59
NtRp4957
(dp4958
g62
(dp4959
g70
I1
ssg71
g4953
sg64
(lp4960
g4385
(S's\x07\x00\x00\x00Plugins'
tRp4961
asbasbasbag57
(g73
g59
NtRp4962
(dp4963
g62
(dp4964
sg71
g4945
sg64
(lp4965
g57
(g78
g59
NtRp4966
(dp4967
g62
(dp4968
sg71
g4962
sg64
(lp4969
g57
(g58
g59
NtRp4970
(dp4971
g62
(dp4972
g70
I1
ssg71
g4966
sg64
(lp4973
I00
asbasbasbag57
(g73
g59
NtRp4974
(dp4975
g62
(dp4976
sg71
g4945
sg64
(lp4977
g57
(g78
g59
NtRp4978
(dp4979
g62
(dp4980
sg71
g4974
sg64
(lp4981
g57
(g58
g59
NtRp4982
(dp4983
g62
(dp4984
g70
I1
ssg71
g4978
sg64
(lp4985
Nasbasbasbag57
(g73
g59
NtRp4986
(dp4987
g62
(dp4988
sg71
g4945
sg64
(lp4989
g57
(g78
g59
NtRp4990
(dp4991
g62
(dp4992
sg71
g4986
sg64
(lp4993
g57
(g58
g59
NtRp4994
(dp4995
g62
(dp4996
g70
I1
ssg71
g4990
sg64
(lp4997
(lp4998
(S'plugin_wiki'
p4999
I00
S'http://web2py.com/examples/default/download'
p5000
tp5001
a(g4385
(S's\r\x00\x00\x00Other Plugins'
tRp5002
I00
g4732
tp5003
a(g4385
(S's\x0e\x00\x00\x00Layout Plugins'
tRp5004
I00
g4735
tp5005
aasbasbasbasbasbasbasbasbasbasbasbasbasbasbasbasbasbasbasbag57
(g73
g59
NtRp5006
(dp5007
g62
(dp5008
sg71
g3894
sg64
(lp5009
g57
(g78
g59
NtRp5010
(dp5011
g62
(dp5012
g82
g83
ssg71
g5006
sg64
(lp5013
S'meta'
p5014
asbag57
(g78
g59
NtRp5015
(dp5016
g62
(dp5017
g89
g90
ssg71
g5006
sg64
(lp5018
S':'
asbag57
(g78
g59
NtRp5019
(dp5020
g62
(dp5021
sg71
g5006
sg64
(lp5022
g57
(g58
g59
NtRp5023
(dp5024
g62
(dp5025
g70
I5
ssg71
g5019
sg64
(lp5026
g57
(g66
g59
NtRp5027
(dp5028
g62
(dp5029
g70
I4
ssg71
Nsg64
(lp5030
g57
(g73
g59
NtRp5031
(dp5032
g62
(dp5033
sg71
g5027
sg64
(lp5034
g57
(g78
g59
NtRp5035
(dp5036
g62
(dp5037
g82
g83
ssg71
g5031
sg64
(lp5038
S'author'
p5039
asbag57
(g78
g59
NtRp5040
(dp5041
g62
(dp5042
g89
g90
ssg71
g5031
sg64
(lp5043
S':'
asbag57
(g78
g59
NtRp5044
(dp5045
g62
(dp5046
sg71
g5031
sg64
(lp5047
g57
(g58
g59
NtRp5048
(dp5049
g62
(dp5050
g70
I4
ssg71
g5044
sg64
(lp5051
S'Your Name <you@example.com>'
p5052
asbasbasbag57
(g73
g59
NtRp5053
(dp5054
g62
(dp5055
sg71
g5027
sg64
(lp5056
g57
(g78
g59
NtRp5057
(dp5058
g62
(dp5059
g82
g83
ssg71
g5053
sg64
(lp5060
S'description'
p5061
asbag57
(g78
g59
NtRp5062
(dp5063
g62
(dp5064
g89
g90
ssg71
g5053
sg64
(lp5065
S':'
asbag57
(g78
g59
NtRp5066
(dp5067
g62
(dp5068
sg71
g5053
sg64
(lp5069
g57
(g58
g59
NtRp5070
(dp5071
g62
(dp5072
g70
I4
ssg71
g5066
sg64
(lp5073
S'a cool new app'
p5074
asbasbasbag57
(g73
g59
NtRp5075
(dp5076
g62
(dp5077
sg71
g5027
sg64
(lp5078
g57
(g78
g59
NtRp5079
(dp5080
g62
(dp5081
g82
g83
ssg71
g5075
sg64
(lp5082
S'generator'
p5083
asbag57
(g78
g59
NtRp5084
(dp5085
g62
(dp5086
g89
g90
ssg71
g5075
sg64
(lp5087
S':'
asbag57
(g78
g59
NtRp5088
(dp5089
g62
(dp5090
sg71
g5075
sg64
(lp5091
g57
(g58
g59
NtRp5092
(dp5093
g62
(dp5094
g70
I4
ssg71
g5088
sg64
(lp5095
S'Web2py Web Framework'
p5096
asbasbasbag57
(g73
g59
NtRp5097
(dp5098
g62
(dp5099
sg71
g5027
sg64
(lp5100
g57
(g78
g59
NtRp5101
(dp5102
g62
(dp5103
g82
g83
ssg71
g5097
sg64
(lp5104
S'keywords'
p5105
asbag57
(g78
g59
NtRp5106
(dp5107
g62
(dp5108
g89
g90
ssg71
g5097
sg64
(lp5109
S':'
asbag57
(g78
g59
NtRp5110
(dp5111
g62
(dp5112
sg71
g5097
sg64
(lp5113
g57
(g58
g59
NtRp5114
(dp5115
g62
(dp5116
g70
I4
ssg71
g5110
sg64
(lp5117
S'web2py, python, framework'
p5118
asbasbasbasbasbasbasbag57
(g73
g59
NtRp5119
(dp5120
g62
(dp5121
sg71
g3894
sg64
(lp5122
g57
(g78
g59
NtRp5123
(dp5124
g62
(dp5125
g82
g83
ssg71
g5119
sg64
(lp5126
S'models_to_run'
p5127
asbag57
(g78
g59
NtRp5128
(dp5129
g62
(dp5130
g89
g90
ssg71
g5119
sg64
(lp5131
S':'
asbag57
(g78
g59
NtRp5132
(dp5133
g62
(dp5134
sg71
g5119
sg64
(lp5135
g57
(g58
g59
NtRp5136
(dp5137
g62
(dp5138
g70
I5
ssg71
g5132
sg64
(lp5139
g57
(g66
g59
NtRp5140
(dp5141
g62
(dp5142
g70
I4
ssg71
Nsg64
(lp5143
g57
(g73
g59
NtRp5144
(dp5145
g62
(dp5146
sg71
g5140
sg64
(lp5147
g57
(g78
g59
NtRp5148
(dp5149
g62
(dp5150
sg71
g5144
sg64
(lp5151
g57
(g58
g59
NtRp5152
(dp5153
g62
(dp5154
g70
I4
ssg71
g5148
sg64
(lp5155
S'^\\w+\\.py$'
p5156
asbasbasbag57
(g73
g59
NtRp5157
(dp5158
g62
(dp5159
sg71
g5140
sg64
(lp5160
g57
(g78
g59
NtRp5161
(dp5162
g62
(dp5163
sg71
g5157
sg64
(lp5164
g57
(g58
g59
NtRp5165
(dp5166
g62
(dp5167
g70
I4
ssg71
g5161
sg64
(lp5168
S'^default/\\w+\\.py$'
p5169
asbasbasbag57
(g73
g59
NtRp5170
(dp5171
g62
(dp5172
sg71
g5140
sg64
(lp5173
g57
(g78
g59
NtRp5174
(dp5175
g62
(dp5176
sg71
g5170
sg64
(lp5177
g57
(g58
g59
NtRp5178
(dp5179
g62
(dp5180
g70
I4
ssg71
g5174
sg64
(lp5181
S'^default/show_status/\\w+\\.py$'
p5182
asbasbasbasbasbasbasbag57
(g73
g59
NtRp5183
(dp5184
g62
(dp5185
sg71
g3894
sg64
(lp5186
g57
(g78
g59
NtRp5187
(dp5188
g62
(dp5189
g82
g83
ssg71
g5183
sg64
(lp5190
S'postprocessing'
p5191
asbag57
(g78
g59
NtRp5192
(dp5193
g62
(dp5194
g89
g90
ssg71
g5183
sg64
(lp5195
S':'
asbag57
(g78
g59
NtRp5196
(dp5197
g62
(dp5198
sg71
g5183
sg64
(lp5199
g57
(g58
g59
NtRp5200
(dp5201
g62
(dp5202
g70
I5
ssg71
g5196
sg64
(lp5203
g57
(g66
g59
NtRp5204
(dp5205
g62
(dp5206
g70
I4
ssg71
Nsg64
(lp5207
sbasbasbasbag57
(g73
g59
NtRp5208
(dp5209
g62
(dp5210
sg71
g3894
sg64
(lp5211
g57
(g78
g59
NtRp5212
(dp5213
g62
(dp5214
g82
g83
ssg71
g5208
sg64
(lp5215
S'session_cookie_expires'
p5216
asbag57
(g78
g59
NtRp5217
(dp5218
g62
(dp5219
g89
g90
ssg71
g5208
sg64
(lp5220
S':'
asbag57
(g78
g59
NtRp5221
(dp5222
g62
(dp5223
sg71
g5208
sg64
(lp5224
g57
(g58
g59
NtRp5225
(dp5226
g62
(dp5227
g70
I5
ssg71
g5221
sg64
(lp5228
S'None'
p5229
asbasbasbag57
(g73
g59
NtRp5230
(dp5231
g62
(dp5232
sg71
g3894
sg64
(lp5233
g57
(g78
g59
NtRp5234
(dp5235
g62
(dp5236
g82
g83
ssg71
g5230
sg64
(lp5237
S'session_data_name'
p5238
asbag57
(g78
g59
NtRp5239
(dp5240
g62
(dp5241
g89
g90
ssg71
g5230
sg64
(lp5242
S':'
asbag57
(g78
g59
NtRp5243
(dp5244
g62
(dp5245
sg71
g5230
sg64
(lp5246
g57
(g58
g59
NtRp5247
(dp5248
g62
(dp5249
g70
I5
ssg71
g5243
sg64
(lp5250
S'session_data_betsy'
p5251
asbasbasbag57
(g73
g59
NtRp5252
(dp5253
g62
(dp5254
sg71
g3894
sg64
(lp5255
g57
(g78
g59
NtRp5256
(dp5257
g62
(dp5258
g82
g83
ssg71
g5252
sg64
(lp5259
S'session_file'
p5260
asbag57
(g78
g59
NtRp5261
(dp5262
g62
(dp5263
g89
g90
ssg71
g5252
sg64
(lp5264
S':'
asbag57
(g78
g59
NtRp5265
(dp5266
g62
(dp5267
sg71
g5252
sg64
(lp5268
g57
(g58
g59
NtRp5269
(dp5270
g62
(dp5271
g70
I5
ssg71
g5265
sg64
(lp5272
S"<open file '/home/xchen/web2py/applications/Betsy/sessions/127.0.0.1-70d52105-0f5d-4884-a4e3-dce6830f30e0', mode 'rb+' at 0x1aad9db0>"
p5273
asbasbasbag57
(g73
g59
NtRp5274
(dp5275
g62
(dp5276
sg71
g3894
sg64
(lp5277
g57
(g78
g59
NtRp5278
(dp5279
g62
(dp5280
g82
g83
ssg71
g5274
sg64
(lp5281
S'session_filename'
p5282
asbag57
(g78
g59
NtRp5283
(dp5284
g62
(dp5285
g89
g90
ssg71
g5274
sg64
(lp5286
S':'
asbag57
(g78
g59
NtRp5287
(dp5288
g62
(dp5289
sg71
g5274
sg64
(lp5290
g57
(g58
g59
NtRp5291
(dp5292
g62
(dp5293
g70
I5
ssg71
g5287
sg64
(lp5294
S'/home/xchen/web2py/applications/Betsy/sessions/127.0.0.1-70d52105-0f5d-4884-a4e3-dce6830f30e0'
p5295
asbasbasbag57
(g73
g59
NtRp5296
(dp5297
g62
(dp5298
sg71
g3894
sg64
(lp5299
g57
(g78
g59
NtRp5300
(dp5301
g62
(dp5302
g82
g83
ssg71
g5296
sg64
(lp5303
S'session_id'
p5304
asbag57
(g78
g59
NtRp5305
(dp5306
g62
(dp5307
g89
g90
ssg71
g5296
sg64
(lp5308
S':'
asbag57
(g78
g59
NtRp5309
(dp5310
g62
(dp5311
sg71
g5296
sg64
(lp5312
g57
(g58
g59
NtRp5313
(dp5314
g62
(dp5315
g70
I5
ssg71
g5309
sg64
(lp5316
g475
asbasbasbag57
(g73
g59
NtRp5317
(dp5318
g62
(dp5319
sg71
g3894
sg64
(lp5320
g57
(g78
g59
NtRp5321
(dp5322
g62
(dp5323
g82
g83
ssg71
g5317
sg64
(lp5324
S'session_id_name'
p5325
asbag57
(g78
g59
NtRp5326
(dp5327
g62
(dp5328
g89
g90
ssg71
g5317
sg64
(lp5329
S':'
asbag57
(g78
g59
NtRp5330
(dp5331
g62
(dp5332
sg71
g5317
sg64
(lp5333
g57
(g58
g59
NtRp5334
(dp5335
g62
(dp5336
g70
I5
ssg71
g5330
sg64
(lp5337
g3951
asbasbasbag57
(g73
g59
NtRp5338
(dp5339
g62
(dp5340
sg71
g3894
sg64
(lp5341
g57
(g78
g59
NtRp5342
(dp5343
g62
(dp5344
g82
g83
ssg71
g5338
sg64
(lp5345
S'session_locked'
p5346
asbag57
(g78
g59
NtRp5347
(dp5348
g62
(dp5349
g89
g90
ssg71
g5338
sg64
(lp5350
S':'
asbag57
(g78
g59
NtRp5351
(dp5352
g62
(dp5353
sg71
g5338
sg64
(lp5354
g57
(g58
g59
NtRp5355
(dp5356
g62
(dp5357
g70
I5
ssg71
g5351
sg64
(lp5358
g1790
asbasbasbag57
(g73
g59
NtRp5359
(dp5360
g62
(dp5361
sg71
g3894
sg64
(lp5362
g57
(g78
g59
NtRp5363
(dp5364
g62
(dp5365
g82
g83
ssg71
g5359
sg64
(lp5366
S'session_new'
p5367
asbag57
(g78
g59
NtRp5368
(dp5369
g62
(dp5370
g89
g90
ssg71
g5359
sg64
(lp5371
S':'
asbag57
(g78
g59
NtRp5372
(dp5373
g62
(dp5374
sg71
g5359
sg64
(lp5375
g57
(g58
g59
NtRp5376
(dp5377
g62
(dp5378
g70
I5
ssg71
g5372
sg64
(lp5379
g100
asbasbasbag57
(g73
g59
NtRp5380
(dp5381
g62
(dp5382
sg71
g3894
sg64
(lp5383
g57
(g78
g59
NtRp5384
(dp5385
g62
(dp5386
g82
g83
ssg71
g5380
sg64
(lp5387
S'session_storage_type'
p5388
asbag57
(g78
g59
NtRp5389
(dp5390
g62
(dp5391
g89
g90
ssg71
g5380
sg64
(lp5392
S':'
asbag57
(g78
g59
NtRp5393
(dp5394
g62
(dp5395
sg71
g5380
sg64
(lp5396
g57
(g58
g59
NtRp5397
(dp5398
g62
(dp5399
g70
I5
ssg71
g5393
sg64
(lp5400
g3242
asbasbasbag57
(g73
g59
NtRp5401
(dp5402
g62
(dp5403
sg71
g3894
sg64
(lp5404
g57
(g78
g59
NtRp5405
(dp5406
g62
(dp5407
g82
g83
ssg71
g5401
sg64
(lp5408
S'status'
p5409
asbag57
(g78
g59
NtRp5410
(dp5411
g62
(dp5412
g89
g90
ssg71
g5401
sg64
(lp5413
S':'
asbag57
(g78
g59
NtRp5414
(dp5415
g62
(dp5416
sg71
g5401
sg64
(lp5417
g57
(g58
g59
NtRp5418
(dp5419
g62
(dp5420
g70
I5
ssg71
g5414
sg64
(lp5421
S'200'
p5422
asbasbasbag57
(g73
g59
NtRp5423
(dp5424
g62
(dp5425
sg71
g3894
sg64
(lp5426
g57
(g78
g59
NtRp5427
(dp5428
g62
(dp5429
g82
g83
ssg71
g5423
sg64
(lp5430
S'subtitle'
p5431
asbag57
(g78
g59
NtRp5432
(dp5433
g62
(dp5434
g89
g90
ssg71
g5423
sg64
(lp5435
S':'
asbag57
(g78
g59
NtRp5436
(dp5437
g62
(dp5438
sg71
g5423
sg64
(lp5439
g57
(g58
g59
NtRp5440
(dp5441
g62
(dp5442
g70
I5
ssg71
g5436
sg64
(lp5443
g4385
(S's\r\x00\x00\x00customize me!'
tRp5444
asbasbasbag57
(g73
g59
NtRp5445
(dp5446
g62
(dp5447
sg71
g3894
sg64
(lp5448
g57
(g78
g59
NtRp5449
(dp5450
g62
(dp5451
g82
g83
ssg71
g5445
sg64
(lp5452
S'title'
p5453
asbag57
(g78
g59
NtRp5454
(dp5455
g62
(dp5456
g89
g90
ssg71
g5445
sg64
(lp5457
S':'
asbag57
(g78
g59
NtRp5458
(dp5459
g62
(dp5460
sg71
g5445
sg64
(lp5461
g57
(g58
g59
NtRp5462
(dp5463
g62
(dp5464
g70
I5
ssg71
g5458
sg64
(lp5465
S'Betsy'
p5466
asbasbasbag57
(g73
g59
NtRp5467
(dp5468
g62
(dp5469
sg71
g3894
sg64
(lp5470
g57
(g78
g59
NtRp5471
(dp5472
g62
(dp5473
g82
g83
ssg71
g5467
sg64
(lp5474
S'view'
p5475
asbag57
(g78
g59
NtRp5476
(dp5477
g62
(dp5478
g89
g90
ssg71
g5467
sg64
(lp5479
S':'
asbag57
(g78
g59
NtRp5480
(dp5481
g62
(dp5482
sg71
g5467
sg64
(lp5483
g57
(g58
g59
NtRp5484
(dp5485
g62
(dp5486
g70
I5
ssg71
g5480
sg64
(lp5487
S'default/show_status.html'
p5488
asbasbasbasbasbsS'locals'
p5489
(dp5490
S'i'
S"''"
p5491
sS'process'
p5492
S'<subprocess.Popen object>'
p5493
sS'all_cmd'
p5494
S"['python', '/home/xchen/chencode/tmp/try_parallel/queue.py', '--list']"
p5495
sS'log_information'
p5496
S"['Jobnumber\\tJobname\\tStatus\\tStarted\\tEnded\\tSubmitted\\tCommand', '241\\tF8QMFC\\tkilled\\tNA\\t01/30/13:10:54:58\\t01/30/13:10:54:41\\tpython run_command.py', '242\\t1\\tkilled\\tNA\\t01/30/13:10:56:50\\t01/30/13:10:55:43\\tpython run_command.py', '243\\t1JCM7W\\tcompleted\\tNA\\t01/31/13:11:02:08\\t01/30/...o_fill --parameters preprocess:unknown_preprocess', '244\\tMD5OVN\\tcompleted\\tNA\\t01/31/13:11:02:08\\t01/30/...o_fill --parameters preprocess:unknown_preprocess', '245\\t2XXAAY\\tcompleted\\t01/31/13:11:02:08\\t01/31/13:...ble.myfile1.9c934921a246486e.6a6f627175657565.txt', '254\\tKQFWA9\\tcompleted\\tNA\\t02/04/13:15:52:33\\t01/31/...ble.myfile1.9c934921a246486e.6a6f627175657565.txt', '255\\t5O5TN9\\tcompleted\\tNA\\t02/04/13:15:52:33\\t01/31/...ble.myfile1.9c934921a246486e.6a6f627175657565.txt', '256\\t66OKZZ\\tcompleted\\tNA\\t02/04/13:15:52:33\\t01/31/...s,unknown_preprocess,predataset,no_predataset],A)']"
p5497
sS'subprocess'
p5498
S"<module 'subprocess' from '/usr/local/lib/python2.7/subprocess.pyc'>"
p5499
sssS'traceback'
p5500
S'Traceback (most recent call last):\n  File "/home/xchen/web2py/gluon/restricted.py", line 212, in restricted\n    exec ccode in environment\n  File "/home/xchen/web2py/applications/Betsy/controllers/default.py", line 155, in <module>\n  File "/home/xchen/web2py/gluon/globals.py", line 188, in <lambda>\n    self._caller = lambda f: f()\n  File "/home/xchen/web2py/applications/Betsy/controllers/default.py", line 53, in show_status\n    print db.status[Jobnumber]\nNameError: global name \'Jobnumber\' is not defined\n'
p5501
s.