(dp1
S'output'
p2
S"<type 'exceptions.OSError'> [Errno 2] No such file or directory: 'make_class_label_file_BETSYHASH1_f82033c6f0bfacd7a8100f653d008b19'"
p3
sS'layer'
p4
S'/home/xchen/web2py/applications/Betsy/controllers/default.py'
p5
sS'code'
p6
S'# -*- coding: utf-8 -*-\n\nupload_path = \'/home/xchen/chencode/upload/\'\n\ndef status():\n    return dict(request=request,session=session,response=response)\n\n@auth.requires_login()\ndef index():\n    import os\n    form_queue = FORM(INPUT(_type=\'submit\',_value=\'show jobs status\',_name=\'status\'))\n    result=dict(form_queue=form_queue)\n    for label in labels:\n        vars()[\'form_\'+ label]=FORM(INPUT(_type=\'submit\',_value=label,_name=label))\n        result[\'form_\'+ label]=vars()[\'form_\'+ label]\n    if form_queue.process(formname=\'status\').accepted:\n        redirect(URL(\'show_status\'))\n    for label in labels:\n         if vars()[\'form_\'+ label].process(formname=label).accepted:\n             session.label = label\n             request.args = [label]\n             redirect(URL(\'protocol\',args=request.args))\n    return result\n    \n\ndef protocol():\n    x = get_protocol_info(session.label)\n    protocol_parameters,protocol_inputs,protocol_default,protocol_common, protocol_normalize,protocol_option = x\n    fields = create_form(protocol_inputs,protocol_parameters,protocol_default)\n    form=SQLFORM.factory(*fields)\n    form_queue = FORM(INPUT(_type=\'submit\',_value=\'show jobs status\'))\n    if form.process().accepted:\n        form_value = form.vars\n        input_file,command_parameters = create_command(form_value)\n        session.parameters = command_parameters\n        session.input_file = input_file\n        session.protocol = session.label\n        redirect(URL(\'submit_job\'))\n    if form_queue.process().accepted:\n        redirect(URL(\'show_status\'))\n    return dict(form=form,form_queue=form_queue,protocol_label=session.label,\n                protocol_inputs=protocol_inputs,protocol_common=protocol_common,\n                protocol_normalize=protocol_normalize,protocol_option=protocol_option)\n    \n\ndef show_status():\n    import subprocess\n    all_cmd = [\'python\',\'/home/xchen/queue/queue.py\',\'--list\']    \n    process = subprocess.Popen(all_cmd, shell=False,\n                               stdout=subprocess.PIPE,\n                               stderr=subprocess.STDOUT)\n    process.wait()\n    log_information = process.stdout.read().split(\'\\n\')[1:]\n    log_information = [i for i in log_information if i]\n    for log_line in log_information:\n        lines = log_line.split(\'\\t\')\n        db.status.update_or_insert(db.status.Jobnumber==lines[0],Jobnumber=lines[0],\n                Jobname=lines[1], Status=lines[2], Started=lines[3],\n                Ended=lines[4],Submitted=lines[5],Command=lines[6],User=lines[7])\n    form=db().select(db.status.ALL)\n    return dict(form=form)\n\n    \n\ndef show_job():\n    "show a job page"\n    session.output=[]\n    show_status()\n    this_job = db.status(request.args(0)) or redirect(URL(\'index\'))\n    db.status.id.default=this_job.id\n    text = \'\'\n    newtext=\'\'\n    if  this_job.Status in [\'running\',\'completed\']:\n        hash_string = hash_command(this_job.Submitted,this_job.Command)\n        pro_file = os.path.join(\'/home/xchen/queue/processing_info/\', hash_string+\'.txt\')\n        f=file(pro_file,\'r\')\n        text = f.read().split(\'\\n\')\n        f.close()\n        newtext=text[:]\n        for i in range(len(text)):\n            if text[i].startswith(\'Report:\'):\n                text[i]=text[i][7:]\n            if os.path.exists(text[i].strip()):\n                newtext[i]=os.path.join(text[i].strip().split(\'/\')[-2:])\n            else:\n                newtext[i]=text[i]\n    info = \'Job is \' + this_job.Status\n    return dict(job=this_job,info=info,text=text,newtext=newtext,session=session)\n\n    \n\ndef submit_job():\n    import subprocess\n    import random\n    import string\n    jobname = \'\'.join(random.choice(string.ascii_uppercase+string.digits)\n                          for x in range(6))\n    cmd = [\'python\', \'/home/xchen/chencode/Betsy/scripts/run_protocol.py\', \n           \'--protocol\', session.protocol,\'--user\',str(auth.user.first_name+ auth.user.last_name),\'--job_name\',jobname] + session.input_file  + session.parameters\n    all_cmd = [\'python\',\'/home/xchen/queue/queue.py\' ,\'--user\',str(auth.user.first_name+ auth.user.last_name),\'-j\', jobname, \' \' .join(cmd)]\n    process = subprocess.Popen(all_cmd, shell=False,\n                               stdout=subprocess.PIPE,\n                               stderr=subprocess.STDOUT)    \n    process.wait()                      \n    redirect(URL(\'show_status\'))\n    return dict()\n\n    \ndef result_folder():\n    args = \'/\'.join(request.args)\n    path = os.path.join(\'/home/xchen/chencode/examples/sample_analysis\',args)\n    return open(path,\'rb\').read()\n\ndef delete_job():\n    delete_job_and_update(request.args(0))\n    redirect(URL(\'show_status\'))\n    \ndef user():\n    """\n    exposes:\n    http://..../[app]/default/user/login\n    http://..../[app]/default/user/logout\n    http://..../[app]/default/user/register\n    http://..../[app]/default/user/profile\n    http://..../[app]/default/user/retrieve_password\n    http://..../[app]/default/user/change_password\n    use @auth.requires_login()\n        @auth.requires_membership(\'group name\')\n        @auth.requires_permission(\'read\',\'table name\',record_id)\n    to decorate functions that need access control\n    """\n    return dict(form=auth())\n\ndef download():\n    """\n    allows downloading of uploaded file\n    http://..../[app]/default/download/[filename]\n    """\n    return response.download(request, db)\n\n   \ndef call():\n    """\n    exposes services. for example:\n    http://..../[app]/default/call/jsonrpc\n    decorate with @services.jsonrpc the functions to expose\n    supports xml, json, xmlrpc, jsonrpc, amfrpc, rss, csv\n    """\n    return service()\n\n\n@auth.requires_signature()\ndef data():\n    """\n    http://..../[app]/default/data/tables\n    http://..../[app]/default/data/create/[table]\n    http://..../[app]/default/data/read/[table]/[id]\n    http://..../[app]/default/data/update/[table]/[id]\n    http://..../[app]/default/data/delete/[table]/[id]\n    http://..../[app]/default/data/select/[table]\n    http://..../[app]/default/data/search/[table]\n    but URLs must be signed, i.e. linked with\n      A(\'table\',_href=URL(\'data/tables\',user_signature=True))\n    or with the signed load operator\n      LOAD(\'default\',\'data.load\',args=\'tables\',ajax=True,user_signature=True)\n    """\n    return dict(form=crud())\n\n \n\n#currently saved or to previous version.\n#Key bindings\n\n#    Ctrl+S Save via Ajax\n#    Ctrl+F11 Toggle Fullscreen\n#    Ctrl-F / Cmd-F Start searching\n#    Ctrl-G / Cmd-G Find Next\n#    Shift-Ctrl-G / Shift-Cmd-G Find Previous\n#    Shift-Ctrl-F / Cmd-Option-F Replace\n#    Shift-Ctrl-R / Shift-Cmd-Option-F Replace All\n\n#Powered by web2py\xe2\x84\xa2 created by Massimo Di Pierro \xc2\xa92007-2013 - Admin language\n\nresponse._vars=response._caller(delete_job)\n'
p7
sS'snapshot'
p8
(dp9
S'exception'
p10
(dp11
S'__getslice__'
p12
S"<method-wrapper '__getslice__' of exceptions.OSError object>"
p13
sS'__str__'
p14
S"<method-wrapper '__str__' of exceptions.OSError object>"
p15
sS'__reduce__'
p16
S'<built-in method __reduce__ of exceptions.OSError object>'
p17
sS'__dict__'
p18
S'{}'
p19
sS'__sizeof__'
p20
S'<built-in method __sizeof__ of exceptions.OSError object>'
p21
sS'__init__'
p22
S"<method-wrapper '__init__' of exceptions.OSError object>"
p23
sS'__setattr__'
p24
S"<method-wrapper '__setattr__' of exceptions.OSError object>"
p25
sS'__reduce_ex__'
p26
S'<built-in method __reduce_ex__ of exceptions.OSError object>'
p27
sS'__new__'
p28
S'<built-in method __new__ of type object>'
p29
sS'errno'
p30
S'2'
sS'__format__'
p31
S'<built-in method __format__ of exceptions.OSError object>'
p32
sS'__class__'
p33
S"<type 'exceptions.OSError'>"
p34
sS'filename'
p35
S"'make_class_label_file_BETSYHASH1_f82033c6f0bfacd7a8100f653d008b19'"
p36
sS'__doc__'
p37
S"'OS system call failed.'"
p38
sS'__getitem__'
p39
S"<method-wrapper '__getitem__' of exceptions.OSError object>"
p40
sS'__setstate__'
p41
S'<built-in method __setstate__ of exceptions.OSError object>'
p42
sS'__getattribute__'
p43
S"<method-wrapper '__getattribute__' of exceptions.OSError object>"
p44
sS'args'
p45
S"(2, 'No such file or directory')"
p46
sS'__subclasshook__'
p47
S'<built-in method __subclasshook__ of type object>'
p48
sS'__unicode__'
p49
S'<built-in method __unicode__ of exceptions.OSError object>'
p50
sS'strerror'
p51
S"'No such file or directory'"
p52
sS'__delattr__'
p53
S"<method-wrapper '__delattr__' of exceptions.OSError object>"
p54
sS'__repr__'
p55
S"<method-wrapper '__repr__' of exceptions.OSError object>"
p56
sS'__hash__'
p57
S"<method-wrapper '__hash__' of exceptions.OSError object>"
p58
ssS'evalue'
p59
S"[Errno 2] No such file or directory: 'make_class_label_file_BETSYHASH1_f82033c6f0bfacd7a8100f653d008b19'"
p60
sS'request'
p61
ccopy_reg
_reconstructor
p62
(cgluon.html
BEAUTIFY
p63
c__builtin__
object
p64
NtRp65
(dp66
S'attributes'
p67
(dp68
sS'components'
p69
(lp70
g62
(cgluon.html
TABLE
p71
g64
NtRp72
(dp73
g67
(dp74
S'level'
p75
I5
ssS'parent'
p76
Nsg69
(lp77
g62
(cgluon.html
TR
p78
g64
NtRp79
(dp80
g67
(dp81
sg76
g72
sg69
(lp82
g62
(cgluon.html
TD
p83
g64
NtRp84
(dp85
g67
(dp86
S'_style'
p87
S'font-weight:bold;vertical-align:top'
p88
ssg76
g79
sg69
(lp89
S'ajax'
p90
asbag62
(g83
g64
NtRp91
(dp92
g67
(dp93
S'_valign'
p94
S'top'
p95
ssg76
g79
sg69
(lp96
S':'
asbag62
(g83
g64
NtRp97
(dp98
g67
(dp99
sg76
g79
sg69
(lp100
g62
(g63
g64
NtRp101
(dp102
g67
(dp103
g75
I5
ssg76
g97
sg69
(lp104
S'False'
p105
asbasbasbag62
(g78
g64
NtRp106
(dp107
g67
(dp108
sg76
g72
sg69
(lp109
g62
(g83
g64
NtRp110
(dp111
g67
(dp112
g87
g88
ssg76
g106
sg69
(lp113
S'application'
p114
asbag62
(g83
g64
NtRp115
(dp116
g67
(dp117
g94
g95
ssg76
g106
sg69
(lp118
S':'
asbag62
(g83
g64
NtRp119
(dp120
g67
(dp121
sg76
g106
sg69
(lp122
g62
(g63
g64
NtRp123
(dp124
g67
(dp125
g75
I5
ssg76
g119
sg69
(lp126
S'Betsy'
p127
asbasbasbag62
(g78
g64
NtRp128
(dp129
g67
(dp130
sg76
g72
sg69
(lp131
g62
(g83
g64
NtRp132
(dp133
g67
(dp134
g87
g88
ssg76
g128
sg69
(lp135
g45
asbag62
(g83
g64
NtRp136
(dp137
g67
(dp138
g94
g95
ssg76
g128
sg69
(lp139
S':'
asbag62
(g83
g64
NtRp140
(dp141
g67
(dp142
sg76
g128
sg69
(lp143
g62
(g63
g64
NtRp144
(dp145
g67
(dp146
g75
I5
ssg76
g140
sg69
(lp147
g62
(g71
g64
NtRp148
(dp149
g67
(dp150
g75
I4
ssg76
Nsg69
(lp151
g62
(g78
g64
NtRp152
(dp153
g67
(dp154
sg76
g148
sg69
(lp155
g62
(g83
g64
NtRp156
(dp157
g67
(dp158
sg76
g152
sg69
(lp159
g62
(g63
g64
NtRp160
(dp161
g67
(dp162
g75
I4
ssg76
g156
sg69
(lp163
S'PQE41R'
p164
asbasbasbasbasbasbasbag62
(g78
g64
NtRp165
(dp166
g67
(dp167
sg76
g72
sg69
(lp168
g62
(g83
g64
NtRp169
(dp170
g67
(dp171
g87
g88
ssg76
g165
sg69
(lp172
S'body'
p173
asbag62
(g83
g64
NtRp174
(dp175
g67
(dp176
g94
g95
ssg76
g165
sg69
(lp177
S':'
asbag62
(g83
g64
NtRp178
(dp179
g67
(dp180
sg76
g165
sg69
(lp181
g62
(g63
g64
NtRp182
(dp183
g67
(dp184
g75
I5
ssg76
g178
sg69
(lp185
S'<cStringIO.StringO object at 0xb85bfb8>'
p186
asbasbasbag62
(g78
g64
NtRp187
(dp188
g67
(dp189
sg76
g72
sg69
(lp190
g62
(g83
g64
NtRp191
(dp192
g67
(dp193
g87
g88
ssg76
g187
sg69
(lp194
S'cid'
p195
asbag62
(g83
g64
NtRp196
(dp197
g67
(dp198
g94
g95
ssg76
g187
sg69
(lp199
S':'
asbag62
(g83
g64
NtRp200
(dp201
g67
(dp202
sg76
g187
sg69
(lp203
g62
(g63
g64
NtRp204
(dp205
g67
(dp206
g75
I5
ssg76
g200
sg69
(lp207
S'None'
p208
asbasbasbag62
(g78
g64
NtRp209
(dp210
g67
(dp211
sg76
g72
sg69
(lp212
g62
(g83
g64
NtRp213
(dp214
g67
(dp215
g87
g88
ssg76
g209
sg69
(lp216
S'client'
p217
asbag62
(g83
g64
NtRp218
(dp219
g67
(dp220
g94
g95
ssg76
g209
sg69
(lp221
S':'
asbag62
(g83
g64
NtRp222
(dp223
g67
(dp224
sg76
g209
sg69
(lp225
g62
(g63
g64
NtRp226
(dp227
g67
(dp228
g75
I5
ssg76
g222
sg69
(lp229
S'127.0.0.1'
p230
asbasbasbag62
(g78
g64
NtRp231
(dp232
g67
(dp233
sg76
g72
sg69
(lp234
g62
(g83
g64
NtRp235
(dp236
g67
(dp237
g87
g88
ssg76
g231
sg69
(lp238
S'controller'
p239
asbag62
(g83
g64
NtRp240
(dp241
g67
(dp242
g94
g95
ssg76
g231
sg69
(lp243
S':'
asbag62
(g83
g64
NtRp244
(dp245
g67
(dp246
sg76
g231
sg69
(lp247
g62
(g63
g64
NtRp248
(dp249
g67
(dp250
g75
I5
ssg76
g244
sg69
(lp251
S'default'
p252
asbasbasbag62
(g78
g64
NtRp253
(dp254
g67
(dp255
sg76
g72
sg69
(lp256
g62
(g83
g64
NtRp257
(dp258
g67
(dp259
g87
g88
ssg76
g253
sg69
(lp260
S'cookies'
p261
asbag62
(g83
g64
NtRp262
(dp263
g67
(dp264
g94
g95
ssg76
g253
sg69
(lp265
S':'
asbag62
(g83
g64
NtRp266
(dp267
g67
(dp268
sg76
g253
sg69
(lp269
g62
(g63
g64
NtRp270
(dp271
g67
(dp272
g75
I5
ssg76
g266
sg69
(lp273
g62
(g71
g64
NtRp274
(dp275
g67
(dp276
g75
I4
ssg76
Nsg69
(lp277
g62
(g78
g64
NtRp278
(dp279
g67
(dp280
sg76
g274
sg69
(lp281
g62
(g83
g64
NtRp282
(dp283
g67
(dp284
g87
g88
ssg76
g278
sg69
(lp285
S'session_id_admin'
p286
asbag62
(g83
g64
NtRp287
(dp288
g67
(dp289
g94
g95
ssg76
g278
sg69
(lp290
S':'
asbag62
(g83
g64
NtRp291
(dp292
g67
(dp293
sg76
g278
sg69
(lp294
g62
(g63
g64
NtRp295
(dp296
g67
(dp297
g75
I4
ssg76
g291
sg69
(lp298
S'127.0.0.1-bb27f430-6997-4993-b688-73c3bf69482f'
p299
ag62
(g71
g64
NtRp300
(dp301
g67
(dp302
g75
I3
ssg76
Nsg69
(lp303
g62
(g78
g64
NtRp304
(dp305
g67
(dp306
sg76
g300
sg69
(lp307
g62
(g83
g64
NtRp308
(dp309
g67
(dp310
g87
g88
ssg76
g304
sg69
(lp311
S'comment'
p312
asbag62
(g83
g64
NtRp313
(dp314
g67
(dp315
g94
g95
ssg76
g304
sg69
(lp316
S':'
asbag62
(g83
g64
NtRp317
(dp318
g67
(dp319
sg76
g304
sg69
(lp320
g62
(g63
g64
NtRp321
(dp322
g67
(dp323
g75
I3
ssg76
g317
sg69
(lp324
S''
asbasbasbag62
(g78
g64
NtRp325
(dp326
g67
(dp327
sg76
g300
sg69
(lp328
g62
(g83
g64
NtRp329
(dp330
g67
(dp331
g87
g88
ssg76
g325
sg69
(lp332
S'domain'
p333
asbag62
(g83
g64
NtRp334
(dp335
g67
(dp336
g94
g95
ssg76
g325
sg69
(lp337
S':'
asbag62
(g83
g64
NtRp338
(dp339
g67
(dp340
sg76
g325
sg69
(lp341
g62
(g63
g64
NtRp342
(dp343
g67
(dp344
g75
I3
ssg76
g338
sg69
(lp345
S''
asbasbasbag62
(g78
g64
NtRp346
(dp347
g67
(dp348
sg76
g300
sg69
(lp349
g62
(g83
g64
NtRp350
(dp351
g67
(dp352
g87
g88
ssg76
g346
sg69
(lp353
S'expires'
p354
asbag62
(g83
g64
NtRp355
(dp356
g67
(dp357
g94
g95
ssg76
g346
sg69
(lp358
S':'
asbag62
(g83
g64
NtRp359
(dp360
g67
(dp361
sg76
g346
sg69
(lp362
g62
(g63
g64
NtRp363
(dp364
g67
(dp365
g75
I3
ssg76
g359
sg69
(lp366
S''
asbasbasbag62
(g78
g64
NtRp367
(dp368
g67
(dp369
sg76
g300
sg69
(lp370
g62
(g83
g64
NtRp371
(dp372
g67
(dp373
g87
g88
ssg76
g367
sg69
(lp374
S'httponly'
p375
asbag62
(g83
g64
NtRp376
(dp377
g67
(dp378
g94
g95
ssg76
g367
sg69
(lp379
S':'
asbag62
(g83
g64
NtRp380
(dp381
g67
(dp382
sg76
g367
sg69
(lp383
g62
(g63
g64
NtRp384
(dp385
g67
(dp386
g75
I3
ssg76
g380
sg69
(lp387
S''
asbasbasbag62
(g78
g64
NtRp388
(dp389
g67
(dp390
sg76
g300
sg69
(lp391
g62
(g83
g64
NtRp392
(dp393
g67
(dp394
g87
g88
ssg76
g388
sg69
(lp395
S'max-age'
p396
asbag62
(g83
g64
NtRp397
(dp398
g67
(dp399
g94
g95
ssg76
g388
sg69
(lp400
S':'
asbag62
(g83
g64
NtRp401
(dp402
g67
(dp403
sg76
g388
sg69
(lp404
g62
(g63
g64
NtRp405
(dp406
g67
(dp407
g75
I3
ssg76
g401
sg69
(lp408
S''
asbasbasbag62
(g78
g64
NtRp409
(dp410
g67
(dp411
sg76
g300
sg69
(lp412
g62
(g83
g64
NtRp413
(dp414
g67
(dp415
g87
g88
ssg76
g409
sg69
(lp416
S'path'
p417
asbag62
(g83
g64
NtRp418
(dp419
g67
(dp420
g94
g95
ssg76
g409
sg69
(lp421
S':'
asbag62
(g83
g64
NtRp422
(dp423
g67
(dp424
sg76
g409
sg69
(lp425
g62
(g63
g64
NtRp426
(dp427
g67
(dp428
g75
I3
ssg76
g422
sg69
(lp429
S''
asbasbasbag62
(g78
g64
NtRp430
(dp431
g67
(dp432
sg76
g300
sg69
(lp433
g62
(g83
g64
NtRp434
(dp435
g67
(dp436
g87
g88
ssg76
g430
sg69
(lp437
S'secure'
p438
asbag62
(g83
g64
NtRp439
(dp440
g67
(dp441
g94
g95
ssg76
g430
sg69
(lp442
S':'
asbag62
(g83
g64
NtRp443
(dp444
g67
(dp445
sg76
g430
sg69
(lp446
g62
(g63
g64
NtRp447
(dp448
g67
(dp449
g75
I3
ssg76
g443
sg69
(lp450
S''
asbasbasbag62
(g78
g64
NtRp451
(dp452
g67
(dp453
sg76
g300
sg69
(lp454
g62
(g83
g64
NtRp455
(dp456
g67
(dp457
g87
g88
ssg76
g451
sg69
(lp458
S'version'
p459
asbag62
(g83
g64
NtRp460
(dp461
g67
(dp462
g94
g95
ssg76
g451
sg69
(lp463
S':'
asbag62
(g83
g64
NtRp464
(dp465
g67
(dp466
sg76
g451
sg69
(lp467
g62
(g63
g64
NtRp468
(dp469
g67
(dp470
g75
I3
ssg76
g464
sg69
(lp471
S''
asbasbasbasbasbasbasbag62
(g78
g64
NtRp472
(dp473
g67
(dp474
sg76
g274
sg69
(lp475
g62
(g83
g64
NtRp476
(dp477
g67
(dp478
g87
g88
ssg76
g472
sg69
(lp479
S'session_id_betsy'
p480
asbag62
(g83
g64
NtRp481
(dp482
g67
(dp483
g94
g95
ssg76
g472
sg69
(lp484
S':'
asbag62
(g83
g64
NtRp485
(dp486
g67
(dp487
sg76
g472
sg69
(lp488
g62
(g63
g64
NtRp489
(dp490
g67
(dp491
g75
I4
ssg76
g485
sg69
(lp492
S'127.0.0.1-28de7f74-6808-41d8-9f31-19d3ff63ec0f'
p493
ag62
(g71
g64
NtRp494
(dp495
g67
(dp496
g75
I3
ssg76
Nsg69
(lp497
g62
(g78
g64
NtRp498
(dp499
g67
(dp500
sg76
g494
sg69
(lp501
g62
(g83
g64
NtRp502
(dp503
g67
(dp504
g87
g88
ssg76
g498
sg69
(lp505
g312
asbag62
(g83
g64
NtRp506
(dp507
g67
(dp508
g94
g95
ssg76
g498
sg69
(lp509
S':'
asbag62
(g83
g64
NtRp510
(dp511
g67
(dp512
sg76
g498
sg69
(lp513
g62
(g63
g64
NtRp514
(dp515
g67
(dp516
g75
I3
ssg76
g510
sg69
(lp517
S''
asbasbasbag62
(g78
g64
NtRp518
(dp519
g67
(dp520
sg76
g494
sg69
(lp521
g62
(g83
g64
NtRp522
(dp523
g67
(dp524
g87
g88
ssg76
g518
sg69
(lp525
g333
asbag62
(g83
g64
NtRp526
(dp527
g67
(dp528
g94
g95
ssg76
g518
sg69
(lp529
S':'
asbag62
(g83
g64
NtRp530
(dp531
g67
(dp532
sg76
g518
sg69
(lp533
g62
(g63
g64
NtRp534
(dp535
g67
(dp536
g75
I3
ssg76
g530
sg69
(lp537
S''
asbasbasbag62
(g78
g64
NtRp538
(dp539
g67
(dp540
sg76
g494
sg69
(lp541
g62
(g83
g64
NtRp542
(dp543
g67
(dp544
g87
g88
ssg76
g538
sg69
(lp545
g354
asbag62
(g83
g64
NtRp546
(dp547
g67
(dp548
g94
g95
ssg76
g538
sg69
(lp549
S':'
asbag62
(g83
g64
NtRp550
(dp551
g67
(dp552
sg76
g538
sg69
(lp553
g62
(g63
g64
NtRp554
(dp555
g67
(dp556
g75
I3
ssg76
g550
sg69
(lp557
S''
asbasbasbag62
(g78
g64
NtRp558
(dp559
g67
(dp560
sg76
g494
sg69
(lp561
g62
(g83
g64
NtRp562
(dp563
g67
(dp564
g87
g88
ssg76
g558
sg69
(lp565
g375
asbag62
(g83
g64
NtRp566
(dp567
g67
(dp568
g94
g95
ssg76
g558
sg69
(lp569
S':'
asbag62
(g83
g64
NtRp570
(dp571
g67
(dp572
sg76
g558
sg69
(lp573
g62
(g63
g64
NtRp574
(dp575
g67
(dp576
g75
I3
ssg76
g570
sg69
(lp577
S''
asbasbasbag62
(g78
g64
NtRp578
(dp579
g67
(dp580
sg76
g494
sg69
(lp581
g62
(g83
g64
NtRp582
(dp583
g67
(dp584
g87
g88
ssg76
g578
sg69
(lp585
g396
asbag62
(g83
g64
NtRp586
(dp587
g67
(dp588
g94
g95
ssg76
g578
sg69
(lp589
S':'
asbag62
(g83
g64
NtRp590
(dp591
g67
(dp592
sg76
g578
sg69
(lp593
g62
(g63
g64
NtRp594
(dp595
g67
(dp596
g75
I3
ssg76
g590
sg69
(lp597
S''
asbasbasbag62
(g78
g64
NtRp598
(dp599
g67
(dp600
sg76
g494
sg69
(lp601
g62
(g83
g64
NtRp602
(dp603
g67
(dp604
g87
g88
ssg76
g598
sg69
(lp605
g417
asbag62
(g83
g64
NtRp606
(dp607
g67
(dp608
g94
g95
ssg76
g598
sg69
(lp609
S':'
asbag62
(g83
g64
NtRp610
(dp611
g67
(dp612
sg76
g598
sg69
(lp613
g62
(g63
g64
NtRp614
(dp615
g67
(dp616
g75
I3
ssg76
g610
sg69
(lp617
S''
asbasbasbag62
(g78
g64
NtRp618
(dp619
g67
(dp620
sg76
g494
sg69
(lp621
g62
(g83
g64
NtRp622
(dp623
g67
(dp624
g87
g88
ssg76
g618
sg69
(lp625
g438
asbag62
(g83
g64
NtRp626
(dp627
g67
(dp628
g94
g95
ssg76
g618
sg69
(lp629
S':'
asbag62
(g83
g64
NtRp630
(dp631
g67
(dp632
sg76
g618
sg69
(lp633
g62
(g63
g64
NtRp634
(dp635
g67
(dp636
g75
I3
ssg76
g630
sg69
(lp637
S''
asbasbasbag62
(g78
g64
NtRp638
(dp639
g67
(dp640
sg76
g494
sg69
(lp641
g62
(g83
g64
NtRp642
(dp643
g67
(dp644
g87
g88
ssg76
g638
sg69
(lp645
g459
asbag62
(g83
g64
NtRp646
(dp647
g67
(dp648
g94
g95
ssg76
g638
sg69
(lp649
S':'
asbag62
(g83
g64
NtRp650
(dp651
g67
(dp652
sg76
g638
sg69
(lp653
g62
(g63
g64
NtRp654
(dp655
g67
(dp656
g75
I3
ssg76
g650
sg69
(lp657
S''
asbasbasbasbasbasbasbasbasbasbasbag62
(g78
g64
NtRp658
(dp659
g67
(dp660
sg76
g72
sg69
(lp661
g62
(g83
g64
NtRp662
(dp663
g67
(dp664
g87
g88
ssg76
g658
sg69
(lp665
S'env'
p666
asbag62
(g83
g64
NtRp667
(dp668
g67
(dp669
g94
g95
ssg76
g658
sg69
(lp670
S':'
asbag62
(g83
g64
NtRp671
(dp672
g67
(dp673
sg76
g658
sg69
(lp674
g62
(g63
g64
NtRp675
(dp676
g67
(dp677
g75
I5
ssg76
g671
sg69
(lp678
g62
(g71
g64
NtRp679
(dp680
g67
(dp681
g75
I4
ssg76
Nsg69
(lp682
g62
(g78
g64
NtRp683
(dp684
g67
(dp685
sg76
g679
sg69
(lp686
g62
(g83
g64
NtRp687
(dp688
g67
(dp689
g87
g88
ssg76
g683
sg69
(lp690
S'app_folders'
p691
asbag62
(g83
g64
NtRp692
(dp693
g67
(dp694
g94
g95
ssg76
g683
sg69
(lp695
S':'
asbag62
(g83
g64
NtRp696
(dp697
g67
(dp698
sg76
g683
sg69
(lp699
g62
(g63
g64
NtRp700
(dp701
g67
(dp702
g75
I4
ssg76
g696
sg69
(lp703
S"set(['/home/xchen/web2py/applications/Betsy/', '/home/xchen/web2py/applications/admin/'])"
p704
asbasbasbag62
(g78
g64
NtRp705
(dp706
g67
(dp707
sg76
g679
sg69
(lp708
g62
(g83
g64
NtRp709
(dp710
g67
(dp711
g87
g88
ssg76
g705
sg69
(lp712
S'applications_parent'
p713
asbag62
(g83
g64
NtRp714
(dp715
g67
(dp716
g94
g95
ssg76
g705
sg69
(lp717
S':'
asbag62
(g83
g64
NtRp718
(dp719
g67
(dp720
sg76
g705
sg69
(lp721
g62
(g63
g64
NtRp722
(dp723
g67
(dp724
g75
I4
ssg76
g718
sg69
(lp725
S'/home/xchen/web2py'
p726
asbasbasbag62
(g78
g64
NtRp727
(dp728
g67
(dp729
sg76
g679
sg69
(lp730
g62
(g83
g64
NtRp731
(dp732
g67
(dp733
g87
g88
ssg76
g727
sg69
(lp734
S'cmd_args'
p735
asbag62
(g83
g64
NtRp736
(dp737
g67
(dp738
g94
g95
ssg76
g727
sg69
(lp739
S':'
asbag62
(g83
g64
NtRp740
(dp741
g67
(dp742
sg76
g727
sg69
(lp743
g62
(g63
g64
NtRp744
(dp745
g67
(dp746
g75
I4
ssg76
g740
sg69
(lp747
g62
(g71
g64
NtRp748
(dp749
g67
(dp750
g75
I3
ssg76
Nsg69
(lp751
sbasbasbasbag62
(g78
g64
NtRp752
(dp753
g67
(dp754
sg76
g679
sg69
(lp755
g62
(g83
g64
NtRp756
(dp757
g67
(dp758
g87
g88
ssg76
g752
sg69
(lp759
S'cmd_options'
p760
asbag62
(g83
g64
NtRp761
(dp762
g67
(dp763
g94
g95
ssg76
g752
sg69
(lp764
S':'
asbag62
(g83
g64
NtRp765
(dp766
g67
(dp767
sg76
g752
sg69
(lp768
g62
(g63
g64
NtRp769
(dp770
g67
(dp771
g75
I4
ssg76
g765
sg69
(lp772
S"<Values at 0x9b8de18: {'verbose': False, 'ip': '127.0.0.1', 'with_scheduler': False, 'ips': [], 'shutdown_timeout': 5, 'taskbar': False, 'port': 8080, 'maxthreads': None, 'softcron': False, 'server_name': 'unicron.shis.uth.tmc.edu', 'bpython': False, 'nogui': False, 'pid_filename': 'httpserver.pid', 'extcron': False, 'runcron': False, 'run_system_tests': False, 'test': None, 'folder': '/home/xchen/web2py', 'config': '', 'minthreads': None, 'winservice': '', 'shell': None, 'run': '', 'log_filename': 'httpserver.log', 'debuglevel': 30, 'args': [''], 'socket_timeout': 5, 'ssl_ca_certificate': None, 'scheduler': None, 'profiler_filename': None, 'ssl_private_key': '', 'scheduler_groups': None, 'password': 'baby2008', 'request_queue_size': 5, 'ssl_certificate': '', 'cronjob': False, 'numthreads': None, 'quiet': False, 'interfaces': None, 'import_models': False, 'timeout': 10, 'plain': False, 'nobanner': False}>"
p773
asbasbasbag62
(g78
g64
NtRp774
(dp775
g67
(dp776
sg76
g679
sg69
(lp777
g62
(g83
g64
NtRp778
(dp779
g67
(dp780
g87
g88
ssg76
g774
sg69
(lp781
S'db_sessions'
p782
asbag62
(g83
g64
NtRp783
(dp784
g67
(dp785
g94
g95
ssg76
g774
sg69
(lp786
S':'
asbag62
(g83
g64
NtRp787
(dp788
g67
(dp789
sg76
g774
sg69
(lp790
g62
(g63
g64
NtRp791
(dp792
g67
(dp793
g75
I4
ssg76
g787
sg69
(lp794
S'set([])'
p795
asbasbasbag62
(g78
g64
NtRp796
(dp797
g67
(dp798
sg76
g679
sg69
(lp799
g62
(g83
g64
NtRp800
(dp801
g67
(dp802
g87
g88
ssg76
g796
sg69
(lp803
S'debugging'
p804
asbag62
(g83
g64
NtRp805
(dp806
g67
(dp807
g94
g95
ssg76
g796
sg69
(lp808
S':'
asbag62
(g83
g64
NtRp809
(dp810
g67
(dp811
sg76
g796
sg69
(lp812
g62
(g63
g64
NtRp813
(dp814
g67
(dp815
g75
I4
ssg76
g809
sg69
(lp816
g105
asbasbasbag62
(g78
g64
NtRp817
(dp818
g67
(dp819
sg76
g679
sg69
(lp820
g62
(g83
g64
NtRp821
(dp822
g67
(dp823
g87
g88
ssg76
g817
sg69
(lp824
S'gluon_parent'
p825
asbag62
(g83
g64
NtRp826
(dp827
g67
(dp828
g94
g95
ssg76
g817
sg69
(lp829
S':'
asbag62
(g83
g64
NtRp830
(dp831
g67
(dp832
sg76
g817
sg69
(lp833
g62
(g63
g64
NtRp834
(dp835
g67
(dp836
g75
I4
ssg76
g830
sg69
(lp837
S'/home/xchen/web2py'
p838
asbasbasbag62
(g78
g64
NtRp839
(dp840
g67
(dp841
sg76
g679
sg69
(lp842
g62
(g83
g64
NtRp843
(dp844
g67
(dp845
g87
g88
ssg76
g839
sg69
(lp846
S'http_accept'
p847
asbag62
(g83
g64
NtRp848
(dp849
g67
(dp850
g94
g95
ssg76
g839
sg69
(lp851
S':'
asbag62
(g83
g64
NtRp852
(dp853
g67
(dp854
sg76
g839
sg69
(lp855
g62
(g63
g64
NtRp856
(dp857
g67
(dp858
g75
I4
ssg76
g852
sg69
(lp859
S'text/html,application/xhtml+xml,application/xml;q=0.9,*/*;q=0.8'
p860
asbasbasbag62
(g78
g64
NtRp861
(dp862
g67
(dp863
sg76
g679
sg69
(lp864
g62
(g83
g64
NtRp865
(dp866
g67
(dp867
g87
g88
ssg76
g861
sg69
(lp868
S'http_accept_encoding'
p869
asbag62
(g83
g64
NtRp870
(dp871
g67
(dp872
g94
g95
ssg76
g861
sg69
(lp873
S':'
asbag62
(g83
g64
NtRp874
(dp875
g67
(dp876
sg76
g861
sg69
(lp877
g62
(g63
g64
NtRp878
(dp879
g67
(dp880
g75
I4
ssg76
g874
sg69
(lp881
S'gzip, deflate'
p882
asbasbasbag62
(g78
g64
NtRp883
(dp884
g67
(dp885
sg76
g679
sg69
(lp886
g62
(g83
g64
NtRp887
(dp888
g67
(dp889
g87
g88
ssg76
g883
sg69
(lp890
S'http_accept_language'
p891
asbag62
(g83
g64
NtRp892
(dp893
g67
(dp894
g94
g95
ssg76
g883
sg69
(lp895
S':'
asbag62
(g83
g64
NtRp896
(dp897
g67
(dp898
sg76
g883
sg69
(lp899
g62
(g63
g64
NtRp900
(dp901
g67
(dp902
g75
I4
ssg76
g896
sg69
(lp903
S'en-US,en;q=0.5'
p904
asbasbasbag62
(g78
g64
NtRp905
(dp906
g67
(dp907
sg76
g679
sg69
(lp908
g62
(g83
g64
NtRp909
(dp910
g67
(dp911
g87
g88
ssg76
g905
sg69
(lp912
S'http_connection'
p913
asbag62
(g83
g64
NtRp914
(dp915
g67
(dp916
g94
g95
ssg76
g905
sg69
(lp917
S':'
asbag62
(g83
g64
NtRp918
(dp919
g67
(dp920
sg76
g905
sg69
(lp921
g62
(g63
g64
NtRp922
(dp923
g67
(dp924
g75
I4
ssg76
g918
sg69
(lp925
S'keep-alive'
p926
asbasbasbag62
(g78
g64
NtRp927
(dp928
g67
(dp929
sg76
g679
sg69
(lp930
g62
(g83
g64
NtRp931
(dp932
g67
(dp933
g87
g88
ssg76
g927
sg69
(lp934
S'http_cookie'
p935
asbag62
(g83
g64
NtRp936
(dp937
g67
(dp938
g94
g95
ssg76
g927
sg69
(lp939
S':'
asbag62
(g83
g64
NtRp940
(dp941
g67
(dp942
sg76
g927
sg69
(lp943
g62
(g63
g64
NtRp944
(dp945
g67
(dp946
g75
I4
ssg76
g940
sg69
(lp947
S'session_id_betsy=127.0.0.1-28de7f74-6808-41d8-9f31-19d3ff63ec0f; session_id_admin=127.0.0.1-bb27f430-6997-4993-b688-73c3bf69482f'
p948
asbasbasbag62
(g78
g64
NtRp949
(dp950
g67
(dp951
sg76
g679
sg69
(lp952
g62
(g83
g64
NtRp953
(dp954
g67
(dp955
g87
g88
ssg76
g949
sg69
(lp956
S'http_host'
p957
asbag62
(g83
g64
NtRp958
(dp959
g67
(dp960
g94
g95
ssg76
g949
sg69
(lp961
S':'
asbag62
(g83
g64
NtRp962
(dp963
g67
(dp964
sg76
g949
sg69
(lp965
g62
(g63
g64
NtRp966
(dp967
g67
(dp968
g75
I4
ssg76
g962
sg69
(lp969
S'localhost:8080'
p970
asbasbasbag62
(g78
g64
NtRp971
(dp972
g67
(dp973
sg76
g679
sg69
(lp974
g62
(g83
g64
NtRp975
(dp976
g67
(dp977
g87
g88
ssg76
g971
sg69
(lp978
S'http_referer'
p979
asbag62
(g83
g64
NtRp980
(dp981
g67
(dp982
g94
g95
ssg76
g971
sg69
(lp983
S':'
asbag62
(g83
g64
NtRp984
(dp985
g67
(dp986
sg76
g971
sg69
(lp987
g62
(g63
g64
NtRp988
(dp989
g67
(dp990
g75
I4
ssg76
g984
sg69
(lp991
S'http://localhost:8080/Betsy/default/show_status'
p992
asbasbasbag62
(g78
g64
NtRp993
(dp994
g67
(dp995
sg76
g679
sg69
(lp996
g62
(g83
g64
NtRp997
(dp998
g67
(dp999
g87
g88
ssg76
g993
sg69
(lp1000
S'http_user_agent'
p1001
asbag62
(g83
g64
NtRp1002
(dp1003
g67
(dp1004
g94
g95
ssg76
g993
sg69
(lp1005
S':'
asbag62
(g83
g64
NtRp1006
(dp1007
g67
(dp1008
sg76
g993
sg69
(lp1009
g62
(g63
g64
NtRp1010
(dp1011
g67
(dp1012
g75
I4
ssg76
g1006
sg69
(lp1013
S'Mozilla/5.0 (Macintosh; Intel Mac OS X 10.6; rv:19.0) Gecko/20100101 Firefox/19.0'
p1014
asbasbasbag62
(g78
g64
NtRp1015
(dp1016
g67
(dp1017
sg76
g679
sg69
(lp1018
g62
(g83
g64
NtRp1019
(dp1020
g67
(dp1021
g87
g88
ssg76
g1015
sg69
(lp1022
S'is_jython'
p1023
asbag62
(g83
g64
NtRp1024
(dp1025
g67
(dp1026
g94
g95
ssg76
g1015
sg69
(lp1027
S':'
asbag62
(g83
g64
NtRp1028
(dp1029
g67
(dp1030
sg76
g1015
sg69
(lp1031
g62
(g63
g64
NtRp1032
(dp1033
g67
(dp1034
g75
I4
ssg76
g1028
sg69
(lp1035
g105
asbasbasbag62
(g78
g64
NtRp1036
(dp1037
g67
(dp1038
sg76
g679
sg69
(lp1039
g62
(g83
g64
NtRp1040
(dp1041
g67
(dp1042
g87
g88
ssg76
g1036
sg69
(lp1043
S'is_pypy'
p1044
asbag62
(g83
g64
NtRp1045
(dp1046
g67
(dp1047
g94
g95
ssg76
g1036
sg69
(lp1048
S':'
asbag62
(g83
g64
NtRp1049
(dp1050
g67
(dp1051
sg76
g1036
sg69
(lp1052
g62
(g63
g64
NtRp1053
(dp1054
g67
(dp1055
g75
I4
ssg76
g1049
sg69
(lp1056
g105
asbasbasbag62
(g78
g64
NtRp1057
(dp1058
g67
(dp1059
sg76
g679
sg69
(lp1060
g62
(g83
g64
NtRp1061
(dp1062
g67
(dp1063
g87
g88
ssg76
g1057
sg69
(lp1064
S'local_hosts'
p1065
asbag62
(g83
g64
NtRp1066
(dp1067
g67
(dp1068
g94
g95
ssg76
g1057
sg69
(lp1069
S':'
asbag62
(g83
g64
NtRp1070
(dp1071
g67
(dp1072
sg76
g1057
sg69
(lp1073
g62
(g63
g64
NtRp1074
(dp1075
g67
(dp1076
g75
I4
ssg76
g1070
sg69
(lp1077
g62
(g71
g64
NtRp1078
(dp1079
g67
(dp1080
g75
I3
ssg76
Nsg69
(lp1081
g62
(g78
g64
NtRp1082
(dp1083
g67
(dp1084
sg76
g1078
sg69
(lp1085
g62
(g83
g64
NtRp1086
(dp1087
g67
(dp1088
sg76
g1082
sg69
(lp1089
g62
(g63
g64
NtRp1090
(dp1091
g67
(dp1092
g75
I3
ssg76
g1086
sg69
(lp1093
S'127.0.0.1'
p1094
asbasbasbag62
(g78
g64
NtRp1095
(dp1096
g67
(dp1097
sg76
g1078
sg69
(lp1098
g62
(g83
g64
NtRp1099
(dp1100
g67
(dp1101
sg76
g1095
sg69
(lp1102
g62
(g63
g64
NtRp1103
(dp1104
g67
(dp1105
g75
I3
ssg76
g1099
sg69
(lp1106
S'::ffff:127.0.0.1'
p1107
asbasbasbag62
(g78
g64
NtRp1108
(dp1109
g67
(dp1110
sg76
g1078
sg69
(lp1111
g62
(g83
g64
NtRp1112
(dp1113
g67
(dp1114
sg76
g1108
sg69
(lp1115
g62
(g63
g64
NtRp1116
(dp1117
g67
(dp1118
g75
I3
ssg76
g1112
sg69
(lp1119
S'unicron.shis.uth.tmc.edu'
p1120
asbasbasbag62
(g78
g64
NtRp1121
(dp1122
g67
(dp1123
sg76
g1078
sg69
(lp1124
g62
(g83
g64
NtRp1125
(dp1126
g67
(dp1127
sg76
g1121
sg69
(lp1128
g62
(g63
g64
NtRp1129
(dp1130
g67
(dp1131
g75
I3
ssg76
g1125
sg69
(lp1132
S'unicron.shis.uth.tmc.edu'
p1133
asbasbasbag62
(g78
g64
NtRp1134
(dp1135
g67
(dp1136
sg76
g1078
sg69
(lp1137
g62
(g83
g64
NtRp1138
(dp1139
g67
(dp1140
sg76
g1134
sg69
(lp1141
g62
(g63
g64
NtRp1142
(dp1143
g67
(dp1144
g75
I3
ssg76
g1138
sg69
(lp1145
S'127.0.0.1'
p1146
asbasbasbasbasbasbasbag62
(g78
g64
NtRp1147
(dp1148
g67
(dp1149
sg76
g679
sg69
(lp1150
g62
(g83
g64
NtRp1151
(dp1152
g67
(dp1153
g87
g88
ssg76
g1147
sg69
(lp1154
S'path_info'
p1155
asbag62
(g83
g64
NtRp1156
(dp1157
g67
(dp1158
g94
g95
ssg76
g1147
sg69
(lp1159
S':'
asbag62
(g83
g64
NtRp1160
(dp1161
g67
(dp1162
sg76
g1147
sg69
(lp1163
g62
(g63
g64
NtRp1164
(dp1165
g67
(dp1166
g75
I4
ssg76
g1160
sg69
(lp1167
S'/Betsy/default/delete_job/PQE41R'
p1168
asbasbasbag62
(g78
g64
NtRp1169
(dp1170
g67
(dp1171
sg76
g679
sg69
(lp1172
g62
(g83
g64
NtRp1173
(dp1174
g67
(dp1175
g87
g88
ssg76
g1169
sg69
(lp1176
S'query_string'
p1177
asbag62
(g83
g64
NtRp1178
(dp1179
g67
(dp1180
g94
g95
ssg76
g1169
sg69
(lp1181
S':'
asbag62
(g83
g64
NtRp1182
(dp1183
g67
(dp1184
sg76
g1169
sg69
(lp1185
g62
(g63
g64
NtRp1186
(dp1187
g67
(dp1188
g75
I4
ssg76
g1182
sg69
(lp1189
S''
asbasbasbag62
(g78
g64
NtRp1190
(dp1191
g67
(dp1192
sg76
g679
sg69
(lp1193
g62
(g83
g64
NtRp1194
(dp1195
g67
(dp1196
g87
g88
ssg76
g1190
sg69
(lp1197
S'remote_addr'
p1198
asbag62
(g83
g64
NtRp1199
(dp1200
g67
(dp1201
g94
g95
ssg76
g1190
sg69
(lp1202
S':'
asbag62
(g83
g64
NtRp1203
(dp1204
g67
(dp1205
sg76
g1190
sg69
(lp1206
g62
(g63
g64
NtRp1207
(dp1208
g67
(dp1209
g75
I4
ssg76
g1203
sg69
(lp1210
g230
asbasbasbag62
(g78
g64
NtRp1211
(dp1212
g67
(dp1213
sg76
g679
sg69
(lp1214
g62
(g83
g64
NtRp1215
(dp1216
g67
(dp1217
g87
g88
ssg76
g1211
sg69
(lp1218
S'remote_port'
p1219
asbag62
(g83
g64
NtRp1220
(dp1221
g67
(dp1222
g94
g95
ssg76
g1211
sg69
(lp1223
S':'
asbag62
(g83
g64
NtRp1224
(dp1225
g67
(dp1226
sg76
g1211
sg69
(lp1227
g62
(g63
g64
NtRp1228
(dp1229
g67
(dp1230
g75
I4
ssg76
g1224
sg69
(lp1231
S'60705'
p1232
asbasbasbag62
(g78
g64
NtRp1233
(dp1234
g67
(dp1235
sg76
g679
sg69
(lp1236
g62
(g83
g64
NtRp1237
(dp1238
g67
(dp1239
g87
g88
ssg76
g1233
sg69
(lp1240
S'request_method'
p1241
asbag62
(g83
g64
NtRp1242
(dp1243
g67
(dp1244
g94
g95
ssg76
g1233
sg69
(lp1245
S':'
asbag62
(g83
g64
NtRp1246
(dp1247
g67
(dp1248
sg76
g1233
sg69
(lp1249
g62
(g63
g64
NtRp1250
(dp1251
g67
(dp1252
g75
I4
ssg76
g1246
sg69
(lp1253
S'GET'
p1254
asbasbasbag62
(g78
g64
NtRp1255
(dp1256
g67
(dp1257
sg76
g679
sg69
(lp1258
g62
(g83
g64
NtRp1259
(dp1260
g67
(dp1261
g87
g88
ssg76
g1255
sg69
(lp1262
S'request_uri'
p1263
asbag62
(g83
g64
NtRp1264
(dp1265
g67
(dp1266
g94
g95
ssg76
g1255
sg69
(lp1267
S':'
asbag62
(g83
g64
NtRp1268
(dp1269
g67
(dp1270
sg76
g1255
sg69
(lp1271
g62
(g63
g64
NtRp1272
(dp1273
g67
(dp1274
g75
I4
ssg76
g1268
sg69
(lp1275
g1168
asbasbasbag62
(g78
g64
NtRp1276
(dp1277
g67
(dp1278
sg76
g679
sg69
(lp1279
g62
(g83
g64
NtRp1280
(dp1281
g67
(dp1282
g87
g88
ssg76
g1276
sg69
(lp1283
S'script_name'
p1284
asbag62
(g83
g64
NtRp1285
(dp1286
g67
(dp1287
g94
g95
ssg76
g1276
sg69
(lp1288
S':'
asbag62
(g83
g64
NtRp1289
(dp1290
g67
(dp1291
sg76
g1276
sg69
(lp1292
g62
(g63
g64
NtRp1293
(dp1294
g67
(dp1295
g75
I4
ssg76
g1289
sg69
(lp1296
S''
asbasbasbag62
(g78
g64
NtRp1297
(dp1298
g67
(dp1299
sg76
g679
sg69
(lp1300
g62
(g83
g64
NtRp1301
(dp1302
g67
(dp1303
g87
g88
ssg76
g1297
sg69
(lp1304
S'server_name'
p1305
asbag62
(g83
g64
NtRp1306
(dp1307
g67
(dp1308
g94
g95
ssg76
g1297
sg69
(lp1309
S':'
asbag62
(g83
g64
NtRp1310
(dp1311
g67
(dp1312
sg76
g1297
sg69
(lp1313
g62
(g63
g64
NtRp1314
(dp1315
g67
(dp1316
g75
I4
ssg76
g1310
sg69
(lp1317
g1133
asbasbasbag62
(g78
g64
NtRp1318
(dp1319
g67
(dp1320
sg76
g679
sg69
(lp1321
g62
(g83
g64
NtRp1322
(dp1323
g67
(dp1324
g87
g88
ssg76
g1318
sg69
(lp1325
S'server_port'
p1326
asbag62
(g83
g64
NtRp1327
(dp1328
g67
(dp1329
g94
g95
ssg76
g1318
sg69
(lp1330
S':'
asbag62
(g83
g64
NtRp1331
(dp1332
g67
(dp1333
sg76
g1318
sg69
(lp1334
g62
(g63
g64
NtRp1335
(dp1336
g67
(dp1337
g75
I4
ssg76
g1331
sg69
(lp1338
S'8080'
p1339
asbasbasbag62
(g78
g64
NtRp1340
(dp1341
g67
(dp1342
sg76
g679
sg69
(lp1343
g62
(g83
g64
NtRp1344
(dp1345
g67
(dp1346
g87
g88
ssg76
g1340
sg69
(lp1347
S'server_protocol'
p1348
asbag62
(g83
g64
NtRp1349
(dp1350
g67
(dp1351
g94
g95
ssg76
g1340
sg69
(lp1352
S':'
asbag62
(g83
g64
NtRp1353
(dp1354
g67
(dp1355
sg76
g1340
sg69
(lp1356
g62
(g63
g64
NtRp1357
(dp1358
g67
(dp1359
g75
I4
ssg76
g1353
sg69
(lp1360
S'HTTP/1.1'
p1361
asbasbasbag62
(g78
g64
NtRp1362
(dp1363
g67
(dp1364
sg76
g679
sg69
(lp1365
g62
(g83
g64
NtRp1366
(dp1367
g67
(dp1368
g87
g88
ssg76
g1362
sg69
(lp1369
S'server_software'
p1370
asbag62
(g83
g64
NtRp1371
(dp1372
g67
(dp1373
g94
g95
ssg76
g1362
sg69
(lp1374
S':'
asbag62
(g83
g64
NtRp1375
(dp1376
g67
(dp1377
sg76
g1362
sg69
(lp1378
g62
(g63
g64
NtRp1379
(dp1380
g67
(dp1381
g75
I4
ssg76
g1375
sg69
(lp1382
S'Rocket 1.2.5'
p1383
asbasbasbag62
(g78
g64
NtRp1384
(dp1385
g67
(dp1386
sg76
g679
sg69
(lp1387
g62
(g83
g64
NtRp1388
(dp1389
g67
(dp1390
g87
g88
ssg76
g1384
sg69
(lp1391
S'web2py_path'
p1392
asbag62
(g83
g64
NtRp1393
(dp1394
g67
(dp1395
g94
g95
ssg76
g1384
sg69
(lp1396
S':'
asbag62
(g83
g64
NtRp1397
(dp1398
g67
(dp1399
sg76
g1384
sg69
(lp1400
g62
(g63
g64
NtRp1401
(dp1402
g67
(dp1403
g75
I4
ssg76
g1397
sg69
(lp1404
g726
asbasbasbag62
(g78
g64
NtRp1405
(dp1406
g67
(dp1407
sg76
g679
sg69
(lp1408
g62
(g83
g64
NtRp1409
(dp1410
g67
(dp1411
g87
g88
ssg76
g1405
sg69
(lp1412
S'web2py_version'
p1413
asbag62
(g83
g64
NtRp1414
(dp1415
g67
(dp1416
g94
g95
ssg76
g1405
sg69
(lp1417
S':'
asbag62
(g83
g64
NtRp1418
(dp1419
g67
(dp1420
sg76
g1405
sg69
(lp1421
g62
(g63
g64
NtRp1422
(dp1423
g67
(dp1424
g75
I4
ssg76
g1418
sg69
(lp1425
g62
(g71
g64
NtRp1426
(dp1427
g67
(dp1428
g75
I3
ssg76
Nsg69
(lp1429
g62
(g78
g64
NtRp1430
(dp1431
g67
(dp1432
sg76
g1426
sg69
(lp1433
g62
(g83
g64
NtRp1434
(dp1435
g67
(dp1436
sg76
g1430
sg69
(lp1437
g62
(g63
g64
NtRp1438
(dp1439
g67
(dp1440
g75
I3
ssg76
g1434
sg69
(lp1441
S'2'
asbasbasbag62
(g78
g64
NtRp1442
(dp1443
g67
(dp1444
sg76
g1426
sg69
(lp1445
g62
(g83
g64
NtRp1446
(dp1447
g67
(dp1448
sg76
g1442
sg69
(lp1449
g62
(g63
g64
NtRp1450
(dp1451
g67
(dp1452
g75
I3
ssg76
g1446
sg69
(lp1453
S'2'
asbasbasbag62
(g78
g64
NtRp1454
(dp1455
g67
(dp1456
sg76
g1426
sg69
(lp1457
g62
(g83
g64
NtRp1458
(dp1459
g67
(dp1460
sg76
g1454
sg69
(lp1461
g62
(g63
g64
NtRp1462
(dp1463
g67
(dp1464
g75
I3
ssg76
g1458
sg69
(lp1465
S'1'
asbasbasbag62
(g78
g64
NtRp1466
(dp1467
g67
(dp1468
sg76
g1426
sg69
(lp1469
g62
(g83
g64
NtRp1470
(dp1471
g67
(dp1472
sg76
g1466
sg69
(lp1473
g62
(g63
g64
NtRp1474
(dp1475
g67
(dp1476
g75
I3
ssg76
g1470
sg69
(lp1477
S'datetime.datetime(2012, 10, 21, 16, 57, 4)'
p1478
asbasbasbag62
(g78
g64
NtRp1479
(dp1480
g67
(dp1481
sg76
g1426
sg69
(lp1482
g62
(g83
g64
NtRp1483
(dp1484
g67
(dp1485
sg76
g1479
sg69
(lp1486
g62
(g63
g64
NtRp1487
(dp1488
g67
(dp1489
g75
I3
ssg76
g1483
sg69
(lp1490
S'stable'
p1491
asbasbasbasbasbasbasbag62
(g78
g64
NtRp1492
(dp1493
g67
(dp1494
sg76
g679
sg69
(lp1495
g62
(g83
g64
NtRp1496
(dp1497
g67
(dp1498
g87
g88
ssg76
g1492
sg69
(lp1499
S'wsgi_errors'
p1500
asbag62
(g83
g64
NtRp1501
(dp1502
g67
(dp1503
g94
g95
ssg76
g1492
sg69
(lp1504
S':'
asbag62
(g83
g64
NtRp1505
(dp1506
g67
(dp1507
sg76
g1492
sg69
(lp1508
g62
(g63
g64
NtRp1509
(dp1510
g67
(dp1511
g75
I4
ssg76
g1505
sg69
(lp1512
S"<open file '<stderr>', mode 'w' at 0x2ba97e9af270>"
p1513
asbasbasbag62
(g78
g64
NtRp1514
(dp1515
g67
(dp1516
sg76
g679
sg69
(lp1517
g62
(g83
g64
NtRp1518
(dp1519
g67
(dp1520
g87
g88
ssg76
g1514
sg69
(lp1521
S'wsgi_file_wrapper'
p1522
asbag62
(g83
g64
NtRp1523
(dp1524
g67
(dp1525
g94
g95
ssg76
g1514
sg69
(lp1526
S':'
asbag62
(g83
g64
NtRp1527
(dp1528
g67
(dp1529
sg76
g1514
sg69
(lp1530
g62
(g63
g64
NtRp1531
(dp1532
g67
(dp1533
g75
I4
ssg76
g1527
sg69
(lp1534
S'<class wsgiref.util.FileWrapper at 0x9aeca78>'
p1535
asbasbasbag62
(g78
g64
NtRp1536
(dp1537
g67
(dp1538
sg76
g679
sg69
(lp1539
g62
(g83
g64
NtRp1540
(dp1541
g67
(dp1542
g87
g88
ssg76
g1536
sg69
(lp1543
S'wsgi_input'
p1544
asbag62
(g83
g64
NtRp1545
(dp1546
g67
(dp1547
g94
g95
ssg76
g1536
sg69
(lp1548
S':'
asbag62
(g83
g64
NtRp1549
(dp1550
g67
(dp1551
sg76
g1536
sg69
(lp1552
g62
(g63
g64
NtRp1553
(dp1554
g67
(dp1555
g75
I4
ssg76
g1549
sg69
(lp1556
S'<socket._fileobject object at 0xb87d0d0>'
p1557
asbasbasbag62
(g78
g64
NtRp1558
(dp1559
g67
(dp1560
sg76
g679
sg69
(lp1561
g62
(g83
g64
NtRp1562
(dp1563
g67
(dp1564
g87
g88
ssg76
g1558
sg69
(lp1565
S'wsgi_multiprocess'
p1566
asbag62
(g83
g64
NtRp1567
(dp1568
g67
(dp1569
g94
g95
ssg76
g1558
sg69
(lp1570
S':'
asbag62
(g83
g64
NtRp1571
(dp1572
g67
(dp1573
sg76
g1558
sg69
(lp1574
g62
(g63
g64
NtRp1575
(dp1576
g67
(dp1577
g75
I4
ssg76
g1571
sg69
(lp1578
g105
asbasbasbag62
(g78
g64
NtRp1579
(dp1580
g67
(dp1581
sg76
g679
sg69
(lp1582
g62
(g83
g64
NtRp1583
(dp1584
g67
(dp1585
g87
g88
ssg76
g1579
sg69
(lp1586
S'wsgi_multithread'
p1587
asbag62
(g83
g64
NtRp1588
(dp1589
g67
(dp1590
g94
g95
ssg76
g1579
sg69
(lp1591
S':'
asbag62
(g83
g64
NtRp1592
(dp1593
g67
(dp1594
sg76
g1579
sg69
(lp1595
g62
(g63
g64
NtRp1596
(dp1597
g67
(dp1598
g75
I4
ssg76
g1592
sg69
(lp1599
S'True'
p1600
asbasbasbag62
(g78
g64
NtRp1601
(dp1602
g67
(dp1603
sg76
g679
sg69
(lp1604
g62
(g83
g64
NtRp1605
(dp1606
g67
(dp1607
g87
g88
ssg76
g1601
sg69
(lp1608
S'wsgi_run_once'
p1609
asbag62
(g83
g64
NtRp1610
(dp1611
g67
(dp1612
g94
g95
ssg76
g1601
sg69
(lp1613
S':'
asbag62
(g83
g64
NtRp1614
(dp1615
g67
(dp1616
sg76
g1601
sg69
(lp1617
g62
(g63
g64
NtRp1618
(dp1619
g67
(dp1620
g75
I4
ssg76
g1614
sg69
(lp1621
g105
asbasbasbag62
(g78
g64
NtRp1622
(dp1623
g67
(dp1624
sg76
g679
sg69
(lp1625
g62
(g83
g64
NtRp1626
(dp1627
g67
(dp1628
g87
g88
ssg76
g1622
sg69
(lp1629
S'wsgi_url_scheme'
p1630
asbag62
(g83
g64
NtRp1631
(dp1632
g67
(dp1633
g94
g95
ssg76
g1622
sg69
(lp1634
S':'
asbag62
(g83
g64
NtRp1635
(dp1636
g67
(dp1637
sg76
g1622
sg69
(lp1638
g62
(g63
g64
NtRp1639
(dp1640
g67
(dp1641
g75
I4
ssg76
g1635
sg69
(lp1642
S'http'
p1643
asbasbasbag62
(g78
g64
NtRp1644
(dp1645
g67
(dp1646
sg76
g679
sg69
(lp1647
g62
(g83
g64
NtRp1648
(dp1649
g67
(dp1650
g87
g88
ssg76
g1644
sg69
(lp1651
S'wsgi_version'
p1652
asbag62
(g83
g64
NtRp1653
(dp1654
g67
(dp1655
g94
g95
ssg76
g1644
sg69
(lp1656
S':'
asbag62
(g83
g64
NtRp1657
(dp1658
g67
(dp1659
sg76
g1644
sg69
(lp1660
g62
(g63
g64
NtRp1661
(dp1662
g67
(dp1663
g75
I4
ssg76
g1657
sg69
(lp1664
g62
(g71
g64
NtRp1665
(dp1666
g67
(dp1667
g75
I3
ssg76
Nsg69
(lp1668
g62
(g78
g64
NtRp1669
(dp1670
g67
(dp1671
sg76
g1665
sg69
(lp1672
g62
(g83
g64
NtRp1673
(dp1674
g67
(dp1675
sg76
g1669
sg69
(lp1676
g62
(g63
g64
NtRp1677
(dp1678
g67
(dp1679
g75
I3
ssg76
g1673
sg69
(lp1680
S'1'
asbasbasbag62
(g78
g64
NtRp1681
(dp1682
g67
(dp1683
sg76
g1665
sg69
(lp1684
g62
(g83
g64
NtRp1685
(dp1686
g67
(dp1687
sg76
g1681
sg69
(lp1688
g62
(g63
g64
NtRp1689
(dp1690
g67
(dp1691
g75
I3
ssg76
g1685
sg69
(lp1692
S'0'
asbasbasbasbasbasbasbasbasbasbasbag62
(g78
g64
NtRp1693
(dp1694
g67
(dp1695
sg76
g72
sg69
(lp1696
g62
(g83
g64
NtRp1697
(dp1698
g67
(dp1699
g87
g88
ssg76
g1693
sg69
(lp1700
S'extension'
p1701
asbag62
(g83
g64
NtRp1702
(dp1703
g67
(dp1704
g94
g95
ssg76
g1693
sg69
(lp1705
S':'
asbag62
(g83
g64
NtRp1706
(dp1707
g67
(dp1708
sg76
g1693
sg69
(lp1709
g62
(g63
g64
NtRp1710
(dp1711
g67
(dp1712
g75
I5
ssg76
g1706
sg69
(lp1713
S'html'
p1714
asbasbasbag62
(g78
g64
NtRp1715
(dp1716
g67
(dp1717
sg76
g72
sg69
(lp1718
g62
(g83
g64
NtRp1719
(dp1720
g67
(dp1721
g87
g88
ssg76
g1715
sg69
(lp1722
S'folder'
p1723
asbag62
(g83
g64
NtRp1724
(dp1725
g67
(dp1726
g94
g95
ssg76
g1715
sg69
(lp1727
S':'
asbag62
(g83
g64
NtRp1728
(dp1729
g67
(dp1730
sg76
g1715
sg69
(lp1731
g62
(g63
g64
NtRp1732
(dp1733
g67
(dp1734
g75
I5
ssg76
g1728
sg69
(lp1735
S'/home/xchen/web2py/applications/Betsy/'
p1736
asbasbasbag62
(g78
g64
NtRp1737
(dp1738
g67
(dp1739
sg76
g72
sg69
(lp1740
g62
(g83
g64
NtRp1741
(dp1742
g67
(dp1743
g87
g88
ssg76
g1737
sg69
(lp1744
S'function'
p1745
asbag62
(g83
g64
NtRp1746
(dp1747
g67
(dp1748
g94
g95
ssg76
g1737
sg69
(lp1749
S':'
asbag62
(g83
g64
NtRp1750
(dp1751
g67
(dp1752
sg76
g1737
sg69
(lp1753
g62
(g63
g64
NtRp1754
(dp1755
g67
(dp1756
g75
I5
ssg76
g1750
sg69
(lp1757
S'delete_job'
p1758
asbasbasbag62
(g78
g64
NtRp1759
(dp1760
g67
(dp1761
sg76
g72
sg69
(lp1762
g62
(g83
g64
NtRp1763
(dp1764
g67
(dp1765
g87
g88
ssg76
g1759
sg69
(lp1766
S'get_vars'
p1767
asbag62
(g83
g64
NtRp1768
(dp1769
g67
(dp1770
g94
g95
ssg76
g1759
sg69
(lp1771
S':'
asbag62
(g83
g64
NtRp1772
(dp1773
g67
(dp1774
sg76
g1759
sg69
(lp1775
g62
(g63
g64
NtRp1776
(dp1777
g67
(dp1778
g75
I5
ssg76
g1772
sg69
(lp1779
g62
(g71
g64
NtRp1780
(dp1781
g67
(dp1782
g75
I4
ssg76
Nsg69
(lp1783
sbasbasbasbag62
(g78
g64
NtRp1784
(dp1785
g67
(dp1786
sg76
g72
sg69
(lp1787
g62
(g83
g64
NtRp1788
(dp1789
g67
(dp1790
g87
g88
ssg76
g1784
sg69
(lp1791
S'global_settings'
p1792
asbag62
(g83
g64
NtRp1793
(dp1794
g67
(dp1795
g94
g95
ssg76
g1784
sg69
(lp1796
S':'
asbag62
(g83
g64
NtRp1797
(dp1798
g67
(dp1799
sg76
g1784
sg69
(lp1800
g62
(g63
g64
NtRp1801
(dp1802
g67
(dp1803
g75
I5
ssg76
g1797
sg69
(lp1804
g62
(g71
g64
NtRp1805
(dp1806
g67
(dp1807
g75
I4
ssg76
Nsg69
(lp1808
g62
(g78
g64
NtRp1809
(dp1810
g67
(dp1811
sg76
g1805
sg69
(lp1812
g62
(g83
g64
NtRp1813
(dp1814
g67
(dp1815
g87
g88
ssg76
g1809
sg69
(lp1816
g691
asbag62
(g83
g64
NtRp1817
(dp1818
g67
(dp1819
g94
g95
ssg76
g1809
sg69
(lp1820
S':'
asbag62
(g83
g64
NtRp1821
(dp1822
g67
(dp1823
sg76
g1809
sg69
(lp1824
g62
(g63
g64
NtRp1825
(dp1826
g67
(dp1827
g75
I4
ssg76
g1821
sg69
(lp1828
S"set(['/home/xchen/web2py/applications/Betsy/', '/home/xchen/web2py/applications/admin/'])"
p1829
asbasbasbag62
(g78
g64
NtRp1830
(dp1831
g67
(dp1832
sg76
g1805
sg69
(lp1833
g62
(g83
g64
NtRp1834
(dp1835
g67
(dp1836
g87
g88
ssg76
g1830
sg69
(lp1837
g713
asbag62
(g83
g64
NtRp1838
(dp1839
g67
(dp1840
g94
g95
ssg76
g1830
sg69
(lp1841
S':'
asbag62
(g83
g64
NtRp1842
(dp1843
g67
(dp1844
sg76
g1830
sg69
(lp1845
g62
(g63
g64
NtRp1846
(dp1847
g67
(dp1848
g75
I4
ssg76
g1842
sg69
(lp1849
g726
asbasbasbag62
(g78
g64
NtRp1850
(dp1851
g67
(dp1852
sg76
g1805
sg69
(lp1853
g62
(g83
g64
NtRp1854
(dp1855
g67
(dp1856
g87
g88
ssg76
g1850
sg69
(lp1857
g735
asbag62
(g83
g64
NtRp1858
(dp1859
g67
(dp1860
g94
g95
ssg76
g1850
sg69
(lp1861
S':'
asbag62
(g83
g64
NtRp1862
(dp1863
g67
(dp1864
sg76
g1850
sg69
(lp1865
g62
(g63
g64
NtRp1866
(dp1867
g67
(dp1868
g75
I4
ssg76
g1862
sg69
(lp1869
g62
(g71
g64
NtRp1870
(dp1871
g67
(dp1872
g75
I3
ssg76
Nsg69
(lp1873
sbasbasbasbag62
(g78
g64
NtRp1874
(dp1875
g67
(dp1876
sg76
g1805
sg69
(lp1877
g62
(g83
g64
NtRp1878
(dp1879
g67
(dp1880
g87
g88
ssg76
g1874
sg69
(lp1881
g760
asbag62
(g83
g64
NtRp1882
(dp1883
g67
(dp1884
g94
g95
ssg76
g1874
sg69
(lp1885
S':'
asbag62
(g83
g64
NtRp1886
(dp1887
g67
(dp1888
sg76
g1874
sg69
(lp1889
g62
(g63
g64
NtRp1890
(dp1891
g67
(dp1892
g75
I4
ssg76
g1886
sg69
(lp1893
S"<Values at 0x9b8de18: {'verbose': False, 'ip': '127.0.0.1', 'with_scheduler': False, 'ips': [], 'shutdown_timeout': 5, 'taskbar': False, 'port': 8080, 'maxthreads': None, 'softcron': False, 'server_name': 'unicron.shis.uth.tmc.edu', 'bpython': False, 'nogui': False, 'pid_filename': 'httpserver.pid', 'extcron': False, 'runcron': False, 'run_system_tests': False, 'test': None, 'folder': '/home/xchen/web2py', 'config': '', 'minthreads': None, 'winservice': '', 'shell': None, 'run': '', 'log_filename': 'httpserver.log', 'debuglevel': 30, 'args': [''], 'socket_timeout': 5, 'ssl_ca_certificate': None, 'scheduler': None, 'profiler_filename': None, 'ssl_private_key': '', 'scheduler_groups': None, 'password': 'baby2008', 'request_queue_size': 5, 'ssl_certificate': '', 'cronjob': False, 'numthreads': None, 'quiet': False, 'interfaces': None, 'import_models': False, 'timeout': 10, 'plain': False, 'nobanner': False}>"
p1894
asbasbasbag62
(g78
g64
NtRp1895
(dp1896
g67
(dp1897
sg76
g1805
sg69
(lp1898
g62
(g83
g64
NtRp1899
(dp1900
g67
(dp1901
g87
g88
ssg76
g1895
sg69
(lp1902
g782
asbag62
(g83
g64
NtRp1903
(dp1904
g67
(dp1905
g94
g95
ssg76
g1895
sg69
(lp1906
S':'
asbag62
(g83
g64
NtRp1907
(dp1908
g67
(dp1909
sg76
g1895
sg69
(lp1910
g62
(g63
g64
NtRp1911
(dp1912
g67
(dp1913
g75
I4
ssg76
g1907
sg69
(lp1914
S'set([])'
p1915
asbasbasbag62
(g78
g64
NtRp1916
(dp1917
g67
(dp1918
sg76
g1805
sg69
(lp1919
g62
(g83
g64
NtRp1920
(dp1921
g67
(dp1922
g87
g88
ssg76
g1916
sg69
(lp1923
g804
asbag62
(g83
g64
NtRp1924
(dp1925
g67
(dp1926
g94
g95
ssg76
g1916
sg69
(lp1927
S':'
asbag62
(g83
g64
NtRp1928
(dp1929
g67
(dp1930
sg76
g1916
sg69
(lp1931
g62
(g63
g64
NtRp1932
(dp1933
g67
(dp1934
g75
I4
ssg76
g1928
sg69
(lp1935
g105
asbasbasbag62
(g78
g64
NtRp1936
(dp1937
g67
(dp1938
sg76
g1805
sg69
(lp1939
g62
(g83
g64
NtRp1940
(dp1941
g67
(dp1942
g87
g88
ssg76
g1936
sg69
(lp1943
g825
asbag62
(g83
g64
NtRp1944
(dp1945
g67
(dp1946
g94
g95
ssg76
g1936
sg69
(lp1947
S':'
asbag62
(g83
g64
NtRp1948
(dp1949
g67
(dp1950
sg76
g1936
sg69
(lp1951
g62
(g63
g64
NtRp1952
(dp1953
g67
(dp1954
g75
I4
ssg76
g1948
sg69
(lp1955
g838
asbasbasbag62
(g78
g64
NtRp1956
(dp1957
g67
(dp1958
sg76
g1805
sg69
(lp1959
g62
(g83
g64
NtRp1960
(dp1961
g67
(dp1962
g87
g88
ssg76
g1956
sg69
(lp1963
g1023
asbag62
(g83
g64
NtRp1964
(dp1965
g67
(dp1966
g94
g95
ssg76
g1956
sg69
(lp1967
S':'
asbag62
(g83
g64
NtRp1968
(dp1969
g67
(dp1970
sg76
g1956
sg69
(lp1971
g62
(g63
g64
NtRp1972
(dp1973
g67
(dp1974
g75
I4
ssg76
g1968
sg69
(lp1975
g105
asbasbasbag62
(g78
g64
NtRp1976
(dp1977
g67
(dp1978
sg76
g1805
sg69
(lp1979
g62
(g83
g64
NtRp1980
(dp1981
g67
(dp1982
g87
g88
ssg76
g1976
sg69
(lp1983
g1044
asbag62
(g83
g64
NtRp1984
(dp1985
g67
(dp1986
g94
g95
ssg76
g1976
sg69
(lp1987
S':'
asbag62
(g83
g64
NtRp1988
(dp1989
g67
(dp1990
sg76
g1976
sg69
(lp1991
g62
(g63
g64
NtRp1992
(dp1993
g67
(dp1994
g75
I4
ssg76
g1988
sg69
(lp1995
g105
asbasbasbag62
(g78
g64
NtRp1996
(dp1997
g67
(dp1998
sg76
g1805
sg69
(lp1999
g62
(g83
g64
NtRp2000
(dp2001
g67
(dp2002
g87
g88
ssg76
g1996
sg69
(lp2003
g1065
asbag62
(g83
g64
NtRp2004
(dp2005
g67
(dp2006
g94
g95
ssg76
g1996
sg69
(lp2007
S':'
asbag62
(g83
g64
NtRp2008
(dp2009
g67
(dp2010
sg76
g1996
sg69
(lp2011
g62
(g63
g64
NtRp2012
(dp2013
g67
(dp2014
g75
I4
ssg76
g2008
sg69
(lp2015
g62
(g71
g64
NtRp2016
(dp2017
g67
(dp2018
g75
I3
ssg76
Nsg69
(lp2019
g62
(g78
g64
NtRp2020
(dp2021
g67
(dp2022
sg76
g2016
sg69
(lp2023
g62
(g83
g64
NtRp2024
(dp2025
g67
(dp2026
sg76
g2020
sg69
(lp2027
g62
(g63
g64
NtRp2028
(dp2029
g67
(dp2030
g75
I3
ssg76
g2024
sg69
(lp2031
g1094
asbasbasbag62
(g78
g64
NtRp2032
(dp2033
g67
(dp2034
sg76
g2016
sg69
(lp2035
g62
(g83
g64
NtRp2036
(dp2037
g67
(dp2038
sg76
g2032
sg69
(lp2039
g62
(g63
g64
NtRp2040
(dp2041
g67
(dp2042
g75
I3
ssg76
g2036
sg69
(lp2043
g1107
asbasbasbag62
(g78
g64
NtRp2044
(dp2045
g67
(dp2046
sg76
g2016
sg69
(lp2047
g62
(g83
g64
NtRp2048
(dp2049
g67
(dp2050
sg76
g2044
sg69
(lp2051
g62
(g63
g64
NtRp2052
(dp2053
g67
(dp2054
g75
I3
ssg76
g2048
sg69
(lp2055
g1120
asbasbasbag62
(g78
g64
NtRp2056
(dp2057
g67
(dp2058
sg76
g2016
sg69
(lp2059
g62
(g83
g64
NtRp2060
(dp2061
g67
(dp2062
sg76
g2056
sg69
(lp2063
g62
(g63
g64
NtRp2064
(dp2065
g67
(dp2066
g75
I3
ssg76
g2060
sg69
(lp2067
g1133
asbasbasbag62
(g78
g64
NtRp2068
(dp2069
g67
(dp2070
sg76
g2016
sg69
(lp2071
g62
(g83
g64
NtRp2072
(dp2073
g67
(dp2074
sg76
g2068
sg69
(lp2075
g62
(g63
g64
NtRp2076
(dp2077
g67
(dp2078
g75
I3
ssg76
g2072
sg69
(lp2079
g1146
asbasbasbasbasbasbasbag62
(g78
g64
NtRp2080
(dp2081
g67
(dp2082
sg76
g1805
sg69
(lp2083
g62
(g83
g64
NtRp2084
(dp2085
g67
(dp2086
g87
g88
ssg76
g2080
sg69
(lp2087
g1413
asbag62
(g83
g64
NtRp2088
(dp2089
g67
(dp2090
g94
g95
ssg76
g2080
sg69
(lp2091
S':'
asbag62
(g83
g64
NtRp2092
(dp2093
g67
(dp2094
sg76
g2080
sg69
(lp2095
g62
(g63
g64
NtRp2096
(dp2097
g67
(dp2098
g75
I4
ssg76
g2092
sg69
(lp2099
g62
(g71
g64
NtRp2100
(dp2101
g67
(dp2102
g75
I3
ssg76
Nsg69
(lp2103
g62
(g78
g64
NtRp2104
(dp2105
g67
(dp2106
sg76
g2100
sg69
(lp2107
g62
(g83
g64
NtRp2108
(dp2109
g67
(dp2110
sg76
g2104
sg69
(lp2111
g62
(g63
g64
NtRp2112
(dp2113
g67
(dp2114
g75
I3
ssg76
g2108
sg69
(lp2115
S'2'
asbasbasbag62
(g78
g64
NtRp2116
(dp2117
g67
(dp2118
sg76
g2100
sg69
(lp2119
g62
(g83
g64
NtRp2120
(dp2121
g67
(dp2122
sg76
g2116
sg69
(lp2123
g62
(g63
g64
NtRp2124
(dp2125
g67
(dp2126
g75
I3
ssg76
g2120
sg69
(lp2127
S'2'
asbasbasbag62
(g78
g64
NtRp2128
(dp2129
g67
(dp2130
sg76
g2100
sg69
(lp2131
g62
(g83
g64
NtRp2132
(dp2133
g67
(dp2134
sg76
g2128
sg69
(lp2135
g62
(g63
g64
NtRp2136
(dp2137
g67
(dp2138
g75
I3
ssg76
g2132
sg69
(lp2139
S'1'
asbasbasbag62
(g78
g64
NtRp2140
(dp2141
g67
(dp2142
sg76
g2100
sg69
(lp2143
g62
(g83
g64
NtRp2144
(dp2145
g67
(dp2146
sg76
g2140
sg69
(lp2147
g62
(g63
g64
NtRp2148
(dp2149
g67
(dp2150
g75
I3
ssg76
g2144
sg69
(lp2151
S'datetime.datetime(2012, 10, 21, 16, 57, 4)'
p2152
asbasbasbag62
(g78
g64
NtRp2153
(dp2154
g67
(dp2155
sg76
g2100
sg69
(lp2156
g62
(g83
g64
NtRp2157
(dp2158
g67
(dp2159
sg76
g2153
sg69
(lp2160
g62
(g63
g64
NtRp2161
(dp2162
g67
(dp2163
g75
I3
ssg76
g2157
sg69
(lp2164
g1491
asbasbasbasbasbasbasbasbasbasbasbag62
(g78
g64
NtRp2165
(dp2166
g67
(dp2167
sg76
g72
sg69
(lp2168
g62
(g83
g64
NtRp2169
(dp2170
g67
(dp2171
g87
g88
ssg76
g2165
sg69
(lp2172
S'is_https'
p2173
asbag62
(g83
g64
NtRp2174
(dp2175
g67
(dp2176
g94
g95
ssg76
g2165
sg69
(lp2177
S':'
asbag62
(g83
g64
NtRp2178
(dp2179
g67
(dp2180
sg76
g2165
sg69
(lp2181
g62
(g63
g64
NtRp2182
(dp2183
g67
(dp2184
g75
I5
ssg76
g2178
sg69
(lp2185
g105
asbasbasbag62
(g78
g64
NtRp2186
(dp2187
g67
(dp2188
sg76
g72
sg69
(lp2189
g62
(g83
g64
NtRp2190
(dp2191
g67
(dp2192
g87
g88
ssg76
g2186
sg69
(lp2193
S'is_local'
p2194
asbag62
(g83
g64
NtRp2195
(dp2196
g67
(dp2197
g94
g95
ssg76
g2186
sg69
(lp2198
S':'
asbag62
(g83
g64
NtRp2199
(dp2200
g67
(dp2201
sg76
g2186
sg69
(lp2202
g62
(g63
g64
NtRp2203
(dp2204
g67
(dp2205
g75
I5
ssg76
g2199
sg69
(lp2206
g1600
asbasbasbag62
(g78
g64
NtRp2207
(dp2208
g67
(dp2209
sg76
g72
sg69
(lp2210
g62
(g83
g64
NtRp2211
(dp2212
g67
(dp2213
g87
g88
ssg76
g2207
sg69
(lp2214
S'is_restful'
p2215
asbag62
(g83
g64
NtRp2216
(dp2217
g67
(dp2218
g94
g95
ssg76
g2207
sg69
(lp2219
S':'
asbag62
(g83
g64
NtRp2220
(dp2221
g67
(dp2222
sg76
g2207
sg69
(lp2223
g62
(g63
g64
NtRp2224
(dp2225
g67
(dp2226
g75
I5
ssg76
g2220
sg69
(lp2227
g105
asbasbasbag62
(g78
g64
NtRp2228
(dp2229
g67
(dp2230
sg76
g72
sg69
(lp2231
g62
(g83
g64
NtRp2232
(dp2233
g67
(dp2234
g87
g88
ssg76
g2228
sg69
(lp2235
S'now'
p2236
asbag62
(g83
g64
NtRp2237
(dp2238
g67
(dp2239
g94
g95
ssg76
g2228
sg69
(lp2240
S':'
asbag62
(g83
g64
NtRp2241
(dp2242
g67
(dp2243
sg76
g2228
sg69
(lp2244
g62
(g63
g64
NtRp2245
(dp2246
g67
(dp2247
g75
I5
ssg76
g2241
sg69
(lp2248
S'datetime.datetime(2013, 3, 21, 10, 34, 42, 798234)'
p2249
asbasbasbag62
(g78
g64
NtRp2250
(dp2251
g67
(dp2252
sg76
g72
sg69
(lp2253
g62
(g83
g64
NtRp2254
(dp2255
g67
(dp2256
g87
g88
ssg76
g2250
sg69
(lp2257
S'post_vars'
p2258
asbag62
(g83
g64
NtRp2259
(dp2260
g67
(dp2261
g94
g95
ssg76
g2250
sg69
(lp2262
S':'
asbag62
(g83
g64
NtRp2263
(dp2264
g67
(dp2265
sg76
g2250
sg69
(lp2266
g62
(g63
g64
NtRp2267
(dp2268
g67
(dp2269
g75
I5
ssg76
g2263
sg69
(lp2270
g62
(g71
g64
NtRp2271
(dp2272
g67
(dp2273
g75
I4
ssg76
Nsg69
(lp2274
sbasbasbasbag62
(g78
g64
NtRp2275
(dp2276
g67
(dp2277
sg76
g72
sg69
(lp2278
g62
(g83
g64
NtRp2279
(dp2280
g67
(dp2281
g87
g88
ssg76
g2275
sg69
(lp2282
S'raw_args'
p2283
asbag62
(g83
g64
NtRp2284
(dp2285
g67
(dp2286
g94
g95
ssg76
g2275
sg69
(lp2287
S':'
asbag62
(g83
g64
NtRp2288
(dp2289
g67
(dp2290
sg76
g2275
sg69
(lp2291
g62
(g63
g64
NtRp2292
(dp2293
g67
(dp2294
g75
I5
ssg76
g2288
sg69
(lp2295
S'/PQE41R'
p2296
asbasbasbag62
(g78
g64
NtRp2297
(dp2298
g67
(dp2299
sg76
g72
sg69
(lp2300
g62
(g83
g64
NtRp2301
(dp2302
g67
(dp2303
g87
g88
ssg76
g2297
sg69
(lp2304
S'raw_extension'
p2305
asbag62
(g83
g64
NtRp2306
(dp2307
g67
(dp2308
g94
g95
ssg76
g2297
sg69
(lp2309
S':'
asbag62
(g83
g64
NtRp2310
(dp2311
g67
(dp2312
sg76
g2297
sg69
(lp2313
g62
(g63
g64
NtRp2314
(dp2315
g67
(dp2316
g75
I5
ssg76
g2310
sg69
(lp2317
S'None'
p2318
asbasbasbag62
(g78
g64
NtRp2319
(dp2320
g67
(dp2321
sg76
g72
sg69
(lp2322
g62
(g83
g64
NtRp2323
(dp2324
g67
(dp2325
g87
g88
ssg76
g2319
sg69
(lp2326
S'url'
p2327
asbag62
(g83
g64
NtRp2328
(dp2329
g67
(dp2330
g94
g95
ssg76
g2319
sg69
(lp2331
S':'
asbag62
(g83
g64
NtRp2332
(dp2333
g67
(dp2334
sg76
g2319
sg69
(lp2335
g62
(g63
g64
NtRp2336
(dp2337
g67
(dp2338
g75
I5
ssg76
g2332
sg69
(lp2339
g1168
asbasbasbag62
(g78
g64
NtRp2340
(dp2341
g67
(dp2342
sg76
g72
sg69
(lp2343
g62
(g83
g64
NtRp2344
(dp2345
g67
(dp2346
g87
g88
ssg76
g2340
sg69
(lp2347
S'utcnow'
p2348
asbag62
(g83
g64
NtRp2349
(dp2350
g67
(dp2351
g94
g95
ssg76
g2340
sg69
(lp2352
S':'
asbag62
(g83
g64
NtRp2353
(dp2354
g67
(dp2355
sg76
g2340
sg69
(lp2356
g62
(g63
g64
NtRp2357
(dp2358
g67
(dp2359
g75
I5
ssg76
g2353
sg69
(lp2360
S'datetime.datetime(2013, 3, 21, 15, 34, 42, 798241)'
p2361
asbasbasbag62
(g78
g64
NtRp2362
(dp2363
g67
(dp2364
sg76
g72
sg69
(lp2365
g62
(g83
g64
NtRp2366
(dp2367
g67
(dp2368
g87
g88
ssg76
g2362
sg69
(lp2369
S'uuid'
p2370
asbag62
(g83
g64
NtRp2371
(dp2372
g67
(dp2373
g94
g95
ssg76
g2362
sg69
(lp2374
S':'
asbag62
(g83
g64
NtRp2375
(dp2376
g67
(dp2377
sg76
g2362
sg69
(lp2378
g62
(g63
g64
NtRp2379
(dp2380
g67
(dp2381
g75
I5
ssg76
g2375
sg69
(lp2382
S'Betsy/127.0.0.1.2013-03-21.10-34-42.36b1ce63-1312-48f0-bcee-c388c9191874'
p2383
asbasbasbag62
(g78
g64
NtRp2384
(dp2385
g67
(dp2386
sg76
g72
sg69
(lp2387
g62
(g83
g64
NtRp2388
(dp2389
g67
(dp2390
g87
g88
ssg76
g2384
sg69
(lp2391
S'vars'
p2392
asbag62
(g83
g64
NtRp2393
(dp2394
g67
(dp2395
g94
g95
ssg76
g2384
sg69
(lp2396
S':'
asbag62
(g83
g64
NtRp2397
(dp2398
g67
(dp2399
sg76
g2384
sg69
(lp2400
g62
(g63
g64
NtRp2401
(dp2402
g67
(dp2403
g75
I5
ssg76
g2397
sg69
(lp2404
g62
(g71
g64
NtRp2405
(dp2406
g67
(dp2407
g75
I4
ssg76
Nsg69
(lp2408
sbasbasbasbag62
(g78
g64
NtRp2409
(dp2410
g67
(dp2411
sg76
g72
sg69
(lp2412
g62
(g83
g64
NtRp2413
(dp2414
g67
(dp2415
g87
g88
ssg76
g2409
sg69
(lp2416
S'wsgi'
p2417
asbag62
(g83
g64
NtRp2418
(dp2419
g67
(dp2420
g94
g95
ssg76
g2409
sg69
(lp2421
S':'
asbag62
(g83
g64
NtRp2422
(dp2423
g67
(dp2424
sg76
g2409
sg69
(lp2425
g62
(g63
g64
NtRp2426
(dp2427
g67
(dp2428
g75
I5
ssg76
g2422
sg69
(lp2429
g62
(g71
g64
NtRp2430
(dp2431
g67
(dp2432
g75
I4
ssg76
Nsg69
(lp2433
g62
(g78
g64
NtRp2434
(dp2435
g67
(dp2436
sg76
g2430
sg69
(lp2437
g62
(g83
g64
NtRp2438
(dp2439
g67
(dp2440
g87
g88
ssg76
g2434
sg69
(lp2441
S'environ'
p2442
asbag62
(g83
g64
NtRp2443
(dp2444
g67
(dp2445
g94
g95
ssg76
g2434
sg69
(lp2446
S':'
asbag62
(g83
g64
NtRp2447
(dp2448
g67
(dp2449
sg76
g2434
sg69
(lp2450
g62
(g63
g64
NtRp2451
(dp2452
g67
(dp2453
g75
I4
ssg76
g2447
sg69
(lp2454
g62
(g71
g64
NtRp2455
(dp2456
g67
(dp2457
g75
I3
ssg76
Nsg69
(lp2458
g62
(g78
g64
NtRp2459
(dp2460
g67
(dp2461
sg76
g2455
sg69
(lp2462
g62
(g83
g64
NtRp2463
(dp2464
g67
(dp2465
g87
g88
ssg76
g2459
sg69
(lp2466
S'HTTP_ACCEPT'
p2467
asbag62
(g83
g64
NtRp2468
(dp2469
g67
(dp2470
g94
g95
ssg76
g2459
sg69
(lp2471
S':'
asbag62
(g83
g64
NtRp2472
(dp2473
g67
(dp2474
sg76
g2459
sg69
(lp2475
g62
(g63
g64
NtRp2476
(dp2477
g67
(dp2478
g75
I3
ssg76
g2472
sg69
(lp2479
g860
asbasbasbag62
(g78
g64
NtRp2480
(dp2481
g67
(dp2482
sg76
g2455
sg69
(lp2483
g62
(g83
g64
NtRp2484
(dp2485
g67
(dp2486
g87
g88
ssg76
g2480
sg69
(lp2487
S'HTTP_ACCEPT_ENCODING'
p2488
asbag62
(g83
g64
NtRp2489
(dp2490
g67
(dp2491
g94
g95
ssg76
g2480
sg69
(lp2492
S':'
asbag62
(g83
g64
NtRp2493
(dp2494
g67
(dp2495
sg76
g2480
sg69
(lp2496
g62
(g63
g64
NtRp2497
(dp2498
g67
(dp2499
g75
I3
ssg76
g2493
sg69
(lp2500
g882
asbasbasbag62
(g78
g64
NtRp2501
(dp2502
g67
(dp2503
sg76
g2455
sg69
(lp2504
g62
(g83
g64
NtRp2505
(dp2506
g67
(dp2507
g87
g88
ssg76
g2501
sg69
(lp2508
S'HTTP_ACCEPT_LANGUAGE'
p2509
asbag62
(g83
g64
NtRp2510
(dp2511
g67
(dp2512
g94
g95
ssg76
g2501
sg69
(lp2513
S':'
asbag62
(g83
g64
NtRp2514
(dp2515
g67
(dp2516
sg76
g2501
sg69
(lp2517
g62
(g63
g64
NtRp2518
(dp2519
g67
(dp2520
g75
I3
ssg76
g2514
sg69
(lp2521
g904
asbasbasbag62
(g78
g64
NtRp2522
(dp2523
g67
(dp2524
sg76
g2455
sg69
(lp2525
g62
(g83
g64
NtRp2526
(dp2527
g67
(dp2528
g87
g88
ssg76
g2522
sg69
(lp2529
S'HTTP_CONNECTION'
p2530
asbag62
(g83
g64
NtRp2531
(dp2532
g67
(dp2533
g94
g95
ssg76
g2522
sg69
(lp2534
S':'
asbag62
(g83
g64
NtRp2535
(dp2536
g67
(dp2537
sg76
g2522
sg69
(lp2538
g62
(g63
g64
NtRp2539
(dp2540
g67
(dp2541
g75
I3
ssg76
g2535
sg69
(lp2542
g926
asbasbasbag62
(g78
g64
NtRp2543
(dp2544
g67
(dp2545
sg76
g2455
sg69
(lp2546
g62
(g83
g64
NtRp2547
(dp2548
g67
(dp2549
g87
g88
ssg76
g2543
sg69
(lp2550
S'HTTP_COOKIE'
p2551
asbag62
(g83
g64
NtRp2552
(dp2553
g67
(dp2554
g94
g95
ssg76
g2543
sg69
(lp2555
S':'
asbag62
(g83
g64
NtRp2556
(dp2557
g67
(dp2558
sg76
g2543
sg69
(lp2559
g62
(g63
g64
NtRp2560
(dp2561
g67
(dp2562
g75
I3
ssg76
g2556
sg69
(lp2563
g948
asbasbasbag62
(g78
g64
NtRp2564
(dp2565
g67
(dp2566
sg76
g2455
sg69
(lp2567
g62
(g83
g64
NtRp2568
(dp2569
g67
(dp2570
g87
g88
ssg76
g2564
sg69
(lp2571
S'HTTP_HOST'
p2572
asbag62
(g83
g64
NtRp2573
(dp2574
g67
(dp2575
g94
g95
ssg76
g2564
sg69
(lp2576
S':'
asbag62
(g83
g64
NtRp2577
(dp2578
g67
(dp2579
sg76
g2564
sg69
(lp2580
g62
(g63
g64
NtRp2581
(dp2582
g67
(dp2583
g75
I3
ssg76
g2577
sg69
(lp2584
g970
asbasbasbag62
(g78
g64
NtRp2585
(dp2586
g67
(dp2587
sg76
g2455
sg69
(lp2588
g62
(g83
g64
NtRp2589
(dp2590
g67
(dp2591
g87
g88
ssg76
g2585
sg69
(lp2592
S'HTTP_REFERER'
p2593
asbag62
(g83
g64
NtRp2594
(dp2595
g67
(dp2596
g94
g95
ssg76
g2585
sg69
(lp2597
S':'
asbag62
(g83
g64
NtRp2598
(dp2599
g67
(dp2600
sg76
g2585
sg69
(lp2601
g62
(g63
g64
NtRp2602
(dp2603
g67
(dp2604
g75
I3
ssg76
g2598
sg69
(lp2605
g992
asbasbasbag62
(g78
g64
NtRp2606
(dp2607
g67
(dp2608
sg76
g2455
sg69
(lp2609
g62
(g83
g64
NtRp2610
(dp2611
g67
(dp2612
g87
g88
ssg76
g2606
sg69
(lp2613
S'HTTP_USER_AGENT'
p2614
asbag62
(g83
g64
NtRp2615
(dp2616
g67
(dp2617
g94
g95
ssg76
g2606
sg69
(lp2618
S':'
asbag62
(g83
g64
NtRp2619
(dp2620
g67
(dp2621
sg76
g2606
sg69
(lp2622
g62
(g63
g64
NtRp2623
(dp2624
g67
(dp2625
g75
I3
ssg76
g2619
sg69
(lp2626
g1014
asbasbasbag62
(g78
g64
NtRp2627
(dp2628
g67
(dp2629
sg76
g2455
sg69
(lp2630
g62
(g83
g64
NtRp2631
(dp2632
g67
(dp2633
g87
g88
ssg76
g2627
sg69
(lp2634
S'PATH_INFO'
p2635
asbag62
(g83
g64
NtRp2636
(dp2637
g67
(dp2638
g94
g95
ssg76
g2627
sg69
(lp2639
S':'
asbag62
(g83
g64
NtRp2640
(dp2641
g67
(dp2642
sg76
g2627
sg69
(lp2643
g62
(g63
g64
NtRp2644
(dp2645
g67
(dp2646
g75
I3
ssg76
g2640
sg69
(lp2647
g1168
asbasbasbag62
(g78
g64
NtRp2648
(dp2649
g67
(dp2650
sg76
g2455
sg69
(lp2651
g62
(g83
g64
NtRp2652
(dp2653
g67
(dp2654
g87
g88
ssg76
g2648
sg69
(lp2655
S'QUERY_STRING'
p2656
asbag62
(g83
g64
NtRp2657
(dp2658
g67
(dp2659
g94
g95
ssg76
g2648
sg69
(lp2660
S':'
asbag62
(g83
g64
NtRp2661
(dp2662
g67
(dp2663
sg76
g2648
sg69
(lp2664
g62
(g63
g64
NtRp2665
(dp2666
g67
(dp2667
g75
I3
ssg76
g2661
sg69
(lp2668
S''
asbasbasbag62
(g78
g64
NtRp2669
(dp2670
g67
(dp2671
sg76
g2455
sg69
(lp2672
g62
(g83
g64
NtRp2673
(dp2674
g67
(dp2675
g87
g88
ssg76
g2669
sg69
(lp2676
S'REMOTE_ADDR'
p2677
asbag62
(g83
g64
NtRp2678
(dp2679
g67
(dp2680
g94
g95
ssg76
g2669
sg69
(lp2681
S':'
asbag62
(g83
g64
NtRp2682
(dp2683
g67
(dp2684
sg76
g2669
sg69
(lp2685
g62
(g63
g64
NtRp2686
(dp2687
g67
(dp2688
g75
I3
ssg76
g2682
sg69
(lp2689
g230
asbasbasbag62
(g78
g64
NtRp2690
(dp2691
g67
(dp2692
sg76
g2455
sg69
(lp2693
g62
(g83
g64
NtRp2694
(dp2695
g67
(dp2696
g87
g88
ssg76
g2690
sg69
(lp2697
S'REMOTE_PORT'
p2698
asbag62
(g83
g64
NtRp2699
(dp2700
g67
(dp2701
g94
g95
ssg76
g2690
sg69
(lp2702
S':'
asbag62
(g83
g64
NtRp2703
(dp2704
g67
(dp2705
sg76
g2690
sg69
(lp2706
g62
(g63
g64
NtRp2707
(dp2708
g67
(dp2709
g75
I3
ssg76
g2703
sg69
(lp2710
g1232
asbasbasbag62
(g78
g64
NtRp2711
(dp2712
g67
(dp2713
sg76
g2455
sg69
(lp2714
g62
(g83
g64
NtRp2715
(dp2716
g67
(dp2717
g87
g88
ssg76
g2711
sg69
(lp2718
S'REQUEST_METHOD'
p2719
asbag62
(g83
g64
NtRp2720
(dp2721
g67
(dp2722
g94
g95
ssg76
g2711
sg69
(lp2723
S':'
asbag62
(g83
g64
NtRp2724
(dp2725
g67
(dp2726
sg76
g2711
sg69
(lp2727
g62
(g63
g64
NtRp2728
(dp2729
g67
(dp2730
g75
I3
ssg76
g2724
sg69
(lp2731
g1254
asbasbasbag62
(g78
g64
NtRp2732
(dp2733
g67
(dp2734
sg76
g2455
sg69
(lp2735
g62
(g83
g64
NtRp2736
(dp2737
g67
(dp2738
g87
g88
ssg76
g2732
sg69
(lp2739
S'REQUEST_URI'
p2740
asbag62
(g83
g64
NtRp2741
(dp2742
g67
(dp2743
g94
g95
ssg76
g2732
sg69
(lp2744
S':'
asbag62
(g83
g64
NtRp2745
(dp2746
g67
(dp2747
sg76
g2732
sg69
(lp2748
g62
(g63
g64
NtRp2749
(dp2750
g67
(dp2751
g75
I3
ssg76
g2745
sg69
(lp2752
g1168
asbasbasbag62
(g78
g64
NtRp2753
(dp2754
g67
(dp2755
sg76
g2455
sg69
(lp2756
g62
(g83
g64
NtRp2757
(dp2758
g67
(dp2759
g87
g88
ssg76
g2753
sg69
(lp2760
S'SCRIPT_NAME'
p2761
asbag62
(g83
g64
NtRp2762
(dp2763
g67
(dp2764
g94
g95
ssg76
g2753
sg69
(lp2765
S':'
asbag62
(g83
g64
NtRp2766
(dp2767
g67
(dp2768
sg76
g2753
sg69
(lp2769
g62
(g63
g64
NtRp2770
(dp2771
g67
(dp2772
g75
I3
ssg76
g2766
sg69
(lp2773
S''
asbasbasbag62
(g78
g64
NtRp2774
(dp2775
g67
(dp2776
sg76
g2455
sg69
(lp2777
g62
(g83
g64
NtRp2778
(dp2779
g67
(dp2780
g87
g88
ssg76
g2774
sg69
(lp2781
S'SERVER_NAME'
p2782
asbag62
(g83
g64
NtRp2783
(dp2784
g67
(dp2785
g94
g95
ssg76
g2774
sg69
(lp2786
S':'
asbag62
(g83
g64
NtRp2787
(dp2788
g67
(dp2789
sg76
g2774
sg69
(lp2790
g62
(g63
g64
NtRp2791
(dp2792
g67
(dp2793
g75
I3
ssg76
g2787
sg69
(lp2794
g1133
asbasbasbag62
(g78
g64
NtRp2795
(dp2796
g67
(dp2797
sg76
g2455
sg69
(lp2798
g62
(g83
g64
NtRp2799
(dp2800
g67
(dp2801
g87
g88
ssg76
g2795
sg69
(lp2802
S'SERVER_PORT'
p2803
asbag62
(g83
g64
NtRp2804
(dp2805
g67
(dp2806
g94
g95
ssg76
g2795
sg69
(lp2807
S':'
asbag62
(g83
g64
NtRp2808
(dp2809
g67
(dp2810
sg76
g2795
sg69
(lp2811
g62
(g63
g64
NtRp2812
(dp2813
g67
(dp2814
g75
I3
ssg76
g2808
sg69
(lp2815
g1339
asbasbasbag62
(g78
g64
NtRp2816
(dp2817
g67
(dp2818
sg76
g2455
sg69
(lp2819
g62
(g83
g64
NtRp2820
(dp2821
g67
(dp2822
g87
g88
ssg76
g2816
sg69
(lp2823
S'SERVER_PROTOCOL'
p2824
asbag62
(g83
g64
NtRp2825
(dp2826
g67
(dp2827
g94
g95
ssg76
g2816
sg69
(lp2828
S':'
asbag62
(g83
g64
NtRp2829
(dp2830
g67
(dp2831
sg76
g2816
sg69
(lp2832
g62
(g63
g64
NtRp2833
(dp2834
g67
(dp2835
g75
I3
ssg76
g2829
sg69
(lp2836
g1361
asbasbasbag62
(g78
g64
NtRp2837
(dp2838
g67
(dp2839
sg76
g2455
sg69
(lp2840
g62
(g83
g64
NtRp2841
(dp2842
g67
(dp2843
g87
g88
ssg76
g2837
sg69
(lp2844
S'SERVER_SOFTWARE'
p2845
asbag62
(g83
g64
NtRp2846
(dp2847
g67
(dp2848
g94
g95
ssg76
g2837
sg69
(lp2849
S':'
asbag62
(g83
g64
NtRp2850
(dp2851
g67
(dp2852
sg76
g2837
sg69
(lp2853
g62
(g63
g64
NtRp2854
(dp2855
g67
(dp2856
g75
I3
ssg76
g2850
sg69
(lp2857
g1383
asbasbasbag62
(g78
g64
NtRp2858
(dp2859
g67
(dp2860
sg76
g2455
sg69
(lp2861
g62
(g83
g64
NtRp2862
(dp2863
g67
(dp2864
g87
g88
ssg76
g2858
sg69
(lp2865
S'wsgi.errors'
p2866
asbag62
(g83
g64
NtRp2867
(dp2868
g67
(dp2869
g94
g95
ssg76
g2858
sg69
(lp2870
S':'
asbag62
(g83
g64
NtRp2871
(dp2872
g67
(dp2873
sg76
g2858
sg69
(lp2874
g62
(g63
g64
NtRp2875
(dp2876
g67
(dp2877
g75
I3
ssg76
g2871
sg69
(lp2878
S"<open file '<stderr>', mode 'w' at 0x2ba97e9af270>"
p2879
asbasbasbag62
(g78
g64
NtRp2880
(dp2881
g67
(dp2882
sg76
g2455
sg69
(lp2883
g62
(g83
g64
NtRp2884
(dp2885
g67
(dp2886
g87
g88
ssg76
g2880
sg69
(lp2887
S'wsgi.file_wrapper'
p2888
asbag62
(g83
g64
NtRp2889
(dp2890
g67
(dp2891
g94
g95
ssg76
g2880
sg69
(lp2892
S':'
asbag62
(g83
g64
NtRp2893
(dp2894
g67
(dp2895
sg76
g2880
sg69
(lp2896
g62
(g63
g64
NtRp2897
(dp2898
g67
(dp2899
g75
I3
ssg76
g2893
sg69
(lp2900
S'<class wsgiref.util.FileWrapper at 0x9aeca78>'
p2901
asbasbasbag62
(g78
g64
NtRp2902
(dp2903
g67
(dp2904
sg76
g2455
sg69
(lp2905
g62
(g83
g64
NtRp2906
(dp2907
g67
(dp2908
g87
g88
ssg76
g2902
sg69
(lp2909
S'wsgi.input'
p2910
asbag62
(g83
g64
NtRp2911
(dp2912
g67
(dp2913
g94
g95
ssg76
g2902
sg69
(lp2914
S':'
asbag62
(g83
g64
NtRp2915
(dp2916
g67
(dp2917
sg76
g2902
sg69
(lp2918
g62
(g63
g64
NtRp2919
(dp2920
g67
(dp2921
g75
I3
ssg76
g2915
sg69
(lp2922
S'<cStringIO.StringO object at 0xb85bfb8>'
p2923
asbasbasbag62
(g78
g64
NtRp2924
(dp2925
g67
(dp2926
sg76
g2455
sg69
(lp2927
g62
(g83
g64
NtRp2928
(dp2929
g67
(dp2930
g87
g88
ssg76
g2924
sg69
(lp2931
S'wsgi.multiprocess'
p2932
asbag62
(g83
g64
NtRp2933
(dp2934
g67
(dp2935
g94
g95
ssg76
g2924
sg69
(lp2936
S':'
asbag62
(g83
g64
NtRp2937
(dp2938
g67
(dp2939
sg76
g2924
sg69
(lp2940
g62
(g63
g64
NtRp2941
(dp2942
g67
(dp2943
g75
I3
ssg76
g2937
sg69
(lp2944
g105
asbasbasbag62
(g78
g64
NtRp2945
(dp2946
g67
(dp2947
sg76
g2455
sg69
(lp2948
g62
(g83
g64
NtRp2949
(dp2950
g67
(dp2951
g87
g88
ssg76
g2945
sg69
(lp2952
S'wsgi.multithread'
p2953
asbag62
(g83
g64
NtRp2954
(dp2955
g67
(dp2956
g94
g95
ssg76
g2945
sg69
(lp2957
S':'
asbag62
(g83
g64
NtRp2958
(dp2959
g67
(dp2960
sg76
g2945
sg69
(lp2961
g62
(g63
g64
NtRp2962
(dp2963
g67
(dp2964
g75
I3
ssg76
g2958
sg69
(lp2965
g1600
asbasbasbag62
(g78
g64
NtRp2966
(dp2967
g67
(dp2968
sg76
g2455
sg69
(lp2969
g62
(g83
g64
NtRp2970
(dp2971
g67
(dp2972
g87
g88
ssg76
g2966
sg69
(lp2973
S'wsgi.run_once'
p2974
asbag62
(g83
g64
NtRp2975
(dp2976
g67
(dp2977
g94
g95
ssg76
g2966
sg69
(lp2978
S':'
asbag62
(g83
g64
NtRp2979
(dp2980
g67
(dp2981
sg76
g2966
sg69
(lp2982
g62
(g63
g64
NtRp2983
(dp2984
g67
(dp2985
g75
I3
ssg76
g2979
sg69
(lp2986
g105
asbasbasbag62
(g78
g64
NtRp2987
(dp2988
g67
(dp2989
sg76
g2455
sg69
(lp2990
g62
(g83
g64
NtRp2991
(dp2992
g67
(dp2993
g87
g88
ssg76
g2987
sg69
(lp2994
S'wsgi.url_scheme'
p2995
asbag62
(g83
g64
NtRp2996
(dp2997
g67
(dp2998
g94
g95
ssg76
g2987
sg69
(lp2999
S':'
asbag62
(g83
g64
NtRp3000
(dp3001
g67
(dp3002
sg76
g2987
sg69
(lp3003
g62
(g63
g64
NtRp3004
(dp3005
g67
(dp3006
g75
I3
ssg76
g3000
sg69
(lp3007
g1643
asbasbasbag62
(g78
g64
NtRp3008
(dp3009
g67
(dp3010
sg76
g2455
sg69
(lp3011
g62
(g83
g64
NtRp3012
(dp3013
g67
(dp3014
g87
g88
ssg76
g3008
sg69
(lp3015
S'wsgi.version'
p3016
asbag62
(g83
g64
NtRp3017
(dp3018
g67
(dp3019
g94
g95
ssg76
g3008
sg69
(lp3020
S':'
asbag62
(g83
g64
NtRp3021
(dp3022
g67
(dp3023
sg76
g3008
sg69
(lp3024
g62
(g63
g64
NtRp3025
(dp3026
g67
(dp3027
g75
I3
ssg76
g3021
sg69
(lp3028
S'1'
asbasbasbasbasbasbasbasbasbasbasbasbasbsS'frames'
p3029
(lp3030
(dp3031
S'file'
p3032
S'/home/xchen/web2py/gluon/restricted.py'
p3033
sS'dump'
p3034
(dp3035
S'environment'
p3036
S"{'A': <class 'gluon.html.A'>, 'Auth': <class 'gluon.tools.Auth'>, 'B': <class 'gluon.html.B'>, 'BEAUTIFY': <class 'gluon.html.BEAUTIFY'>, 'BODY': <class 'gluon.html.BODY'>, 'BR': <class 'gluon.html.BR'>, 'BUTTON': <class 'gluon.html.BUTTON'>, 'CAT': <class 'gluon.html.CAT'>, 'CENTER': <class 'gluon.html.CENTER'>, 'CLEANUP': <class 'gluon.validators.CLEANUP'>, ...}"
p3037
sS'ccode'
p3038
S'<code object <module> at 0xb86e0b0, file "/home/...plications/Betsy/controllers/default.py", line 3>'
p3039
ssS'lnum'
p3040
I212
sS'lines'
p3041
(dp3042
I207
S'    try:'
p3043
sI208
S'        if isinstance(code, types.CodeType):'
p3044
sI209
S'            ccode = code'
p3045
sI210
S'        else:'
p3046
sI211
S'            ccode = compile2(code, layer)'
p3047
sI212
S'        exec ccode in environment'
p3048
sI213
S'    except HTTP:'
p3049
sI214
S'        raise'
p3050
sI215
S'    except RestrictedError:'
p3051
sI216
S'        # do not encapsulate (obfuscate) the original RestrictedError'
p3052
ssS'call'
p3053
S'(code="# -*- coding: utf-8 -*-\\n\\nupload_path = \'/home/xc...age\\n\\nresponse._vars=response._caller(delete_job)\\n", environment={\'A\': <class \'gluon.html.A\'>, \'Auth\': <class \'gluon.tools.Auth\'>, \'B\': <class \'gluon.html.B\'>, \'BEAUTIFY\': <class \'gluon.html.BEAUTIFY\'>, \'BODY\': <class \'gluon.html.BODY\'>, \'BR\': <class \'gluon.html.BR\'>, \'BUTTON\': <class \'gluon.html.BUTTON\'>, \'CAT\': <class \'gluon.html.CAT\'>, \'CENTER\': <class \'gluon.html.CENTER\'>, \'CLEANUP\': <class \'gluon.validators.CLEANUP\'>, ...}, layer=\'/home/xchen/web2py/applications/Betsy/controllers/default.py\')'
p3054
sS'func'
p3055
S'restricted'
p3056
sa(dp3057
g3032
S'/home/xchen/web2py/applications/Betsy/controllers/default.py'
p3058
sg3034
(dp3059
sg3040
I184
sg3041
(dp3060
I173
S''
sI174
S'#    Ctrl+S Save via Ajax'
p3061
sI175
S'#    Ctrl+F11 Toggle Fullscreen'
p3062
sI176
S'#    Ctrl-F / Cmd-F Start searching'
p3063
sI177
S'#    Ctrl-G / Cmd-G Find Next'
p3064
sI178
S'#    Shift-Ctrl-G / Shift-Cmd-G Find Previous'
p3065
sI179
S'#    Shift-Ctrl-F / Cmd-Option-F Replace'
p3066
sI180
S'#    Shift-Ctrl-R / Shift-Cmd-Option-F Replace All'
p3067
sI181
S''
sI182
S'#Powered by web2py\xe2\x84\xa2 created by Massimo Di Pierro \xc2\xa92007-2013 - Admin language'
p3068
ssg3053
S'()'
p3069
sg3055
S'<module>'
p3070
sa(dp3071
g3032
S'/home/xchen/web2py/gluon/globals.py'
p3072
sg3034
(dp3073
S'self'
p3074
S'undefined'
p3075
sS'f'
S'<function delete_job>'
p3076
ssg3040
I188
sg3041
(dp3077
I192
S''
sI183
S'        self.menu = []             # used by the default view layout'
p3078
sI184
S'        self.files = []            # used by web2py_ajax.html'
p3079
sI185
S'        self.generic_patterns = []  # patterns to allow generic views'
p3080
sI186
S"        self.delimiters = ('{{', '}}')"
p3081
sI187
S'        self._vars = None'
p3082
sI188
S'        self._caller = lambda f: f()'
p3083
sI189
S'        self._view_environment = None'
p3084
sI190
S'        self._custom_commit = None'
p3085
sI191
S'        self._custom_rollback = None'
p3086
ssg3053
S'(f=<function delete_job>)'
p3087
sg3055
S'<lambda>'
p3088
sa(dp3089
g3032
S'/home/xchen/web2py/applications/Betsy/controllers/default.py'
p3090
sg3034
(dp3091
S'global request'
p3092
S"<Storage {'function': 'delete_job', 'body': <cSt...applications/Betsy/', 'post_vars': <Storage {}>}>"
p3093
sS'request.args'
p3094
S"['PQE41R']"
p3095
sS'global delete_job_and_update'
p3096
S'<function delete_job_and_update>'
p3097
ssg3040
I115
sg3041
(dp3098
I110
S"    args = '/'.join(request.args)"
p3099
sI111
S"    path = os.path.join('/home/xchen/chencode/examples/sample_analysis',args)"
p3100
sI112
S"    return open(path,'rb').read()"
p3101
sI113
S''
sI114
S'def delete_job():'
p3102
sI115
S'    delete_job_and_update(request.args(0))'
p3103
sI116
S"    redirect(URL('show_status'))"
p3104
sI117
S''
sI118
S'def user():'
p3105
sI119
S'    """'
p3106
ssg3053
S'()'
p3107
sg3055
S'delete_job'
p3108
sa(dp3109
g3032
S'/home/xchen/web2py/applications/Betsy/models/common_utils.py'
p3110
sg3034
(dp3111
S'global shutil'
p3112
S"<module 'shutil' from '/usr/local/lib/python2.7/shutil.pyc'>"
p3113
sS'filename'
p3114
S"'make_class_label_file_BETSYHASH1_f82033c6f0bfacd7a8100f653d008b19'"
p3115
sS'shutil.rmtree'
p3116
S'<function rmtree>'
p3117
ssg3040
I131
sg3041
(dp3118
I128
S'            print filename'
p3119
sI129
S'            if os.path.exists(os.path.join(output_path,filename)):'
p3120
sI130
S"                print 'delete'"
p3121
sI131
S'                shutil.rmtree(filename)'
p3122
sI132
S'    #update the log file'
p3123
sI133
S"    f=file(Log_file,'r')"
p3124
sI134
S"    log_information = f.read().split('\\n')"
p3125
sI135
S'    log_information = [i for i in log_information if i.strip()]'
p3126
sI126
S'            key=words[1]'
p3127
sI127
S'            filename=get_fullname_from_key(key)'
p3128
ssg3053
S"(jobname='PQE41R')"
p3129
sg3055
S'delete_job_and_update'
p3130
sa(dp3131
g3032
S'/usr/local/lib/python2.7/shutil.py'
p3132
sg3034
(dp3133
S'onerror'
p3134
S'<function onerror>'
p3135
sS'sys.exc_info'
p3136
S'<built-in function exc_info>'
p3137
sS'os.listdir'
p3138
S'<built-in function listdir>'
p3139
sS'global os'
p3140
S"<module 'os' from '/usr/local/lib/python2.7/os.pyc'>"
p3141
sS'global sys'
p3142
S"<module 'sys' (built-in)>"
p3143
sS'path'
p3144
S"'make_class_label_file_BETSYHASH1_f82033c6f0bfacd7a8100f653d008b19'"
p3145
ssg3040
I237
sg3041
(dp3146
I232
S'        return'
p3147
sI233
S'    names = []'
p3148
sI234
S'    try:'
p3149
sI235
S'        names = os.listdir(path)'
p3150
sI236
S'    except os.error, err:'
p3151
sI237
S'        onerror(os.listdir, path, sys.exc_info())'
p3152
sI238
S'    for name in names:'
p3153
sI239
S'        fullname = os.path.join(path, name)'
p3154
sI240
S'        try:'
p3155
sI241
S'            mode = os.lstat(fullname).st_mode'
p3156
ssg3053
S"(path='make_class_label_file_BETSYHASH1_f82033c6f0bfacd7a8100f653d008b19', ignore_errors=False, onerror=<function onerror>)"
p3157
sg3055
S'rmtree'
p3158
sa(dp3159
g3032
S'/usr/local/lib/python2.7/shutil.py'
p3160
sg3034
(dp3161
S'path'
p3162
S"'make_class_label_file_BETSYHASH1_f82033c6f0bfacd7a8100f653d008b19'"
p3163
sS'os.listdir'
p3164
S'<built-in function listdir>'
p3165
sS'global os'
p3166
S"<module 'os' from '/usr/local/lib/python2.7/os.pyc'>"
p3167
sS'names'
p3168
S'[]'
p3169
ssg3040
I235
sg3041
(dp3170
I230
S'        onerror(os.path.islink, path, sys.exc_info())'
p3171
sI231
S"        # can't continue even if onerror hook returns"
p3172
sI232
S'        return'
p3173
sI233
S'    names = []'
p3174
sI234
S'    try:'
p3175
sI235
S'        names = os.listdir(path)'
p3176
sI236
S'    except os.error, err:'
p3177
sI237
S'        onerror(os.listdir, path, sys.exc_info())'
p3178
sI238
S'    for name in names:'
p3179
sI239
S'        fullname = os.path.join(path, name)'
p3180
ssg3053
S"(path='make_class_label_file_BETSYHASH1_f82033c6f0bfacd7a8100f653d008b19', ignore_errors=False, onerror=<function onerror>)"
p3181
sg3055
g3158
sasS'pyver'
p3182
S'Python 2.7.3: /usr/local/bin/python'
p3183
sS'session'
p3184
g62
(g63
g64
NtRp3185
(dp3186
g67
(dp3187
sg69
(lp3188
g62
(g71
g64
NtRp3189
(dp3190
g67
(dp3191
g75
I5
ssg76
Nsg69
(lp3192
g62
(g78
g64
NtRp3193
(dp3194
g67
(dp3195
sg76
g3189
sg69
(lp3196
g62
(g83
g64
NtRp3197
(dp3198
g67
(dp3199
g87
g88
ssg76
g3193
sg69
(lp3200
S'auth'
p3201
asbag62
(g83
g64
NtRp3202
(dp3203
g67
(dp3204
g94
g95
ssg76
g3193
sg69
(lp3205
S':'
asbag62
(g83
g64
NtRp3206
(dp3207
g67
(dp3208
sg76
g3193
sg69
(lp3209
g62
(g63
g64
NtRp3210
(dp3211
g67
(dp3212
g75
I5
ssg76
g3206
sg69
(lp3213
g62
(g71
g64
NtRp3214
(dp3215
g67
(dp3216
g75
I4
ssg76
Nsg69
(lp3217
g62
(g78
g64
NtRp3218
(dp3219
g67
(dp3220
sg76
g3214
sg69
(lp3221
g62
(g83
g64
NtRp3222
(dp3223
g67
(dp3224
g87
g88
ssg76
g3218
sg69
(lp3225
S'expiration'
p3226
asbag62
(g83
g64
NtRp3227
(dp3228
g67
(dp3229
g94
g95
ssg76
g3218
sg69
(lp3230
S':'
asbag62
(g83
g64
NtRp3231
(dp3232
g67
(dp3233
sg76
g3218
sg69
(lp3234
g62
(g63
g64
NtRp3235
(dp3236
g67
(dp3237
g75
I4
ssg76
g3231
sg69
(lp3238
S'2592000'
p3239
asbasbasbag62
(g78
g64
NtRp3240
(dp3241
g67
(dp3242
sg76
g3214
sg69
(lp3243
g62
(g83
g64
NtRp3244
(dp3245
g67
(dp3246
g87
g88
ssg76
g3240
sg69
(lp3247
S'hmac_key'
p3248
asbag62
(g83
g64
NtRp3249
(dp3250
g67
(dp3251
g94
g95
ssg76
g3240
sg69
(lp3252
S':'
asbag62
(g83
g64
NtRp3253
(dp3254
g67
(dp3255
sg76
g3240
sg69
(lp3256
g62
(g63
g64
NtRp3257
(dp3258
g67
(dp3259
g75
I4
ssg76
g3253
sg69
(lp3260
S'd88cbd01-6ec0-4c53-a6e6-7b837f0345db'
p3261
asbasbasbag62
(g78
g64
NtRp3262
(dp3263
g67
(dp3264
sg76
g3214
sg69
(lp3265
g62
(g83
g64
NtRp3266
(dp3267
g67
(dp3268
g87
g88
ssg76
g3262
sg69
(lp3269
S'last_visit'
p3270
asbag62
(g83
g64
NtRp3271
(dp3272
g67
(dp3273
g94
g95
ssg76
g3262
sg69
(lp3274
S':'
asbag62
(g83
g64
NtRp3275
(dp3276
g67
(dp3277
sg76
g3262
sg69
(lp3278
g62
(g63
g64
NtRp3279
(dp3280
g67
(dp3281
g75
I4
ssg76
g3275
sg69
(lp3282
S'datetime.datetime(2013, 3, 21, 9, 40, 34, 186031)'
p3283
asbasbasbag62
(g78
g64
NtRp3284
(dp3285
g67
(dp3286
sg76
g3214
sg69
(lp3287
g62
(g83
g64
NtRp3288
(dp3289
g67
(dp3290
g87
g88
ssg76
g3284
sg69
(lp3291
S'remember'
p3292
asbag62
(g83
g64
NtRp3293
(dp3294
g67
(dp3295
g94
g95
ssg76
g3284
sg69
(lp3296
S':'
asbag62
(g83
g64
NtRp3297
(dp3298
g67
(dp3299
sg76
g3284
sg69
(lp3300
g62
(g63
g64
NtRp3301
(dp3302
g67
(dp3303
g75
I4
ssg76
g3297
sg69
(lp3304
g1600
asbasbasbag62
(g78
g64
NtRp3305
(dp3306
g67
(dp3307
sg76
g3214
sg69
(lp3308
g62
(g83
g64
NtRp3309
(dp3310
g67
(dp3311
g87
g88
ssg76
g3305
sg69
(lp3312
S'user'
p3313
asbag62
(g83
g64
NtRp3314
(dp3315
g67
(dp3316
g94
g95
ssg76
g3305
sg69
(lp3317
S':'
asbag62
(g83
g64
NtRp3318
(dp3319
g67
(dp3320
sg76
g3305
sg69
(lp3321
g62
(g63
g64
NtRp3322
(dp3323
g67
(dp3324
g75
I4
ssg76
g3318
sg69
(lp3325
g62
(g71
g64
NtRp3326
(dp3327
g67
(dp3328
g75
I3
ssg76
Nsg69
(lp3329
g62
(g78
g64
NtRp3330
(dp3331
g67
(dp3332
sg76
g3326
sg69
(lp3333
g62
(g83
g64
NtRp3334
(dp3335
g67
(dp3336
g87
g88
ssg76
g3330
sg69
(lp3337
S'email'
p3338
asbag62
(g83
g64
NtRp3339
(dp3340
g67
(dp3341
g94
g95
ssg76
g3330
sg69
(lp3342
S':'
asbag62
(g83
g64
NtRp3343
(dp3344
g67
(dp3345
sg76
g3330
sg69
(lp3346
g62
(g63
g64
NtRp3347
(dp3348
g67
(dp3349
g75
I3
ssg76
g3343
sg69
(lp3350
S'xiaoling.chen@uth.tmc.edu'
p3351
asbasbasbag62
(g78
g64
NtRp3352
(dp3353
g67
(dp3354
sg76
g3326
sg69
(lp3355
g62
(g83
g64
NtRp3356
(dp3357
g67
(dp3358
g87
g88
ssg76
g3352
sg69
(lp3359
S'first_name'
p3360
asbag62
(g83
g64
NtRp3361
(dp3362
g67
(dp3363
g94
g95
ssg76
g3352
sg69
(lp3364
S':'
asbag62
(g83
g64
NtRp3365
(dp3366
g67
(dp3367
sg76
g3352
sg69
(lp3368
g62
(g63
g64
NtRp3369
(dp3370
g67
(dp3371
g75
I3
ssg76
g3365
sg69
(lp3372
S'Xiaoling'
p3373
asbasbasbag62
(g78
g64
NtRp3374
(dp3375
g67
(dp3376
sg76
g3326
sg69
(lp3377
g62
(g83
g64
NtRp3378
(dp3379
g67
(dp3380
g87
g88
ssg76
g3374
sg69
(lp3381
S'id'
p3382
asbag62
(g83
g64
NtRp3383
(dp3384
g67
(dp3385
g94
g95
ssg76
g3374
sg69
(lp3386
S':'
asbag62
(g83
g64
NtRp3387
(dp3388
g67
(dp3389
sg76
g3374
sg69
(lp3390
g62
(g63
g64
NtRp3391
(dp3392
g67
(dp3393
g75
I3
ssg76
g3387
sg69
(lp3394
S'1'
asbasbasbag62
(g78
g64
NtRp3395
(dp3396
g67
(dp3397
sg76
g3326
sg69
(lp3398
g62
(g83
g64
NtRp3399
(dp3400
g67
(dp3401
g87
g88
ssg76
g3395
sg69
(lp3402
S'last_name'
p3403
asbag62
(g83
g64
NtRp3404
(dp3405
g67
(dp3406
g94
g95
ssg76
g3395
sg69
(lp3407
S':'
asbag62
(g83
g64
NtRp3408
(dp3409
g67
(dp3410
sg76
g3395
sg69
(lp3411
g62
(g63
g64
NtRp3412
(dp3413
g67
(dp3414
g75
I3
ssg76
g3408
sg69
(lp3415
S'Chen'
p3416
asbasbasbag62
(g78
g64
NtRp3417
(dp3418
g67
(dp3419
sg76
g3326
sg69
(lp3420
g62
(g83
g64
NtRp3421
(dp3422
g67
(dp3423
g87
g88
ssg76
g3417
sg69
(lp3424
S'registration_id'
p3425
asbag62
(g83
g64
NtRp3426
(dp3427
g67
(dp3428
g94
g95
ssg76
g3417
sg69
(lp3429
S':'
asbag62
(g83
g64
NtRp3430
(dp3431
g67
(dp3432
sg76
g3417
sg69
(lp3433
g62
(g63
g64
NtRp3434
(dp3435
g67
(dp3436
g75
I3
ssg76
g3430
sg69
(lp3437
S''
asbasbasbag62
(g78
g64
NtRp3438
(dp3439
g67
(dp3440
sg76
g3326
sg69
(lp3441
g62
(g83
g64
NtRp3442
(dp3443
g67
(dp3444
g87
g88
ssg76
g3438
sg69
(lp3445
S'registration_key'
p3446
asbag62
(g83
g64
NtRp3447
(dp3448
g67
(dp3449
g94
g95
ssg76
g3438
sg69
(lp3450
S':'
asbag62
(g83
g64
NtRp3451
(dp3452
g67
(dp3453
sg76
g3438
sg69
(lp3454
g62
(g63
g64
NtRp3455
(dp3456
g67
(dp3457
g75
I3
ssg76
g3451
sg69
(lp3458
S''
asbasbasbag62
(g78
g64
NtRp3459
(dp3460
g67
(dp3461
sg76
g3326
sg69
(lp3462
g62
(g83
g64
NtRp3463
(dp3464
g67
(dp3465
g87
g88
ssg76
g3459
sg69
(lp3466
S'reset_password_key'
p3467
asbag62
(g83
g64
NtRp3468
(dp3469
g67
(dp3470
g94
g95
ssg76
g3459
sg69
(lp3471
S':'
asbag62
(g83
g64
NtRp3472
(dp3473
g67
(dp3474
sg76
g3459
sg69
(lp3475
g62
(g63
g64
NtRp3476
(dp3477
g67
(dp3478
g75
I3
ssg76
g3472
sg69
(lp3479
S''
asbasbasbasbasbasbasbag62
(g78
g64
NtRp3480
(dp3481
g67
(dp3482
sg76
g3214
sg69
(lp3483
g62
(g83
g64
NtRp3484
(dp3485
g67
(dp3486
g87
g88
ssg76
g3480
sg69
(lp3487
S'user_groups'
p3488
asbag62
(g83
g64
NtRp3489
(dp3490
g67
(dp3491
g94
g95
ssg76
g3480
sg69
(lp3492
S':'
asbag62
(g83
g64
NtRp3493
(dp3494
g67
(dp3495
sg76
g3480
sg69
(lp3496
g62
(g63
g64
NtRp3497
(dp3498
g67
(dp3499
g75
I4
ssg76
g3493
sg69
(lp3500
g62
(g71
g64
NtRp3501
(dp3502
g67
(dp3503
g75
I3
ssg76
Nsg69
(lp3504
g62
(g78
g64
NtRp3505
(dp3506
g67
(dp3507
sg76
g3501
sg69
(lp3508
g62
(g83
g64
NtRp3509
(dp3510
g67
(dp3511
g87
g88
ssg76
g3505
sg69
(lp3512
S'1'
asbag62
(g83
g64
NtRp3513
(dp3514
g67
(dp3515
g94
g95
ssg76
g3505
sg69
(lp3516
S':'
asbag62
(g83
g64
NtRp3517
(dp3518
g67
(dp3519
sg76
g3505
sg69
(lp3520
g62
(g63
g64
NtRp3521
(dp3522
g67
(dp3523
g75
I3
ssg76
g3517
sg69
(lp3524
S'user_1'
p3525
asbasbasbasbasbasbasbasbasbasbasbag62
(g78
g64
NtRp3526
(dp3527
g67
(dp3528
sg76
g3189
sg69
(lp3529
g62
(g83
g64
NtRp3530
(dp3531
g67
(dp3532
g87
g88
ssg76
g3526
sg69
(lp3533
S'flash'
p3534
asbag62
(g83
g64
NtRp3535
(dp3536
g67
(dp3537
g94
g95
ssg76
g3526
sg69
(lp3538
S':'
asbag62
(g83
g64
NtRp3539
(dp3540
g67
(dp3541
sg76
g3526
sg69
(lp3542
g62
(g63
g64
NtRp3543
(dp3544
g67
(dp3545
g75
I5
ssg76
g3539
sg69
(lp3546
S'None'
p3547
asbasbasbag62
(g78
g64
NtRp3548
(dp3549
g67
(dp3550
sg76
g3189
sg69
(lp3551
g62
(g83
g64
NtRp3552
(dp3553
g67
(dp3554
g87
g88
ssg76
g3548
sg69
(lp3555
S'input_file'
p3556
asbag62
(g83
g64
NtRp3557
(dp3558
g67
(dp3559
g94
g95
ssg76
g3548
sg69
(lp3560
S':'
asbag62
(g83
g64
NtRp3561
(dp3562
g67
(dp3563
sg76
g3548
sg69
(lp3564
g62
(g63
g64
NtRp3565
(dp3566
g67
(dp3567
g75
I5
ssg76
g3561
sg69
(lp3568
g62
(g71
g64
NtRp3569
(dp3570
g67
(dp3571
g75
I4
ssg76
Nsg69
(lp3572
g62
(g78
g64
NtRp3573
(dp3574
g67
(dp3575
sg76
g3569
sg69
(lp3576
g62
(g83
g64
NtRp3577
(dp3578
g67
(dp3579
sg76
g3573
sg69
(lp3580
g62
(g63
g64
NtRp3581
(dp3582
g67
(dp3583
g75
I4
ssg76
g3577
sg69
(lp3584
S'--input'
p3585
asbasbasbag62
(g78
g64
NtRp3586
(dp3587
g67
(dp3588
sg76
g3569
sg69
(lp3589
g62
(g83
g64
NtRp3590
(dp3591
g67
(dp3592
sg76
g3586
sg69
(lp3593
g62
(g63
g64
NtRp3594
(dp3595
g67
(dp3596
g75
I4
ssg76
g3590
sg69
(lp3597
S'input_signal_file:/home/xchen/chencode/upload/no_table.myfile0_path.acf5023afbd70274.616c6c5f616d6c5f746573742e726573.res'
p3598
asbasbasbasbasbasbasbag62
(g78
g64
NtRp3599
(dp3600
g67
(dp3601
sg76
g3189
sg69
(lp3602
g62
(g83
g64
NtRp3603
(dp3604
g67
(dp3605
g87
g88
ssg76
g3599
sg69
(lp3606
S'label'
p3607
asbag62
(g83
g64
NtRp3608
(dp3609
g67
(dp3610
g94
g95
ssg76
g3599
sg69
(lp3611
S':'
asbag62
(g83
g64
NtRp3612
(dp3613
g67
(dp3614
sg76
g3599
sg69
(lp3615
g62
(g63
g64
NtRp3616
(dp3617
g67
(dp3618
g75
I5
ssg76
g3612
sg69
(lp3619
S'normalize_file'
p3620
asbasbasbag62
(g78
g64
NtRp3621
(dp3622
g67
(dp3623
sg76
g3189
sg69
(lp3624
g62
(g83
g64
NtRp3625
(dp3626
g67
(dp3627
g87
g88
ssg76
g3621
sg69
(lp3628
S'last_orderby'
p3629
asbag62
(g83
g64
NtRp3630
(dp3631
g67
(dp3632
g94
g95
ssg76
g3621
sg69
(lp3633
S':'
asbag62
(g83
g64
NtRp3634
(dp3635
g67
(dp3636
sg76
g3621
sg69
(lp3637
g62
(g63
g64
NtRp3638
(dp3639
g67
(dp3640
g75
I5
ssg76
g3634
sg69
(lp3641
S'None'
p3642
asbasbasbag62
(g78
g64
NtRp3643
(dp3644
g67
(dp3645
sg76
g3189
sg69
(lp3646
g62
(g83
g64
NtRp3647
(dp3648
g67
(dp3649
g87
g88
ssg76
g3643
sg69
(lp3650
S'last_query'
p3651
asbag62
(g83
g64
NtRp3652
(dp3653
g67
(dp3654
g94
g95
ssg76
g3643
sg69
(lp3655
S':'
asbag62
(g83
g64
NtRp3656
(dp3657
g67
(dp3658
sg76
g3643
sg69
(lp3659
g62
(g63
g64
NtRp3660
(dp3661
g67
(dp3662
g75
I5
ssg76
g3656
sg69
(lp3663
S'db.status.id>0'
p3664
asbasbasbag62
(g78
g64
NtRp3665
(dp3666
g67
(dp3667
sg76
g3189
sg69
(lp3668
g62
(g83
g64
NtRp3669
(dp3670
g67
(dp3671
g87
g88
ssg76
g3665
sg69
(lp3672
S'output'
p3673
asbag62
(g83
g64
NtRp3674
(dp3675
g67
(dp3676
g94
g95
ssg76
g3665
sg69
(lp3677
S':'
asbag62
(g83
g64
NtRp3678
(dp3679
g67
(dp3680
sg76
g3665
sg69
(lp3681
g62
(g63
g64
NtRp3682
(dp3683
g67
(dp3684
g75
I5
ssg76
g3678
sg69
(lp3685
g62
(g71
g64
NtRp3686
(dp3687
g67
(dp3688
g75
I4
ssg76
Nsg69
(lp3689
sbasbasbasbag62
(g78
g64
NtRp3690
(dp3691
g67
(dp3692
sg76
g3189
sg69
(lp3693
g62
(g83
g64
NtRp3694
(dp3695
g67
(dp3696
g87
g88
ssg76
g3690
sg69
(lp3697
S'parameters'
p3698
asbag62
(g83
g64
NtRp3699
(dp3700
g67
(dp3701
g94
g95
ssg76
g3690
sg69
(lp3702
S':'
asbag62
(g83
g64
NtRp3703
(dp3704
g67
(dp3705
sg76
g3690
sg69
(lp3706
g62
(g63
g64
NtRp3707
(dp3708
g67
(dp3709
g75
I5
ssg76
g3703
sg69
(lp3710
g62
(g71
g64
NtRp3711
(dp3712
g67
(dp3713
g75
I4
ssg76
Nsg69
(lp3714
g62
(g78
g64
NtRp3715
(dp3716
g67
(dp3717
sg76
g3711
sg69
(lp3718
g62
(g83
g64
NtRp3719
(dp3720
g67
(dp3721
sg76
g3715
sg69
(lp3722
g62
(g63
g64
NtRp3723
(dp3724
g67
(dp3725
g75
I4
ssg76
g3719
sg69
(lp3726
S'--parameters'
p3727
asbasbasbag62
(g78
g64
NtRp3728
(dp3729
g67
(dp3730
sg76
g3711
sg69
(lp3731
g62
(g83
g64
NtRp3732
(dp3733
g67
(dp3734
sg76
g3728
sg69
(lp3735
g62
(g63
g64
NtRp3736
(dp3737
g67
(dp3738
g75
I4
ssg76
g3732
sg69
(lp3739
S'gene_center:no_gene_center'
p3740
asbasbasbag62
(g78
g64
NtRp3741
(dp3742
g67
(dp3743
sg76
g3711
sg69
(lp3744
g62
(g83
g64
NtRp3745
(dp3746
g67
(dp3747
sg76
g3741
sg69
(lp3748
g62
(g63
g64
NtRp3749
(dp3750
g67
(dp3751
g75
I4
ssg76
g3745
sg69
(lp3752
g3727
asbasbasbag62
(g78
g64
NtRp3753
(dp3754
g67
(dp3755
sg76
g3711
sg69
(lp3756
g62
(g83
g64
NtRp3757
(dp3758
g67
(dp3759
sg76
g3753
sg69
(lp3760
g62
(g63
g64
NtRp3761
(dp3762
g67
(dp3763
g75
I4
ssg76
g3757
sg69
(lp3764
S'gene_order:no_order'
p3765
asbasbasbag62
(g78
g64
NtRp3766
(dp3767
g67
(dp3768
sg76
g3711
sg69
(lp3769
g62
(g83
g64
NtRp3770
(dp3771
g67
(dp3772
sg76
g3766
sg69
(lp3773
g62
(g63
g64
NtRp3774
(dp3775
g67
(dp3776
g75
I4
ssg76
g3770
sg69
(lp3777
g3727
asbasbasbag62
(g78
g64
NtRp3778
(dp3779
g67
(dp3780
sg76
g3711
sg69
(lp3781
g62
(g83
g64
NtRp3782
(dp3783
g67
(dp3784
sg76
g3778
sg69
(lp3785
g62
(g63
g64
NtRp3786
(dp3787
g67
(dp3788
g75
I4
ssg76
g3782
sg69
(lp3789
S'gene_normalize:no_gene_normalize'
p3790
asbasbasbag62
(g78
g64
NtRp3791
(dp3792
g67
(dp3793
sg76
g3711
sg69
(lp3794
g62
(g83
g64
NtRp3795
(dp3796
g67
(dp3797
sg76
g3791
sg69
(lp3798
g62
(g63
g64
NtRp3799
(dp3800
g67
(dp3801
g75
I4
ssg76
g3795
sg69
(lp3802
g3727
asbasbasbag62
(g78
g64
NtRp3803
(dp3804
g67
(dp3805
sg76
g3711
sg69
(lp3806
g62
(g83
g64
NtRp3807
(dp3808
g67
(dp3809
sg76
g3803
sg69
(lp3810
g62
(g63
g64
NtRp3811
(dp3812
g67
(dp3813
g75
I4
ssg76
g3807
sg69
(lp3814
S'combat:no_combat'
p3815
asbasbasbag62
(g78
g64
NtRp3816
(dp3817
g67
(dp3818
sg76
g3711
sg69
(lp3819
g62
(g83
g64
NtRp3820
(dp3821
g67
(dp3822
sg76
g3816
sg69
(lp3823
g62
(g63
g64
NtRp3824
(dp3825
g67
(dp3826
g75
I4
ssg76
g3820
sg69
(lp3827
g3727
asbasbasbag62
(g78
g64
NtRp3828
(dp3829
g67
(dp3830
sg76
g3711
sg69
(lp3831
g62
(g83
g64
NtRp3832
(dp3833
g67
(dp3834
sg76
g3828
sg69
(lp3835
g62
(g63
g64
NtRp3836
(dp3837
g67
(dp3838
g75
I4
ssg76
g3832
sg69
(lp3839
S'quantile:no_quantile'
p3840
asbasbasbag62
(g78
g64
NtRp3841
(dp3842
g67
(dp3843
sg76
g3711
sg69
(lp3844
g62
(g83
g64
NtRp3845
(dp3846
g67
(dp3847
sg76
g3841
sg69
(lp3848
g62
(g63
g64
NtRp3849
(dp3850
g67
(dp3851
g75
I4
ssg76
g3845
sg69
(lp3852
g3727
asbasbasbag62
(g78
g64
NtRp3853
(dp3854
g67
(dp3855
sg76
g3711
sg69
(lp3856
g62
(g83
g64
NtRp3857
(dp3858
g67
(dp3859
sg76
g3853
sg69
(lp3860
g62
(g63
g64
NtRp3861
(dp3862
g67
(dp3863
g75
I4
ssg76
g3857
sg69
(lp3864
S'predataset:no_predataset'
p3865
asbasbasbag62
(g78
g64
NtRp3866
(dp3867
g67
(dp3868
sg76
g3711
sg69
(lp3869
g62
(g83
g64
NtRp3870
(dp3871
g67
(dp3872
sg76
g3866
sg69
(lp3873
g62
(g63
g64
NtRp3874
(dp3875
g67
(dp3876
g75
I4
ssg76
g3870
sg69
(lp3877
g3727
asbasbasbag62
(g78
g64
NtRp3878
(dp3879
g67
(dp3880
sg76
g3711
sg69
(lp3881
g62
(g83
g64
NtRp3882
(dp3883
g67
(dp3884
sg76
g3878
sg69
(lp3885
g62
(g63
g64
NtRp3886
(dp3887
g67
(dp3888
g75
I4
ssg76
g3882
sg69
(lp3889
S'dwd:no_dwd'
p3890
asbasbasbag62
(g78
g64
NtRp3891
(dp3892
g67
(dp3893
sg76
g3711
sg69
(lp3894
g62
(g83
g64
NtRp3895
(dp3896
g67
(dp3897
sg76
g3891
sg69
(lp3898
g62
(g63
g64
NtRp3899
(dp3900
g67
(dp3901
g75
I4
ssg76
g3895
sg69
(lp3902
g3727
asbasbasbag62
(g78
g64
NtRp3903
(dp3904
g67
(dp3905
sg76
g3711
sg69
(lp3906
g62
(g83
g64
NtRp3907
(dp3908
g67
(dp3909
sg76
g3903
sg69
(lp3910
g62
(g63
g64
NtRp3911
(dp3912
g67
(dp3913
g75
I4
ssg76
g3907
sg69
(lp3914
S'unique_genes:no_unique_genes'
p3915
asbasbasbag62
(g78
g64
NtRp3916
(dp3917
g67
(dp3918
sg76
g3711
sg69
(lp3919
g62
(g83
g64
NtRp3920
(dp3921
g67
(dp3922
sg76
g3916
sg69
(lp3923
g62
(g63
g64
NtRp3924
(dp3925
g67
(dp3926
g75
I4
ssg76
g3920
sg69
(lp3927
g3727
asbasbasbag62
(g78
g64
NtRp3928
(dp3929
g67
(dp3930
sg76
g3711
sg69
(lp3931
g62
(g83
g64
NtRp3932
(dp3933
g67
(dp3934
sg76
g3928
sg69
(lp3935
g62
(g63
g64
NtRp3936
(dp3937
g67
(dp3938
g75
I4
ssg76
g3932
sg69
(lp3939
S'rename_sample:no_rename'
p3940
asbasbasbag62
(g78
g64
NtRp3941
(dp3942
g67
(dp3943
sg76
g3711
sg69
(lp3944
g62
(g83
g64
NtRp3945
(dp3946
g67
(dp3947
sg76
g3941
sg69
(lp3948
g62
(g63
g64
NtRp3949
(dp3950
g67
(dp3951
g75
I4
ssg76
g3945
sg69
(lp3952
g3727
asbasbasbag62
(g78
g64
NtRp3953
(dp3954
g67
(dp3955
sg76
g3711
sg69
(lp3956
g62
(g83
g64
NtRp3957
(dp3958
g67
(dp3959
sg76
g3953
sg69
(lp3960
g62
(g63
g64
NtRp3961
(dp3962
g67
(dp3963
g75
I4
ssg76
g3957
sg69
(lp3964
S'has_missing_value:zero_fill'
p3965
asbasbasbag62
(g78
g64
NtRp3966
(dp3967
g67
(dp3968
sg76
g3711
sg69
(lp3969
g62
(g83
g64
NtRp3970
(dp3971
g67
(dp3972
sg76
g3966
sg69
(lp3973
g62
(g63
g64
NtRp3974
(dp3975
g67
(dp3976
g75
I4
ssg76
g3970
sg69
(lp3977
g3727
asbasbasbag62
(g78
g64
NtRp3978
(dp3979
g67
(dp3980
sg76
g3711
sg69
(lp3981
g62
(g83
g64
NtRp3982
(dp3983
g67
(dp3984
sg76
g3978
sg69
(lp3985
g62
(g63
g64
NtRp3986
(dp3987
g67
(dp3988
g75
I4
ssg76
g3982
sg69
(lp3989
S'format:tdf'
p3990
asbasbasbag62
(g78
g64
NtRp3991
(dp3992
g67
(dp3993
sg76
g3711
sg69
(lp3994
g62
(g83
g64
NtRp3995
(dp3996
g67
(dp3997
sg76
g3991
sg69
(lp3998
g62
(g63
g64
NtRp3999
(dp4000
g67
(dp4001
g75
I4
ssg76
g3995
sg69
(lp4002
g3727
asbasbasbag62
(g78
g64
NtRp4003
(dp4004
g67
(dp4005
sg76
g3711
sg69
(lp4006
g62
(g83
g64
NtRp4007
(dp4008
g67
(dp4009
sg76
g4003
sg69
(lp4010
g62
(g63
g64
NtRp4011
(dp4012
g67
(dp4013
g75
I4
ssg76
g4007
sg69
(lp4014
S'num_features:0'
p4015
asbasbasbag62
(g78
g64
NtRp4016
(dp4017
g67
(dp4018
sg76
g3711
sg69
(lp4019
g62
(g83
g64
NtRp4020
(dp4021
g67
(dp4022
sg76
g4016
sg69
(lp4023
g62
(g63
g64
NtRp4024
(dp4025
g67
(dp4026
g75
I4
ssg76
g4020
sg69
(lp4027
g3727
asbasbasbag62
(g78
g64
NtRp4028
(dp4029
g67
(dp4030
sg76
g3711
sg69
(lp4031
g62
(g83
g64
NtRp4032
(dp4033
g67
(dp4034
sg76
g4028
sg69
(lp4035
g62
(g63
g64
NtRp4036
(dp4037
g67
(dp4038
g75
I4
ssg76
g4032
sg69
(lp4039
S'shiftscale:no_shiftscale'
p4040
asbasbasbag62
(g78
g64
NtRp4041
(dp4042
g67
(dp4043
sg76
g3711
sg69
(lp4044
g62
(g83
g64
NtRp4045
(dp4046
g67
(dp4047
sg76
g4041
sg69
(lp4048
g62
(g63
g64
NtRp4049
(dp4050
g67
(dp4051
g75
I4
ssg76
g4045
sg69
(lp4052
g3727
asbasbasbag62
(g78
g64
NtRp4053
(dp4054
g67
(dp4055
sg76
g3711
sg69
(lp4056
g62
(g83
g64
NtRp4057
(dp4058
g67
(dp4059
sg76
g4053
sg69
(lp4060
g62
(g63
g64
NtRp4061
(dp4062
g67
(dp4063
g75
I4
ssg76
g4057
sg69
(lp4064
S'filter:0'
p4065
asbasbasbag62
(g78
g64
NtRp4066
(dp4067
g67
(dp4068
sg76
g3711
sg69
(lp4069
g62
(g83
g64
NtRp4070
(dp4071
g67
(dp4072
sg76
g4066
sg69
(lp4073
g62
(g63
g64
NtRp4074
(dp4075
g67
(dp4076
g75
I4
ssg76
g4070
sg69
(lp4077
g3727
asbasbasbag62
(g78
g64
NtRp4078
(dp4079
g67
(dp4080
sg76
g3711
sg69
(lp4081
g62
(g83
g64
NtRp4082
(dp4083
g67
(dp4084
sg76
g4078
sg69
(lp4085
g62
(g63
g64
NtRp4086
(dp4087
g67
(dp4088
g75
I4
ssg76
g4082
sg69
(lp4089
S'is_logged:logged'
p4090
asbasbasbag62
(g78
g64
NtRp4091
(dp4092
g67
(dp4093
sg76
g3711
sg69
(lp4094
g62
(g83
g64
NtRp4095
(dp4096
g67
(dp4097
sg76
g4091
sg69
(lp4098
g62
(g63
g64
NtRp4099
(dp4100
g67
(dp4101
g75
I4
ssg76
g4095
sg69
(lp4102
g3727
asbasbasbag62
(g78
g64
NtRp4103
(dp4104
g67
(dp4105
sg76
g3711
sg69
(lp4106
g62
(g83
g64
NtRp4107
(dp4108
g67
(dp4109
sg76
g4103
sg69
(lp4110
g62
(g63
g64
NtRp4111
(dp4112
g67
(dp4113
g75
I4
ssg76
g4107
sg69
(lp4114
S'bfrm:no_bfrm'
p4115
asbasbasbasbasbasbasbag62
(g78
g64
NtRp4116
(dp4117
g67
(dp4118
sg76
g3189
sg69
(lp4119
g62
(g83
g64
NtRp4120
(dp4121
g67
(dp4122
g87
g88
ssg76
g4116
sg69
(lp4123
S'protocol'
p4124
asbag62
(g83
g64
NtRp4125
(dp4126
g67
(dp4127
g94
g95
ssg76
g4116
sg69
(lp4128
S':'
asbag62
(g83
g64
NtRp4129
(dp4130
g67
(dp4131
sg76
g4116
sg69
(lp4132
g62
(g63
g64
NtRp4133
(dp4134
g67
(dp4135
g75
I5
ssg76
g4129
sg69
(lp4136
g3620
asbasbasbasbasbsS'etype'
p4137
S"<type 'exceptions.OSError'>"
p4138
sS'date'
p4139
S'Thu Mar 21 10:34:43 2013'
p4140
sS'response'
p4141
g62
(g63
g64
NtRp4142
(dp4143
g67
(dp4144
sg69
(lp4145
g62
(g71
g64
NtRp4146
(dp4147
g67
(dp4148
g75
I5
ssg76
Nsg69
(lp4149
g62
(g78
g64
NtRp4150
(dp4151
g67
(dp4152
sg76
g4146
sg69
(lp4153
g62
(g83
g64
NtRp4154
(dp4155
g67
(dp4156
g87
g88
ssg76
g4150
sg69
(lp4157
g173
asbag62
(g83
g64
NtRp4158
(dp4159
g67
(dp4160
g94
g95
ssg76
g4150
sg69
(lp4161
S':'
asbag62
(g83
g64
NtRp4162
(dp4163
g67
(dp4164
sg76
g4150
sg69
(lp4165
g62
(g63
g64
NtRp4166
(dp4167
g67
(dp4168
g75
I5
ssg76
g4162
sg69
(lp4169
S'<cStringIO.StringO object at 0xb85b030>'
p4170
asbasbasbag62
(g78
g64
NtRp4171
(dp4172
g67
(dp4173
sg76
g4146
sg69
(lp4174
g62
(g83
g64
NtRp4175
(dp4176
g67
(dp4177
g87
g88
ssg76
g4171
sg69
(lp4178
g261
asbag62
(g83
g64
NtRp4179
(dp4180
g67
(dp4181
g94
g95
ssg76
g4171
sg69
(lp4182
S':'
asbag62
(g83
g64
NtRp4183
(dp4184
g67
(dp4185
sg76
g4171
sg69
(lp4186
g62
(g63
g64
NtRp4187
(dp4188
g67
(dp4189
g75
I5
ssg76
g4183
sg69
(lp4190
g62
(g71
g64
NtRp4191
(dp4192
g67
(dp4193
g75
I4
ssg76
Nsg69
(lp4194
g62
(g78
g64
NtRp4195
(dp4196
g67
(dp4197
sg76
g4191
sg69
(lp4198
g62
(g83
g64
NtRp4199
(dp4200
g67
(dp4201
g87
g88
ssg76
g4195
sg69
(lp4202
S'session_id_betsy'
p4203
asbag62
(g83
g64
NtRp4204
(dp4205
g67
(dp4206
g94
g95
ssg76
g4195
sg69
(lp4207
S':'
asbag62
(g83
g64
NtRp4208
(dp4209
g67
(dp4210
sg76
g4195
sg69
(lp4211
g62
(g63
g64
NtRp4212
(dp4213
g67
(dp4214
g75
I4
ssg76
g4208
sg69
(lp4215
g493
ag62
(g71
g64
NtRp4216
(dp4217
g67
(dp4218
g75
I3
ssg76
Nsg69
(lp4219
g62
(g78
g64
NtRp4220
(dp4221
g67
(dp4222
sg76
g4216
sg69
(lp4223
g62
(g83
g64
NtRp4224
(dp4225
g67
(dp4226
g87
g88
ssg76
g4220
sg69
(lp4227
g312
asbag62
(g83
g64
NtRp4228
(dp4229
g67
(dp4230
g94
g95
ssg76
g4220
sg69
(lp4231
S':'
asbag62
(g83
g64
NtRp4232
(dp4233
g67
(dp4234
sg76
g4220
sg69
(lp4235
g62
(g63
g64
NtRp4236
(dp4237
g67
(dp4238
g75
I3
ssg76
g4232
sg69
(lp4239
S''
asbasbasbag62
(g78
g64
NtRp4240
(dp4241
g67
(dp4242
sg76
g4216
sg69
(lp4243
g62
(g83
g64
NtRp4244
(dp4245
g67
(dp4246
g87
g88
ssg76
g4240
sg69
(lp4247
g333
asbag62
(g83
g64
NtRp4248
(dp4249
g67
(dp4250
g94
g95
ssg76
g4240
sg69
(lp4251
S':'
asbag62
(g83
g64
NtRp4252
(dp4253
g67
(dp4254
sg76
g4240
sg69
(lp4255
g62
(g63
g64
NtRp4256
(dp4257
g67
(dp4258
g75
I3
ssg76
g4252
sg69
(lp4259
S''
asbasbasbag62
(g78
g64
NtRp4260
(dp4261
g67
(dp4262
sg76
g4216
sg69
(lp4263
g62
(g83
g64
NtRp4264
(dp4265
g67
(dp4266
g87
g88
ssg76
g4260
sg69
(lp4267
g354
asbag62
(g83
g64
NtRp4268
(dp4269
g67
(dp4270
g94
g95
ssg76
g4260
sg69
(lp4271
S':'
asbag62
(g83
g64
NtRp4272
(dp4273
g67
(dp4274
sg76
g4260
sg69
(lp4275
g62
(g63
g64
NtRp4276
(dp4277
g67
(dp4278
g75
I3
ssg76
g4272
sg69
(lp4279
S'2592000'
p4280
asbasbasbag62
(g78
g64
NtRp4281
(dp4282
g67
(dp4283
sg76
g4216
sg69
(lp4284
g62
(g83
g64
NtRp4285
(dp4286
g67
(dp4287
g87
g88
ssg76
g4281
sg69
(lp4288
g375
asbag62
(g83
g64
NtRp4289
(dp4290
g67
(dp4291
g94
g95
ssg76
g4281
sg69
(lp4292
S':'
asbag62
(g83
g64
NtRp4293
(dp4294
g67
(dp4295
sg76
g4281
sg69
(lp4296
g62
(g63
g64
NtRp4297
(dp4298
g67
(dp4299
g75
I3
ssg76
g4293
sg69
(lp4300
S''
asbasbasbag62
(g78
g64
NtRp4301
(dp4302
g67
(dp4303
sg76
g4216
sg69
(lp4304
g62
(g83
g64
NtRp4305
(dp4306
g67
(dp4307
g87
g88
ssg76
g4301
sg69
(lp4308
g396
asbag62
(g83
g64
NtRp4309
(dp4310
g67
(dp4311
g94
g95
ssg76
g4301
sg69
(lp4312
S':'
asbag62
(g83
g64
NtRp4313
(dp4314
g67
(dp4315
sg76
g4301
sg69
(lp4316
g62
(g63
g64
NtRp4317
(dp4318
g67
(dp4319
g75
I3
ssg76
g4313
sg69
(lp4320
S''
asbasbasbag62
(g78
g64
NtRp4321
(dp4322
g67
(dp4323
sg76
g4216
sg69
(lp4324
g62
(g83
g64
NtRp4325
(dp4326
g67
(dp4327
g87
g88
ssg76
g4321
sg69
(lp4328
g417
asbag62
(g83
g64
NtRp4329
(dp4330
g67
(dp4331
g94
g95
ssg76
g4321
sg69
(lp4332
S':'
asbag62
(g83
g64
NtRp4333
(dp4334
g67
(dp4335
sg76
g4321
sg69
(lp4336
g62
(g63
g64
NtRp4337
(dp4338
g67
(dp4339
g75
I3
ssg76
g4333
sg69
(lp4340
S'/'
asbasbasbag62
(g78
g64
NtRp4341
(dp4342
g67
(dp4343
sg76
g4216
sg69
(lp4344
g62
(g83
g64
NtRp4345
(dp4346
g67
(dp4347
g87
g88
ssg76
g4341
sg69
(lp4348
g438
asbag62
(g83
g64
NtRp4349
(dp4350
g67
(dp4351
g94
g95
ssg76
g4341
sg69
(lp4352
S':'
asbag62
(g83
g64
NtRp4353
(dp4354
g67
(dp4355
sg76
g4341
sg69
(lp4356
g62
(g63
g64
NtRp4357
(dp4358
g67
(dp4359
g75
I3
ssg76
g4353
sg69
(lp4360
S''
asbasbasbag62
(g78
g64
NtRp4361
(dp4362
g67
(dp4363
sg76
g4216
sg69
(lp4364
g62
(g83
g64
NtRp4365
(dp4366
g67
(dp4367
g87
g88
ssg76
g4361
sg69
(lp4368
g459
asbag62
(g83
g64
NtRp4369
(dp4370
g67
(dp4371
g94
g95
ssg76
g4361
sg69
(lp4372
S':'
asbag62
(g83
g64
NtRp4373
(dp4374
g67
(dp4375
sg76
g4361
sg69
(lp4376
g62
(g63
g64
NtRp4377
(dp4378
g67
(dp4379
g75
I3
ssg76
g4373
sg69
(lp4380
S''
asbasbasbasbasbasbasbasbasbasbasbag62
(g78
g64
NtRp4381
(dp4382
g67
(dp4383
sg76
g4146
sg69
(lp4384
g62
(g83
g64
NtRp4385
(dp4386
g67
(dp4387
g87
g88
ssg76
g4381
sg69
(lp4388
S'delimiters'
p4389
asbag62
(g83
g64
NtRp4390
(dp4391
g67
(dp4392
g94
g95
ssg76
g4381
sg69
(lp4393
S':'
asbag62
(g83
g64
NtRp4394
(dp4395
g67
(dp4396
sg76
g4381
sg69
(lp4397
g62
(g63
g64
NtRp4398
(dp4399
g67
(dp4400
g75
I5
ssg76
g4394
sg69
(lp4401
g62
(g71
g64
NtRp4402
(dp4403
g67
(dp4404
g75
I4
ssg76
Nsg69
(lp4405
g62
(g78
g64
NtRp4406
(dp4407
g67
(dp4408
sg76
g4402
sg69
(lp4409
g62
(g83
g64
NtRp4410
(dp4411
g67
(dp4412
sg76
g4406
sg69
(lp4413
g62
(g63
g64
NtRp4414
(dp4415
g67
(dp4416
g75
I4
ssg76
g4410
sg69
(lp4417
S'{{'
p4418
asbasbasbag62
(g78
g64
NtRp4419
(dp4420
g67
(dp4421
sg76
g4402
sg69
(lp4422
g62
(g83
g64
NtRp4423
(dp4424
g67
(dp4425
sg76
g4419
sg69
(lp4426
g62
(g63
g64
NtRp4427
(dp4428
g67
(dp4429
g75
I4
ssg76
g4423
sg69
(lp4430
S'}}'
p4431
asbasbasbasbasbasbasbag62
(g78
g64
NtRp4432
(dp4433
g67
(dp4434
sg76
g4146
sg69
(lp4435
g62
(g83
g64
NtRp4436
(dp4437
g67
(dp4438
g87
g88
ssg76
g4432
sg69
(lp4439
S'files'
p4440
asbag62
(g83
g64
NtRp4441
(dp4442
g67
(dp4443
g94
g95
ssg76
g4432
sg69
(lp4444
S':'
asbag62
(g83
g64
NtRp4445
(dp4446
g67
(dp4447
sg76
g4432
sg69
(lp4448
g62
(g63
g64
NtRp4449
(dp4450
g67
(dp4451
g75
I5
ssg76
g4445
sg69
(lp4452
g62
(g71
g64
NtRp4453
(dp4454
g67
(dp4455
g75
I4
ssg76
Nsg69
(lp4456
sbasbasbasbag62
(g78
g64
NtRp4457
(dp4458
g67
(dp4459
sg76
g4146
sg69
(lp4460
g62
(g83
g64
NtRp4461
(dp4462
g67
(dp4463
g87
g88
ssg76
g4457
sg69
(lp4464
S'flash'
p4465
asbag62
(g83
g64
NtRp4466
(dp4467
g67
(dp4468
g94
g95
ssg76
g4457
sg69
(lp4469
S':'
asbag62
(g83
g64
NtRp4470
(dp4471
g67
(dp4472
sg76
g4457
sg69
(lp4473
g62
(g63
g64
NtRp4474
(dp4475
g67
(dp4476
g75
I5
ssg76
g4470
sg69
(lp4477
S''
asbasbasbag62
(g78
g64
NtRp4478
(dp4479
g67
(dp4480
sg76
g4146
sg69
(lp4481
g62
(g83
g64
NtRp4482
(dp4483
g67
(dp4484
g87
g88
ssg76
g4478
sg69
(lp4485
S'generic_patterns'
p4486
asbag62
(g83
g64
NtRp4487
(dp4488
g67
(dp4489
g94
g95
ssg76
g4478
sg69
(lp4490
S':'
asbag62
(g83
g64
NtRp4491
(dp4492
g67
(dp4493
sg76
g4478
sg69
(lp4494
g62
(g63
g64
NtRp4495
(dp4496
g67
(dp4497
g75
I5
ssg76
g4491
sg69
(lp4498
g62
(g71
g64
NtRp4499
(dp4500
g67
(dp4501
g75
I4
ssg76
Nsg69
(lp4502
g62
(g78
g64
NtRp4503
(dp4504
g67
(dp4505
sg76
g4499
sg69
(lp4506
g62
(g83
g64
NtRp4507
(dp4508
g67
(dp4509
sg76
g4503
sg69
(lp4510
g62
(g63
g64
NtRp4511
(dp4512
g67
(dp4513
g75
I4
ssg76
g4507
sg69
(lp4514
S'*'
asbasbasbasbasbasbasbag62
(g78
g64
NtRp4515
(dp4516
g67
(dp4517
sg76
g4146
sg69
(lp4518
g62
(g83
g64
NtRp4519
(dp4520
g67
(dp4521
g87
g88
ssg76
g4515
sg69
(lp4522
S'google_analytics_id'
p4523
asbag62
(g83
g64
NtRp4524
(dp4525
g67
(dp4526
g94
g95
ssg76
g4515
sg69
(lp4527
S':'
asbag62
(g83
g64
NtRp4528
(dp4529
g67
(dp4530
sg76
g4515
sg69
(lp4531
g62
(g63
g64
NtRp4532
(dp4533
g67
(dp4534
g75
I5
ssg76
g4528
sg69
(lp4535
S'None'
p4536
asbasbasbag62
(g78
g64
NtRp4537
(dp4538
g67
(dp4539
sg76
g4146
sg69
(lp4540
g62
(g83
g64
NtRp4541
(dp4542
g67
(dp4543
g87
g88
ssg76
g4537
sg69
(lp4544
S'headers'
p4545
asbag62
(g83
g64
NtRp4546
(dp4547
g67
(dp4548
g94
g95
ssg76
g4537
sg69
(lp4549
S':'
asbag62
(g83
g64
NtRp4550
(dp4551
g67
(dp4552
sg76
g4537
sg69
(lp4553
g62
(g63
g64
NtRp4554
(dp4555
g67
(dp4556
g75
I5
ssg76
g4550
sg69
(lp4557
g62
(g71
g64
NtRp4558
(dp4559
g67
(dp4560
g75
I4
ssg76
Nsg69
(lp4561
g62
(g78
g64
NtRp4562
(dp4563
g67
(dp4564
sg76
g4558
sg69
(lp4565
g62
(g83
g64
NtRp4566
(dp4567
g67
(dp4568
g87
g88
ssg76
g4562
sg69
(lp4569
S'X-Powered-By'
p4570
asbag62
(g83
g64
NtRp4571
(dp4572
g67
(dp4573
g94
g95
ssg76
g4562
sg69
(lp4574
S':'
asbag62
(g83
g64
NtRp4575
(dp4576
g67
(dp4577
sg76
g4562
sg69
(lp4578
g62
(g63
g64
NtRp4579
(dp4580
g67
(dp4581
g75
I4
ssg76
g4575
sg69
(lp4582
S'web2py'
p4583
asbasbasbasbasbasbasbag62
(g78
g64
NtRp4584
(dp4585
g67
(dp4586
sg76
g4146
sg69
(lp4587
g62
(g83
g64
NtRp4588
(dp4589
g67
(dp4590
g87
g88
ssg76
g4584
sg69
(lp4591
S'menu'
p4592
asbag62
(g83
g64
NtRp4593
(dp4594
g67
(dp4595
g94
g95
ssg76
g4584
sg69
(lp4596
S':'
asbag62
(g83
g64
NtRp4597
(dp4598
g67
(dp4599
sg76
g4584
sg69
(lp4600
g62
(g63
g64
NtRp4601
(dp4602
g67
(dp4603
g75
I5
ssg76
g4597
sg69
(lp4604
g62
(g71
g64
NtRp4605
(dp4606
g67
(dp4607
g75
I4
ssg76
Nsg69
(lp4608
g62
(g78
g64
NtRp4609
(dp4610
g67
(dp4611
sg76
g4605
sg69
(lp4612
g62
(g83
g64
NtRp4613
(dp4614
g67
(dp4615
sg76
g4609
sg69
(lp4616
g62
(g63
g64
NtRp4617
(dp4618
g67
(dp4619
g75
I4
ssg76
g4613
sg69
(lp4620
g62
(g71
g64
NtRp4621
(dp4622
g67
(dp4623
g75
I3
ssg76
Nsg69
(lp4624
g62
(g78
g64
NtRp4625
(dp4626
g67
(dp4627
sg76
g4621
sg69
(lp4628
g62
(g83
g64
NtRp4629
(dp4630
g67
(dp4631
sg76
g4625
sg69
(lp4632
g62
(g63
g64
NtRp4633
(dp4634
g67
(dp4635
g75
I3
ssg76
g4629
sg69
(lp4636
cgluon.languages
lazyT_unpickle
p4637
(S's\x04\x00\x00\x00Home'
tRp4638
asbasbasbag62
(g78
g64
NtRp4639
(dp4640
g67
(dp4641
sg76
g4621
sg69
(lp4642
g62
(g83
g64
NtRp4643
(dp4644
g67
(dp4645
sg76
g4639
sg69
(lp4646
g62
(g63
g64
NtRp4647
(dp4648
g67
(dp4649
g75
I3
ssg76
g4643
sg69
(lp4650
g105
asbasbasbag62
(g78
g64
NtRp4651
(dp4652
g67
(dp4653
sg76
g4621
sg69
(lp4654
g62
(g83
g64
NtRp4655
(dp4656
g67
(dp4657
sg76
g4651
sg69
(lp4658
g62
(g63
g64
NtRp4659
(dp4660
g67
(dp4661
g75
I3
ssg76
g4655
sg69
(lp4662
S'/Betsy/default/index'
p4663
asbasbasbag62
(g78
g64
NtRp4664
(dp4665
g67
(dp4666
sg76
g4621
sg69
(lp4667
g62
(g83
g64
NtRp4668
(dp4669
g67
(dp4670
sg76
g4664
sg69
(lp4671
g62
(g63
g64
NtRp4672
(dp4673
g67
(dp4674
g75
I3
ssg76
g4668
sg69
(lp4675
g62
(g71
g64
NtRp4676
(dp4677
g67
(dp4678
g75
I2
ssg76
Nsg69
(lp4679
sbasbasbasbasbasbasbasbag62
(g78
g64
NtRp4680
(dp4681
g67
(dp4682
sg76
g4605
sg69
(lp4683
g62
(g83
g64
NtRp4684
(dp4685
g67
(dp4686
sg76
g4680
sg69
(lp4687
g62
(g63
g64
NtRp4688
(dp4689
g67
(dp4690
g75
I4
ssg76
g4684
sg69
(lp4691
g62
(g71
g64
NtRp4692
(dp4693
g67
(dp4694
g75
I3
ssg76
Nsg69
(lp4695
g62
(g78
g64
NtRp4696
(dp4697
g67
(dp4698
sg76
g4692
sg69
(lp4699
g62
(g83
g64
NtRp4700
(dp4701
g67
(dp4702
sg76
g4696
sg69
(lp4703
g62
(g63
g64
NtRp4704
(dp4705
g67
(dp4706
g75
I3
ssg76
g4700
sg69
(lp4707
g62
(cgluon.html
SPAN
p4708
g64
NtRp4709
(dp4710
g67
(dp4711
S'_class'
p4712
S'highlighted'
p4713
ssg76
Nsg69
(lp4714
g4583
asbasbasbasbag62
(g78
g64
NtRp4715
(dp4716
g67
(dp4717
sg76
g4692
sg69
(lp4718
g62
(g83
g64
NtRp4719
(dp4720
g67
(dp4721
sg76
g4715
sg69
(lp4722
g62
(g63
g64
NtRp4723
(dp4724
g67
(dp4725
g75
I3
ssg76
g4719
sg69
(lp4726
g105
asbasbasbag62
(g78
g64
NtRp4727
(dp4728
g67
(dp4729
sg76
g4692
sg69
(lp4730
g62
(g83
g64
NtRp4731
(dp4732
g67
(dp4733
sg76
g4727
sg69
(lp4734
g62
(g63
g64
NtRp4735
(dp4736
g67
(dp4737
g75
I3
ssg76
g4731
sg69
(lp4738
S'http://web2py.com'
p4739
asbasbasbag62
(g78
g64
NtRp4740
(dp4741
g67
(dp4742
sg76
g4692
sg69
(lp4743
g62
(g83
g64
NtRp4744
(dp4745
g67
(dp4746
sg76
g4740
sg69
(lp4747
g62
(g63
g64
NtRp4748
(dp4749
g67
(dp4750
g75
I3
ssg76
g4744
sg69
(lp4751
g62
(g71
g64
NtRp4752
(dp4753
g67
(dp4754
g75
I2
ssg76
Nsg69
(lp4755
g62
(g78
g64
NtRp4756
(dp4757
g67
(dp4758
sg76
g4752
sg69
(lp4759
g62
(g83
g64
NtRp4760
(dp4761
g67
(dp4762
sg76
g4756
sg69
(lp4763
g62
(g63
g64
NtRp4764
(dp4765
g67
(dp4766
g75
I2
ssg76
g4760
sg69
(lp4767
g62
(g71
g64
NtRp4768
(dp4769
g67
(dp4770
g75
I1
ssg76
Nsg69
(lp4771
g62
(g78
g64
NtRp4772
(dp4773
g67
(dp4774
sg76
g4768
sg69
(lp4775
g62
(g83
g64
NtRp4776
(dp4777
g67
(dp4778
sg76
g4772
sg69
(lp4779
g62
(g63
g64
NtRp4780
(dp4781
g67
(dp4782
g75
I1
ssg76
g4776
sg69
(lp4783
g4637
(S's\x08\x00\x00\x00My Sites'
tRp4784
asbasbasbag62
(g78
g64
NtRp4785
(dp4786
g67
(dp4787
sg76
g4768
sg69
(lp4788
g62
(g83
g64
NtRp4789
(dp4790
g67
(dp4791
sg76
g4785
sg69
(lp4792
g62
(g63
g64
NtRp4793
(dp4794
g67
(dp4795
g75
I1
ssg76
g4789
sg69
(lp4796
I00
asbasbasbag62
(g78
g64
NtRp4797
(dp4798
g67
(dp4799
sg76
g4768
sg69
(lp4800
g62
(g83
g64
NtRp4801
(dp4802
g67
(dp4803
sg76
g4797
sg69
(lp4804
g62
(g63
g64
NtRp4805
(dp4806
g67
(dp4807
g75
I1
ssg76
g4801
sg69
(lp4808
S'/admin/default/site'
p4809
asbasbasbasbasbasbasbag62
(g78
g64
NtRp4810
(dp4811
g67
(dp4812
sg76
g4752
sg69
(lp4813
g62
(g83
g64
NtRp4814
(dp4815
g67
(dp4816
sg76
g4810
sg69
(lp4817
g62
(g63
g64
NtRp4818
(dp4819
g67
(dp4820
g75
I2
ssg76
g4814
sg69
(lp4821
g62
(g71
g64
NtRp4822
(dp4823
g67
(dp4824
g75
I1
ssg76
Nsg69
(lp4825
g62
(g78
g64
NtRp4826
(dp4827
g67
(dp4828
sg76
g4822
sg69
(lp4829
g62
(g83
g64
NtRp4830
(dp4831
g67
(dp4832
sg76
g4826
sg69
(lp4833
g62
(g63
g64
NtRp4834
(dp4835
g67
(dp4836
g75
I1
ssg76
g4830
sg69
(lp4837
g4637
(S's\x08\x00\x00\x00This App'
tRp4838
asbasbasbag62
(g78
g64
NtRp4839
(dp4840
g67
(dp4841
sg76
g4822
sg69
(lp4842
g62
(g83
g64
NtRp4843
(dp4844
g67
(dp4845
sg76
g4839
sg69
(lp4846
g62
(g63
g64
NtRp4847
(dp4848
g67
(dp4849
g75
I1
ssg76
g4843
sg69
(lp4850
I00
asbasbasbag62
(g78
g64
NtRp4851
(dp4852
g67
(dp4853
sg76
g4822
sg69
(lp4854
g62
(g83
g64
NtRp4855
(dp4856
g67
(dp4857
sg76
g4851
sg69
(lp4858
g62
(g63
g64
NtRp4859
(dp4860
g67
(dp4861
g75
I1
ssg76
g4855
sg69
(lp4862
S'/admin/default/design/Betsy'
p4863
asbasbasbag62
(g78
g64
NtRp4864
(dp4865
g67
(dp4866
sg76
g4822
sg69
(lp4867
g62
(g83
g64
NtRp4868
(dp4869
g67
(dp4870
sg76
g4864
sg69
(lp4871
g62
(g63
g64
NtRp4872
(dp4873
g67
(dp4874
g75
I1
ssg76
g4868
sg69
(lp4875
(lp4876
(g4637
(S's\n\x00\x00\x00Controller'
tRp4877
I00
S'/admin/default/edit/Betsy/controllers/default.py'
tp4878
a(g4637
(S's\x04\x00\x00\x00View'
tRp4879
I00
S'/admin/default/edit/Betsy/views/default/delete_job.html'
tp4880
a(g4637
(S's\x06\x00\x00\x00Layout'
tRp4881
I00
S'/admin/default/edit/Betsy/views/layout.html'
tp4882
a(g4637
(S's\n\x00\x00\x00Stylesheet'
tRp4883
I00
S'/admin/default/edit/Betsy/static/css/web2py.css'
tp4884
a(g4637
(S's\x08\x00\x00\x00DB Model'
tRp4885
I00
S'/admin/default/edit/Betsy/models/db.py'
tp4886
a(g4637
(S's\n\x00\x00\x00Menu Model'
tRp4887
I00
S'/admin/default/edit/Betsy/models/menu.py'
tp4888
a(g4637
(S's\x08\x00\x00\x00Database'
tRp4889
I00
S'/Betsy/appadmin/index'
tp4890
a(g4637
(S's\x06\x00\x00\x00Errors'
tRp4891
I00
S'/admin/default/errors/Betsy'
tp4892
a(g4637
(S's\x05\x00\x00\x00About'
tRp4893
I00
S'/admin/default/about/Betsy'
tp4894
aasbasbasbasbasbasbasbag62
(g78
g64
NtRp4895
(dp4896
g67
(dp4897
sg76
g4752
sg69
(lp4898
g62
(g83
g64
NtRp4899
(dp4900
g67
(dp4901
sg76
g4895
sg69
(lp4902
g62
(g63
g64
NtRp4903
(dp4904
g67
(dp4905
g75
I2
ssg76
g4899
sg69
(lp4906
g62
(g71
g64
NtRp4907
(dp4908
g67
(dp4909
g75
I1
ssg76
Nsg69
(lp4910
g62
(g78
g64
NtRp4911
(dp4912
g67
(dp4913
sg76
g4907
sg69
(lp4914
g62
(g83
g64
NtRp4915
(dp4916
g67
(dp4917
sg76
g4911
sg69
(lp4918
g62
(g63
g64
NtRp4919
(dp4920
g67
(dp4921
g75
I1
ssg76
g4915
sg69
(lp4922
S'web2py.com'
p4923
asbasbasbag62
(g78
g64
NtRp4924
(dp4925
g67
(dp4926
sg76
g4907
sg69
(lp4927
g62
(g83
g64
NtRp4928
(dp4929
g67
(dp4930
sg76
g4924
sg69
(lp4931
g62
(g63
g64
NtRp4932
(dp4933
g67
(dp4934
g75
I1
ssg76
g4928
sg69
(lp4935
I00
asbasbasbag62
(g78
g64
NtRp4936
(dp4937
g67
(dp4938
sg76
g4907
sg69
(lp4939
g62
(g83
g64
NtRp4940
(dp4941
g67
(dp4942
sg76
g4936
sg69
(lp4943
g62
(g63
g64
NtRp4944
(dp4945
g67
(dp4946
g75
I1
ssg76
g4940
sg69
(lp4947
S'http://www.web2py.com'
p4948
asbasbasbag62
(g78
g64
NtRp4949
(dp4950
g67
(dp4951
sg76
g4907
sg69
(lp4952
g62
(g83
g64
NtRp4953
(dp4954
g67
(dp4955
sg76
g4949
sg69
(lp4956
g62
(g63
g64
NtRp4957
(dp4958
g67
(dp4959
g75
I1
ssg76
g4953
sg69
(lp4960
(lp4961
(g4637
(S's\x08\x00\x00\x00Download'
tRp4962
I00
S'http://www.web2py.com/examples/default/download'
p4963
tp4964
a(g4637
(S's\x07\x00\x00\x00Support'
tRp4965
I00
S'http://www.web2py.com/examples/default/support'
p4966
tp4967
a(g4637
(S's\x04\x00\x00\x00Demo'
tRp4968
I00
S'http://web2py.com/demo_admin'
p4969
tp4970
a(g4637
(S's\x0e\x00\x00\x00Quick Examples'
tRp4971
I00
S'http://web2py.com/examples/default/examples'
p4972
tp4973
a(g4637
(S's\x03\x00\x00\x00FAQ'
tRp4974
I00
S'http://web2py.com/AlterEgo'
p4975
tp4976
a(g4637
(S's\x06\x00\x00\x00Videos'
tRp4977
I00
S'http://www.web2py.com/examples/default/videos/'
p4978
tp4979
a(g4637
(S's\x11\x00\x00\x00Free Applications'
tRp4980
I00
S'http://web2py.com/appliances'
p4981
tp4982
a(g4637
(S's\x07\x00\x00\x00Plugins'
tRp4983
I00
S'http://web2py.com/plugins'
p4984
tp4985
a(g4637
(S's\x07\x00\x00\x00Layouts'
tRp4986
I00
S'http://web2py.com/layouts'
p4987
tp4988
a(g4637
(S's\x07\x00\x00\x00Recipes'
tRp4989
I00
S'http://web2pyslices.com/'
p4990
tp4991
a(g4637
(S's\x08\x00\x00\x00Semantic'
tRp4992
I00
S'http://web2py.com/semantic'
p4993
tp4994
aasbasbasbasbasbasbasbag62
(g78
g64
NtRp4995
(dp4996
g67
(dp4997
sg76
g4752
sg69
(lp4998
g62
(g83
g64
NtRp4999
(dp5000
g67
(dp5001
sg76
g4995
sg69
(lp5002
g62
(g63
g64
NtRp5003
(dp5004
g67
(dp5005
g75
I2
ssg76
g4999
sg69
(lp5006
g62
(g71
g64
NtRp5007
(dp5008
g67
(dp5009
g75
I1
ssg76
Nsg69
(lp5010
g62
(g78
g64
NtRp5011
(dp5012
g67
(dp5013
sg76
g5007
sg69
(lp5014
g62
(g83
g64
NtRp5015
(dp5016
g67
(dp5017
sg76
g5011
sg69
(lp5018
g62
(g63
g64
NtRp5019
(dp5020
g67
(dp5021
g75
I1
ssg76
g5015
sg69
(lp5022
g4637
(S's\r\x00\x00\x00Documentation'
tRp5023
asbasbasbag62
(g78
g64
NtRp5024
(dp5025
g67
(dp5026
sg76
g5007
sg69
(lp5027
g62
(g83
g64
NtRp5028
(dp5029
g67
(dp5030
sg76
g5024
sg69
(lp5031
g62
(g63
g64
NtRp5032
(dp5033
g67
(dp5034
g75
I1
ssg76
g5028
sg69
(lp5035
I00
asbasbasbag62
(g78
g64
NtRp5036
(dp5037
g67
(dp5038
sg76
g5007
sg69
(lp5039
g62
(g83
g64
NtRp5040
(dp5041
g67
(dp5042
sg76
g5036
sg69
(lp5043
g62
(g63
g64
NtRp5044
(dp5045
g67
(dp5046
g75
I1
ssg76
g5040
sg69
(lp5047
S'http://www.web2py.com/book'
p5048
asbasbasbag62
(g78
g64
NtRp5049
(dp5050
g67
(dp5051
sg76
g5007
sg69
(lp5052
g62
(g83
g64
NtRp5053
(dp5054
g67
(dp5055
sg76
g5049
sg69
(lp5056
g62
(g63
g64
NtRp5057
(dp5058
g67
(dp5059
g75
I1
ssg76
g5053
sg69
(lp5060
(lp5061
(g4637
(S's\x07\x00\x00\x00Preface'
tRp5062
I00
S'http://www.web2py.com/book/default/chapter/00'
p5063
tp5064
a(g4637
(S's\x0c\x00\x00\x00Introduction'
tRp5065
I00
S'http://www.web2py.com/book/default/chapter/01'
p5066
tp5067
a(g4637
(S's\x06\x00\x00\x00Python'
tRp5068
I00
S'http://www.web2py.com/book/default/chapter/02'
p5069
tp5070
a(g4637
(S's\x08\x00\x00\x00Overview'
tRp5071
I00
S'http://www.web2py.com/book/default/chapter/03'
p5072
tp5073
a(g4637
(S's\x08\x00\x00\x00The Core'
tRp5074
I00
S'http://www.web2py.com/book/default/chapter/04'
p5075
tp5076
a(g4637
(S's\t\x00\x00\x00The Views'
tRp5077
I00
S'http://www.web2py.com/book/default/chapter/05'
p5078
tp5079
a(g4637
(S's\x08\x00\x00\x00Database'
tRp5080
I00
S'http://www.web2py.com/book/default/chapter/06'
p5081
tp5082
a(g4637
(S's\x14\x00\x00\x00Forms and Validators'
tRp5083
I00
S'http://www.web2py.com/book/default/chapter/07'
p5084
tp5085
a(g4637
(S's\r\x00\x00\x00Email and SMS'
tRp5086
I00
S'http://www.web2py.com/book/default/chapter/08'
p5087
tp5088
a(g4637
(S's\x0e\x00\x00\x00Access Control'
tRp5089
I00
S'http://www.web2py.com/book/default/chapter/09'
p5090
tp5091
a(g4637
(S's\x08\x00\x00\x00Services'
tRp5092
I00
S'http://www.web2py.com/book/default/chapter/10'
p5093
tp5094
a(g4637
(S's\x0c\x00\x00\x00Ajax Recipes'
tRp5095
I00
S'http://www.web2py.com/book/default/chapter/11'
p5096
tp5097
a(g4637
(S's\x16\x00\x00\x00Components and Plugins'
tRp5098
I00
S'http://www.web2py.com/book/default/chapter/12'
p5099
tp5100
a(g4637
(S's\x12\x00\x00\x00Deployment Recipes'
tRp5101
I00
S'http://www.web2py.com/book/default/chapter/13'
p5102
tp5103
a(g4637
(S's\r\x00\x00\x00Other Recipes'
tRp5104
I00
S'http://www.web2py.com/book/default/chapter/14'
p5105
tp5106
a(g4637
(S's\r\x00\x00\x00Buy this book'
tRp5107
I00
S'http://stores.lulu.com/web2py'
p5108
tp5109
aasbasbasbasbasbasbasbag62
(g78
g64
NtRp5110
(dp5111
g67
(dp5112
sg76
g4752
sg69
(lp5113
g62
(g83
g64
NtRp5114
(dp5115
g67
(dp5116
sg76
g5110
sg69
(lp5117
g62
(g63
g64
NtRp5118
(dp5119
g67
(dp5120
g75
I2
ssg76
g5114
sg69
(lp5121
g62
(g71
g64
NtRp5122
(dp5123
g67
(dp5124
g75
I1
ssg76
Nsg69
(lp5125
g62
(g78
g64
NtRp5126
(dp5127
g67
(dp5128
sg76
g5122
sg69
(lp5129
g62
(g83
g64
NtRp5130
(dp5131
g67
(dp5132
sg76
g5126
sg69
(lp5133
g62
(g63
g64
NtRp5134
(dp5135
g67
(dp5136
g75
I1
ssg76
g5130
sg69
(lp5137
g4637
(S's\t\x00\x00\x00Community'
tRp5138
asbasbasbag62
(g78
g64
NtRp5139
(dp5140
g67
(dp5141
sg76
g5122
sg69
(lp5142
g62
(g83
g64
NtRp5143
(dp5144
g67
(dp5145
sg76
g5139
sg69
(lp5146
g62
(g63
g64
NtRp5147
(dp5148
g67
(dp5149
g75
I1
ssg76
g5143
sg69
(lp5150
I00
asbasbasbag62
(g78
g64
NtRp5151
(dp5152
g67
(dp5153
sg76
g5122
sg69
(lp5154
g62
(g83
g64
NtRp5155
(dp5156
g67
(dp5157
sg76
g5151
sg69
(lp5158
g62
(g63
g64
NtRp5159
(dp5160
g67
(dp5161
g75
I1
ssg76
g5155
sg69
(lp5162
Nasbasbasbag62
(g78
g64
NtRp5163
(dp5164
g67
(dp5165
sg76
g5122
sg69
(lp5166
g62
(g83
g64
NtRp5167
(dp5168
g67
(dp5169
sg76
g5163
sg69
(lp5170
g62
(g63
g64
NtRp5171
(dp5172
g67
(dp5173
g75
I1
ssg76
g5167
sg69
(lp5174
(lp5175
(g4637
(S's\x06\x00\x00\x00Groups'
tRp5176
I00
S'http://www.web2py.com/examples/default/usergroups'
p5177
tp5178
a(g4637
(S's\x07\x00\x00\x00Twitter'
tRp5179
I00
S'http://twitter.com/web2py'
p5180
tp5181
a(g4637
(S's\t\x00\x00\x00Live Chat'
tRp5182
I00
S'http://webchat.freenode.net/?channels=web2py'
p5183
tp5184
aasbasbasbasbasbasbasbag62
(g78
g64
NtRp5185
(dp5186
g67
(dp5187
sg76
g4752
sg69
(lp5188
g62
(g83
g64
NtRp5189
(dp5190
g67
(dp5191
sg76
g5185
sg69
(lp5192
g62
(g63
g64
NtRp5193
(dp5194
g67
(dp5195
g75
I2
ssg76
g5189
sg69
(lp5196
g62
(g71
g64
NtRp5197
(dp5198
g67
(dp5199
g75
I1
ssg76
Nsg69
(lp5200
g62
(g78
g64
NtRp5201
(dp5202
g67
(dp5203
sg76
g5197
sg69
(lp5204
g62
(g83
g64
NtRp5205
(dp5206
g67
(dp5207
sg76
g5201
sg69
(lp5208
g62
(g63
g64
NtRp5209
(dp5210
g67
(dp5211
g75
I1
ssg76
g5205
sg69
(lp5212
g4637
(S's\x07\x00\x00\x00Plugins'
tRp5213
asbasbasbag62
(g78
g64
NtRp5214
(dp5215
g67
(dp5216
sg76
g5197
sg69
(lp5217
g62
(g83
g64
NtRp5218
(dp5219
g67
(dp5220
sg76
g5214
sg69
(lp5221
g62
(g63
g64
NtRp5222
(dp5223
g67
(dp5224
g75
I1
ssg76
g5218
sg69
(lp5225
I00
asbasbasbag62
(g78
g64
NtRp5226
(dp5227
g67
(dp5228
sg76
g5197
sg69
(lp5229
g62
(g83
g64
NtRp5230
(dp5231
g67
(dp5232
sg76
g5226
sg69
(lp5233
g62
(g63
g64
NtRp5234
(dp5235
g67
(dp5236
g75
I1
ssg76
g5230
sg69
(lp5237
Nasbasbasbag62
(g78
g64
NtRp5238
(dp5239
g67
(dp5240
sg76
g5197
sg69
(lp5241
g62
(g83
g64
NtRp5242
(dp5243
g67
(dp5244
sg76
g5238
sg69
(lp5245
g62
(g63
g64
NtRp5246
(dp5247
g67
(dp5248
g75
I1
ssg76
g5242
sg69
(lp5249
(lp5250
(S'plugin_wiki'
p5251
I00
S'http://web2py.com/examples/default/download'
p5252
tp5253
a(g4637
(S's\r\x00\x00\x00Other Plugins'
tRp5254
I00
g4984
tp5255
a(g4637
(S's\x0e\x00\x00\x00Layout Plugins'
tRp5256
I00
g4987
tp5257
aasbasbasbasbasbasbasbasbasbasbasbasbasbasbasbasbasbasbasbag62
(g78
g64
NtRp5258
(dp5259
g67
(dp5260
sg76
g4146
sg69
(lp5261
g62
(g83
g64
NtRp5262
(dp5263
g67
(dp5264
g87
g88
ssg76
g5258
sg69
(lp5265
S'meta'
p5266
asbag62
(g83
g64
NtRp5267
(dp5268
g67
(dp5269
g94
g95
ssg76
g5258
sg69
(lp5270
S':'
asbag62
(g83
g64
NtRp5271
(dp5272
g67
(dp5273
sg76
g5258
sg69
(lp5274
g62
(g63
g64
NtRp5275
(dp5276
g67
(dp5277
g75
I5
ssg76
g5271
sg69
(lp5278
g62
(g71
g64
NtRp5279
(dp5280
g67
(dp5281
g75
I4
ssg76
Nsg69
(lp5282
g62
(g78
g64
NtRp5283
(dp5284
g67
(dp5285
sg76
g5279
sg69
(lp5286
g62
(g83
g64
NtRp5287
(dp5288
g67
(dp5289
g87
g88
ssg76
g5283
sg69
(lp5290
S'author'
p5291
asbag62
(g83
g64
NtRp5292
(dp5293
g67
(dp5294
g94
g95
ssg76
g5283
sg69
(lp5295
S':'
asbag62
(g83
g64
NtRp5296
(dp5297
g67
(dp5298
sg76
g5283
sg69
(lp5299
g62
(g63
g64
NtRp5300
(dp5301
g67
(dp5302
g75
I4
ssg76
g5296
sg69
(lp5303
S'Your Name <you@example.com>'
p5304
asbasbasbag62
(g78
g64
NtRp5305
(dp5306
g67
(dp5307
sg76
g5279
sg69
(lp5308
g62
(g83
g64
NtRp5309
(dp5310
g67
(dp5311
g87
g88
ssg76
g5305
sg69
(lp5312
S'description'
p5313
asbag62
(g83
g64
NtRp5314
(dp5315
g67
(dp5316
g94
g95
ssg76
g5305
sg69
(lp5317
S':'
asbag62
(g83
g64
NtRp5318
(dp5319
g67
(dp5320
sg76
g5305
sg69
(lp5321
g62
(g63
g64
NtRp5322
(dp5323
g67
(dp5324
g75
I4
ssg76
g5318
sg69
(lp5325
S'a cool new app'
p5326
asbasbasbag62
(g78
g64
NtRp5327
(dp5328
g67
(dp5329
sg76
g5279
sg69
(lp5330
g62
(g83
g64
NtRp5331
(dp5332
g67
(dp5333
g87
g88
ssg76
g5327
sg69
(lp5334
S'generator'
p5335
asbag62
(g83
g64
NtRp5336
(dp5337
g67
(dp5338
g94
g95
ssg76
g5327
sg69
(lp5339
S':'
asbag62
(g83
g64
NtRp5340
(dp5341
g67
(dp5342
sg76
g5327
sg69
(lp5343
g62
(g63
g64
NtRp5344
(dp5345
g67
(dp5346
g75
I4
ssg76
g5340
sg69
(lp5347
S'Web2py Web Framework'
p5348
asbasbasbag62
(g78
g64
NtRp5349
(dp5350
g67
(dp5351
sg76
g5279
sg69
(lp5352
g62
(g83
g64
NtRp5353
(dp5354
g67
(dp5355
g87
g88
ssg76
g5349
sg69
(lp5356
S'keywords'
p5357
asbag62
(g83
g64
NtRp5358
(dp5359
g67
(dp5360
g94
g95
ssg76
g5349
sg69
(lp5361
S':'
asbag62
(g83
g64
NtRp5362
(dp5363
g67
(dp5364
sg76
g5349
sg69
(lp5365
g62
(g63
g64
NtRp5366
(dp5367
g67
(dp5368
g75
I4
ssg76
g5362
sg69
(lp5369
S'web2py, python, framework'
p5370
asbasbasbasbasbasbasbag62
(g78
g64
NtRp5371
(dp5372
g67
(dp5373
sg76
g4146
sg69
(lp5374
g62
(g83
g64
NtRp5375
(dp5376
g67
(dp5377
g87
g88
ssg76
g5371
sg69
(lp5378
S'models_to_run'
p5379
asbag62
(g83
g64
NtRp5380
(dp5381
g67
(dp5382
g94
g95
ssg76
g5371
sg69
(lp5383
S':'
asbag62
(g83
g64
NtRp5384
(dp5385
g67
(dp5386
sg76
g5371
sg69
(lp5387
g62
(g63
g64
NtRp5388
(dp5389
g67
(dp5390
g75
I5
ssg76
g5384
sg69
(lp5391
g62
(g71
g64
NtRp5392
(dp5393
g67
(dp5394
g75
I4
ssg76
Nsg69
(lp5395
g62
(g78
g64
NtRp5396
(dp5397
g67
(dp5398
sg76
g5392
sg69
(lp5399
g62
(g83
g64
NtRp5400
(dp5401
g67
(dp5402
sg76
g5396
sg69
(lp5403
g62
(g63
g64
NtRp5404
(dp5405
g67
(dp5406
g75
I4
ssg76
g5400
sg69
(lp5407
S'^\\w+\\.py$'
p5408
asbasbasbag62
(g78
g64
NtRp5409
(dp5410
g67
(dp5411
sg76
g5392
sg69
(lp5412
g62
(g83
g64
NtRp5413
(dp5414
g67
(dp5415
sg76
g5409
sg69
(lp5416
g62
(g63
g64
NtRp5417
(dp5418
g67
(dp5419
g75
I4
ssg76
g5413
sg69
(lp5420
S'^default/\\w+\\.py$'
p5421
asbasbasbag62
(g78
g64
NtRp5422
(dp5423
g67
(dp5424
sg76
g5392
sg69
(lp5425
g62
(g83
g64
NtRp5426
(dp5427
g67
(dp5428
sg76
g5422
sg69
(lp5429
g62
(g63
g64
NtRp5430
(dp5431
g67
(dp5432
g75
I4
ssg76
g5426
sg69
(lp5433
S'^default/delete_job/\\w+\\.py$'
p5434
asbasbasbasbasbasbasbag62
(g78
g64
NtRp5435
(dp5436
g67
(dp5437
sg76
g4146
sg69
(lp5438
g62
(g83
g64
NtRp5439
(dp5440
g67
(dp5441
g87
g88
ssg76
g5435
sg69
(lp5442
S'postprocessing'
p5443
asbag62
(g83
g64
NtRp5444
(dp5445
g67
(dp5446
g94
g95
ssg76
g5435
sg69
(lp5447
S':'
asbag62
(g83
g64
NtRp5448
(dp5449
g67
(dp5450
sg76
g5435
sg69
(lp5451
g62
(g63
g64
NtRp5452
(dp5453
g67
(dp5454
g75
I5
ssg76
g5448
sg69
(lp5455
g62
(g71
g64
NtRp5456
(dp5457
g67
(dp5458
g75
I4
ssg76
Nsg69
(lp5459
sbasbasbasbag62
(g78
g64
NtRp5460
(dp5461
g67
(dp5462
sg76
g4146
sg69
(lp5463
g62
(g83
g64
NtRp5464
(dp5465
g67
(dp5466
g87
g88
ssg76
g5460
sg69
(lp5467
S'session_cookie_expires'
p5468
asbag62
(g83
g64
NtRp5469
(dp5470
g67
(dp5471
g94
g95
ssg76
g5460
sg69
(lp5472
S':'
asbag62
(g83
g64
NtRp5473
(dp5474
g67
(dp5475
sg76
g5460
sg69
(lp5476
g62
(g63
g64
NtRp5477
(dp5478
g67
(dp5479
g75
I5
ssg76
g5473
sg69
(lp5480
S'None'
p5481
asbasbasbag62
(g78
g64
NtRp5482
(dp5483
g67
(dp5484
sg76
g4146
sg69
(lp5485
g62
(g83
g64
NtRp5486
(dp5487
g67
(dp5488
g87
g88
ssg76
g5482
sg69
(lp5489
S'session_data_name'
p5490
asbag62
(g83
g64
NtRp5491
(dp5492
g67
(dp5493
g94
g95
ssg76
g5482
sg69
(lp5494
S':'
asbag62
(g83
g64
NtRp5495
(dp5496
g67
(dp5497
sg76
g5482
sg69
(lp5498
g62
(g63
g64
NtRp5499
(dp5500
g67
(dp5501
g75
I5
ssg76
g5495
sg69
(lp5502
S'session_data_betsy'
p5503
asbasbasbag62
(g78
g64
NtRp5504
(dp5505
g67
(dp5506
sg76
g4146
sg69
(lp5507
g62
(g83
g64
NtRp5508
(dp5509
g67
(dp5510
g87
g88
ssg76
g5504
sg69
(lp5511
S'session_file'
p5512
asbag62
(g83
g64
NtRp5513
(dp5514
g67
(dp5515
g94
g95
ssg76
g5504
sg69
(lp5516
S':'
asbag62
(g83
g64
NtRp5517
(dp5518
g67
(dp5519
sg76
g5504
sg69
(lp5520
g62
(g63
g64
NtRp5521
(dp5522
g67
(dp5523
g75
I5
ssg76
g5517
sg69
(lp5524
S"<open file '/home/xchen/web2py/applications/Betsy/sessions/127.0.0.1-28de7f74-6808-41d8-9f31-19d3ff63ec0f', mode 'rb+' at 0xb1ec8a0>"
p5525
asbasbasbag62
(g78
g64
NtRp5526
(dp5527
g67
(dp5528
sg76
g4146
sg69
(lp5529
g62
(g83
g64
NtRp5530
(dp5531
g67
(dp5532
g87
g88
ssg76
g5526
sg69
(lp5533
S'session_filename'
p5534
asbag62
(g83
g64
NtRp5535
(dp5536
g67
(dp5537
g94
g95
ssg76
g5526
sg69
(lp5538
S':'
asbag62
(g83
g64
NtRp5539
(dp5540
g67
(dp5541
sg76
g5526
sg69
(lp5542
g62
(g63
g64
NtRp5543
(dp5544
g67
(dp5545
g75
I5
ssg76
g5539
sg69
(lp5546
S'/home/xchen/web2py/applications/Betsy/sessions/127.0.0.1-28de7f74-6808-41d8-9f31-19d3ff63ec0f'
p5547
asbasbasbag62
(g78
g64
NtRp5548
(dp5549
g67
(dp5550
sg76
g4146
sg69
(lp5551
g62
(g83
g64
NtRp5552
(dp5553
g67
(dp5554
g87
g88
ssg76
g5548
sg69
(lp5555
S'session_id'
p5556
asbag62
(g83
g64
NtRp5557
(dp5558
g67
(dp5559
g94
g95
ssg76
g5548
sg69
(lp5560
S':'
asbag62
(g83
g64
NtRp5561
(dp5562
g67
(dp5563
sg76
g5548
sg69
(lp5564
g62
(g63
g64
NtRp5565
(dp5566
g67
(dp5567
g75
I5
ssg76
g5561
sg69
(lp5568
g493
asbasbasbag62
(g78
g64
NtRp5569
(dp5570
g67
(dp5571
sg76
g4146
sg69
(lp5572
g62
(g83
g64
NtRp5573
(dp5574
g67
(dp5575
g87
g88
ssg76
g5569
sg69
(lp5576
S'session_id_name'
p5577
asbag62
(g83
g64
NtRp5578
(dp5579
g67
(dp5580
g94
g95
ssg76
g5569
sg69
(lp5581
S':'
asbag62
(g83
g64
NtRp5582
(dp5583
g67
(dp5584
sg76
g5569
sg69
(lp5585
g62
(g63
g64
NtRp5586
(dp5587
g67
(dp5588
g75
I5
ssg76
g5582
sg69
(lp5589
g4203
asbasbasbag62
(g78
g64
NtRp5590
(dp5591
g67
(dp5592
sg76
g4146
sg69
(lp5593
g62
(g83
g64
NtRp5594
(dp5595
g67
(dp5596
g87
g88
ssg76
g5590
sg69
(lp5597
S'session_locked'
p5598
asbag62
(g83
g64
NtRp5599
(dp5600
g67
(dp5601
g94
g95
ssg76
g5590
sg69
(lp5602
S':'
asbag62
(g83
g64
NtRp5603
(dp5604
g67
(dp5605
sg76
g5590
sg69
(lp5606
g62
(g63
g64
NtRp5607
(dp5608
g67
(dp5609
g75
I5
ssg76
g5603
sg69
(lp5610
g1600
asbasbasbag62
(g78
g64
NtRp5611
(dp5612
g67
(dp5613
sg76
g4146
sg69
(lp5614
g62
(g83
g64
NtRp5615
(dp5616
g67
(dp5617
g87
g88
ssg76
g5611
sg69
(lp5618
S'session_new'
p5619
asbag62
(g83
g64
NtRp5620
(dp5621
g67
(dp5622
g94
g95
ssg76
g5611
sg69
(lp5623
S':'
asbag62
(g83
g64
NtRp5624
(dp5625
g67
(dp5626
sg76
g5611
sg69
(lp5627
g62
(g63
g64
NtRp5628
(dp5629
g67
(dp5630
g75
I5
ssg76
g5624
sg69
(lp5631
g105
asbasbasbag62
(g78
g64
NtRp5632
(dp5633
g67
(dp5634
sg76
g4146
sg69
(lp5635
g62
(g83
g64
NtRp5636
(dp5637
g67
(dp5638
g87
g88
ssg76
g5632
sg69
(lp5639
S'session_storage_type'
p5640
asbag62
(g83
g64
NtRp5641
(dp5642
g67
(dp5643
g94
g95
ssg76
g5632
sg69
(lp5644
S':'
asbag62
(g83
g64
NtRp5645
(dp5646
g67
(dp5647
sg76
g5632
sg69
(lp5648
g62
(g63
g64
NtRp5649
(dp5650
g67
(dp5651
g75
I5
ssg76
g5645
sg69
(lp5652
g3032
asbasbasbag62
(g78
g64
NtRp5653
(dp5654
g67
(dp5655
sg76
g4146
sg69
(lp5656
g62
(g83
g64
NtRp5657
(dp5658
g67
(dp5659
g87
g88
ssg76
g5653
sg69
(lp5660
S'status'
p5661
asbag62
(g83
g64
NtRp5662
(dp5663
g67
(dp5664
g94
g95
ssg76
g5653
sg69
(lp5665
S':'
asbag62
(g83
g64
NtRp5666
(dp5667
g67
(dp5668
sg76
g5653
sg69
(lp5669
g62
(g63
g64
NtRp5670
(dp5671
g67
(dp5672
g75
I5
ssg76
g5666
sg69
(lp5673
S'200'
p5674
asbasbasbag62
(g78
g64
NtRp5675
(dp5676
g67
(dp5677
sg76
g4146
sg69
(lp5678
g62
(g83
g64
NtRp5679
(dp5680
g67
(dp5681
g87
g88
ssg76
g5675
sg69
(lp5682
S'subtitle'
p5683
asbag62
(g83
g64
NtRp5684
(dp5685
g67
(dp5686
g94
g95
ssg76
g5675
sg69
(lp5687
S':'
asbag62
(g83
g64
NtRp5688
(dp5689
g67
(dp5690
sg76
g5675
sg69
(lp5691
g62
(g63
g64
NtRp5692
(dp5693
g67
(dp5694
g75
I5
ssg76
g5688
sg69
(lp5695
g4637
(S's\r\x00\x00\x00customize me!'
tRp5696
asbasbasbag62
(g78
g64
NtRp5697
(dp5698
g67
(dp5699
sg76
g4146
sg69
(lp5700
g62
(g83
g64
NtRp5701
(dp5702
g67
(dp5703
g87
g88
ssg76
g5697
sg69
(lp5704
S'title'
p5705
asbag62
(g83
g64
NtRp5706
(dp5707
g67
(dp5708
g94
g95
ssg76
g5697
sg69
(lp5709
S':'
asbag62
(g83
g64
NtRp5710
(dp5711
g67
(dp5712
sg76
g5697
sg69
(lp5713
g62
(g63
g64
NtRp5714
(dp5715
g67
(dp5716
g75
I5
ssg76
g5710
sg69
(lp5717
S'Betsy'
p5718
asbasbasbag62
(g78
g64
NtRp5719
(dp5720
g67
(dp5721
sg76
g4146
sg69
(lp5722
g62
(g83
g64
NtRp5723
(dp5724
g67
(dp5725
g87
g88
ssg76
g5719
sg69
(lp5726
S'view'
p5727
asbag62
(g83
g64
NtRp5728
(dp5729
g67
(dp5730
g94
g95
ssg76
g5719
sg69
(lp5731
S':'
asbag62
(g83
g64
NtRp5732
(dp5733
g67
(dp5734
sg76
g5719
sg69
(lp5735
g62
(g63
g64
NtRp5736
(dp5737
g67
(dp5738
g75
I5
ssg76
g5732
sg69
(lp5739
S'default/delete_job.html'
p5740
asbasbasbasbasbsS'locals'
p5741
(dp5742
S'onerror'
p5743
S'<function onerror>'
p5744
sS'ignore_errors'
p5745
g105
sS'names'
p5746
S'[]'
p5747
sS'err'
p5748
S"OSError(2, 'No such file or directory')"
p5749
sg417
S"'make_class_label_file_BETSYHASH1_f82033c6f0bfacd7a8100f653d008b19'"
p5750
sssS'traceback'
p5751
S'Traceback (most recent call last):\n  File "/home/xchen/web2py/gluon/restricted.py", line 212, in restricted\n    exec ccode in environment\n  File "/home/xchen/web2py/applications/Betsy/controllers/default.py", line 184, in <module>\n  File "/home/xchen/web2py/gluon/globals.py", line 188, in <lambda>\n    self._caller = lambda f: f()\n  File "/home/xchen/web2py/applications/Betsy/controllers/default.py", line 115, in delete_job\n    delete_job_and_update(request.args(0))\n  File "/home/xchen/web2py/applications/Betsy/models/common_utils.py", line 131, in delete_job_and_update\n    shutil.rmtree(filename)\n  File "/usr/local/lib/python2.7/shutil.py", line 237, in rmtree\n    onerror(os.listdir, path, sys.exc_info())\n  File "/usr/local/lib/python2.7/shutil.py", line 235, in rmtree\n    names = os.listdir(path)\nOSError: [Errno 2] No such file or directory: \'make_class_label_file_BETSYHASH1_f82033c6f0bfacd7a8100f653d008b19\'\n'
p5752
s.