(dp1
S'output'
p2
S"<type 'exceptions.NameError'> name 'url' is not defined"
p3
sS'layer'
p4
S'/home/xchen/web2py/applications/Betsy/views/default/show_job.html'
p5
sS'code'
p6
S'response.write(\'<!DOCTYPE html>\\n<!-- paulirish.com/2008/conditional-stylesheets-vs-css-hacks-answer-neither/ -->\\n<!--[if lt IE 7]><html class="ie ie6 ie-lte9 ie-lte8 ie-lte7 no-js" lang="\', escape=False)\nresponse.write(T.accepted_language or \'en\')\nresponse.write(\'"> <![endif]-->\\n<!--[if IE 7]><html class="ie ie7 ie-lte9 ie-lte8 ie-lte7 no-js" lang="\', escape=False)\nresponse.write(T.accepted_language or \'en\')\nresponse.write(\'"> <![endif]-->\\n<!--[if IE 8]><html class="ie ie8 ie-lte9 ie-lte8 no-js" lang="\', escape=False)\nresponse.write(T.accepted_language or \'en\')\nresponse.write(\'"> <![endif]-->\\n<!--[if IE 9]><html class="ie9 ie-lte9 no-js" lang="\', escape=False)\nresponse.write(T.accepted_language or \'en\')\nresponse.write(\'"> <![endif]-->\\n<!--[if (gt IE 9)|!(IE)]><!--> <html class="no-js" lang="\', escape=False)\nresponse.write(T.accepted_language or \'en\')\nresponse.write(\'"> <!--<![endif]-->\\n<head>\\n  <meta charset="utf-8" />\\n  <!-- www.phpied.com/conditional-comments-block-downloads/ -->\\n  <!-- Always force latest IE rendering engine\\n       (even in intranet) & Chrome Frame\\n       Remove this if you use the .htaccess -->\\n  <!--[if IE]>\\n      <meta http-equiv="X-UA-Compatible" content="IE=edge\', escape=False)\nresponse.write(not request.is_local and \',chrome=1\' or \'\')\nresponse.write(\'">\\n      <![endif]-->\\n\\n  <title>\', escape=False)\nresponse.write(response.title or request.application)\nresponse.write(\'</title>\\n\\n  <!-- http://dev.w3.org/html5/markup/meta.name.html -->\\n  <meta name="application-name" content="\', escape=False)\nresponse.write(request.application)\nresponse.write(\'" />\\n\\n  <!-- Speaking of Google, don\\\'t forget to set your site up:\\n       http://google.com/webmasters -->\\n  <meta name="google-site-verification" content="" />\\n\\n  <!--  Mobile Viewport Fix\\n        j.mp/mobileviewport & davidbcalhoun.com/2010/viewport-metatag\\n        device-width: Occupy full width of the screen in its current orientation\\n        initial-scale = 1.0 retains dimensions instead of zooming out if page height > device height\\n        user-scalable = yes allows the user to zoom in -->\\n  <meta name="viewport" content="width=device-width, initial-scale=1.0">\\n\\n  <link rel="shortcut icon" href="\', escape=False)\nresponse.write(URL(\'static\',\'images/favicon.ico\'))\nresponse.write(\'" type="image/x-icon">\\n  <link rel="apple-touch-icon" href="\', escape=False)\nresponse.write(URL(\'static\',\'images/favicon.png\'))\nresponse.write(\'">\\n\\n  <!-- All JavaScript at the bottom, except for Modernizr which enables\\n       HTML5 elements & feature detects -->\\n  <script src="\', escape=False)\nresponse.write(URL(\'static\',\'js/modernizr.custom.js\'))\nresponse.write(\'"></script>\\n\\n  <!-- include stylesheets -->\\n  \', escape=False)\nresponse.files.append(URL(\'static\',\'css/web2py.css\'))\nresponse.files.append(URL(\'static\',\'css/bootstrap.min.css\'))\nresponse.files.append(URL(\'static\',\'css/bootstrap-responsive.min.css\'))\nresponse.files.append(URL(\'static\',\'css/web2py_bootstrap.css\'))\nresponse.write(\'\\n\\n  \', escape=False)\nresponse.write(\'<script type="text/javascript"><!--\\n    // These variables are used by the web2py_ajax_init function in web2py_ajax.js (which is loaded below).\\n    var w2p_ajax_confirm_message = "\', escape=False)\nresponse.write(T(\'Are you sure you want to delete this object?\'))\nresponse.write(\'";\\n    var w2p_ajax_date_format = "\', escape=False)\nresponse.write(T(\'%Y-%m-%d\'))\nresponse.write(\'";\\n    var w2p_ajax_datetime_format = "\', escape=False)\nresponse.write(T(\'%Y-%m-%d %H:%M:%S\'))\nresponse.write(\'";\\n    //--></script>\\n\', escape=False)\nresponse.files.insert(0,URL(\'static\',\'js/jquery.js\'))\nresponse.files.insert(1,URL(\'static\',\'css/calendar.css\'))\nresponse.files.insert(2,URL(\'static\',\'js/calendar.js\'))\nresponse.files.insert(3,URL(\'static\',\'js/web2py.js\'))\nresponse.include_meta()\nresponse.include_files()\nresponse.write(\'\\n\', escape=False)\nresponse.write(\'\\n\\n  \', escape=False)\n# using sidebars need to know what sidebar you want to use\nleft_sidebar_enabled = globals().get(\'left_sidebar_enabled\',False)\nright_sidebar_enabled = globals().get(\'right_sidebar_enabled\',False)\nmiddle_columns = {0:\'span12\',1:\'span9\',2:\'span6\'}[\n(left_sidebar_enabled and 1 or 0)+(right_sidebar_enabled and 1 or 0)]\nresponse.write(\'\\n\\n  <!-- uncomment here to load jquery-ui\\n       <link rel="stylesheet" href="http://ajax.googleapis.com/ajax/libs/jqueryui/1.8.16/themes/base/jquery-ui.css" type="text/css" media="all" />\\n       <script src="http://ajax.googleapis.com/ajax/libs/jqueryui/1.8.16/jquery-ui.min.js" type="text/javascript"></script>\\n       uncomment to load jquery-ui //-->\\n  <noscript><link href="\', escape=False)\nresponse.write(URL(\'static\', \'css/web2py_bootstrap_nojs.css\'))\nresponse.write(\'" rel="stylesheet" type="text/css" /></noscript>\\n  \', escape=False)\nresponse.write(\'\\n</head>\\n\\n<body>\\n  <!-- Navbar ================================================== -->\\n  <div class="navbar navbar-inverse navbar-fixed-top">\\n    <div class="flash">\', escape=False)\nresponse.write(response.flash or \'\')\nresponse.write(\'</div>\\n    <div class="navbar-inner">\\n      <div class="container">\\n        <!-- the next tag is necessary for bootstrap menus, do not remove -->\\n        <button type="button" class="btn btn-navbar" data-toggle="collapse" data-target=".nav-collapse">\\n          <span class="icon-bar"></span>\\n          <span class="icon-bar"></span>\\n          <span class="icon-bar"></span>\\n        </button>\\n        <a class="brand" href="http://www.web2py.com/"><b>web<span>2</span>py</b>&trade;&nbsp;</a>\\n        <ul id="navbar" class="nav pull-right">\', escape=False)\nresponse.write(\'auth\' in globals() and auth.navbar(mode="dropdown") or \'\')\nresponse.write(\'</ul>\\n        <div class="nav-collapse">\\n          \', escape=False)\nis_mobile=request.user_agent().is_mobile\nresponse.write(\'\\n          \', escape=False)\nif response.menu:\n    response.write(\'\\n          \', escape=False)\n    response.write(MENU(response.menu, _class=\'mobile-menu nav\' if is_mobile else \'nav\',mobile=is_mobile,li_class=\'dropdown\',ul_class=\'dropdown-menu\'))\n    response.write(\'\\n          \', escape=False)\n    pass\nresponse.write(\'\\n        </div><!--/.nav-collapse -->\\n      </div>\\n    </div>\\n  </div><!--/top navbar -->\\n\\n  <div class="container">\\n    <!-- Masthead ================================================== -->\\n    <header class="mastheader row" id="header">\\n        <div class="span12">\\n            <div class="page-header">\\n                <h1>\\n                    \', escape=False)\nresponse.write(response.title or request.application)\nresponse.write(\'\\n                    <small>\', escape=False)\nresponse.write(response.subtitle or \'\')\nresponse.write(\'</small>\\n                </h1>\\n            </div>\\n        </div>\\n    </header>\\n\\n    <section id="main" class="main row">\\n        \', escape=False)\nif left_sidebar_enabled:\n    response.write(\'\\n        <div class="span3 left-sidebar">\\n            \', escape=False)\n    response.write(\'\\n            <h3>Left Sidebar</h3>\\n            <p></p>\\n            \', escape=False)\n    response.write(\'\\n        </div>\\n        \', escape=False)\n    pass\nresponse.write(\'\\n\\n        <div class="\', escape=False)\nresponse.write(middle_columns)\nresponse.write(\'">\\n            \', escape=False)\nresponse.write(\'\\n            \', escape=False)\nresponse.write(\'\\n<h1>Job number: \', escape=False)\nresponse.write(job.Jobnumber)\nresponse.write(\'</h1>\\n<h2>\', escape=False)\nresponse.write(info)\nresponse.write(\'</h2>\\n\', escape=False)\nfor i in range(len(text)):\n    response.write(\'\\n\\t\', escape=False)\n    if text[i] == newtext[i]:\n        response.write(\'\\n\\t\\t\', escape=False)\n        response.write(text[i])\n        response.write(\'<br />\\n\\t\', escape=False)\n    else:\n        response.write(\'\\n\', escape=False)\n        response.write(A(text[i],_href=url(\'file://\'+newtext[i])))\n        response.write(\'<br />\\n    \', escape=False)\n        pass\n    response.write(\'\\n\', escape=False)\n    pass\nresponse.write(\'\\n\', escape=False)\nresponse.write(\'\\n            \', escape=False)\nresponse.write(\'\\n        </div>\\n\\n        \', escape=False)\nif right_sidebar_enabled:\n    response.write(\'\\n        <div class="span3">\\n            \', escape=False)\n    response.write(\'\\n            <h3>Right Sidebar</h3>\\n            <p></p>\\n            \', escape=False)\n    response.write(\'\\n        </div>\\n        \', escape=False)\n    pass\nresponse.write(\'\\n    </section><!--/main-->\\n\\n    <!-- Footer ================================================== -->\\n    <div class="row">\\n        <footer class="footer span12" id="footer">\\n            <div class="footer-content">\\n                \', escape=False)\nresponse.write(\' <!-- this is default footer -->\\n                <div class="copyright pull-left">\', escape=False)\nresponse.write(T(\'Copyright\'))\nresponse.write(\' &#169; \', escape=False)\nresponse.write(request.now.year)\nresponse.write(\'</div>\\n                <div id="poweredBy" class="pull-right">\\n                    \', escape=False)\nresponse.write(T(\'Powered by\'))\nresponse.write(\'\\n                    <a href="http://www.web2py.com/">web2py</a>\\n                </div>\\n                \', escape=False)\nresponse.write(\'\\n            </div>\\n        </footer>\\n    </div>\\n\\n  </div> <!-- /container -->\\n\\n  <!-- The javascript =============================================\\n       (Placed at the end of the document so the pages load faster) -->\\n  <script src="\', escape=False)\nresponse.write(URL(\'static\',\'js/bootstrap.min.js\'))\nresponse.write(\'"></script>\\n  <script src="\', escape=False)\nresponse.write(URL(\'static\',\'js/web2py_bootstrap.js\'))\nresponse.write(\'"></script>\\n  <!--[if lt IE 7 ]>\\n      <script src="\', escape=False)\nresponse.write(URL(\'static\',\'js/dd_belatedpng.js\'))\nresponse.write(\'"></script>\\n      <script> DD_belatedPNG.fix(\\\'img, .png_bg\\\'); //fix any <img> or .png_bg background-images </script>\\n      <![endif]-->\\n  \', escape=False)\nif response.google_analytics_id:\n    response.write(\'<script type="text/javascript"> var _gaq = _gaq || []; _gaq.push([\\\'_setAccount\\\', \\\'\', escape=False)\n    response.write(response.google_analytics_id)\n    response.write("\']); _gaq.push([\'_trackPageview\']); (function() { var ga = document.createElement(\'script\'); ga.type = \'text/javascript\'; ga.async = true; ga.src = (\'https:\' == document.location.protocol ? \'https://ssl\' : \'http://www\') + \'.google-analytics.com/ga.js\'; var s = document.getElementsByTagName(\'script\')[0]; s.parentNode.insertBefore(ga, s); })(); </script> ", escape=False)\n    pass\nresponse.write(\'\\n  <script src="\', escape=False)\nresponse.write(URL(\'static\',\'js/share.js\',vars=dict(static=URL(\'static\',\'images\'))))\nresponse.write(\'"></script>\\n</body>\\n</html>\\n\\n\', escape=False)'
p7
sS'snapshot'
p8
(dp9
S'exception'
p10
(dp11
S'__hash__'
p12
S"<method-wrapper '__hash__' of exceptions.NameError object>"
p13
sS'__setattr__'
p14
S"<method-wrapper '__setattr__' of exceptions.NameError object>"
p15
sS'__reduce_ex__'
p16
S'<built-in method __reduce_ex__ of exceptions.NameError object>'
p17
sS'__getslice__'
p18
S"<method-wrapper '__getslice__' of exceptions.NameError object>"
p19
sS'__getitem__'
p20
S"<method-wrapper '__getitem__' of exceptions.NameError object>"
p21
sS'__setstate__'
p22
S'<built-in method __setstate__ of exceptions.NameError object>'
p23
sS'args'
p24
S'("name \'url\' is not defined",)'
p25
sS'__reduce__'
p26
S'<built-in method __reduce__ of exceptions.NameError object>'
p27
sS'__str__'
p28
S"<method-wrapper '__str__' of exceptions.NameError object>"
p29
sS'__format__'
p30
S'<built-in method __format__ of exceptions.NameError object>'
p31
sS'__getattribute__'
p32
S"<method-wrapper '__getattribute__' of exceptions.NameError object>"
p33
sS'__class__'
p34
S"<type 'exceptions.NameError'>"
p35
sS'__unicode__'
p36
S'<built-in method __unicode__ of exceptions.NameError object>'
p37
sS'__delattr__'
p38
S"<method-wrapper '__delattr__' of exceptions.NameError object>"
p39
sS'__subclasshook__'
p40
S'<built-in method __subclasshook__ of type object>'
p41
sS'__repr__'
p42
S"<method-wrapper '__repr__' of exceptions.NameError object>"
p43
sS'__dict__'
p44
S'{}'
p45
sS'__sizeof__'
p46
S'<built-in method __sizeof__ of exceptions.NameError object>'
p47
sS'__doc__'
p48
S"'Name not found globally.'"
p49
sS'__init__'
p50
S"<method-wrapper '__init__' of exceptions.NameError object>"
p51
sS'__new__'
p52
S'<built-in method __new__ of type object>'
p53
ssS'evalue'
p54
S"name 'url' is not defined"
p55
sS'request'
p56
ccopy_reg
_reconstructor
p57
(cgluon.html
BEAUTIFY
p58
c__builtin__
object
p59
NtRp60
(dp61
S'attributes'
p62
(dp63
sS'components'
p64
(lp65
g57
(cgluon.html
TABLE
p66
g59
NtRp67
(dp68
g62
(dp69
S'level'
p70
I5
ssS'parent'
p71
Nsg64
(lp72
g57
(cgluon.html
TR
p73
g59
NtRp74
(dp75
g62
(dp76
sg71
g67
sg64
(lp77
g57
(cgluon.html
TD
p78
g59
NtRp79
(dp80
g62
(dp81
S'_style'
p82
S'font-weight:bold;vertical-align:top'
p83
ssg71
g74
sg64
(lp84
S'ajax'
p85
asbag57
(g78
g59
NtRp86
(dp87
g62
(dp88
S'_valign'
p89
S'top'
p90
ssg71
g74
sg64
(lp91
S':'
asbag57
(g78
g59
NtRp92
(dp93
g62
(dp94
sg71
g74
sg64
(lp95
g57
(g58
g59
NtRp96
(dp97
g62
(dp98
g70
I5
ssg71
g92
sg64
(lp99
S'False'
p100
asbasbasbag57
(g73
g59
NtRp101
(dp102
g62
(dp103
sg71
g67
sg64
(lp104
g57
(g78
g59
NtRp105
(dp106
g62
(dp107
g82
g83
ssg71
g101
sg64
(lp108
S'application'
p109
asbag57
(g78
g59
NtRp110
(dp111
g62
(dp112
g89
g90
ssg71
g101
sg64
(lp113
S':'
asbag57
(g78
g59
NtRp114
(dp115
g62
(dp116
sg71
g101
sg64
(lp117
g57
(g58
g59
NtRp118
(dp119
g62
(dp120
g70
I5
ssg71
g114
sg64
(lp121
S'Betsy'
p122
asbasbasbag57
(g73
g59
NtRp123
(dp124
g62
(dp125
sg71
g67
sg64
(lp126
g57
(g78
g59
NtRp127
(dp128
g62
(dp129
g82
g83
ssg71
g123
sg64
(lp130
g24
asbag57
(g78
g59
NtRp131
(dp132
g62
(dp133
g89
g90
ssg71
g123
sg64
(lp134
S':'
asbag57
(g78
g59
NtRp135
(dp136
g62
(dp137
sg71
g123
sg64
(lp138
g57
(g58
g59
NtRp139
(dp140
g62
(dp141
g70
I5
ssg71
g135
sg64
(lp142
g57
(g66
g59
NtRp143
(dp144
g62
(dp145
g70
I4
ssg71
Nsg64
(lp146
g57
(g73
g59
NtRp147
(dp148
g62
(dp149
sg71
g143
sg64
(lp150
g57
(g78
g59
NtRp151
(dp152
g62
(dp153
sg71
g147
sg64
(lp154
g57
(g58
g59
NtRp155
(dp156
g62
(dp157
g70
I4
ssg71
g151
sg64
(lp158
S'131'
p159
asbasbasbasbasbasbasbag57
(g73
g59
NtRp160
(dp161
g62
(dp162
sg71
g67
sg64
(lp163
g57
(g78
g59
NtRp164
(dp165
g62
(dp166
g82
g83
ssg71
g160
sg64
(lp167
S'body'
p168
asbag57
(g78
g59
NtRp169
(dp170
g62
(dp171
g89
g90
ssg71
g160
sg64
(lp172
S':'
asbag57
(g78
g59
NtRp173
(dp174
g62
(dp175
sg71
g160
sg64
(lp176
g57
(g58
g59
NtRp177
(dp178
g62
(dp179
g70
I5
ssg71
g173
sg64
(lp180
S'<cStringIO.StringO object at 0x17572e68>'
p181
asbasbasbag57
(g73
g59
NtRp182
(dp183
g62
(dp184
sg71
g67
sg64
(lp185
g57
(g78
g59
NtRp186
(dp187
g62
(dp188
g82
g83
ssg71
g182
sg64
(lp189
S'cid'
p190
asbag57
(g78
g59
NtRp191
(dp192
g62
(dp193
g89
g90
ssg71
g182
sg64
(lp194
S':'
asbag57
(g78
g59
NtRp195
(dp196
g62
(dp197
sg71
g182
sg64
(lp198
g57
(g58
g59
NtRp199
(dp200
g62
(dp201
g70
I5
ssg71
g195
sg64
(lp202
S'None'
p203
asbasbasbag57
(g73
g59
NtRp204
(dp205
g62
(dp206
sg71
g67
sg64
(lp207
g57
(g78
g59
NtRp208
(dp209
g62
(dp210
g82
g83
ssg71
g204
sg64
(lp211
S'client'
p212
asbag57
(g78
g59
NtRp213
(dp214
g62
(dp215
g89
g90
ssg71
g204
sg64
(lp216
S':'
asbag57
(g78
g59
NtRp217
(dp218
g62
(dp219
sg71
g204
sg64
(lp220
g57
(g58
g59
NtRp221
(dp222
g62
(dp223
g70
I5
ssg71
g217
sg64
(lp224
S'127.0.0.1'
p225
asbasbasbag57
(g73
g59
NtRp226
(dp227
g62
(dp228
sg71
g67
sg64
(lp229
g57
(g78
g59
NtRp230
(dp231
g62
(dp232
g82
g83
ssg71
g226
sg64
(lp233
S'controller'
p234
asbag57
(g78
g59
NtRp235
(dp236
g62
(dp237
g89
g90
ssg71
g226
sg64
(lp238
S':'
asbag57
(g78
g59
NtRp239
(dp240
g62
(dp241
sg71
g226
sg64
(lp242
g57
(g58
g59
NtRp243
(dp244
g62
(dp245
g70
I5
ssg71
g239
sg64
(lp246
S'default'
p247
asbasbasbag57
(g73
g59
NtRp248
(dp249
g62
(dp250
sg71
g67
sg64
(lp251
g57
(g78
g59
NtRp252
(dp253
g62
(dp254
g82
g83
ssg71
g248
sg64
(lp255
S'cookies'
p256
asbag57
(g78
g59
NtRp257
(dp258
g62
(dp259
g89
g90
ssg71
g248
sg64
(lp260
S':'
asbag57
(g78
g59
NtRp261
(dp262
g62
(dp263
sg71
g248
sg64
(lp264
g57
(g58
g59
NtRp265
(dp266
g62
(dp267
g70
I5
ssg71
g261
sg64
(lp268
g57
(g66
g59
NtRp269
(dp270
g62
(dp271
g70
I4
ssg71
Nsg64
(lp272
g57
(g73
g59
NtRp273
(dp274
g62
(dp275
sg71
g269
sg64
(lp276
g57
(g78
g59
NtRp277
(dp278
g62
(dp279
g82
g83
ssg71
g273
sg64
(lp280
S'session_id_admin'
p281
asbag57
(g78
g59
NtRp282
(dp283
g62
(dp284
g89
g90
ssg71
g273
sg64
(lp285
S':'
asbag57
(g78
g59
NtRp286
(dp287
g62
(dp288
sg71
g273
sg64
(lp289
g57
(g58
g59
NtRp290
(dp291
g62
(dp292
g70
I4
ssg71
g286
sg64
(lp293
S'127.0.0.1-35fd6d2e-7496-4b5d-9710-19abfa20c9b5'
p294
ag57
(g66
g59
NtRp295
(dp296
g62
(dp297
g70
I3
ssg71
Nsg64
(lp298
g57
(g73
g59
NtRp299
(dp300
g62
(dp301
sg71
g295
sg64
(lp302
g57
(g78
g59
NtRp303
(dp304
g62
(dp305
g82
g83
ssg71
g299
sg64
(lp306
S'comment'
p307
asbag57
(g78
g59
NtRp308
(dp309
g62
(dp310
g89
g90
ssg71
g299
sg64
(lp311
S':'
asbag57
(g78
g59
NtRp312
(dp313
g62
(dp314
sg71
g299
sg64
(lp315
g57
(g58
g59
NtRp316
(dp317
g62
(dp318
g70
I3
ssg71
g312
sg64
(lp319
S''
asbasbasbag57
(g73
g59
NtRp320
(dp321
g62
(dp322
sg71
g295
sg64
(lp323
g57
(g78
g59
NtRp324
(dp325
g62
(dp326
g82
g83
ssg71
g320
sg64
(lp327
S'domain'
p328
asbag57
(g78
g59
NtRp329
(dp330
g62
(dp331
g89
g90
ssg71
g320
sg64
(lp332
S':'
asbag57
(g78
g59
NtRp333
(dp334
g62
(dp335
sg71
g320
sg64
(lp336
g57
(g58
g59
NtRp337
(dp338
g62
(dp339
g70
I3
ssg71
g333
sg64
(lp340
S''
asbasbasbag57
(g73
g59
NtRp341
(dp342
g62
(dp343
sg71
g295
sg64
(lp344
g57
(g78
g59
NtRp345
(dp346
g62
(dp347
g82
g83
ssg71
g341
sg64
(lp348
S'expires'
p349
asbag57
(g78
g59
NtRp350
(dp351
g62
(dp352
g89
g90
ssg71
g341
sg64
(lp353
S':'
asbag57
(g78
g59
NtRp354
(dp355
g62
(dp356
sg71
g341
sg64
(lp357
g57
(g58
g59
NtRp358
(dp359
g62
(dp360
g70
I3
ssg71
g354
sg64
(lp361
S''
asbasbasbag57
(g73
g59
NtRp362
(dp363
g62
(dp364
sg71
g295
sg64
(lp365
g57
(g78
g59
NtRp366
(dp367
g62
(dp368
g82
g83
ssg71
g362
sg64
(lp369
S'httponly'
p370
asbag57
(g78
g59
NtRp371
(dp372
g62
(dp373
g89
g90
ssg71
g362
sg64
(lp374
S':'
asbag57
(g78
g59
NtRp375
(dp376
g62
(dp377
sg71
g362
sg64
(lp378
g57
(g58
g59
NtRp379
(dp380
g62
(dp381
g70
I3
ssg71
g375
sg64
(lp382
S''
asbasbasbag57
(g73
g59
NtRp383
(dp384
g62
(dp385
sg71
g295
sg64
(lp386
g57
(g78
g59
NtRp387
(dp388
g62
(dp389
g82
g83
ssg71
g383
sg64
(lp390
S'max-age'
p391
asbag57
(g78
g59
NtRp392
(dp393
g62
(dp394
g89
g90
ssg71
g383
sg64
(lp395
S':'
asbag57
(g78
g59
NtRp396
(dp397
g62
(dp398
sg71
g383
sg64
(lp399
g57
(g58
g59
NtRp400
(dp401
g62
(dp402
g70
I3
ssg71
g396
sg64
(lp403
S''
asbasbasbag57
(g73
g59
NtRp404
(dp405
g62
(dp406
sg71
g295
sg64
(lp407
g57
(g78
g59
NtRp408
(dp409
g62
(dp410
g82
g83
ssg71
g404
sg64
(lp411
S'path'
p412
asbag57
(g78
g59
NtRp413
(dp414
g62
(dp415
g89
g90
ssg71
g404
sg64
(lp416
S':'
asbag57
(g78
g59
NtRp417
(dp418
g62
(dp419
sg71
g404
sg64
(lp420
g57
(g58
g59
NtRp421
(dp422
g62
(dp423
g70
I3
ssg71
g417
sg64
(lp424
S''
asbasbasbag57
(g73
g59
NtRp425
(dp426
g62
(dp427
sg71
g295
sg64
(lp428
g57
(g78
g59
NtRp429
(dp430
g62
(dp431
g82
g83
ssg71
g425
sg64
(lp432
S'secure'
p433
asbag57
(g78
g59
NtRp434
(dp435
g62
(dp436
g89
g90
ssg71
g425
sg64
(lp437
S':'
asbag57
(g78
g59
NtRp438
(dp439
g62
(dp440
sg71
g425
sg64
(lp441
g57
(g58
g59
NtRp442
(dp443
g62
(dp444
g70
I3
ssg71
g438
sg64
(lp445
S''
asbasbasbag57
(g73
g59
NtRp446
(dp447
g62
(dp448
sg71
g295
sg64
(lp449
g57
(g78
g59
NtRp450
(dp451
g62
(dp452
g82
g83
ssg71
g446
sg64
(lp453
S'version'
p454
asbag57
(g78
g59
NtRp455
(dp456
g62
(dp457
g89
g90
ssg71
g446
sg64
(lp458
S':'
asbag57
(g78
g59
NtRp459
(dp460
g62
(dp461
sg71
g446
sg64
(lp462
g57
(g58
g59
NtRp463
(dp464
g62
(dp465
g70
I3
ssg71
g459
sg64
(lp466
S''
asbasbasbasbasbasbasbag57
(g73
g59
NtRp467
(dp468
g62
(dp469
sg71
g269
sg64
(lp470
g57
(g78
g59
NtRp471
(dp472
g62
(dp473
g82
g83
ssg71
g467
sg64
(lp474
S'session_id_betsy'
p475
asbag57
(g78
g59
NtRp476
(dp477
g62
(dp478
g89
g90
ssg71
g467
sg64
(lp479
S':'
asbag57
(g78
g59
NtRp480
(dp481
g62
(dp482
sg71
g467
sg64
(lp483
g57
(g58
g59
NtRp484
(dp485
g62
(dp486
g70
I4
ssg71
g480
sg64
(lp487
S'127.0.0.1-70d52105-0f5d-4884-a4e3-dce6830f30e0'
p488
ag57
(g66
g59
NtRp489
(dp490
g62
(dp491
g70
I3
ssg71
Nsg64
(lp492
g57
(g73
g59
NtRp493
(dp494
g62
(dp495
sg71
g489
sg64
(lp496
g57
(g78
g59
NtRp497
(dp498
g62
(dp499
g82
g83
ssg71
g493
sg64
(lp500
g307
asbag57
(g78
g59
NtRp501
(dp502
g62
(dp503
g89
g90
ssg71
g493
sg64
(lp504
S':'
asbag57
(g78
g59
NtRp505
(dp506
g62
(dp507
sg71
g493
sg64
(lp508
g57
(g58
g59
NtRp509
(dp510
g62
(dp511
g70
I3
ssg71
g505
sg64
(lp512
S''
asbasbasbag57
(g73
g59
NtRp513
(dp514
g62
(dp515
sg71
g489
sg64
(lp516
g57
(g78
g59
NtRp517
(dp518
g62
(dp519
g82
g83
ssg71
g513
sg64
(lp520
g328
asbag57
(g78
g59
NtRp521
(dp522
g62
(dp523
g89
g90
ssg71
g513
sg64
(lp524
S':'
asbag57
(g78
g59
NtRp525
(dp526
g62
(dp527
sg71
g513
sg64
(lp528
g57
(g58
g59
NtRp529
(dp530
g62
(dp531
g70
I3
ssg71
g525
sg64
(lp532
S''
asbasbasbag57
(g73
g59
NtRp533
(dp534
g62
(dp535
sg71
g489
sg64
(lp536
g57
(g78
g59
NtRp537
(dp538
g62
(dp539
g82
g83
ssg71
g533
sg64
(lp540
g349
asbag57
(g78
g59
NtRp541
(dp542
g62
(dp543
g89
g90
ssg71
g533
sg64
(lp544
S':'
asbag57
(g78
g59
NtRp545
(dp546
g62
(dp547
sg71
g533
sg64
(lp548
g57
(g58
g59
NtRp549
(dp550
g62
(dp551
g70
I3
ssg71
g545
sg64
(lp552
S''
asbasbasbag57
(g73
g59
NtRp553
(dp554
g62
(dp555
sg71
g489
sg64
(lp556
g57
(g78
g59
NtRp557
(dp558
g62
(dp559
g82
g83
ssg71
g553
sg64
(lp560
g370
asbag57
(g78
g59
NtRp561
(dp562
g62
(dp563
g89
g90
ssg71
g553
sg64
(lp564
S':'
asbag57
(g78
g59
NtRp565
(dp566
g62
(dp567
sg71
g553
sg64
(lp568
g57
(g58
g59
NtRp569
(dp570
g62
(dp571
g70
I3
ssg71
g565
sg64
(lp572
S''
asbasbasbag57
(g73
g59
NtRp573
(dp574
g62
(dp575
sg71
g489
sg64
(lp576
g57
(g78
g59
NtRp577
(dp578
g62
(dp579
g82
g83
ssg71
g573
sg64
(lp580
g391
asbag57
(g78
g59
NtRp581
(dp582
g62
(dp583
g89
g90
ssg71
g573
sg64
(lp584
S':'
asbag57
(g78
g59
NtRp585
(dp586
g62
(dp587
sg71
g573
sg64
(lp588
g57
(g58
g59
NtRp589
(dp590
g62
(dp591
g70
I3
ssg71
g585
sg64
(lp592
S''
asbasbasbag57
(g73
g59
NtRp593
(dp594
g62
(dp595
sg71
g489
sg64
(lp596
g57
(g78
g59
NtRp597
(dp598
g62
(dp599
g82
g83
ssg71
g593
sg64
(lp600
g412
asbag57
(g78
g59
NtRp601
(dp602
g62
(dp603
g89
g90
ssg71
g593
sg64
(lp604
S':'
asbag57
(g78
g59
NtRp605
(dp606
g62
(dp607
sg71
g593
sg64
(lp608
g57
(g58
g59
NtRp609
(dp610
g62
(dp611
g70
I3
ssg71
g605
sg64
(lp612
S''
asbasbasbag57
(g73
g59
NtRp613
(dp614
g62
(dp615
sg71
g489
sg64
(lp616
g57
(g78
g59
NtRp617
(dp618
g62
(dp619
g82
g83
ssg71
g613
sg64
(lp620
g433
asbag57
(g78
g59
NtRp621
(dp622
g62
(dp623
g89
g90
ssg71
g613
sg64
(lp624
S':'
asbag57
(g78
g59
NtRp625
(dp626
g62
(dp627
sg71
g613
sg64
(lp628
g57
(g58
g59
NtRp629
(dp630
g62
(dp631
g70
I3
ssg71
g625
sg64
(lp632
S''
asbasbasbag57
(g73
g59
NtRp633
(dp634
g62
(dp635
sg71
g489
sg64
(lp636
g57
(g78
g59
NtRp637
(dp638
g62
(dp639
g82
g83
ssg71
g633
sg64
(lp640
g454
asbag57
(g78
g59
NtRp641
(dp642
g62
(dp643
g89
g90
ssg71
g633
sg64
(lp644
S':'
asbag57
(g78
g59
NtRp645
(dp646
g62
(dp647
sg71
g633
sg64
(lp648
g57
(g58
g59
NtRp649
(dp650
g62
(dp651
g70
I3
ssg71
g645
sg64
(lp652
S''
asbasbasbasbasbasbasbasbasbasbasbag57
(g73
g59
NtRp653
(dp654
g62
(dp655
sg71
g67
sg64
(lp656
g57
(g78
g59
NtRp657
(dp658
g62
(dp659
g82
g83
ssg71
g653
sg64
(lp660
S'env'
p661
asbag57
(g78
g59
NtRp662
(dp663
g62
(dp664
g89
g90
ssg71
g653
sg64
(lp665
S':'
asbag57
(g78
g59
NtRp666
(dp667
g62
(dp668
sg71
g653
sg64
(lp669
g57
(g58
g59
NtRp670
(dp671
g62
(dp672
g70
I5
ssg71
g666
sg64
(lp673
g57
(g66
g59
NtRp674
(dp675
g62
(dp676
g70
I4
ssg71
Nsg64
(lp677
g57
(g73
g59
NtRp678
(dp679
g62
(dp680
sg71
g674
sg64
(lp681
g57
(g78
g59
NtRp682
(dp683
g62
(dp684
g82
g83
ssg71
g678
sg64
(lp685
S'app_folders'
p686
asbag57
(g78
g59
NtRp687
(dp688
g62
(dp689
g89
g90
ssg71
g678
sg64
(lp690
S':'
asbag57
(g78
g59
NtRp691
(dp692
g62
(dp693
sg71
g678
sg64
(lp694
g57
(g58
g59
NtRp695
(dp696
g62
(dp697
g70
I4
ssg71
g691
sg64
(lp698
S"set(['/home/xchen/web2py/applications/Betsy/', '/home/xchen/web2py/applications/admin/'])"
p699
asbasbasbag57
(g73
g59
NtRp700
(dp701
g62
(dp702
sg71
g674
sg64
(lp703
g57
(g78
g59
NtRp704
(dp705
g62
(dp706
g82
g83
ssg71
g700
sg64
(lp707
S'applications_parent'
p708
asbag57
(g78
g59
NtRp709
(dp710
g62
(dp711
g89
g90
ssg71
g700
sg64
(lp712
S':'
asbag57
(g78
g59
NtRp713
(dp714
g62
(dp715
sg71
g700
sg64
(lp716
g57
(g58
g59
NtRp717
(dp718
g62
(dp719
g70
I4
ssg71
g713
sg64
(lp720
S'/home/xchen/web2py'
p721
asbasbasbag57
(g73
g59
NtRp722
(dp723
g62
(dp724
sg71
g674
sg64
(lp725
g57
(g78
g59
NtRp726
(dp727
g62
(dp728
g82
g83
ssg71
g722
sg64
(lp729
S'cmd_args'
p730
asbag57
(g78
g59
NtRp731
(dp732
g62
(dp733
g89
g90
ssg71
g722
sg64
(lp734
S':'
asbag57
(g78
g59
NtRp735
(dp736
g62
(dp737
sg71
g722
sg64
(lp738
g57
(g58
g59
NtRp739
(dp740
g62
(dp741
g70
I4
ssg71
g735
sg64
(lp742
g57
(g66
g59
NtRp743
(dp744
g62
(dp745
g70
I3
ssg71
Nsg64
(lp746
sbasbasbasbag57
(g73
g59
NtRp747
(dp748
g62
(dp749
sg71
g674
sg64
(lp750
g57
(g78
g59
NtRp751
(dp752
g62
(dp753
g82
g83
ssg71
g747
sg64
(lp754
S'cmd_options'
p755
asbag57
(g78
g59
NtRp756
(dp757
g62
(dp758
g89
g90
ssg71
g747
sg64
(lp759
S':'
asbag57
(g78
g59
NtRp760
(dp761
g62
(dp762
sg71
g747
sg64
(lp763
g57
(g58
g59
NtRp764
(dp765
g62
(dp766
g70
I4
ssg71
g760
sg64
(lp767
S"<Values at 0x1670ae18: {'verbose': False, 'ip': '127.0.0.1', 'with_scheduler': False, 'ips': [], 'shutdown_timeout': 5, 'taskbar': False, 'port': 8080, 'maxthreads': None, 'softcron': False, 'server_name': 'unicron.shis.uth.tmc.edu', 'bpython': False, 'nogui': False, 'pid_filename': 'httpserver.pid', 'extcron': False, 'runcron': False, 'run_system_tests': False, 'test': None, 'folder': '/home/xchen/web2py', 'config': '', 'minthreads': None, 'winservice': '', 'shell': None, 'run': '', 'log_filename': 'httpserver.log', 'debuglevel': 30, 'args': [''], 'socket_timeout': 5, 'ssl_ca_certificate': None, 'scheduler': None, 'profiler_filename': None, 'ssl_private_key': '', 'scheduler_groups': None, 'password': 'baby2008', 'request_queue_size': 5, 'ssl_certificate': '', 'cronjob': False, 'numthreads': None, 'quiet': False, 'interfaces': None, 'import_models': False, 'timeout': 10, 'plain': False, 'nobanner': False}>"
p768
asbasbasbag57
(g73
g59
NtRp769
(dp770
g62
(dp771
sg71
g674
sg64
(lp772
g57
(g78
g59
NtRp773
(dp774
g62
(dp775
g82
g83
ssg71
g769
sg64
(lp776
S'db_sessions'
p777
asbag57
(g78
g59
NtRp778
(dp779
g62
(dp780
g89
g90
ssg71
g769
sg64
(lp781
S':'
asbag57
(g78
g59
NtRp782
(dp783
g62
(dp784
sg71
g769
sg64
(lp785
g57
(g58
g59
NtRp786
(dp787
g62
(dp788
g70
I4
ssg71
g782
sg64
(lp789
S'set([])'
p790
asbasbasbag57
(g73
g59
NtRp791
(dp792
g62
(dp793
sg71
g674
sg64
(lp794
g57
(g78
g59
NtRp795
(dp796
g62
(dp797
g82
g83
ssg71
g791
sg64
(lp798
S'debugging'
p799
asbag57
(g78
g59
NtRp800
(dp801
g62
(dp802
g89
g90
ssg71
g791
sg64
(lp803
S':'
asbag57
(g78
g59
NtRp804
(dp805
g62
(dp806
sg71
g791
sg64
(lp807
g57
(g58
g59
NtRp808
(dp809
g62
(dp810
g70
I4
ssg71
g804
sg64
(lp811
g100
asbasbasbag57
(g73
g59
NtRp812
(dp813
g62
(dp814
sg71
g674
sg64
(lp815
g57
(g78
g59
NtRp816
(dp817
g62
(dp818
g82
g83
ssg71
g812
sg64
(lp819
S'gluon_parent'
p820
asbag57
(g78
g59
NtRp821
(dp822
g62
(dp823
g89
g90
ssg71
g812
sg64
(lp824
S':'
asbag57
(g78
g59
NtRp825
(dp826
g62
(dp827
sg71
g812
sg64
(lp828
g57
(g58
g59
NtRp829
(dp830
g62
(dp831
g70
I4
ssg71
g825
sg64
(lp832
S'/home/xchen/web2py'
p833
asbasbasbag57
(g73
g59
NtRp834
(dp835
g62
(dp836
sg71
g674
sg64
(lp837
g57
(g78
g59
NtRp838
(dp839
g62
(dp840
g82
g83
ssg71
g834
sg64
(lp841
S'http_accept'
p842
asbag57
(g78
g59
NtRp843
(dp844
g62
(dp845
g89
g90
ssg71
g834
sg64
(lp846
S':'
asbag57
(g78
g59
NtRp847
(dp848
g62
(dp849
sg71
g834
sg64
(lp850
g57
(g58
g59
NtRp851
(dp852
g62
(dp853
g70
I4
ssg71
g847
sg64
(lp854
S'text/html,application/xhtml+xml,application/xml;q=0.9,*/*;q=0.8'
p855
asbasbasbag57
(g73
g59
NtRp856
(dp857
g62
(dp858
sg71
g674
sg64
(lp859
g57
(g78
g59
NtRp860
(dp861
g62
(dp862
g82
g83
ssg71
g856
sg64
(lp863
S'http_accept_encoding'
p864
asbag57
(g78
g59
NtRp865
(dp866
g62
(dp867
g89
g90
ssg71
g856
sg64
(lp868
S':'
asbag57
(g78
g59
NtRp869
(dp870
g62
(dp871
sg71
g856
sg64
(lp872
g57
(g58
g59
NtRp873
(dp874
g62
(dp875
g70
I4
ssg71
g869
sg64
(lp876
S'gzip, deflate'
p877
asbasbasbag57
(g73
g59
NtRp878
(dp879
g62
(dp880
sg71
g674
sg64
(lp881
g57
(g78
g59
NtRp882
(dp883
g62
(dp884
g82
g83
ssg71
g878
sg64
(lp885
S'http_accept_language'
p886
asbag57
(g78
g59
NtRp887
(dp888
g62
(dp889
g89
g90
ssg71
g878
sg64
(lp890
S':'
asbag57
(g78
g59
NtRp891
(dp892
g62
(dp893
sg71
g878
sg64
(lp894
g57
(g58
g59
NtRp895
(dp896
g62
(dp897
g70
I4
ssg71
g891
sg64
(lp898
S'en-US,en;q=0.5'
p899
asbasbasbag57
(g73
g59
NtRp900
(dp901
g62
(dp902
sg71
g674
sg64
(lp903
g57
(g78
g59
NtRp904
(dp905
g62
(dp906
g82
g83
ssg71
g900
sg64
(lp907
S'http_cache_control'
p908
asbag57
(g78
g59
NtRp909
(dp910
g62
(dp911
g89
g90
ssg71
g900
sg64
(lp912
S':'
asbag57
(g78
g59
NtRp913
(dp914
g62
(dp915
sg71
g900
sg64
(lp916
g57
(g58
g59
NtRp917
(dp918
g62
(dp919
g70
I4
ssg71
g913
sg64
(lp920
S'max-age=0'
p921
asbasbasbag57
(g73
g59
NtRp922
(dp923
g62
(dp924
sg71
g674
sg64
(lp925
g57
(g78
g59
NtRp926
(dp927
g62
(dp928
g82
g83
ssg71
g922
sg64
(lp929
S'http_connection'
p930
asbag57
(g78
g59
NtRp931
(dp932
g62
(dp933
g89
g90
ssg71
g922
sg64
(lp934
S':'
asbag57
(g78
g59
NtRp935
(dp936
g62
(dp937
sg71
g922
sg64
(lp938
g57
(g58
g59
NtRp939
(dp940
g62
(dp941
g70
I4
ssg71
g935
sg64
(lp942
S'keep-alive'
p943
asbasbasbag57
(g73
g59
NtRp944
(dp945
g62
(dp946
sg71
g674
sg64
(lp947
g57
(g78
g59
NtRp948
(dp949
g62
(dp950
g82
g83
ssg71
g944
sg64
(lp951
S'http_cookie'
p952
asbag57
(g78
g59
NtRp953
(dp954
g62
(dp955
g89
g90
ssg71
g944
sg64
(lp956
S':'
asbag57
(g78
g59
NtRp957
(dp958
g62
(dp959
sg71
g944
sg64
(lp960
g57
(g58
g59
NtRp961
(dp962
g62
(dp963
g70
I4
ssg71
g957
sg64
(lp964
S'session_id_betsy=127.0.0.1-70d52105-0f5d-4884-a4e3-dce6830f30e0; session_id_admin=127.0.0.1-35fd6d2e-7496-4b5d-9710-19abfa20c9b5'
p965
asbasbasbag57
(g73
g59
NtRp966
(dp967
g62
(dp968
sg71
g674
sg64
(lp969
g57
(g78
g59
NtRp970
(dp971
g62
(dp972
g82
g83
ssg71
g966
sg64
(lp973
S'http_host'
p974
asbag57
(g78
g59
NtRp975
(dp976
g62
(dp977
g89
g90
ssg71
g966
sg64
(lp978
S':'
asbag57
(g78
g59
NtRp979
(dp980
g62
(dp981
sg71
g966
sg64
(lp982
g57
(g58
g59
NtRp983
(dp984
g62
(dp985
g70
I4
ssg71
g979
sg64
(lp986
S'localhost:8080'
p987
asbasbasbag57
(g73
g59
NtRp988
(dp989
g62
(dp990
sg71
g674
sg64
(lp991
g57
(g78
g59
NtRp992
(dp993
g62
(dp994
g82
g83
ssg71
g988
sg64
(lp995
S'http_referer'
p996
asbag57
(g78
g59
NtRp997
(dp998
g62
(dp999
g89
g90
ssg71
g988
sg64
(lp1000
S':'
asbag57
(g78
g59
NtRp1001
(dp1002
g62
(dp1003
sg71
g988
sg64
(lp1004
g57
(g58
g59
NtRp1005
(dp1006
g62
(dp1007
g70
I4
ssg71
g1001
sg64
(lp1008
S'http://localhost:8080/Betsy/default/show_status'
p1009
asbasbasbag57
(g73
g59
NtRp1010
(dp1011
g62
(dp1012
sg71
g674
sg64
(lp1013
g57
(g78
g59
NtRp1014
(dp1015
g62
(dp1016
g82
g83
ssg71
g1010
sg64
(lp1017
S'http_user_agent'
p1018
asbag57
(g78
g59
NtRp1019
(dp1020
g62
(dp1021
g89
g90
ssg71
g1010
sg64
(lp1022
S':'
asbag57
(g78
g59
NtRp1023
(dp1024
g62
(dp1025
sg71
g1010
sg64
(lp1026
g57
(g58
g59
NtRp1027
(dp1028
g62
(dp1029
g70
I4
ssg71
g1023
sg64
(lp1030
S'Mozilla/5.0 (Macintosh; Intel Mac OS X 10.6; rv:18.0) Gecko/20100101 Firefox/18.0'
p1031
asbasbasbag57
(g73
g59
NtRp1032
(dp1033
g62
(dp1034
sg71
g674
sg64
(lp1035
g57
(g78
g59
NtRp1036
(dp1037
g62
(dp1038
g82
g83
ssg71
g1032
sg64
(lp1039
S'is_jython'
p1040
asbag57
(g78
g59
NtRp1041
(dp1042
g62
(dp1043
g89
g90
ssg71
g1032
sg64
(lp1044
S':'
asbag57
(g78
g59
NtRp1045
(dp1046
g62
(dp1047
sg71
g1032
sg64
(lp1048
g57
(g58
g59
NtRp1049
(dp1050
g62
(dp1051
g70
I4
ssg71
g1045
sg64
(lp1052
g100
asbasbasbag57
(g73
g59
NtRp1053
(dp1054
g62
(dp1055
sg71
g674
sg64
(lp1056
g57
(g78
g59
NtRp1057
(dp1058
g62
(dp1059
g82
g83
ssg71
g1053
sg64
(lp1060
S'is_pypy'
p1061
asbag57
(g78
g59
NtRp1062
(dp1063
g62
(dp1064
g89
g90
ssg71
g1053
sg64
(lp1065
S':'
asbag57
(g78
g59
NtRp1066
(dp1067
g62
(dp1068
sg71
g1053
sg64
(lp1069
g57
(g58
g59
NtRp1070
(dp1071
g62
(dp1072
g70
I4
ssg71
g1066
sg64
(lp1073
g100
asbasbasbag57
(g73
g59
NtRp1074
(dp1075
g62
(dp1076
sg71
g674
sg64
(lp1077
g57
(g78
g59
NtRp1078
(dp1079
g62
(dp1080
g82
g83
ssg71
g1074
sg64
(lp1081
S'local_hosts'
p1082
asbag57
(g78
g59
NtRp1083
(dp1084
g62
(dp1085
g89
g90
ssg71
g1074
sg64
(lp1086
S':'
asbag57
(g78
g59
NtRp1087
(dp1088
g62
(dp1089
sg71
g1074
sg64
(lp1090
g57
(g58
g59
NtRp1091
(dp1092
g62
(dp1093
g70
I4
ssg71
g1087
sg64
(lp1094
g57
(g66
g59
NtRp1095
(dp1096
g62
(dp1097
g70
I3
ssg71
Nsg64
(lp1098
g57
(g73
g59
NtRp1099
(dp1100
g62
(dp1101
sg71
g1095
sg64
(lp1102
g57
(g78
g59
NtRp1103
(dp1104
g62
(dp1105
sg71
g1099
sg64
(lp1106
g57
(g58
g59
NtRp1107
(dp1108
g62
(dp1109
g70
I3
ssg71
g1103
sg64
(lp1110
S'127.0.0.1'
p1111
asbasbasbag57
(g73
g59
NtRp1112
(dp1113
g62
(dp1114
sg71
g1095
sg64
(lp1115
g57
(g78
g59
NtRp1116
(dp1117
g62
(dp1118
sg71
g1112
sg64
(lp1119
g57
(g58
g59
NtRp1120
(dp1121
g62
(dp1122
g70
I3
ssg71
g1116
sg64
(lp1123
S'::ffff:127.0.0.1'
p1124
asbasbasbag57
(g73
g59
NtRp1125
(dp1126
g62
(dp1127
sg71
g1095
sg64
(lp1128
g57
(g78
g59
NtRp1129
(dp1130
g62
(dp1131
sg71
g1125
sg64
(lp1132
g57
(g58
g59
NtRp1133
(dp1134
g62
(dp1135
g70
I3
ssg71
g1129
sg64
(lp1136
S'unicron.shis.uth.tmc.edu'
p1137
asbasbasbag57
(g73
g59
NtRp1138
(dp1139
g62
(dp1140
sg71
g1095
sg64
(lp1141
g57
(g78
g59
NtRp1142
(dp1143
g62
(dp1144
sg71
g1138
sg64
(lp1145
g57
(g58
g59
NtRp1146
(dp1147
g62
(dp1148
g70
I3
ssg71
g1142
sg64
(lp1149
S'unicron.shis.uth.tmc.edu'
p1150
asbasbasbag57
(g73
g59
NtRp1151
(dp1152
g62
(dp1153
sg71
g1095
sg64
(lp1154
g57
(g78
g59
NtRp1155
(dp1156
g62
(dp1157
sg71
g1151
sg64
(lp1158
g57
(g58
g59
NtRp1159
(dp1160
g62
(dp1161
g70
I3
ssg71
g1155
sg64
(lp1162
S'127.0.0.1'
p1163
asbasbasbasbasbasbasbag57
(g73
g59
NtRp1164
(dp1165
g62
(dp1166
sg71
g674
sg64
(lp1167
g57
(g78
g59
NtRp1168
(dp1169
g62
(dp1170
g82
g83
ssg71
g1164
sg64
(lp1171
S'path_info'
p1172
asbag57
(g78
g59
NtRp1173
(dp1174
g62
(dp1175
g89
g90
ssg71
g1164
sg64
(lp1176
S':'
asbag57
(g78
g59
NtRp1177
(dp1178
g62
(dp1179
sg71
g1164
sg64
(lp1180
g57
(g58
g59
NtRp1181
(dp1182
g62
(dp1183
g70
I4
ssg71
g1177
sg64
(lp1184
S'/Betsy/default/show_job/131'
p1185
asbasbasbag57
(g73
g59
NtRp1186
(dp1187
g62
(dp1188
sg71
g674
sg64
(lp1189
g57
(g78
g59
NtRp1190
(dp1191
g62
(dp1192
g82
g83
ssg71
g1186
sg64
(lp1193
S'query_string'
p1194
asbag57
(g78
g59
NtRp1195
(dp1196
g62
(dp1197
g89
g90
ssg71
g1186
sg64
(lp1198
S':'
asbag57
(g78
g59
NtRp1199
(dp1200
g62
(dp1201
sg71
g1186
sg64
(lp1202
g57
(g58
g59
NtRp1203
(dp1204
g62
(dp1205
g70
I4
ssg71
g1199
sg64
(lp1206
S''
asbasbasbag57
(g73
g59
NtRp1207
(dp1208
g62
(dp1209
sg71
g674
sg64
(lp1210
g57
(g78
g59
NtRp1211
(dp1212
g62
(dp1213
g82
g83
ssg71
g1207
sg64
(lp1214
S'remote_addr'
p1215
asbag57
(g78
g59
NtRp1216
(dp1217
g62
(dp1218
g89
g90
ssg71
g1207
sg64
(lp1219
S':'
asbag57
(g78
g59
NtRp1220
(dp1221
g62
(dp1222
sg71
g1207
sg64
(lp1223
g57
(g58
g59
NtRp1224
(dp1225
g62
(dp1226
g70
I4
ssg71
g1220
sg64
(lp1227
g225
asbasbasbag57
(g73
g59
NtRp1228
(dp1229
g62
(dp1230
sg71
g674
sg64
(lp1231
g57
(g78
g59
NtRp1232
(dp1233
g62
(dp1234
g82
g83
ssg71
g1228
sg64
(lp1235
S'remote_port'
p1236
asbag57
(g78
g59
NtRp1237
(dp1238
g62
(dp1239
g89
g90
ssg71
g1228
sg64
(lp1240
S':'
asbag57
(g78
g59
NtRp1241
(dp1242
g62
(dp1243
sg71
g1228
sg64
(lp1244
g57
(g58
g59
NtRp1245
(dp1246
g62
(dp1247
g70
I4
ssg71
g1241
sg64
(lp1248
S'55649'
p1249
asbasbasbag57
(g73
g59
NtRp1250
(dp1251
g62
(dp1252
sg71
g674
sg64
(lp1253
g57
(g78
g59
NtRp1254
(dp1255
g62
(dp1256
g82
g83
ssg71
g1250
sg64
(lp1257
S'request_method'
p1258
asbag57
(g78
g59
NtRp1259
(dp1260
g62
(dp1261
g89
g90
ssg71
g1250
sg64
(lp1262
S':'
asbag57
(g78
g59
NtRp1263
(dp1264
g62
(dp1265
sg71
g1250
sg64
(lp1266
g57
(g58
g59
NtRp1267
(dp1268
g62
(dp1269
g70
I4
ssg71
g1263
sg64
(lp1270
S'GET'
p1271
asbasbasbag57
(g73
g59
NtRp1272
(dp1273
g62
(dp1274
sg71
g674
sg64
(lp1275
g57
(g78
g59
NtRp1276
(dp1277
g62
(dp1278
g82
g83
ssg71
g1272
sg64
(lp1279
S'request_uri'
p1280
asbag57
(g78
g59
NtRp1281
(dp1282
g62
(dp1283
g89
g90
ssg71
g1272
sg64
(lp1284
S':'
asbag57
(g78
g59
NtRp1285
(dp1286
g62
(dp1287
sg71
g1272
sg64
(lp1288
g57
(g58
g59
NtRp1289
(dp1290
g62
(dp1291
g70
I4
ssg71
g1285
sg64
(lp1292
g1185
asbasbasbag57
(g73
g59
NtRp1293
(dp1294
g62
(dp1295
sg71
g674
sg64
(lp1296
g57
(g78
g59
NtRp1297
(dp1298
g62
(dp1299
g82
g83
ssg71
g1293
sg64
(lp1300
S'script_name'
p1301
asbag57
(g78
g59
NtRp1302
(dp1303
g62
(dp1304
g89
g90
ssg71
g1293
sg64
(lp1305
S':'
asbag57
(g78
g59
NtRp1306
(dp1307
g62
(dp1308
sg71
g1293
sg64
(lp1309
g57
(g58
g59
NtRp1310
(dp1311
g62
(dp1312
g70
I4
ssg71
g1306
sg64
(lp1313
S''
asbasbasbag57
(g73
g59
NtRp1314
(dp1315
g62
(dp1316
sg71
g674
sg64
(lp1317
g57
(g78
g59
NtRp1318
(dp1319
g62
(dp1320
g82
g83
ssg71
g1314
sg64
(lp1321
S'server_name'
p1322
asbag57
(g78
g59
NtRp1323
(dp1324
g62
(dp1325
g89
g90
ssg71
g1314
sg64
(lp1326
S':'
asbag57
(g78
g59
NtRp1327
(dp1328
g62
(dp1329
sg71
g1314
sg64
(lp1330
g57
(g58
g59
NtRp1331
(dp1332
g62
(dp1333
g70
I4
ssg71
g1327
sg64
(lp1334
g1150
asbasbasbag57
(g73
g59
NtRp1335
(dp1336
g62
(dp1337
sg71
g674
sg64
(lp1338
g57
(g78
g59
NtRp1339
(dp1340
g62
(dp1341
g82
g83
ssg71
g1335
sg64
(lp1342
S'server_port'
p1343
asbag57
(g78
g59
NtRp1344
(dp1345
g62
(dp1346
g89
g90
ssg71
g1335
sg64
(lp1347
S':'
asbag57
(g78
g59
NtRp1348
(dp1349
g62
(dp1350
sg71
g1335
sg64
(lp1351
g57
(g58
g59
NtRp1352
(dp1353
g62
(dp1354
g70
I4
ssg71
g1348
sg64
(lp1355
S'8080'
p1356
asbasbasbag57
(g73
g59
NtRp1357
(dp1358
g62
(dp1359
sg71
g674
sg64
(lp1360
g57
(g78
g59
NtRp1361
(dp1362
g62
(dp1363
g82
g83
ssg71
g1357
sg64
(lp1364
S'server_protocol'
p1365
asbag57
(g78
g59
NtRp1366
(dp1367
g62
(dp1368
g89
g90
ssg71
g1357
sg64
(lp1369
S':'
asbag57
(g78
g59
NtRp1370
(dp1371
g62
(dp1372
sg71
g1357
sg64
(lp1373
g57
(g58
g59
NtRp1374
(dp1375
g62
(dp1376
g70
I4
ssg71
g1370
sg64
(lp1377
S'HTTP/1.1'
p1378
asbasbasbag57
(g73
g59
NtRp1379
(dp1380
g62
(dp1381
sg71
g674
sg64
(lp1382
g57
(g78
g59
NtRp1383
(dp1384
g62
(dp1385
g82
g83
ssg71
g1379
sg64
(lp1386
S'server_software'
p1387
asbag57
(g78
g59
NtRp1388
(dp1389
g62
(dp1390
g89
g90
ssg71
g1379
sg64
(lp1391
S':'
asbag57
(g78
g59
NtRp1392
(dp1393
g62
(dp1394
sg71
g1379
sg64
(lp1395
g57
(g58
g59
NtRp1396
(dp1397
g62
(dp1398
g70
I4
ssg71
g1392
sg64
(lp1399
S'Rocket 1.2.5'
p1400
asbasbasbag57
(g73
g59
NtRp1401
(dp1402
g62
(dp1403
sg71
g674
sg64
(lp1404
g57
(g78
g59
NtRp1405
(dp1406
g62
(dp1407
g82
g83
ssg71
g1401
sg64
(lp1408
S'web2py_path'
p1409
asbag57
(g78
g59
NtRp1410
(dp1411
g62
(dp1412
g89
g90
ssg71
g1401
sg64
(lp1413
S':'
asbag57
(g78
g59
NtRp1414
(dp1415
g62
(dp1416
sg71
g1401
sg64
(lp1417
g57
(g58
g59
NtRp1418
(dp1419
g62
(dp1420
g70
I4
ssg71
g1414
sg64
(lp1421
g721
asbasbasbag57
(g73
g59
NtRp1422
(dp1423
g62
(dp1424
sg71
g674
sg64
(lp1425
g57
(g78
g59
NtRp1426
(dp1427
g62
(dp1428
g82
g83
ssg71
g1422
sg64
(lp1429
S'web2py_version'
p1430
asbag57
(g78
g59
NtRp1431
(dp1432
g62
(dp1433
g89
g90
ssg71
g1422
sg64
(lp1434
S':'
asbag57
(g78
g59
NtRp1435
(dp1436
g62
(dp1437
sg71
g1422
sg64
(lp1438
g57
(g58
g59
NtRp1439
(dp1440
g62
(dp1441
g70
I4
ssg71
g1435
sg64
(lp1442
g57
(g66
g59
NtRp1443
(dp1444
g62
(dp1445
g70
I3
ssg71
Nsg64
(lp1446
g57
(g73
g59
NtRp1447
(dp1448
g62
(dp1449
sg71
g1443
sg64
(lp1450
g57
(g78
g59
NtRp1451
(dp1452
g62
(dp1453
sg71
g1447
sg64
(lp1454
g57
(g58
g59
NtRp1455
(dp1456
g62
(dp1457
g70
I3
ssg71
g1451
sg64
(lp1458
S'2'
asbasbasbag57
(g73
g59
NtRp1459
(dp1460
g62
(dp1461
sg71
g1443
sg64
(lp1462
g57
(g78
g59
NtRp1463
(dp1464
g62
(dp1465
sg71
g1459
sg64
(lp1466
g57
(g58
g59
NtRp1467
(dp1468
g62
(dp1469
g70
I3
ssg71
g1463
sg64
(lp1470
S'2'
asbasbasbag57
(g73
g59
NtRp1471
(dp1472
g62
(dp1473
sg71
g1443
sg64
(lp1474
g57
(g78
g59
NtRp1475
(dp1476
g62
(dp1477
sg71
g1471
sg64
(lp1478
g57
(g58
g59
NtRp1479
(dp1480
g62
(dp1481
g70
I3
ssg71
g1475
sg64
(lp1482
S'1'
asbasbasbag57
(g73
g59
NtRp1483
(dp1484
g62
(dp1485
sg71
g1443
sg64
(lp1486
g57
(g78
g59
NtRp1487
(dp1488
g62
(dp1489
sg71
g1483
sg64
(lp1490
g57
(g58
g59
NtRp1491
(dp1492
g62
(dp1493
g70
I3
ssg71
g1487
sg64
(lp1494
S'datetime.datetime(2012, 10, 21, 16, 57, 4)'
p1495
asbasbasbag57
(g73
g59
NtRp1496
(dp1497
g62
(dp1498
sg71
g1443
sg64
(lp1499
g57
(g78
g59
NtRp1500
(dp1501
g62
(dp1502
sg71
g1496
sg64
(lp1503
g57
(g58
g59
NtRp1504
(dp1505
g62
(dp1506
g70
I3
ssg71
g1500
sg64
(lp1507
S'stable'
p1508
asbasbasbasbasbasbasbag57
(g73
g59
NtRp1509
(dp1510
g62
(dp1511
sg71
g674
sg64
(lp1512
g57
(g78
g59
NtRp1513
(dp1514
g62
(dp1515
g82
g83
ssg71
g1509
sg64
(lp1516
S'wsgi_errors'
p1517
asbag57
(g78
g59
NtRp1518
(dp1519
g62
(dp1520
g89
g90
ssg71
g1509
sg64
(lp1521
S':'
asbag57
(g78
g59
NtRp1522
(dp1523
g62
(dp1524
sg71
g1509
sg64
(lp1525
g57
(g58
g59
NtRp1526
(dp1527
g62
(dp1528
g70
I4
ssg71
g1522
sg64
(lp1529
S"<open file '<stderr>', mode 'w' at 0x2b62e6c3a270>"
p1530
asbasbasbag57
(g73
g59
NtRp1531
(dp1532
g62
(dp1533
sg71
g674
sg64
(lp1534
g57
(g78
g59
NtRp1535
(dp1536
g62
(dp1537
g82
g83
ssg71
g1531
sg64
(lp1538
S'wsgi_file_wrapper'
p1539
asbag57
(g78
g59
NtRp1540
(dp1541
g62
(dp1542
g89
g90
ssg71
g1531
sg64
(lp1543
S':'
asbag57
(g78
g59
NtRp1544
(dp1545
g62
(dp1546
sg71
g1531
sg64
(lp1547
g57
(g58
g59
NtRp1548
(dp1549
g62
(dp1550
g70
I4
ssg71
g1544
sg64
(lp1551
S'<class wsgiref.util.FileWrapper at 0x16668a78>'
p1552
asbasbasbag57
(g73
g59
NtRp1553
(dp1554
g62
(dp1555
sg71
g674
sg64
(lp1556
g57
(g78
g59
NtRp1557
(dp1558
g62
(dp1559
g82
g83
ssg71
g1553
sg64
(lp1560
S'wsgi_input'
p1561
asbag57
(g78
g59
NtRp1562
(dp1563
g62
(dp1564
g89
g90
ssg71
g1553
sg64
(lp1565
S':'
asbag57
(g78
g59
NtRp1566
(dp1567
g62
(dp1568
sg71
g1553
sg64
(lp1569
g57
(g58
g59
NtRp1570
(dp1571
g62
(dp1572
g70
I4
ssg71
g1566
sg64
(lp1573
S'<socket._fileobject object at 0x16c97550>'
p1574
asbasbasbag57
(g73
g59
NtRp1575
(dp1576
g62
(dp1577
sg71
g674
sg64
(lp1578
g57
(g78
g59
NtRp1579
(dp1580
g62
(dp1581
g82
g83
ssg71
g1575
sg64
(lp1582
S'wsgi_multiprocess'
p1583
asbag57
(g78
g59
NtRp1584
(dp1585
g62
(dp1586
g89
g90
ssg71
g1575
sg64
(lp1587
S':'
asbag57
(g78
g59
NtRp1588
(dp1589
g62
(dp1590
sg71
g1575
sg64
(lp1591
g57
(g58
g59
NtRp1592
(dp1593
g62
(dp1594
g70
I4
ssg71
g1588
sg64
(lp1595
g100
asbasbasbag57
(g73
g59
NtRp1596
(dp1597
g62
(dp1598
sg71
g674
sg64
(lp1599
g57
(g78
g59
NtRp1600
(dp1601
g62
(dp1602
g82
g83
ssg71
g1596
sg64
(lp1603
S'wsgi_multithread'
p1604
asbag57
(g78
g59
NtRp1605
(dp1606
g62
(dp1607
g89
g90
ssg71
g1596
sg64
(lp1608
S':'
asbag57
(g78
g59
NtRp1609
(dp1610
g62
(dp1611
sg71
g1596
sg64
(lp1612
g57
(g58
g59
NtRp1613
(dp1614
g62
(dp1615
g70
I4
ssg71
g1609
sg64
(lp1616
S'True'
p1617
asbasbasbag57
(g73
g59
NtRp1618
(dp1619
g62
(dp1620
sg71
g674
sg64
(lp1621
g57
(g78
g59
NtRp1622
(dp1623
g62
(dp1624
g82
g83
ssg71
g1618
sg64
(lp1625
S'wsgi_run_once'
p1626
asbag57
(g78
g59
NtRp1627
(dp1628
g62
(dp1629
g89
g90
ssg71
g1618
sg64
(lp1630
S':'
asbag57
(g78
g59
NtRp1631
(dp1632
g62
(dp1633
sg71
g1618
sg64
(lp1634
g57
(g58
g59
NtRp1635
(dp1636
g62
(dp1637
g70
I4
ssg71
g1631
sg64
(lp1638
g100
asbasbasbag57
(g73
g59
NtRp1639
(dp1640
g62
(dp1641
sg71
g674
sg64
(lp1642
g57
(g78
g59
NtRp1643
(dp1644
g62
(dp1645
g82
g83
ssg71
g1639
sg64
(lp1646
S'wsgi_url_scheme'
p1647
asbag57
(g78
g59
NtRp1648
(dp1649
g62
(dp1650
g89
g90
ssg71
g1639
sg64
(lp1651
S':'
asbag57
(g78
g59
NtRp1652
(dp1653
g62
(dp1654
sg71
g1639
sg64
(lp1655
g57
(g58
g59
NtRp1656
(dp1657
g62
(dp1658
g70
I4
ssg71
g1652
sg64
(lp1659
S'http'
p1660
asbasbasbag57
(g73
g59
NtRp1661
(dp1662
g62
(dp1663
sg71
g674
sg64
(lp1664
g57
(g78
g59
NtRp1665
(dp1666
g62
(dp1667
g82
g83
ssg71
g1661
sg64
(lp1668
S'wsgi_version'
p1669
asbag57
(g78
g59
NtRp1670
(dp1671
g62
(dp1672
g89
g90
ssg71
g1661
sg64
(lp1673
S':'
asbag57
(g78
g59
NtRp1674
(dp1675
g62
(dp1676
sg71
g1661
sg64
(lp1677
g57
(g58
g59
NtRp1678
(dp1679
g62
(dp1680
g70
I4
ssg71
g1674
sg64
(lp1681
g57
(g66
g59
NtRp1682
(dp1683
g62
(dp1684
g70
I3
ssg71
Nsg64
(lp1685
g57
(g73
g59
NtRp1686
(dp1687
g62
(dp1688
sg71
g1682
sg64
(lp1689
g57
(g78
g59
NtRp1690
(dp1691
g62
(dp1692
sg71
g1686
sg64
(lp1693
g57
(g58
g59
NtRp1694
(dp1695
g62
(dp1696
g70
I3
ssg71
g1690
sg64
(lp1697
S'1'
asbasbasbag57
(g73
g59
NtRp1698
(dp1699
g62
(dp1700
sg71
g1682
sg64
(lp1701
g57
(g78
g59
NtRp1702
(dp1703
g62
(dp1704
sg71
g1698
sg64
(lp1705
g57
(g58
g59
NtRp1706
(dp1707
g62
(dp1708
g70
I3
ssg71
g1702
sg64
(lp1709
S'0'
asbasbasbasbasbasbasbasbasbasbasbag57
(g73
g59
NtRp1710
(dp1711
g62
(dp1712
sg71
g67
sg64
(lp1713
g57
(g78
g59
NtRp1714
(dp1715
g62
(dp1716
g82
g83
ssg71
g1710
sg64
(lp1717
S'extension'
p1718
asbag57
(g78
g59
NtRp1719
(dp1720
g62
(dp1721
g89
g90
ssg71
g1710
sg64
(lp1722
S':'
asbag57
(g78
g59
NtRp1723
(dp1724
g62
(dp1725
sg71
g1710
sg64
(lp1726
g57
(g58
g59
NtRp1727
(dp1728
g62
(dp1729
g70
I5
ssg71
g1723
sg64
(lp1730
S'html'
p1731
asbasbasbag57
(g73
g59
NtRp1732
(dp1733
g62
(dp1734
sg71
g67
sg64
(lp1735
g57
(g78
g59
NtRp1736
(dp1737
g62
(dp1738
g82
g83
ssg71
g1732
sg64
(lp1739
S'folder'
p1740
asbag57
(g78
g59
NtRp1741
(dp1742
g62
(dp1743
g89
g90
ssg71
g1732
sg64
(lp1744
S':'
asbag57
(g78
g59
NtRp1745
(dp1746
g62
(dp1747
sg71
g1732
sg64
(lp1748
g57
(g58
g59
NtRp1749
(dp1750
g62
(dp1751
g70
I5
ssg71
g1745
sg64
(lp1752
S'/home/xchen/web2py/applications/Betsy/'
p1753
asbasbasbag57
(g73
g59
NtRp1754
(dp1755
g62
(dp1756
sg71
g67
sg64
(lp1757
g57
(g78
g59
NtRp1758
(dp1759
g62
(dp1760
g82
g83
ssg71
g1754
sg64
(lp1761
S'function'
p1762
asbag57
(g78
g59
NtRp1763
(dp1764
g62
(dp1765
g89
g90
ssg71
g1754
sg64
(lp1766
S':'
asbag57
(g78
g59
NtRp1767
(dp1768
g62
(dp1769
sg71
g1754
sg64
(lp1770
g57
(g58
g59
NtRp1771
(dp1772
g62
(dp1773
g70
I5
ssg71
g1767
sg64
(lp1774
S'show_job'
p1775
asbasbasbag57
(g73
g59
NtRp1776
(dp1777
g62
(dp1778
sg71
g67
sg64
(lp1779
g57
(g78
g59
NtRp1780
(dp1781
g62
(dp1782
g82
g83
ssg71
g1776
sg64
(lp1783
S'get_vars'
p1784
asbag57
(g78
g59
NtRp1785
(dp1786
g62
(dp1787
g89
g90
ssg71
g1776
sg64
(lp1788
S':'
asbag57
(g78
g59
NtRp1789
(dp1790
g62
(dp1791
sg71
g1776
sg64
(lp1792
g57
(g58
g59
NtRp1793
(dp1794
g62
(dp1795
g70
I5
ssg71
g1789
sg64
(lp1796
g57
(g66
g59
NtRp1797
(dp1798
g62
(dp1799
g70
I4
ssg71
Nsg64
(lp1800
sbasbasbasbag57
(g73
g59
NtRp1801
(dp1802
g62
(dp1803
sg71
g67
sg64
(lp1804
g57
(g78
g59
NtRp1805
(dp1806
g62
(dp1807
g82
g83
ssg71
g1801
sg64
(lp1808
S'global_settings'
p1809
asbag57
(g78
g59
NtRp1810
(dp1811
g62
(dp1812
g89
g90
ssg71
g1801
sg64
(lp1813
S':'
asbag57
(g78
g59
NtRp1814
(dp1815
g62
(dp1816
sg71
g1801
sg64
(lp1817
g57
(g58
g59
NtRp1818
(dp1819
g62
(dp1820
g70
I5
ssg71
g1814
sg64
(lp1821
g57
(g66
g59
NtRp1822
(dp1823
g62
(dp1824
g70
I4
ssg71
Nsg64
(lp1825
g57
(g73
g59
NtRp1826
(dp1827
g62
(dp1828
sg71
g1822
sg64
(lp1829
g57
(g78
g59
NtRp1830
(dp1831
g62
(dp1832
g82
g83
ssg71
g1826
sg64
(lp1833
g686
asbag57
(g78
g59
NtRp1834
(dp1835
g62
(dp1836
g89
g90
ssg71
g1826
sg64
(lp1837
S':'
asbag57
(g78
g59
NtRp1838
(dp1839
g62
(dp1840
sg71
g1826
sg64
(lp1841
g57
(g58
g59
NtRp1842
(dp1843
g62
(dp1844
g70
I4
ssg71
g1838
sg64
(lp1845
S"set(['/home/xchen/web2py/applications/Betsy/', '/home/xchen/web2py/applications/admin/'])"
p1846
asbasbasbag57
(g73
g59
NtRp1847
(dp1848
g62
(dp1849
sg71
g1822
sg64
(lp1850
g57
(g78
g59
NtRp1851
(dp1852
g62
(dp1853
g82
g83
ssg71
g1847
sg64
(lp1854
g708
asbag57
(g78
g59
NtRp1855
(dp1856
g62
(dp1857
g89
g90
ssg71
g1847
sg64
(lp1858
S':'
asbag57
(g78
g59
NtRp1859
(dp1860
g62
(dp1861
sg71
g1847
sg64
(lp1862
g57
(g58
g59
NtRp1863
(dp1864
g62
(dp1865
g70
I4
ssg71
g1859
sg64
(lp1866
g721
asbasbasbag57
(g73
g59
NtRp1867
(dp1868
g62
(dp1869
sg71
g1822
sg64
(lp1870
g57
(g78
g59
NtRp1871
(dp1872
g62
(dp1873
g82
g83
ssg71
g1867
sg64
(lp1874
g730
asbag57
(g78
g59
NtRp1875
(dp1876
g62
(dp1877
g89
g90
ssg71
g1867
sg64
(lp1878
S':'
asbag57
(g78
g59
NtRp1879
(dp1880
g62
(dp1881
sg71
g1867
sg64
(lp1882
g57
(g58
g59
NtRp1883
(dp1884
g62
(dp1885
g70
I4
ssg71
g1879
sg64
(lp1886
g57
(g66
g59
NtRp1887
(dp1888
g62
(dp1889
g70
I3
ssg71
Nsg64
(lp1890
sbasbasbasbag57
(g73
g59
NtRp1891
(dp1892
g62
(dp1893
sg71
g1822
sg64
(lp1894
g57
(g78
g59
NtRp1895
(dp1896
g62
(dp1897
g82
g83
ssg71
g1891
sg64
(lp1898
g755
asbag57
(g78
g59
NtRp1899
(dp1900
g62
(dp1901
g89
g90
ssg71
g1891
sg64
(lp1902
S':'
asbag57
(g78
g59
NtRp1903
(dp1904
g62
(dp1905
sg71
g1891
sg64
(lp1906
g57
(g58
g59
NtRp1907
(dp1908
g62
(dp1909
g70
I4
ssg71
g1903
sg64
(lp1910
S"<Values at 0x1670ae18: {'verbose': False, 'ip': '127.0.0.1', 'with_scheduler': False, 'ips': [], 'shutdown_timeout': 5, 'taskbar': False, 'port': 8080, 'maxthreads': None, 'softcron': False, 'server_name': 'unicron.shis.uth.tmc.edu', 'bpython': False, 'nogui': False, 'pid_filename': 'httpserver.pid', 'extcron': False, 'runcron': False, 'run_system_tests': False, 'test': None, 'folder': '/home/xchen/web2py', 'config': '', 'minthreads': None, 'winservice': '', 'shell': None, 'run': '', 'log_filename': 'httpserver.log', 'debuglevel': 30, 'args': [''], 'socket_timeout': 5, 'ssl_ca_certificate': None, 'scheduler': None, 'profiler_filename': None, 'ssl_private_key': '', 'scheduler_groups': None, 'password': 'baby2008', 'request_queue_size': 5, 'ssl_certificate': '', 'cronjob': False, 'numthreads': None, 'quiet': False, 'interfaces': None, 'import_models': False, 'timeout': 10, 'plain': False, 'nobanner': False}>"
p1911
asbasbasbag57
(g73
g59
NtRp1912
(dp1913
g62
(dp1914
sg71
g1822
sg64
(lp1915
g57
(g78
g59
NtRp1916
(dp1917
g62
(dp1918
g82
g83
ssg71
g1912
sg64
(lp1919
g777
asbag57
(g78
g59
NtRp1920
(dp1921
g62
(dp1922
g89
g90
ssg71
g1912
sg64
(lp1923
S':'
asbag57
(g78
g59
NtRp1924
(dp1925
g62
(dp1926
sg71
g1912
sg64
(lp1927
g57
(g58
g59
NtRp1928
(dp1929
g62
(dp1930
g70
I4
ssg71
g1924
sg64
(lp1931
S'set([])'
p1932
asbasbasbag57
(g73
g59
NtRp1933
(dp1934
g62
(dp1935
sg71
g1822
sg64
(lp1936
g57
(g78
g59
NtRp1937
(dp1938
g62
(dp1939
g82
g83
ssg71
g1933
sg64
(lp1940
g799
asbag57
(g78
g59
NtRp1941
(dp1942
g62
(dp1943
g89
g90
ssg71
g1933
sg64
(lp1944
S':'
asbag57
(g78
g59
NtRp1945
(dp1946
g62
(dp1947
sg71
g1933
sg64
(lp1948
g57
(g58
g59
NtRp1949
(dp1950
g62
(dp1951
g70
I4
ssg71
g1945
sg64
(lp1952
g100
asbasbasbag57
(g73
g59
NtRp1953
(dp1954
g62
(dp1955
sg71
g1822
sg64
(lp1956
g57
(g78
g59
NtRp1957
(dp1958
g62
(dp1959
g82
g83
ssg71
g1953
sg64
(lp1960
g820
asbag57
(g78
g59
NtRp1961
(dp1962
g62
(dp1963
g89
g90
ssg71
g1953
sg64
(lp1964
S':'
asbag57
(g78
g59
NtRp1965
(dp1966
g62
(dp1967
sg71
g1953
sg64
(lp1968
g57
(g58
g59
NtRp1969
(dp1970
g62
(dp1971
g70
I4
ssg71
g1965
sg64
(lp1972
g833
asbasbasbag57
(g73
g59
NtRp1973
(dp1974
g62
(dp1975
sg71
g1822
sg64
(lp1976
g57
(g78
g59
NtRp1977
(dp1978
g62
(dp1979
g82
g83
ssg71
g1973
sg64
(lp1980
g1040
asbag57
(g78
g59
NtRp1981
(dp1982
g62
(dp1983
g89
g90
ssg71
g1973
sg64
(lp1984
S':'
asbag57
(g78
g59
NtRp1985
(dp1986
g62
(dp1987
sg71
g1973
sg64
(lp1988
g57
(g58
g59
NtRp1989
(dp1990
g62
(dp1991
g70
I4
ssg71
g1985
sg64
(lp1992
g100
asbasbasbag57
(g73
g59
NtRp1993
(dp1994
g62
(dp1995
sg71
g1822
sg64
(lp1996
g57
(g78
g59
NtRp1997
(dp1998
g62
(dp1999
g82
g83
ssg71
g1993
sg64
(lp2000
g1061
asbag57
(g78
g59
NtRp2001
(dp2002
g62
(dp2003
g89
g90
ssg71
g1993
sg64
(lp2004
S':'
asbag57
(g78
g59
NtRp2005
(dp2006
g62
(dp2007
sg71
g1993
sg64
(lp2008
g57
(g58
g59
NtRp2009
(dp2010
g62
(dp2011
g70
I4
ssg71
g2005
sg64
(lp2012
g100
asbasbasbag57
(g73
g59
NtRp2013
(dp2014
g62
(dp2015
sg71
g1822
sg64
(lp2016
g57
(g78
g59
NtRp2017
(dp2018
g62
(dp2019
g82
g83
ssg71
g2013
sg64
(lp2020
g1082
asbag57
(g78
g59
NtRp2021
(dp2022
g62
(dp2023
g89
g90
ssg71
g2013
sg64
(lp2024
S':'
asbag57
(g78
g59
NtRp2025
(dp2026
g62
(dp2027
sg71
g2013
sg64
(lp2028
g57
(g58
g59
NtRp2029
(dp2030
g62
(dp2031
g70
I4
ssg71
g2025
sg64
(lp2032
g57
(g66
g59
NtRp2033
(dp2034
g62
(dp2035
g70
I3
ssg71
Nsg64
(lp2036
g57
(g73
g59
NtRp2037
(dp2038
g62
(dp2039
sg71
g2033
sg64
(lp2040
g57
(g78
g59
NtRp2041
(dp2042
g62
(dp2043
sg71
g2037
sg64
(lp2044
g57
(g58
g59
NtRp2045
(dp2046
g62
(dp2047
g70
I3
ssg71
g2041
sg64
(lp2048
g1111
asbasbasbag57
(g73
g59
NtRp2049
(dp2050
g62
(dp2051
sg71
g2033
sg64
(lp2052
g57
(g78
g59
NtRp2053
(dp2054
g62
(dp2055
sg71
g2049
sg64
(lp2056
g57
(g58
g59
NtRp2057
(dp2058
g62
(dp2059
g70
I3
ssg71
g2053
sg64
(lp2060
g1124
asbasbasbag57
(g73
g59
NtRp2061
(dp2062
g62
(dp2063
sg71
g2033
sg64
(lp2064
g57
(g78
g59
NtRp2065
(dp2066
g62
(dp2067
sg71
g2061
sg64
(lp2068
g57
(g58
g59
NtRp2069
(dp2070
g62
(dp2071
g70
I3
ssg71
g2065
sg64
(lp2072
g1137
asbasbasbag57
(g73
g59
NtRp2073
(dp2074
g62
(dp2075
sg71
g2033
sg64
(lp2076
g57
(g78
g59
NtRp2077
(dp2078
g62
(dp2079
sg71
g2073
sg64
(lp2080
g57
(g58
g59
NtRp2081
(dp2082
g62
(dp2083
g70
I3
ssg71
g2077
sg64
(lp2084
g1150
asbasbasbag57
(g73
g59
NtRp2085
(dp2086
g62
(dp2087
sg71
g2033
sg64
(lp2088
g57
(g78
g59
NtRp2089
(dp2090
g62
(dp2091
sg71
g2085
sg64
(lp2092
g57
(g58
g59
NtRp2093
(dp2094
g62
(dp2095
g70
I3
ssg71
g2089
sg64
(lp2096
g1163
asbasbasbasbasbasbasbag57
(g73
g59
NtRp2097
(dp2098
g62
(dp2099
sg71
g1822
sg64
(lp2100
g57
(g78
g59
NtRp2101
(dp2102
g62
(dp2103
g82
g83
ssg71
g2097
sg64
(lp2104
g1430
asbag57
(g78
g59
NtRp2105
(dp2106
g62
(dp2107
g89
g90
ssg71
g2097
sg64
(lp2108
S':'
asbag57
(g78
g59
NtRp2109
(dp2110
g62
(dp2111
sg71
g2097
sg64
(lp2112
g57
(g58
g59
NtRp2113
(dp2114
g62
(dp2115
g70
I4
ssg71
g2109
sg64
(lp2116
g57
(g66
g59
NtRp2117
(dp2118
g62
(dp2119
g70
I3
ssg71
Nsg64
(lp2120
g57
(g73
g59
NtRp2121
(dp2122
g62
(dp2123
sg71
g2117
sg64
(lp2124
g57
(g78
g59
NtRp2125
(dp2126
g62
(dp2127
sg71
g2121
sg64
(lp2128
g57
(g58
g59
NtRp2129
(dp2130
g62
(dp2131
g70
I3
ssg71
g2125
sg64
(lp2132
S'2'
asbasbasbag57
(g73
g59
NtRp2133
(dp2134
g62
(dp2135
sg71
g2117
sg64
(lp2136
g57
(g78
g59
NtRp2137
(dp2138
g62
(dp2139
sg71
g2133
sg64
(lp2140
g57
(g58
g59
NtRp2141
(dp2142
g62
(dp2143
g70
I3
ssg71
g2137
sg64
(lp2144
S'2'
asbasbasbag57
(g73
g59
NtRp2145
(dp2146
g62
(dp2147
sg71
g2117
sg64
(lp2148
g57
(g78
g59
NtRp2149
(dp2150
g62
(dp2151
sg71
g2145
sg64
(lp2152
g57
(g58
g59
NtRp2153
(dp2154
g62
(dp2155
g70
I3
ssg71
g2149
sg64
(lp2156
S'1'
asbasbasbag57
(g73
g59
NtRp2157
(dp2158
g62
(dp2159
sg71
g2117
sg64
(lp2160
g57
(g78
g59
NtRp2161
(dp2162
g62
(dp2163
sg71
g2157
sg64
(lp2164
g57
(g58
g59
NtRp2165
(dp2166
g62
(dp2167
g70
I3
ssg71
g2161
sg64
(lp2168
S'datetime.datetime(2012, 10, 21, 16, 57, 4)'
p2169
asbasbasbag57
(g73
g59
NtRp2170
(dp2171
g62
(dp2172
sg71
g2117
sg64
(lp2173
g57
(g78
g59
NtRp2174
(dp2175
g62
(dp2176
sg71
g2170
sg64
(lp2177
g57
(g58
g59
NtRp2178
(dp2179
g62
(dp2180
g70
I3
ssg71
g2174
sg64
(lp2181
g1508
asbasbasbasbasbasbasbasbasbasbasbag57
(g73
g59
NtRp2182
(dp2183
g62
(dp2184
sg71
g67
sg64
(lp2185
g57
(g78
g59
NtRp2186
(dp2187
g62
(dp2188
g82
g83
ssg71
g2182
sg64
(lp2189
S'is_https'
p2190
asbag57
(g78
g59
NtRp2191
(dp2192
g62
(dp2193
g89
g90
ssg71
g2182
sg64
(lp2194
S':'
asbag57
(g78
g59
NtRp2195
(dp2196
g62
(dp2197
sg71
g2182
sg64
(lp2198
g57
(g58
g59
NtRp2199
(dp2200
g62
(dp2201
g70
I5
ssg71
g2195
sg64
(lp2202
g100
asbasbasbag57
(g73
g59
NtRp2203
(dp2204
g62
(dp2205
sg71
g67
sg64
(lp2206
g57
(g78
g59
NtRp2207
(dp2208
g62
(dp2209
g82
g83
ssg71
g2203
sg64
(lp2210
S'is_local'
p2211
asbag57
(g78
g59
NtRp2212
(dp2213
g62
(dp2214
g89
g90
ssg71
g2203
sg64
(lp2215
S':'
asbag57
(g78
g59
NtRp2216
(dp2217
g62
(dp2218
sg71
g2203
sg64
(lp2219
g57
(g58
g59
NtRp2220
(dp2221
g62
(dp2222
g70
I5
ssg71
g2216
sg64
(lp2223
g1617
asbasbasbag57
(g73
g59
NtRp2224
(dp2225
g62
(dp2226
sg71
g67
sg64
(lp2227
g57
(g78
g59
NtRp2228
(dp2229
g62
(dp2230
g82
g83
ssg71
g2224
sg64
(lp2231
S'is_restful'
p2232
asbag57
(g78
g59
NtRp2233
(dp2234
g62
(dp2235
g89
g90
ssg71
g2224
sg64
(lp2236
S':'
asbag57
(g78
g59
NtRp2237
(dp2238
g62
(dp2239
sg71
g2224
sg64
(lp2240
g57
(g58
g59
NtRp2241
(dp2242
g62
(dp2243
g70
I5
ssg71
g2237
sg64
(lp2244
g100
asbasbasbag57
(g73
g59
NtRp2245
(dp2246
g62
(dp2247
sg71
g67
sg64
(lp2248
g57
(g78
g59
NtRp2249
(dp2250
g62
(dp2251
g82
g83
ssg71
g2245
sg64
(lp2252
S'now'
p2253
asbag57
(g78
g59
NtRp2254
(dp2255
g62
(dp2256
g89
g90
ssg71
g2245
sg64
(lp2257
S':'
asbag57
(g78
g59
NtRp2258
(dp2259
g62
(dp2260
sg71
g2245
sg64
(lp2261
g57
(g58
g59
NtRp2262
(dp2263
g62
(dp2264
g70
I5
ssg71
g2258
sg64
(lp2265
S'datetime.datetime(2013, 2, 7, 11, 6, 15, 287377)'
p2266
asbasbasbag57
(g73
g59
NtRp2267
(dp2268
g62
(dp2269
sg71
g67
sg64
(lp2270
g57
(g78
g59
NtRp2271
(dp2272
g62
(dp2273
g82
g83
ssg71
g2267
sg64
(lp2274
S'post_vars'
p2275
asbag57
(g78
g59
NtRp2276
(dp2277
g62
(dp2278
g89
g90
ssg71
g2267
sg64
(lp2279
S':'
asbag57
(g78
g59
NtRp2280
(dp2281
g62
(dp2282
sg71
g2267
sg64
(lp2283
g57
(g58
g59
NtRp2284
(dp2285
g62
(dp2286
g70
I5
ssg71
g2280
sg64
(lp2287
g57
(g66
g59
NtRp2288
(dp2289
g62
(dp2290
g70
I4
ssg71
Nsg64
(lp2291
sbasbasbasbag57
(g73
g59
NtRp2292
(dp2293
g62
(dp2294
sg71
g67
sg64
(lp2295
g57
(g78
g59
NtRp2296
(dp2297
g62
(dp2298
g82
g83
ssg71
g2292
sg64
(lp2299
S'raw_args'
p2300
asbag57
(g78
g59
NtRp2301
(dp2302
g62
(dp2303
g89
g90
ssg71
g2292
sg64
(lp2304
S':'
asbag57
(g78
g59
NtRp2305
(dp2306
g62
(dp2307
sg71
g2292
sg64
(lp2308
g57
(g58
g59
NtRp2309
(dp2310
g62
(dp2311
g70
I5
ssg71
g2305
sg64
(lp2312
S'/131'
p2313
asbasbasbag57
(g73
g59
NtRp2314
(dp2315
g62
(dp2316
sg71
g67
sg64
(lp2317
g57
(g78
g59
NtRp2318
(dp2319
g62
(dp2320
g82
g83
ssg71
g2314
sg64
(lp2321
S'raw_extension'
p2322
asbag57
(g78
g59
NtRp2323
(dp2324
g62
(dp2325
g89
g90
ssg71
g2314
sg64
(lp2326
S':'
asbag57
(g78
g59
NtRp2327
(dp2328
g62
(dp2329
sg71
g2314
sg64
(lp2330
g57
(g58
g59
NtRp2331
(dp2332
g62
(dp2333
g70
I5
ssg71
g2327
sg64
(lp2334
S'None'
p2335
asbasbasbag57
(g73
g59
NtRp2336
(dp2337
g62
(dp2338
sg71
g67
sg64
(lp2339
g57
(g78
g59
NtRp2340
(dp2341
g62
(dp2342
g82
g83
ssg71
g2336
sg64
(lp2343
S'url'
p2344
asbag57
(g78
g59
NtRp2345
(dp2346
g62
(dp2347
g89
g90
ssg71
g2336
sg64
(lp2348
S':'
asbag57
(g78
g59
NtRp2349
(dp2350
g62
(dp2351
sg71
g2336
sg64
(lp2352
g57
(g58
g59
NtRp2353
(dp2354
g62
(dp2355
g70
I5
ssg71
g2349
sg64
(lp2356
g1185
asbasbasbag57
(g73
g59
NtRp2357
(dp2358
g62
(dp2359
sg71
g67
sg64
(lp2360
g57
(g78
g59
NtRp2361
(dp2362
g62
(dp2363
g82
g83
ssg71
g2357
sg64
(lp2364
S'utcnow'
p2365
asbag57
(g78
g59
NtRp2366
(dp2367
g62
(dp2368
g89
g90
ssg71
g2357
sg64
(lp2369
S':'
asbag57
(g78
g59
NtRp2370
(dp2371
g62
(dp2372
sg71
g2357
sg64
(lp2373
g57
(g58
g59
NtRp2374
(dp2375
g62
(dp2376
g70
I5
ssg71
g2370
sg64
(lp2377
S'datetime.datetime(2013, 2, 7, 17, 6, 15, 287384)'
p2378
asbasbasbag57
(g73
g59
NtRp2379
(dp2380
g62
(dp2381
sg71
g67
sg64
(lp2382
g57
(g78
g59
NtRp2383
(dp2384
g62
(dp2385
g82
g83
ssg71
g2379
sg64
(lp2386
S'uuid'
p2387
asbag57
(g78
g59
NtRp2388
(dp2389
g62
(dp2390
g89
g90
ssg71
g2379
sg64
(lp2391
S':'
asbag57
(g78
g59
NtRp2392
(dp2393
g62
(dp2394
sg71
g2379
sg64
(lp2395
g57
(g58
g59
NtRp2396
(dp2397
g62
(dp2398
g70
I5
ssg71
g2392
sg64
(lp2399
S'Betsy/127.0.0.1.2013-02-07.11-06-15.dd3f6884-4af1-490e-9946-250f2ed0b73a'
p2400
asbasbasbag57
(g73
g59
NtRp2401
(dp2402
g62
(dp2403
sg71
g67
sg64
(lp2404
g57
(g78
g59
NtRp2405
(dp2406
g62
(dp2407
g82
g83
ssg71
g2401
sg64
(lp2408
S'vars'
p2409
asbag57
(g78
g59
NtRp2410
(dp2411
g62
(dp2412
g89
g90
ssg71
g2401
sg64
(lp2413
S':'
asbag57
(g78
g59
NtRp2414
(dp2415
g62
(dp2416
sg71
g2401
sg64
(lp2417
g57
(g58
g59
NtRp2418
(dp2419
g62
(dp2420
g70
I5
ssg71
g2414
sg64
(lp2421
g57
(g66
g59
NtRp2422
(dp2423
g62
(dp2424
g70
I4
ssg71
Nsg64
(lp2425
sbasbasbasbag57
(g73
g59
NtRp2426
(dp2427
g62
(dp2428
sg71
g67
sg64
(lp2429
g57
(g78
g59
NtRp2430
(dp2431
g62
(dp2432
g82
g83
ssg71
g2426
sg64
(lp2433
S'wsgi'
p2434
asbag57
(g78
g59
NtRp2435
(dp2436
g62
(dp2437
g89
g90
ssg71
g2426
sg64
(lp2438
S':'
asbag57
(g78
g59
NtRp2439
(dp2440
g62
(dp2441
sg71
g2426
sg64
(lp2442
g57
(g58
g59
NtRp2443
(dp2444
g62
(dp2445
g70
I5
ssg71
g2439
sg64
(lp2446
g57
(g66
g59
NtRp2447
(dp2448
g62
(dp2449
g70
I4
ssg71
Nsg64
(lp2450
g57
(g73
g59
NtRp2451
(dp2452
g62
(dp2453
sg71
g2447
sg64
(lp2454
g57
(g78
g59
NtRp2455
(dp2456
g62
(dp2457
g82
g83
ssg71
g2451
sg64
(lp2458
S'environ'
p2459
asbag57
(g78
g59
NtRp2460
(dp2461
g62
(dp2462
g89
g90
ssg71
g2451
sg64
(lp2463
S':'
asbag57
(g78
g59
NtRp2464
(dp2465
g62
(dp2466
sg71
g2451
sg64
(lp2467
g57
(g58
g59
NtRp2468
(dp2469
g62
(dp2470
g70
I4
ssg71
g2464
sg64
(lp2471
g57
(g66
g59
NtRp2472
(dp2473
g62
(dp2474
g70
I3
ssg71
Nsg64
(lp2475
g57
(g73
g59
NtRp2476
(dp2477
g62
(dp2478
sg71
g2472
sg64
(lp2479
g57
(g78
g59
NtRp2480
(dp2481
g62
(dp2482
g82
g83
ssg71
g2476
sg64
(lp2483
S'HTTP_ACCEPT'
p2484
asbag57
(g78
g59
NtRp2485
(dp2486
g62
(dp2487
g89
g90
ssg71
g2476
sg64
(lp2488
S':'
asbag57
(g78
g59
NtRp2489
(dp2490
g62
(dp2491
sg71
g2476
sg64
(lp2492
g57
(g58
g59
NtRp2493
(dp2494
g62
(dp2495
g70
I3
ssg71
g2489
sg64
(lp2496
g855
asbasbasbag57
(g73
g59
NtRp2497
(dp2498
g62
(dp2499
sg71
g2472
sg64
(lp2500
g57
(g78
g59
NtRp2501
(dp2502
g62
(dp2503
g82
g83
ssg71
g2497
sg64
(lp2504
S'HTTP_ACCEPT_ENCODING'
p2505
asbag57
(g78
g59
NtRp2506
(dp2507
g62
(dp2508
g89
g90
ssg71
g2497
sg64
(lp2509
S':'
asbag57
(g78
g59
NtRp2510
(dp2511
g62
(dp2512
sg71
g2497
sg64
(lp2513
g57
(g58
g59
NtRp2514
(dp2515
g62
(dp2516
g70
I3
ssg71
g2510
sg64
(lp2517
g877
asbasbasbag57
(g73
g59
NtRp2518
(dp2519
g62
(dp2520
sg71
g2472
sg64
(lp2521
g57
(g78
g59
NtRp2522
(dp2523
g62
(dp2524
g82
g83
ssg71
g2518
sg64
(lp2525
S'HTTP_ACCEPT_LANGUAGE'
p2526
asbag57
(g78
g59
NtRp2527
(dp2528
g62
(dp2529
g89
g90
ssg71
g2518
sg64
(lp2530
S':'
asbag57
(g78
g59
NtRp2531
(dp2532
g62
(dp2533
sg71
g2518
sg64
(lp2534
g57
(g58
g59
NtRp2535
(dp2536
g62
(dp2537
g70
I3
ssg71
g2531
sg64
(lp2538
g899
asbasbasbag57
(g73
g59
NtRp2539
(dp2540
g62
(dp2541
sg71
g2472
sg64
(lp2542
g57
(g78
g59
NtRp2543
(dp2544
g62
(dp2545
g82
g83
ssg71
g2539
sg64
(lp2546
S'HTTP_CACHE_CONTROL'
p2547
asbag57
(g78
g59
NtRp2548
(dp2549
g62
(dp2550
g89
g90
ssg71
g2539
sg64
(lp2551
S':'
asbag57
(g78
g59
NtRp2552
(dp2553
g62
(dp2554
sg71
g2539
sg64
(lp2555
g57
(g58
g59
NtRp2556
(dp2557
g62
(dp2558
g70
I3
ssg71
g2552
sg64
(lp2559
g921
asbasbasbag57
(g73
g59
NtRp2560
(dp2561
g62
(dp2562
sg71
g2472
sg64
(lp2563
g57
(g78
g59
NtRp2564
(dp2565
g62
(dp2566
g82
g83
ssg71
g2560
sg64
(lp2567
S'HTTP_CONNECTION'
p2568
asbag57
(g78
g59
NtRp2569
(dp2570
g62
(dp2571
g89
g90
ssg71
g2560
sg64
(lp2572
S':'
asbag57
(g78
g59
NtRp2573
(dp2574
g62
(dp2575
sg71
g2560
sg64
(lp2576
g57
(g58
g59
NtRp2577
(dp2578
g62
(dp2579
g70
I3
ssg71
g2573
sg64
(lp2580
g943
asbasbasbag57
(g73
g59
NtRp2581
(dp2582
g62
(dp2583
sg71
g2472
sg64
(lp2584
g57
(g78
g59
NtRp2585
(dp2586
g62
(dp2587
g82
g83
ssg71
g2581
sg64
(lp2588
S'HTTP_COOKIE'
p2589
asbag57
(g78
g59
NtRp2590
(dp2591
g62
(dp2592
g89
g90
ssg71
g2581
sg64
(lp2593
S':'
asbag57
(g78
g59
NtRp2594
(dp2595
g62
(dp2596
sg71
g2581
sg64
(lp2597
g57
(g58
g59
NtRp2598
(dp2599
g62
(dp2600
g70
I3
ssg71
g2594
sg64
(lp2601
g965
asbasbasbag57
(g73
g59
NtRp2602
(dp2603
g62
(dp2604
sg71
g2472
sg64
(lp2605
g57
(g78
g59
NtRp2606
(dp2607
g62
(dp2608
g82
g83
ssg71
g2602
sg64
(lp2609
S'HTTP_HOST'
p2610
asbag57
(g78
g59
NtRp2611
(dp2612
g62
(dp2613
g89
g90
ssg71
g2602
sg64
(lp2614
S':'
asbag57
(g78
g59
NtRp2615
(dp2616
g62
(dp2617
sg71
g2602
sg64
(lp2618
g57
(g58
g59
NtRp2619
(dp2620
g62
(dp2621
g70
I3
ssg71
g2615
sg64
(lp2622
g987
asbasbasbag57
(g73
g59
NtRp2623
(dp2624
g62
(dp2625
sg71
g2472
sg64
(lp2626
g57
(g78
g59
NtRp2627
(dp2628
g62
(dp2629
g82
g83
ssg71
g2623
sg64
(lp2630
S'HTTP_REFERER'
p2631
asbag57
(g78
g59
NtRp2632
(dp2633
g62
(dp2634
g89
g90
ssg71
g2623
sg64
(lp2635
S':'
asbag57
(g78
g59
NtRp2636
(dp2637
g62
(dp2638
sg71
g2623
sg64
(lp2639
g57
(g58
g59
NtRp2640
(dp2641
g62
(dp2642
g70
I3
ssg71
g2636
sg64
(lp2643
g1009
asbasbasbag57
(g73
g59
NtRp2644
(dp2645
g62
(dp2646
sg71
g2472
sg64
(lp2647
g57
(g78
g59
NtRp2648
(dp2649
g62
(dp2650
g82
g83
ssg71
g2644
sg64
(lp2651
S'HTTP_USER_AGENT'
p2652
asbag57
(g78
g59
NtRp2653
(dp2654
g62
(dp2655
g89
g90
ssg71
g2644
sg64
(lp2656
S':'
asbag57
(g78
g59
NtRp2657
(dp2658
g62
(dp2659
sg71
g2644
sg64
(lp2660
g57
(g58
g59
NtRp2661
(dp2662
g62
(dp2663
g70
I3
ssg71
g2657
sg64
(lp2664
g1031
asbasbasbag57
(g73
g59
NtRp2665
(dp2666
g62
(dp2667
sg71
g2472
sg64
(lp2668
g57
(g78
g59
NtRp2669
(dp2670
g62
(dp2671
g82
g83
ssg71
g2665
sg64
(lp2672
S'PATH_INFO'
p2673
asbag57
(g78
g59
NtRp2674
(dp2675
g62
(dp2676
g89
g90
ssg71
g2665
sg64
(lp2677
S':'
asbag57
(g78
g59
NtRp2678
(dp2679
g62
(dp2680
sg71
g2665
sg64
(lp2681
g57
(g58
g59
NtRp2682
(dp2683
g62
(dp2684
g70
I3
ssg71
g2678
sg64
(lp2685
g1185
asbasbasbag57
(g73
g59
NtRp2686
(dp2687
g62
(dp2688
sg71
g2472
sg64
(lp2689
g57
(g78
g59
NtRp2690
(dp2691
g62
(dp2692
g82
g83
ssg71
g2686
sg64
(lp2693
S'QUERY_STRING'
p2694
asbag57
(g78
g59
NtRp2695
(dp2696
g62
(dp2697
g89
g90
ssg71
g2686
sg64
(lp2698
S':'
asbag57
(g78
g59
NtRp2699
(dp2700
g62
(dp2701
sg71
g2686
sg64
(lp2702
g57
(g58
g59
NtRp2703
(dp2704
g62
(dp2705
g70
I3
ssg71
g2699
sg64
(lp2706
S''
asbasbasbag57
(g73
g59
NtRp2707
(dp2708
g62
(dp2709
sg71
g2472
sg64
(lp2710
g57
(g78
g59
NtRp2711
(dp2712
g62
(dp2713
g82
g83
ssg71
g2707
sg64
(lp2714
S'REMOTE_ADDR'
p2715
asbag57
(g78
g59
NtRp2716
(dp2717
g62
(dp2718
g89
g90
ssg71
g2707
sg64
(lp2719
S':'
asbag57
(g78
g59
NtRp2720
(dp2721
g62
(dp2722
sg71
g2707
sg64
(lp2723
g57
(g58
g59
NtRp2724
(dp2725
g62
(dp2726
g70
I3
ssg71
g2720
sg64
(lp2727
g225
asbasbasbag57
(g73
g59
NtRp2728
(dp2729
g62
(dp2730
sg71
g2472
sg64
(lp2731
g57
(g78
g59
NtRp2732
(dp2733
g62
(dp2734
g82
g83
ssg71
g2728
sg64
(lp2735
S'REMOTE_PORT'
p2736
asbag57
(g78
g59
NtRp2737
(dp2738
g62
(dp2739
g89
g90
ssg71
g2728
sg64
(lp2740
S':'
asbag57
(g78
g59
NtRp2741
(dp2742
g62
(dp2743
sg71
g2728
sg64
(lp2744
g57
(g58
g59
NtRp2745
(dp2746
g62
(dp2747
g70
I3
ssg71
g2741
sg64
(lp2748
g1249
asbasbasbag57
(g73
g59
NtRp2749
(dp2750
g62
(dp2751
sg71
g2472
sg64
(lp2752
g57
(g78
g59
NtRp2753
(dp2754
g62
(dp2755
g82
g83
ssg71
g2749
sg64
(lp2756
S'REQUEST_METHOD'
p2757
asbag57
(g78
g59
NtRp2758
(dp2759
g62
(dp2760
g89
g90
ssg71
g2749
sg64
(lp2761
S':'
asbag57
(g78
g59
NtRp2762
(dp2763
g62
(dp2764
sg71
g2749
sg64
(lp2765
g57
(g58
g59
NtRp2766
(dp2767
g62
(dp2768
g70
I3
ssg71
g2762
sg64
(lp2769
g1271
asbasbasbag57
(g73
g59
NtRp2770
(dp2771
g62
(dp2772
sg71
g2472
sg64
(lp2773
g57
(g78
g59
NtRp2774
(dp2775
g62
(dp2776
g82
g83
ssg71
g2770
sg64
(lp2777
S'REQUEST_URI'
p2778
asbag57
(g78
g59
NtRp2779
(dp2780
g62
(dp2781
g89
g90
ssg71
g2770
sg64
(lp2782
S':'
asbag57
(g78
g59
NtRp2783
(dp2784
g62
(dp2785
sg71
g2770
sg64
(lp2786
g57
(g58
g59
NtRp2787
(dp2788
g62
(dp2789
g70
I3
ssg71
g2783
sg64
(lp2790
g1185
asbasbasbag57
(g73
g59
NtRp2791
(dp2792
g62
(dp2793
sg71
g2472
sg64
(lp2794
g57
(g78
g59
NtRp2795
(dp2796
g62
(dp2797
g82
g83
ssg71
g2791
sg64
(lp2798
S'SCRIPT_NAME'
p2799
asbag57
(g78
g59
NtRp2800
(dp2801
g62
(dp2802
g89
g90
ssg71
g2791
sg64
(lp2803
S':'
asbag57
(g78
g59
NtRp2804
(dp2805
g62
(dp2806
sg71
g2791
sg64
(lp2807
g57
(g58
g59
NtRp2808
(dp2809
g62
(dp2810
g70
I3
ssg71
g2804
sg64
(lp2811
S''
asbasbasbag57
(g73
g59
NtRp2812
(dp2813
g62
(dp2814
sg71
g2472
sg64
(lp2815
g57
(g78
g59
NtRp2816
(dp2817
g62
(dp2818
g82
g83
ssg71
g2812
sg64
(lp2819
S'SERVER_NAME'
p2820
asbag57
(g78
g59
NtRp2821
(dp2822
g62
(dp2823
g89
g90
ssg71
g2812
sg64
(lp2824
S':'
asbag57
(g78
g59
NtRp2825
(dp2826
g62
(dp2827
sg71
g2812
sg64
(lp2828
g57
(g58
g59
NtRp2829
(dp2830
g62
(dp2831
g70
I3
ssg71
g2825
sg64
(lp2832
g1150
asbasbasbag57
(g73
g59
NtRp2833
(dp2834
g62
(dp2835
sg71
g2472
sg64
(lp2836
g57
(g78
g59
NtRp2837
(dp2838
g62
(dp2839
g82
g83
ssg71
g2833
sg64
(lp2840
S'SERVER_PORT'
p2841
asbag57
(g78
g59
NtRp2842
(dp2843
g62
(dp2844
g89
g90
ssg71
g2833
sg64
(lp2845
S':'
asbag57
(g78
g59
NtRp2846
(dp2847
g62
(dp2848
sg71
g2833
sg64
(lp2849
g57
(g58
g59
NtRp2850
(dp2851
g62
(dp2852
g70
I3
ssg71
g2846
sg64
(lp2853
g1356
asbasbasbag57
(g73
g59
NtRp2854
(dp2855
g62
(dp2856
sg71
g2472
sg64
(lp2857
g57
(g78
g59
NtRp2858
(dp2859
g62
(dp2860
g82
g83
ssg71
g2854
sg64
(lp2861
S'SERVER_PROTOCOL'
p2862
asbag57
(g78
g59
NtRp2863
(dp2864
g62
(dp2865
g89
g90
ssg71
g2854
sg64
(lp2866
S':'
asbag57
(g78
g59
NtRp2867
(dp2868
g62
(dp2869
sg71
g2854
sg64
(lp2870
g57
(g58
g59
NtRp2871
(dp2872
g62
(dp2873
g70
I3
ssg71
g2867
sg64
(lp2874
g1378
asbasbasbag57
(g73
g59
NtRp2875
(dp2876
g62
(dp2877
sg71
g2472
sg64
(lp2878
g57
(g78
g59
NtRp2879
(dp2880
g62
(dp2881
g82
g83
ssg71
g2875
sg64
(lp2882
S'SERVER_SOFTWARE'
p2883
asbag57
(g78
g59
NtRp2884
(dp2885
g62
(dp2886
g89
g90
ssg71
g2875
sg64
(lp2887
S':'
asbag57
(g78
g59
NtRp2888
(dp2889
g62
(dp2890
sg71
g2875
sg64
(lp2891
g57
(g58
g59
NtRp2892
(dp2893
g62
(dp2894
g70
I3
ssg71
g2888
sg64
(lp2895
g1400
asbasbasbag57
(g73
g59
NtRp2896
(dp2897
g62
(dp2898
sg71
g2472
sg64
(lp2899
g57
(g78
g59
NtRp2900
(dp2901
g62
(dp2902
g82
g83
ssg71
g2896
sg64
(lp2903
S'wsgi.errors'
p2904
asbag57
(g78
g59
NtRp2905
(dp2906
g62
(dp2907
g89
g90
ssg71
g2896
sg64
(lp2908
S':'
asbag57
(g78
g59
NtRp2909
(dp2910
g62
(dp2911
sg71
g2896
sg64
(lp2912
g57
(g58
g59
NtRp2913
(dp2914
g62
(dp2915
g70
I3
ssg71
g2909
sg64
(lp2916
S"<open file '<stderr>', mode 'w' at 0x2b62e6c3a270>"
p2917
asbasbasbag57
(g73
g59
NtRp2918
(dp2919
g62
(dp2920
sg71
g2472
sg64
(lp2921
g57
(g78
g59
NtRp2922
(dp2923
g62
(dp2924
g82
g83
ssg71
g2918
sg64
(lp2925
S'wsgi.file_wrapper'
p2926
asbag57
(g78
g59
NtRp2927
(dp2928
g62
(dp2929
g89
g90
ssg71
g2918
sg64
(lp2930
S':'
asbag57
(g78
g59
NtRp2931
(dp2932
g62
(dp2933
sg71
g2918
sg64
(lp2934
g57
(g58
g59
NtRp2935
(dp2936
g62
(dp2937
g70
I3
ssg71
g2931
sg64
(lp2938
S'<class wsgiref.util.FileWrapper at 0x16668a78>'
p2939
asbasbasbag57
(g73
g59
NtRp2940
(dp2941
g62
(dp2942
sg71
g2472
sg64
(lp2943
g57
(g78
g59
NtRp2944
(dp2945
g62
(dp2946
g82
g83
ssg71
g2940
sg64
(lp2947
S'wsgi.input'
p2948
asbag57
(g78
g59
NtRp2949
(dp2950
g62
(dp2951
g89
g90
ssg71
g2940
sg64
(lp2952
S':'
asbag57
(g78
g59
NtRp2953
(dp2954
g62
(dp2955
sg71
g2940
sg64
(lp2956
g57
(g58
g59
NtRp2957
(dp2958
g62
(dp2959
g70
I3
ssg71
g2953
sg64
(lp2960
S'<cStringIO.StringO object at 0x17572e68>'
p2961
asbasbasbag57
(g73
g59
NtRp2962
(dp2963
g62
(dp2964
sg71
g2472
sg64
(lp2965
g57
(g78
g59
NtRp2966
(dp2967
g62
(dp2968
g82
g83
ssg71
g2962
sg64
(lp2969
S'wsgi.multiprocess'
p2970
asbag57
(g78
g59
NtRp2971
(dp2972
g62
(dp2973
g89
g90
ssg71
g2962
sg64
(lp2974
S':'
asbag57
(g78
g59
NtRp2975
(dp2976
g62
(dp2977
sg71
g2962
sg64
(lp2978
g57
(g58
g59
NtRp2979
(dp2980
g62
(dp2981
g70
I3
ssg71
g2975
sg64
(lp2982
g100
asbasbasbag57
(g73
g59
NtRp2983
(dp2984
g62
(dp2985
sg71
g2472
sg64
(lp2986
g57
(g78
g59
NtRp2987
(dp2988
g62
(dp2989
g82
g83
ssg71
g2983
sg64
(lp2990
S'wsgi.multithread'
p2991
asbag57
(g78
g59
NtRp2992
(dp2993
g62
(dp2994
g89
g90
ssg71
g2983
sg64
(lp2995
S':'
asbag57
(g78
g59
NtRp2996
(dp2997
g62
(dp2998
sg71
g2983
sg64
(lp2999
g57
(g58
g59
NtRp3000
(dp3001
g62
(dp3002
g70
I3
ssg71
g2996
sg64
(lp3003
g1617
asbasbasbag57
(g73
g59
NtRp3004
(dp3005
g62
(dp3006
sg71
g2472
sg64
(lp3007
g57
(g78
g59
NtRp3008
(dp3009
g62
(dp3010
g82
g83
ssg71
g3004
sg64
(lp3011
S'wsgi.run_once'
p3012
asbag57
(g78
g59
NtRp3013
(dp3014
g62
(dp3015
g89
g90
ssg71
g3004
sg64
(lp3016
S':'
asbag57
(g78
g59
NtRp3017
(dp3018
g62
(dp3019
sg71
g3004
sg64
(lp3020
g57
(g58
g59
NtRp3021
(dp3022
g62
(dp3023
g70
I3
ssg71
g3017
sg64
(lp3024
g100
asbasbasbag57
(g73
g59
NtRp3025
(dp3026
g62
(dp3027
sg71
g2472
sg64
(lp3028
g57
(g78
g59
NtRp3029
(dp3030
g62
(dp3031
g82
g83
ssg71
g3025
sg64
(lp3032
S'wsgi.url_scheme'
p3033
asbag57
(g78
g59
NtRp3034
(dp3035
g62
(dp3036
g89
g90
ssg71
g3025
sg64
(lp3037
S':'
asbag57
(g78
g59
NtRp3038
(dp3039
g62
(dp3040
sg71
g3025
sg64
(lp3041
g57
(g58
g59
NtRp3042
(dp3043
g62
(dp3044
g70
I3
ssg71
g3038
sg64
(lp3045
g1660
asbasbasbag57
(g73
g59
NtRp3046
(dp3047
g62
(dp3048
sg71
g2472
sg64
(lp3049
g57
(g78
g59
NtRp3050
(dp3051
g62
(dp3052
g82
g83
ssg71
g3046
sg64
(lp3053
S'wsgi.version'
p3054
asbag57
(g78
g59
NtRp3055
(dp3056
g62
(dp3057
g89
g90
ssg71
g3046
sg64
(lp3058
S':'
asbag57
(g78
g59
NtRp3059
(dp3060
g62
(dp3061
sg71
g3046
sg64
(lp3062
g57
(g58
g59
NtRp3063
(dp3064
g62
(dp3065
g70
I3
ssg71
g3059
sg64
(lp3066
S'1'
asbasbasbasbasbasbasbasbasbasbasbasbasbsS'frames'
p3067
(lp3068
(dp3069
S'file'
p3070
S'/home/xchen/web2py/gluon/restricted.py'
p3071
sS'dump'
p3072
(dp3073
S'environment'
p3074
S"{'A': <class 'gluon.html.A'>, 'Auth': <class 'gluon.tools.Auth'>, 'B': <class 'gluon.html.B'>, 'BEAUTIFY': <class 'gluon.html.BEAUTIFY'>, 'BODY': <class 'gluon.html.BODY'>, 'BR': <class 'gluon.html.BR'>, 'BUTTON': <class 'gluon.html.BUTTON'>, 'CAT': <class 'gluon.html.CAT'>, 'CENTER': <class 'gluon.html.CENTER'>, 'CLEANUP': <class 'gluon.validators.CLEANUP'>, ...}"
p3075
sS'ccode'
p3076
S'<code object <module> at 0x16c975b0, file "/home...tions/Betsy/views/default/show_job.html", line 1>'
p3077
ssS'lnum'
p3078
I212
sS'lines'
p3079
(dp3080
I207
S'    try:'
p3081
sI208
S'        if isinstance(code, types.CodeType):'
p3082
sI209
S'            ccode = code'
p3083
sI210
S'        else:'
p3084
sI211
S'            ccode = compile2(code, layer)'
p3085
sI212
S'        exec ccode in environment'
p3086
sI213
S'    except HTTP:'
p3087
sI214
S'        raise'
p3088
sI215
S'    except RestrictedError:'
p3089
sI216
S'        # do not encapsulate (obfuscate) the original RestrictedError'
p3090
ssS'call'
p3091
S'(code=\'response.write(\\\'<!DOCTYPE html>\\\\n<!-- paulirish...."></script>\\\\n</body>\\\\n</html>\\\\n\\\\n\\\', escape=False)\', environment={\'A\': <class \'gluon.html.A\'>, \'Auth\': <class \'gluon.tools.Auth\'>, \'B\': <class \'gluon.html.B\'>, \'BEAUTIFY\': <class \'gluon.html.BEAUTIFY\'>, \'BODY\': <class \'gluon.html.BODY\'>, \'BR\': <class \'gluon.html.BR\'>, \'BUTTON\': <class \'gluon.html.BUTTON\'>, \'CAT\': <class \'gluon.html.CAT\'>, \'CENTER\': <class \'gluon.html.CENTER\'>, \'CLEANUP\': <class \'gluon.validators.CLEANUP\'>, ...}, layer=\'/home/xchen/web2py/applications/Betsy/views/default/show_job.html\')'
p3092
sS'func'
p3093
S'restricted'
p3094
sa(dp3095
g3070
S'/home/xchen/web2py/applications/Betsy/views/default/show_job.html'
p3096
sg3072
(dp3097
sg3078
I91
sg3079
(dp3098
I96
S"response.write('\\n', escape=False)"
p3099
sI97
S"response.write('\\n            ', escape=False)"
p3100
sI98
S"response.write('\\n        </div>\\n\\n        ', escape=False)"
p3101
sI99
S'if right_sidebar_enabled:'
p3102
sI100
S'    response.write(\'\\n        <div class="span3">\\n            \', escape=False)'
p3103
sI101
S"    response.write('\\n            <h3>Right Sidebar</h3>\\n            <p></p>\\n            ', escape=False)"
p3104
sI82
S"response.write('</h2>\\n', escape=False)"
p3105
sI83
S'for i in range(len(text)):'
p3106
sI84
S"    response.write('\\n\\t', escape=False)"
p3107
sI85
S'    if text[i] == newtext[i]:'
p3108
sI86
S"        response.write('\\n\\t\\t', escape=False)"
p3109
sI87
S'        response.write(text[i])'
p3110
sI88
S"        response.write('<br />\\n\\t', escape=False)"
p3111
sI89
S'    else:'
p3112
sI90
S"        response.write('\\n', escape=False)"
p3113
sI91
S"        response.write(A(text[i],_href=url('file://'+newtext[i])))"
p3114
sI92
S"        response.write('<br />\\n    ', escape=False)"
p3115
sI93
S'        pass'
p3116
sI94
S"    response.write('\\n', escape=False)"
p3117
sI95
S'    pass'
p3118
ssg3091
S'()'
p3119
sg3093
S'<module>'
p3120
sasS'pyver'
p3121
S'Python 2.7.3: /usr/local/bin/python'
p3122
sS'session'
p3123
g57
(g58
g59
NtRp3124
(dp3125
g62
(dp3126
sg64
(lp3127
g57
(g66
g59
NtRp3128
(dp3129
g62
(dp3130
g70
I5
ssg71
Nsg64
(lp3131
g57
(g73
g59
NtRp3132
(dp3133
g62
(dp3134
sg71
g3128
sg64
(lp3135
g57
(g78
g59
NtRp3136
(dp3137
g62
(dp3138
g82
g83
ssg71
g3132
sg64
(lp3139
S'auth'
p3140
asbag57
(g78
g59
NtRp3141
(dp3142
g62
(dp3143
g89
g90
ssg71
g3132
sg64
(lp3144
S':'
asbag57
(g78
g59
NtRp3145
(dp3146
g62
(dp3147
sg71
g3132
sg64
(lp3148
g57
(g58
g59
NtRp3149
(dp3150
g62
(dp3151
g70
I5
ssg71
g3145
sg64
(lp3152
g57
(g66
g59
NtRp3153
(dp3154
g62
(dp3155
g70
I4
ssg71
Nsg64
(lp3156
g57
(g73
g59
NtRp3157
(dp3158
g62
(dp3159
sg71
g3153
sg64
(lp3160
g57
(g78
g59
NtRp3161
(dp3162
g62
(dp3163
g82
g83
ssg71
g3157
sg64
(lp3164
S'expiration'
p3165
asbag57
(g78
g59
NtRp3166
(dp3167
g62
(dp3168
g89
g90
ssg71
g3157
sg64
(lp3169
S':'
asbag57
(g78
g59
NtRp3170
(dp3171
g62
(dp3172
sg71
g3157
sg64
(lp3173
g57
(g58
g59
NtRp3174
(dp3175
g62
(dp3176
g70
I4
ssg71
g3170
sg64
(lp3177
S'2592000'
p3178
asbasbasbag57
(g73
g59
NtRp3179
(dp3180
g62
(dp3181
sg71
g3153
sg64
(lp3182
g57
(g78
g59
NtRp3183
(dp3184
g62
(dp3185
g82
g83
ssg71
g3179
sg64
(lp3186
S'hmac_key'
p3187
asbag57
(g78
g59
NtRp3188
(dp3189
g62
(dp3190
g89
g90
ssg71
g3179
sg64
(lp3191
S':'
asbag57
(g78
g59
NtRp3192
(dp3193
g62
(dp3194
sg71
g3179
sg64
(lp3195
g57
(g58
g59
NtRp3196
(dp3197
g62
(dp3198
g70
I4
ssg71
g3192
sg64
(lp3199
S'739afc94-a36b-429c-8715-edcd03ea4351'
p3200
asbasbasbag57
(g73
g59
NtRp3201
(dp3202
g62
(dp3203
sg71
g3153
sg64
(lp3204
g57
(g78
g59
NtRp3205
(dp3206
g62
(dp3207
g82
g83
ssg71
g3201
sg64
(lp3208
S'last_visit'
p3209
asbag57
(g78
g59
NtRp3210
(dp3211
g62
(dp3212
g89
g90
ssg71
g3201
sg64
(lp3213
S':'
asbag57
(g78
g59
NtRp3214
(dp3215
g62
(dp3216
sg71
g3201
sg64
(lp3217
g57
(g58
g59
NtRp3218
(dp3219
g62
(dp3220
g70
I4
ssg71
g3214
sg64
(lp3221
S'datetime.datetime(2013, 2, 4, 10, 24, 37, 237452)'
p3222
asbasbasbag57
(g73
g59
NtRp3223
(dp3224
g62
(dp3225
sg71
g3153
sg64
(lp3226
g57
(g78
g59
NtRp3227
(dp3228
g62
(dp3229
g82
g83
ssg71
g3223
sg64
(lp3230
S'remember'
p3231
asbag57
(g78
g59
NtRp3232
(dp3233
g62
(dp3234
g89
g90
ssg71
g3223
sg64
(lp3235
S':'
asbag57
(g78
g59
NtRp3236
(dp3237
g62
(dp3238
sg71
g3223
sg64
(lp3239
g57
(g58
g59
NtRp3240
(dp3241
g62
(dp3242
g70
I4
ssg71
g3236
sg64
(lp3243
g1617
asbasbasbag57
(g73
g59
NtRp3244
(dp3245
g62
(dp3246
sg71
g3153
sg64
(lp3247
g57
(g78
g59
NtRp3248
(dp3249
g62
(dp3250
g82
g83
ssg71
g3244
sg64
(lp3251
S'user'
p3252
asbag57
(g78
g59
NtRp3253
(dp3254
g62
(dp3255
g89
g90
ssg71
g3244
sg64
(lp3256
S':'
asbag57
(g78
g59
NtRp3257
(dp3258
g62
(dp3259
sg71
g3244
sg64
(lp3260
g57
(g58
g59
NtRp3261
(dp3262
g62
(dp3263
g70
I4
ssg71
g3257
sg64
(lp3264
g57
(g66
g59
NtRp3265
(dp3266
g62
(dp3267
g70
I3
ssg71
Nsg64
(lp3268
g57
(g73
g59
NtRp3269
(dp3270
g62
(dp3271
sg71
g3265
sg64
(lp3272
g57
(g78
g59
NtRp3273
(dp3274
g62
(dp3275
g82
g83
ssg71
g3269
sg64
(lp3276
S'email'
p3277
asbag57
(g78
g59
NtRp3278
(dp3279
g62
(dp3280
g89
g90
ssg71
g3269
sg64
(lp3281
S':'
asbag57
(g78
g59
NtRp3282
(dp3283
g62
(dp3284
sg71
g3269
sg64
(lp3285
g57
(g58
g59
NtRp3286
(dp3287
g62
(dp3288
g70
I3
ssg71
g3282
sg64
(lp3289
S'xiaoling.chen@uth.tmc.edu'
p3290
asbasbasbag57
(g73
g59
NtRp3291
(dp3292
g62
(dp3293
sg71
g3265
sg64
(lp3294
g57
(g78
g59
NtRp3295
(dp3296
g62
(dp3297
g82
g83
ssg71
g3291
sg64
(lp3298
S'first_name'
p3299
asbag57
(g78
g59
NtRp3300
(dp3301
g62
(dp3302
g89
g90
ssg71
g3291
sg64
(lp3303
S':'
asbag57
(g78
g59
NtRp3304
(dp3305
g62
(dp3306
sg71
g3291
sg64
(lp3307
g57
(g58
g59
NtRp3308
(dp3309
g62
(dp3310
g70
I3
ssg71
g3304
sg64
(lp3311
S'Xiaoling'
p3312
asbasbasbag57
(g73
g59
NtRp3313
(dp3314
g62
(dp3315
sg71
g3265
sg64
(lp3316
g57
(g78
g59
NtRp3317
(dp3318
g62
(dp3319
g82
g83
ssg71
g3313
sg64
(lp3320
S'id'
p3321
asbag57
(g78
g59
NtRp3322
(dp3323
g62
(dp3324
g89
g90
ssg71
g3313
sg64
(lp3325
S':'
asbag57
(g78
g59
NtRp3326
(dp3327
g62
(dp3328
sg71
g3313
sg64
(lp3329
g57
(g58
g59
NtRp3330
(dp3331
g62
(dp3332
g70
I3
ssg71
g3326
sg64
(lp3333
S'1'
asbasbasbag57
(g73
g59
NtRp3334
(dp3335
g62
(dp3336
sg71
g3265
sg64
(lp3337
g57
(g78
g59
NtRp3338
(dp3339
g62
(dp3340
g82
g83
ssg71
g3334
sg64
(lp3341
S'last_name'
p3342
asbag57
(g78
g59
NtRp3343
(dp3344
g62
(dp3345
g89
g90
ssg71
g3334
sg64
(lp3346
S':'
asbag57
(g78
g59
NtRp3347
(dp3348
g62
(dp3349
sg71
g3334
sg64
(lp3350
g57
(g58
g59
NtRp3351
(dp3352
g62
(dp3353
g70
I3
ssg71
g3347
sg64
(lp3354
S'Chen'
p3355
asbasbasbag57
(g73
g59
NtRp3356
(dp3357
g62
(dp3358
sg71
g3265
sg64
(lp3359
g57
(g78
g59
NtRp3360
(dp3361
g62
(dp3362
g82
g83
ssg71
g3356
sg64
(lp3363
S'registration_id'
p3364
asbag57
(g78
g59
NtRp3365
(dp3366
g62
(dp3367
g89
g90
ssg71
g3356
sg64
(lp3368
S':'
asbag57
(g78
g59
NtRp3369
(dp3370
g62
(dp3371
sg71
g3356
sg64
(lp3372
g57
(g58
g59
NtRp3373
(dp3374
g62
(dp3375
g70
I3
ssg71
g3369
sg64
(lp3376
S''
asbasbasbag57
(g73
g59
NtRp3377
(dp3378
g62
(dp3379
sg71
g3265
sg64
(lp3380
g57
(g78
g59
NtRp3381
(dp3382
g62
(dp3383
g82
g83
ssg71
g3377
sg64
(lp3384
S'registration_key'
p3385
asbag57
(g78
g59
NtRp3386
(dp3387
g62
(dp3388
g89
g90
ssg71
g3377
sg64
(lp3389
S':'
asbag57
(g78
g59
NtRp3390
(dp3391
g62
(dp3392
sg71
g3377
sg64
(lp3393
g57
(g58
g59
NtRp3394
(dp3395
g62
(dp3396
g70
I3
ssg71
g3390
sg64
(lp3397
S''
asbasbasbag57
(g73
g59
NtRp3398
(dp3399
g62
(dp3400
sg71
g3265
sg64
(lp3401
g57
(g78
g59
NtRp3402
(dp3403
g62
(dp3404
g82
g83
ssg71
g3398
sg64
(lp3405
S'reset_password_key'
p3406
asbag57
(g78
g59
NtRp3407
(dp3408
g62
(dp3409
g89
g90
ssg71
g3398
sg64
(lp3410
S':'
asbag57
(g78
g59
NtRp3411
(dp3412
g62
(dp3413
sg71
g3398
sg64
(lp3414
g57
(g58
g59
NtRp3415
(dp3416
g62
(dp3417
g70
I3
ssg71
g3411
sg64
(lp3418
S''
asbasbasbasbasbasbasbag57
(g73
g59
NtRp3419
(dp3420
g62
(dp3421
sg71
g3153
sg64
(lp3422
g57
(g78
g59
NtRp3423
(dp3424
g62
(dp3425
g82
g83
ssg71
g3419
sg64
(lp3426
S'user_groups'
p3427
asbag57
(g78
g59
NtRp3428
(dp3429
g62
(dp3430
g89
g90
ssg71
g3419
sg64
(lp3431
S':'
asbag57
(g78
g59
NtRp3432
(dp3433
g62
(dp3434
sg71
g3419
sg64
(lp3435
g57
(g58
g59
NtRp3436
(dp3437
g62
(dp3438
g70
I4
ssg71
g3432
sg64
(lp3439
g57
(g66
g59
NtRp3440
(dp3441
g62
(dp3442
g70
I3
ssg71
Nsg64
(lp3443
g57
(g73
g59
NtRp3444
(dp3445
g62
(dp3446
sg71
g3440
sg64
(lp3447
g57
(g78
g59
NtRp3448
(dp3449
g62
(dp3450
g82
g83
ssg71
g3444
sg64
(lp3451
S'1'
asbag57
(g78
g59
NtRp3452
(dp3453
g62
(dp3454
g89
g90
ssg71
g3444
sg64
(lp3455
S':'
asbag57
(g78
g59
NtRp3456
(dp3457
g62
(dp3458
sg71
g3444
sg64
(lp3459
g57
(g58
g59
NtRp3460
(dp3461
g62
(dp3462
g70
I3
ssg71
g3456
sg64
(lp3463
S'user_1'
p3464
asbasbasbasbasbasbasbasbasbasbasbag57
(g73
g59
NtRp3465
(dp3466
g62
(dp3467
sg71
g3128
sg64
(lp3468
g57
(g78
g59
NtRp3469
(dp3470
g62
(dp3471
g82
g83
ssg71
g3465
sg64
(lp3472
S'cmd'
p3473
asbag57
(g78
g59
NtRp3474
(dp3475
g62
(dp3476
g89
g90
ssg71
g3465
sg64
(lp3477
S':'
asbag57
(g78
g59
NtRp3478
(dp3479
g62
(dp3480
sg71
g3465
sg64
(lp3481
g57
(g58
g59
NtRp3482
(dp3483
g62
(dp3484
g70
I5
ssg71
g3478
sg64
(lp3485
g57
(g66
g59
NtRp3486
(dp3487
g62
(dp3488
g70
I4
ssg71
Nsg64
(lp3489
g57
(g73
g59
NtRp3490
(dp3491
g62
(dp3492
sg71
g3486
sg64
(lp3493
g57
(g78
g59
NtRp3494
(dp3495
g62
(dp3496
sg71
g3490
sg64
(lp3497
g57
(g58
g59
NtRp3498
(dp3499
g62
(dp3500
g70
I4
ssg71
g3494
sg64
(lp3501
S'python'
p3502
asbasbasbag57
(g73
g59
NtRp3503
(dp3504
g62
(dp3505
sg71
g3486
sg64
(lp3506
g57
(g78
g59
NtRp3507
(dp3508
g62
(dp3509
sg71
g3503
sg64
(lp3510
g57
(g58
g59
NtRp3511
(dp3512
g62
(dp3513
g70
I4
ssg71
g3507
sg64
(lp3514
S'/home/xchen/chencode/tmp/try_parallel/queue.py'
p3515
asbasbasbag57
(g73
g59
NtRp3516
(dp3517
g62
(dp3518
sg71
g3486
sg64
(lp3519
g57
(g78
g59
NtRp3520
(dp3521
g62
(dp3522
sg71
g3516
sg64
(lp3523
g57
(g58
g59
NtRp3524
(dp3525
g62
(dp3526
g70
I4
ssg71
g3520
sg64
(lp3527
S'python /home/xchen/chencode/Betsy/scripts/run_protocol.py --protocol normalize_file --input input_signal_file:/home/xchen/chencode/upload/no_table.myfile1.aa20f767627e694e.4368616e675f415230303431302e70636c.pcl --parameters has_missing_value:zero_fill --parameters preprocess:unknown_preprocess'
p3528
asbasbasbasbasbasbasbag57
(g73
g59
NtRp3529
(dp3530
g62
(dp3531
sg71
g3128
sg64
(lp3532
g57
(g78
g59
NtRp3533
(dp3534
g62
(dp3535
g82
g83
ssg71
g3529
sg64
(lp3536
S'command'
p3537
asbag57
(g78
g59
NtRp3538
(dp3539
g62
(dp3540
g89
g90
ssg71
g3529
sg64
(lp3541
S':'
asbag57
(g78
g59
NtRp3542
(dp3543
g62
(dp3544
sg71
g3529
sg64
(lp3545
g57
(g58
g59
NtRp3546
(dp3547
g62
(dp3548
g70
I5
ssg71
g3542
sg64
(lp3549
S'run_protocol.py  --protocol normalize_file --input input_signal_file:myfile1   --parameters has_missing_value:zero_fill --parameters preprocess:unknown_preprocess'
p3550
asbasbasbag57
(g73
g59
NtRp3551
(dp3552
g62
(dp3553
sg71
g3128
sg64
(lp3554
g57
(g78
g59
NtRp3555
(dp3556
g62
(dp3557
g82
g83
ssg71
g3551
sg64
(lp3558
S'flash'
p3559
asbag57
(g78
g59
NtRp3560
(dp3561
g62
(dp3562
g89
g90
ssg71
g3551
sg64
(lp3563
S':'
asbag57
(g78
g59
NtRp3564
(dp3565
g62
(dp3566
sg71
g3551
sg64
(lp3567
g57
(g58
g59
NtRp3568
(dp3569
g62
(dp3570
g70
I5
ssg71
g3564
sg64
(lp3571
S'None'
p3572
asbasbasbag57
(g73
g59
NtRp3573
(dp3574
g62
(dp3575
sg71
g3128
sg64
(lp3576
g57
(g78
g59
NtRp3577
(dp3578
g62
(dp3579
g82
g83
ssg71
g3573
sg64
(lp3580
S'last_orderby'
p3581
asbag57
(g78
g59
NtRp3582
(dp3583
g62
(dp3584
g89
g90
ssg71
g3573
sg64
(lp3585
S':'
asbag57
(g78
g59
NtRp3586
(dp3587
g62
(dp3588
sg71
g3573
sg64
(lp3589
g57
(g58
g59
NtRp3590
(dp3591
g62
(dp3592
g70
I5
ssg71
g3586
sg64
(lp3593
S'None'
p3594
asbasbasbag57
(g73
g59
NtRp3595
(dp3596
g62
(dp3597
sg71
g3128
sg64
(lp3598
g57
(g78
g59
NtRp3599
(dp3600
g62
(dp3601
g82
g83
ssg71
g3595
sg64
(lp3602
S'last_query'
p3603
asbag57
(g78
g59
NtRp3604
(dp3605
g62
(dp3606
g89
g90
ssg71
g3595
sg64
(lp3607
S':'
asbag57
(g78
g59
NtRp3608
(dp3609
g62
(dp3610
sg71
g3595
sg64
(lp3611
g57
(g58
g59
NtRp3612
(dp3613
g62
(dp3614
g70
I5
ssg71
g3608
sg64
(lp3615
S'db.status.id>0'
p3616
asbasbasbag57
(g73
g59
NtRp3617
(dp3618
g62
(dp3619
sg71
g3128
sg64
(lp3620
g57
(g78
g59
NtRp3621
(dp3622
g62
(dp3623
g82
g83
ssg71
g3617
sg64
(lp3624
S'myfile1'
p3625
asbag57
(g78
g59
NtRp3626
(dp3627
g62
(dp3628
g89
g90
ssg71
g3617
sg64
(lp3629
S':'
asbag57
(g78
g59
NtRp3630
(dp3631
g62
(dp3632
sg71
g3617
sg64
(lp3633
g57
(g58
g59
NtRp3634
(dp3635
g62
(dp3636
g70
I5
ssg71
g3630
sg64
(lp3637
S'no_table.myfile1.aa20f767627e694e.4368616e675f415230303431302e70636c.pcl'
p3638
asbasbasbag57
(g73
g59
NtRp3639
(dp3640
g62
(dp3641
sg71
g3128
sg64
(lp3642
g57
(g78
g59
NtRp3643
(dp3644
g62
(dp3645
g82
g83
ssg71
g3639
sg64
(lp3646
S'myfile2'
p3647
asbag57
(g78
g59
NtRp3648
(dp3649
g62
(dp3650
g89
g90
ssg71
g3639
sg64
(lp3651
S':'
asbag57
(g78
g59
NtRp3652
(dp3653
g62
(dp3654
sg71
g3639
sg64
(lp3655
g57
(g58
g59
NtRp3656
(dp3657
g62
(dp3658
g70
I5
ssg71
g3652
sg64
(lp3659
S''
asbasbasbag57
(g73
g59
NtRp3660
(dp3661
g62
(dp3662
sg71
g3128
sg64
(lp3663
g57
(g78
g59
NtRp3664
(dp3665
g62
(dp3666
g82
g83
ssg71
g3660
sg64
(lp3667
S'myfile3'
p3668
asbag57
(g78
g59
NtRp3669
(dp3670
g62
(dp3671
g89
g90
ssg71
g3660
sg64
(lp3672
S':'
asbag57
(g78
g59
NtRp3673
(dp3674
g62
(dp3675
sg71
g3660
sg64
(lp3676
g57
(g58
g59
NtRp3677
(dp3678
g62
(dp3679
g70
I5
ssg71
g3673
sg64
(lp3680
S''
asbasbasbag57
(g73
g59
NtRp3681
(dp3682
g62
(dp3683
sg71
g3128
sg64
(lp3684
g57
(g78
g59
NtRp3685
(dp3686
g62
(dp3687
g82
g83
ssg71
g3681
sg64
(lp3688
S'myfile4'
p3689
asbag57
(g78
g59
NtRp3690
(dp3691
g62
(dp3692
g89
g90
ssg71
g3681
sg64
(lp3693
S':'
asbag57
(g78
g59
NtRp3694
(dp3695
g62
(dp3696
sg71
g3681
sg64
(lp3697
g57
(g58
g59
NtRp3698
(dp3699
g62
(dp3700
g70
I5
ssg71
g3694
sg64
(lp3701
S''
asbasbasbag57
(g73
g59
NtRp3702
(dp3703
g62
(dp3704
sg71
g3128
sg64
(lp3705
g57
(g78
g59
NtRp3706
(dp3707
g62
(dp3708
g82
g83
ssg71
g3702
sg64
(lp3709
S'myfile5'
p3710
asbag57
(g78
g59
NtRp3711
(dp3712
g62
(dp3713
g89
g90
ssg71
g3702
sg64
(lp3714
S':'
asbag57
(g78
g59
NtRp3715
(dp3716
g62
(dp3717
sg71
g3702
sg64
(lp3718
g57
(g58
g59
NtRp3719
(dp3720
g62
(dp3721
g70
I5
ssg71
g3715
sg64
(lp3722
S''
asbasbasbag57
(g73
g59
NtRp3723
(dp3724
g62
(dp3725
sg71
g3128
sg64
(lp3726
g57
(g78
g59
NtRp3727
(dp3728
g62
(dp3729
g82
g83
ssg71
g3723
sg64
(lp3730
S'myfile6'
p3731
asbag57
(g78
g59
NtRp3732
(dp3733
g62
(dp3734
g89
g90
ssg71
g3723
sg64
(lp3735
S':'
asbag57
(g78
g59
NtRp3736
(dp3737
g62
(dp3738
sg71
g3723
sg64
(lp3739
g57
(g58
g59
NtRp3740
(dp3741
g62
(dp3742
g70
I5
ssg71
g3736
sg64
(lp3743
S''
asbasbasbag57
(g73
g59
NtRp3744
(dp3745
g62
(dp3746
sg71
g3128
sg64
(lp3747
g57
(g78
g59
NtRp3748
(dp3749
g62
(dp3750
g82
g83
ssg71
g3744
sg64
(lp3751
S'output'
p3752
asbag57
(g78
g59
NtRp3753
(dp3754
g62
(dp3755
g89
g90
ssg71
g3744
sg64
(lp3756
S':'
asbag57
(g78
g59
NtRp3757
(dp3758
g62
(dp3759
sg71
g3744
sg64
(lp3760
g57
(g58
g59
NtRp3761
(dp3762
g62
(dp3763
g70
I5
ssg71
g3757
sg64
(lp3764
g57
(g66
g59
NtRp3765
(dp3766
g62
(dp3767
g70
I4
ssg71
Nsg64
(lp3768
g57
(g73
g59
NtRp3769
(dp3770
g62
(dp3771
sg71
g3765
sg64
(lp3772
g57
(g78
g59
NtRp3773
(dp3774
g62
(dp3775
sg71
g3769
sg64
(lp3776
g57
(g58
g59
NtRp3777
(dp3778
g62
(dp3779
g70
I4
ssg71
g3773
sg64
(lp3780
S'Jobnumber\tJobname\tStatus\tStarted\tEnded\tSubmitted\tCommand'
p3781
asbasbasbag57
(g73
g59
NtRp3782
(dp3783
g62
(dp3784
sg71
g3765
sg64
(lp3785
g57
(g78
g59
NtRp3786
(dp3787
g62
(dp3788
sg71
g3782
sg64
(lp3789
g57
(g58
g59
NtRp3790
(dp3791
g62
(dp3792
g70
I4
ssg71
g3786
sg64
(lp3793
S'241\tF8QMFC\tkilled\tNA\t01/30/13:10:54:58\t01/30/13:10:54:41\tpython run_command.py'
p3794
asbasbasbag57
(g73
g59
NtRp3795
(dp3796
g62
(dp3797
sg71
g3765
sg64
(lp3798
g57
(g78
g59
NtRp3799
(dp3800
g62
(dp3801
sg71
g3795
sg64
(lp3802
g57
(g58
g59
NtRp3803
(dp3804
g62
(dp3805
g70
I4
ssg71
g3799
sg64
(lp3806
S'242\t1\tkilled\tNA\t01/30/13:10:56:50\t01/30/13:10:55:43\tpython run_command.py'
p3807
asbasbasbag57
(g73
g59
NtRp3808
(dp3809
g62
(dp3810
sg71
g3765
sg64
(lp3811
g57
(g78
g59
NtRp3812
(dp3813
g62
(dp3814
sg71
g3808
sg64
(lp3815
g57
(g58
g59
NtRp3816
(dp3817
g62
(dp3818
g70
I4
ssg71
g3812
sg64
(lp3819
S'243\t1JCM7W\tcompleted\tNA\t01/31/13:11:02:08\t01/30/13:16:23:56\tpython /home/xchen/chencode/Betsy/scripts/run_protocol.py --protocol normalize_file --input input_signal_file:/home/xchen/chencode/upload/no_table.myfile1.bc230362ce4171ba.616c6c5f616d6c5f747261696e5f66696c742e676374.gct --parameters has_missing_value:zero_fill --parameters preprocess:unknown_preprocess'
p3820
asbasbasbag57
(g73
g59
NtRp3821
(dp3822
g62
(dp3823
sg71
g3765
sg64
(lp3824
g57
(g78
g59
NtRp3825
(dp3826
g62
(dp3827
sg71
g3821
sg64
(lp3828
g57
(g58
g59
NtRp3829
(dp3830
g62
(dp3831
g70
I4
ssg71
g3825
sg64
(lp3832
S'244\tMD5OVN\tcompleted\tNA\t01/31/13:11:02:08\t01/30/13:16:26:25\tpython /home/xchen/chencode/Betsy/scripts/run_protocol.py --protocol normalize_file --input input_signal_file:/home/xchen/chencode/upload/no_table.myfile1.ac92b1b80e18666e.7369676e616c5f756e6c6f67747261696e2e70636c.pcl --parameters has_missing_value:zero_fill --parameters preprocess:unknown_preprocess'
p3833
asbasbasbag57
(g73
g59
NtRp3834
(dp3835
g62
(dp3836
sg71
g3765
sg64
(lp3837
g57
(g78
g59
NtRp3838
(dp3839
g62
(dp3840
sg71
g3834
sg64
(lp3841
g57
(g58
g59
NtRp3842
(dp3843
g62
(dp3844
g70
I4
ssg71
g3838
sg64
(lp3845
S'245\t2XXAAY\tcompleted\t01/31/13:11:02:08\t01/31/13:11:36:29\t01/31/13:11:02:08\tpython /home/xchen/chencode/Betsy/scripts/python run_command.py /home/xchen/chencode/upload/no_table.myfile1.9c934921a246486e.6a6f627175657565.txt'
p3846
asbasbasbag57
(g73
g59
NtRp3847
(dp3848
g62
(dp3849
sg71
g3765
sg64
(lp3850
g57
(g78
g59
NtRp3851
(dp3852
g62
(dp3853
sg71
g3847
sg64
(lp3854
g57
(g58
g59
NtRp3855
(dp3856
g62
(dp3857
g70
I4
ssg71
g3851
sg64
(lp3858
S'254\tKQFWA9\tcompleted\tNA\t02/04/13:15:52:33\t01/31/13:12:50:49\tpython /home/xchen/chencode/Betsy/scripts/python run_command.py /home/xchen/chencode/upload/no_table.myfile1.9c934921a246486e.6a6f627175657565.txt'
p3859
asbasbasbag57
(g73
g59
NtRp3860
(dp3861
g62
(dp3862
sg71
g3765
sg64
(lp3863
g57
(g78
g59
NtRp3864
(dp3865
g62
(dp3866
sg71
g3860
sg64
(lp3867
g57
(g58
g59
NtRp3868
(dp3869
g62
(dp3870
g70
I4
ssg71
g3864
sg64
(lp3871
S'255\t5O5TN9\tcompleted\tNA\t02/04/13:15:52:33\t01/31/13:13:38:12\tpython /home/xchen/chencode/Betsy/scripts/python run_command.py /home/xchen/chencode/upload/no_table.myfile1.9c934921a246486e.6a6f627175657565.txt'
p3872
asbasbasbag57
(g73
g59
NtRp3873
(dp3874
g62
(dp3875
sg71
g3765
sg64
(lp3876
g57
(g78
g59
NtRp3877
(dp3878
g62
(dp3879
sg71
g3873
sg64
(lp3880
g57
(g58
g59
NtRp3881
(dp3882
g62
(dp3883
g70
I4
ssg71
g3877
sg64
(lp3884
S'256\t66OKZZ\tcompleted\tNA\t02/04/13:15:52:33\t01/31/13:15:20:40\tpython /home/xchen/chencode/Betsy/scripts/run_rule.py --plin input_signal_file([contents,[a],status,given],[]) --plout signal_raw([contents,[a],format,tdf,is_logged,unknown_logged,preprocess,unknown_preprocess,predataset,no_predataset],A)'
p3885
asbasbasbag57
(g73
g59
NtRp3886
(dp3887
g62
(dp3888
sg71
g3765
sg64
(lp3889
g57
(g78
g59
NtRp3890
(dp3891
g62
(dp3892
sg71
g3886
sg64
(lp3893
g57
(g58
g59
NtRp3894
(dp3895
g62
(dp3896
g70
I4
ssg71
g3890
sg64
(lp3897
S''
asbasbasbasbasbasbasbasbasbsS'etype'
p3898
S"<type 'exceptions.NameError'>"
p3899
sS'date'
p3900
S'Thu Feb  7 11:06:15 2013'
p3901
sS'response'
p3902
g57
(g58
g59
NtRp3903
(dp3904
g62
(dp3905
sg64
(lp3906
g57
(g66
g59
NtRp3907
(dp3908
g62
(dp3909
g70
I5
ssg71
Nsg64
(lp3910
g57
(g73
g59
NtRp3911
(dp3912
g62
(dp3913
sg71
g3907
sg64
(lp3914
g57
(g78
g59
NtRp3915
(dp3916
g62
(dp3917
g82
g83
ssg71
g3911
sg64
(lp3918
g168
asbag57
(g78
g59
NtRp3919
(dp3920
g62
(dp3921
g89
g90
ssg71
g3911
sg64
(lp3922
S':'
asbag57
(g78
g59
NtRp3923
(dp3924
g62
(dp3925
sg71
g3911
sg64
(lp3926
g57
(g58
g59
NtRp3927
(dp3928
g62
(dp3929
g70
I5
ssg71
g3923
sg64
(lp3930
S'<cStringIO.StringO object at 0x17572a78>'
p3931
asbasbasbag57
(g73
g59
NtRp3932
(dp3933
g62
(dp3934
sg71
g3907
sg64
(lp3935
g57
(g78
g59
NtRp3936
(dp3937
g62
(dp3938
g82
g83
ssg71
g3932
sg64
(lp3939
g256
asbag57
(g78
g59
NtRp3940
(dp3941
g62
(dp3942
g89
g90
ssg71
g3932
sg64
(lp3943
S':'
asbag57
(g78
g59
NtRp3944
(dp3945
g62
(dp3946
sg71
g3932
sg64
(lp3947
g57
(g58
g59
NtRp3948
(dp3949
g62
(dp3950
g70
I5
ssg71
g3944
sg64
(lp3951
g57
(g66
g59
NtRp3952
(dp3953
g62
(dp3954
g70
I4
ssg71
Nsg64
(lp3955
g57
(g73
g59
NtRp3956
(dp3957
g62
(dp3958
sg71
g3952
sg64
(lp3959
g57
(g78
g59
NtRp3960
(dp3961
g62
(dp3962
g82
g83
ssg71
g3956
sg64
(lp3963
S'session_id_betsy'
p3964
asbag57
(g78
g59
NtRp3965
(dp3966
g62
(dp3967
g89
g90
ssg71
g3956
sg64
(lp3968
S':'
asbag57
(g78
g59
NtRp3969
(dp3970
g62
(dp3971
sg71
g3956
sg64
(lp3972
g57
(g58
g59
NtRp3973
(dp3974
g62
(dp3975
g70
I4
ssg71
g3969
sg64
(lp3976
g488
ag57
(g66
g59
NtRp3977
(dp3978
g62
(dp3979
g70
I3
ssg71
Nsg64
(lp3980
g57
(g73
g59
NtRp3981
(dp3982
g62
(dp3983
sg71
g3977
sg64
(lp3984
g57
(g78
g59
NtRp3985
(dp3986
g62
(dp3987
g82
g83
ssg71
g3981
sg64
(lp3988
g307
asbag57
(g78
g59
NtRp3989
(dp3990
g62
(dp3991
g89
g90
ssg71
g3981
sg64
(lp3992
S':'
asbag57
(g78
g59
NtRp3993
(dp3994
g62
(dp3995
sg71
g3981
sg64
(lp3996
g57
(g58
g59
NtRp3997
(dp3998
g62
(dp3999
g70
I3
ssg71
g3993
sg64
(lp4000
S''
asbasbasbag57
(g73
g59
NtRp4001
(dp4002
g62
(dp4003
sg71
g3977
sg64
(lp4004
g57
(g78
g59
NtRp4005
(dp4006
g62
(dp4007
g82
g83
ssg71
g4001
sg64
(lp4008
g328
asbag57
(g78
g59
NtRp4009
(dp4010
g62
(dp4011
g89
g90
ssg71
g4001
sg64
(lp4012
S':'
asbag57
(g78
g59
NtRp4013
(dp4014
g62
(dp4015
sg71
g4001
sg64
(lp4016
g57
(g58
g59
NtRp4017
(dp4018
g62
(dp4019
g70
I3
ssg71
g4013
sg64
(lp4020
S''
asbasbasbag57
(g73
g59
NtRp4021
(dp4022
g62
(dp4023
sg71
g3977
sg64
(lp4024
g57
(g78
g59
NtRp4025
(dp4026
g62
(dp4027
g82
g83
ssg71
g4021
sg64
(lp4028
g349
asbag57
(g78
g59
NtRp4029
(dp4030
g62
(dp4031
g89
g90
ssg71
g4021
sg64
(lp4032
S':'
asbag57
(g78
g59
NtRp4033
(dp4034
g62
(dp4035
sg71
g4021
sg64
(lp4036
g57
(g58
g59
NtRp4037
(dp4038
g62
(dp4039
g70
I3
ssg71
g4033
sg64
(lp4040
S'2592000'
p4041
asbasbasbag57
(g73
g59
NtRp4042
(dp4043
g62
(dp4044
sg71
g3977
sg64
(lp4045
g57
(g78
g59
NtRp4046
(dp4047
g62
(dp4048
g82
g83
ssg71
g4042
sg64
(lp4049
g370
asbag57
(g78
g59
NtRp4050
(dp4051
g62
(dp4052
g89
g90
ssg71
g4042
sg64
(lp4053
S':'
asbag57
(g78
g59
NtRp4054
(dp4055
g62
(dp4056
sg71
g4042
sg64
(lp4057
g57
(g58
g59
NtRp4058
(dp4059
g62
(dp4060
g70
I3
ssg71
g4054
sg64
(lp4061
S''
asbasbasbag57
(g73
g59
NtRp4062
(dp4063
g62
(dp4064
sg71
g3977
sg64
(lp4065
g57
(g78
g59
NtRp4066
(dp4067
g62
(dp4068
g82
g83
ssg71
g4062
sg64
(lp4069
g391
asbag57
(g78
g59
NtRp4070
(dp4071
g62
(dp4072
g89
g90
ssg71
g4062
sg64
(lp4073
S':'
asbag57
(g78
g59
NtRp4074
(dp4075
g62
(dp4076
sg71
g4062
sg64
(lp4077
g57
(g58
g59
NtRp4078
(dp4079
g62
(dp4080
g70
I3
ssg71
g4074
sg64
(lp4081
S''
asbasbasbag57
(g73
g59
NtRp4082
(dp4083
g62
(dp4084
sg71
g3977
sg64
(lp4085
g57
(g78
g59
NtRp4086
(dp4087
g62
(dp4088
g82
g83
ssg71
g4082
sg64
(lp4089
g412
asbag57
(g78
g59
NtRp4090
(dp4091
g62
(dp4092
g89
g90
ssg71
g4082
sg64
(lp4093
S':'
asbag57
(g78
g59
NtRp4094
(dp4095
g62
(dp4096
sg71
g4082
sg64
(lp4097
g57
(g58
g59
NtRp4098
(dp4099
g62
(dp4100
g70
I3
ssg71
g4094
sg64
(lp4101
S'/'
asbasbasbag57
(g73
g59
NtRp4102
(dp4103
g62
(dp4104
sg71
g3977
sg64
(lp4105
g57
(g78
g59
NtRp4106
(dp4107
g62
(dp4108
g82
g83
ssg71
g4102
sg64
(lp4109
g433
asbag57
(g78
g59
NtRp4110
(dp4111
g62
(dp4112
g89
g90
ssg71
g4102
sg64
(lp4113
S':'
asbag57
(g78
g59
NtRp4114
(dp4115
g62
(dp4116
sg71
g4102
sg64
(lp4117
g57
(g58
g59
NtRp4118
(dp4119
g62
(dp4120
g70
I3
ssg71
g4114
sg64
(lp4121
S''
asbasbasbag57
(g73
g59
NtRp4122
(dp4123
g62
(dp4124
sg71
g3977
sg64
(lp4125
g57
(g78
g59
NtRp4126
(dp4127
g62
(dp4128
g82
g83
ssg71
g4122
sg64
(lp4129
g454
asbag57
(g78
g59
NtRp4130
(dp4131
g62
(dp4132
g89
g90
ssg71
g4122
sg64
(lp4133
S':'
asbag57
(g78
g59
NtRp4134
(dp4135
g62
(dp4136
sg71
g4122
sg64
(lp4137
g57
(g58
g59
NtRp4138
(dp4139
g62
(dp4140
g70
I3
ssg71
g4134
sg64
(lp4141
S''
asbasbasbasbasbasbasbasbasbasbasbag57
(g73
g59
NtRp4142
(dp4143
g62
(dp4144
sg71
g3907
sg64
(lp4145
g57
(g78
g59
NtRp4146
(dp4147
g62
(dp4148
g82
g83
ssg71
g4142
sg64
(lp4149
S'delimiters'
p4150
asbag57
(g78
g59
NtRp4151
(dp4152
g62
(dp4153
g89
g90
ssg71
g4142
sg64
(lp4154
S':'
asbag57
(g78
g59
NtRp4155
(dp4156
g62
(dp4157
sg71
g4142
sg64
(lp4158
g57
(g58
g59
NtRp4159
(dp4160
g62
(dp4161
g70
I5
ssg71
g4155
sg64
(lp4162
g57
(g66
g59
NtRp4163
(dp4164
g62
(dp4165
g70
I4
ssg71
Nsg64
(lp4166
g57
(g73
g59
NtRp4167
(dp4168
g62
(dp4169
sg71
g4163
sg64
(lp4170
g57
(g78
g59
NtRp4171
(dp4172
g62
(dp4173
sg71
g4167
sg64
(lp4174
g57
(g58
g59
NtRp4175
(dp4176
g62
(dp4177
g70
I4
ssg71
g4171
sg64
(lp4178
S'{{'
p4179
asbasbasbag57
(g73
g59
NtRp4180
(dp4181
g62
(dp4182
sg71
g4163
sg64
(lp4183
g57
(g78
g59
NtRp4184
(dp4185
g62
(dp4186
sg71
g4180
sg64
(lp4187
g57
(g58
g59
NtRp4188
(dp4189
g62
(dp4190
g70
I4
ssg71
g4184
sg64
(lp4191
S'}}'
p4192
asbasbasbasbasbasbasbag57
(g73
g59
NtRp4193
(dp4194
g62
(dp4195
sg71
g3907
sg64
(lp4196
g57
(g78
g59
NtRp4197
(dp4198
g62
(dp4199
g82
g83
ssg71
g4193
sg64
(lp4200
S'files'
p4201
asbag57
(g78
g59
NtRp4202
(dp4203
g62
(dp4204
g89
g90
ssg71
g4193
sg64
(lp4205
S':'
asbag57
(g78
g59
NtRp4206
(dp4207
g62
(dp4208
sg71
g4193
sg64
(lp4209
g57
(g58
g59
NtRp4210
(dp4211
g62
(dp4212
g70
I5
ssg71
g4206
sg64
(lp4213
g57
(g66
g59
NtRp4214
(dp4215
g62
(dp4216
g70
I4
ssg71
Nsg64
(lp4217
g57
(g73
g59
NtRp4218
(dp4219
g62
(dp4220
sg71
g4214
sg64
(lp4221
g57
(g78
g59
NtRp4222
(dp4223
g62
(dp4224
sg71
g4218
sg64
(lp4225
g57
(g58
g59
NtRp4226
(dp4227
g62
(dp4228
g70
I4
ssg71
g4222
sg64
(lp4229
S'/Betsy/static/js/jquery.js'
p4230
asbasbasbag57
(g73
g59
NtRp4231
(dp4232
g62
(dp4233
sg71
g4214
sg64
(lp4234
g57
(g78
g59
NtRp4235
(dp4236
g62
(dp4237
sg71
g4231
sg64
(lp4238
g57
(g58
g59
NtRp4239
(dp4240
g62
(dp4241
g70
I4
ssg71
g4235
sg64
(lp4242
S'/Betsy/static/css/calendar.css'
p4243
asbasbasbag57
(g73
g59
NtRp4244
(dp4245
g62
(dp4246
sg71
g4214
sg64
(lp4247
g57
(g78
g59
NtRp4248
(dp4249
g62
(dp4250
sg71
g4244
sg64
(lp4251
g57
(g58
g59
NtRp4252
(dp4253
g62
(dp4254
g70
I4
ssg71
g4248
sg64
(lp4255
S'/Betsy/static/js/calendar.js'
p4256
asbasbasbag57
(g73
g59
NtRp4257
(dp4258
g62
(dp4259
sg71
g4214
sg64
(lp4260
g57
(g78
g59
NtRp4261
(dp4262
g62
(dp4263
sg71
g4257
sg64
(lp4264
g57
(g58
g59
NtRp4265
(dp4266
g62
(dp4267
g70
I4
ssg71
g4261
sg64
(lp4268
S'/Betsy/static/js/web2py.js'
p4269
asbasbasbag57
(g73
g59
NtRp4270
(dp4271
g62
(dp4272
sg71
g4214
sg64
(lp4273
g57
(g78
g59
NtRp4274
(dp4275
g62
(dp4276
sg71
g4270
sg64
(lp4277
g57
(g58
g59
NtRp4278
(dp4279
g62
(dp4280
g70
I4
ssg71
g4274
sg64
(lp4281
S'/Betsy/static/css/web2py.css'
p4282
asbasbasbag57
(g73
g59
NtRp4283
(dp4284
g62
(dp4285
sg71
g4214
sg64
(lp4286
g57
(g78
g59
NtRp4287
(dp4288
g62
(dp4289
sg71
g4283
sg64
(lp4290
g57
(g58
g59
NtRp4291
(dp4292
g62
(dp4293
g70
I4
ssg71
g4287
sg64
(lp4294
S'/Betsy/static/css/bootstrap.min.css'
p4295
asbasbasbag57
(g73
g59
NtRp4296
(dp4297
g62
(dp4298
sg71
g4214
sg64
(lp4299
g57
(g78
g59
NtRp4300
(dp4301
g62
(dp4302
sg71
g4296
sg64
(lp4303
g57
(g58
g59
NtRp4304
(dp4305
g62
(dp4306
g70
I4
ssg71
g4300
sg64
(lp4307
S'/Betsy/static/css/bootstrap-responsive.min.css'
p4308
asbasbasbag57
(g73
g59
NtRp4309
(dp4310
g62
(dp4311
sg71
g4214
sg64
(lp4312
g57
(g78
g59
NtRp4313
(dp4314
g62
(dp4315
sg71
g4309
sg64
(lp4316
g57
(g58
g59
NtRp4317
(dp4318
g62
(dp4319
g70
I4
ssg71
g4313
sg64
(lp4320
S'/Betsy/static/css/web2py_bootstrap.css'
p4321
asbasbasbasbasbasbasbag57
(g73
g59
NtRp4322
(dp4323
g62
(dp4324
sg71
g3907
sg64
(lp4325
g57
(g78
g59
NtRp4326
(dp4327
g62
(dp4328
g82
g83
ssg71
g4322
sg64
(lp4329
S'flash'
p4330
asbag57
(g78
g59
NtRp4331
(dp4332
g62
(dp4333
g89
g90
ssg71
g4322
sg64
(lp4334
S':'
asbag57
(g78
g59
NtRp4335
(dp4336
g62
(dp4337
sg71
g4322
sg64
(lp4338
g57
(g58
g59
NtRp4339
(dp4340
g62
(dp4341
g70
I5
ssg71
g4335
sg64
(lp4342
S''
asbasbasbag57
(g73
g59
NtRp4343
(dp4344
g62
(dp4345
sg71
g3907
sg64
(lp4346
g57
(g78
g59
NtRp4347
(dp4348
g62
(dp4349
g82
g83
ssg71
g4343
sg64
(lp4350
S'generic_patterns'
p4351
asbag57
(g78
g59
NtRp4352
(dp4353
g62
(dp4354
g89
g90
ssg71
g4343
sg64
(lp4355
S':'
asbag57
(g78
g59
NtRp4356
(dp4357
g62
(dp4358
sg71
g4343
sg64
(lp4359
g57
(g58
g59
NtRp4360
(dp4361
g62
(dp4362
g70
I5
ssg71
g4356
sg64
(lp4363
g57
(g66
g59
NtRp4364
(dp4365
g62
(dp4366
g70
I4
ssg71
Nsg64
(lp4367
g57
(g73
g59
NtRp4368
(dp4369
g62
(dp4370
sg71
g4364
sg64
(lp4371
g57
(g78
g59
NtRp4372
(dp4373
g62
(dp4374
sg71
g4368
sg64
(lp4375
g57
(g58
g59
NtRp4376
(dp4377
g62
(dp4378
g70
I4
ssg71
g4372
sg64
(lp4379
S'*'
asbasbasbasbasbasbasbag57
(g73
g59
NtRp4380
(dp4381
g62
(dp4382
sg71
g3907
sg64
(lp4383
g57
(g78
g59
NtRp4384
(dp4385
g62
(dp4386
g82
g83
ssg71
g4380
sg64
(lp4387
S'google_analytics_id'
p4388
asbag57
(g78
g59
NtRp4389
(dp4390
g62
(dp4391
g89
g90
ssg71
g4380
sg64
(lp4392
S':'
asbag57
(g78
g59
NtRp4393
(dp4394
g62
(dp4395
sg71
g4380
sg64
(lp4396
g57
(g58
g59
NtRp4397
(dp4398
g62
(dp4399
g70
I5
ssg71
g4393
sg64
(lp4400
S'None'
p4401
asbasbasbag57
(g73
g59
NtRp4402
(dp4403
g62
(dp4404
sg71
g3907
sg64
(lp4405
g57
(g78
g59
NtRp4406
(dp4407
g62
(dp4408
g82
g83
ssg71
g4402
sg64
(lp4409
S'headers'
p4410
asbag57
(g78
g59
NtRp4411
(dp4412
g62
(dp4413
g89
g90
ssg71
g4402
sg64
(lp4414
S':'
asbag57
(g78
g59
NtRp4415
(dp4416
g62
(dp4417
sg71
g4402
sg64
(lp4418
g57
(g58
g59
NtRp4419
(dp4420
g62
(dp4421
g70
I5
ssg71
g4415
sg64
(lp4422
g57
(g66
g59
NtRp4423
(dp4424
g62
(dp4425
g70
I4
ssg71
Nsg64
(lp4426
g57
(g73
g59
NtRp4427
(dp4428
g62
(dp4429
sg71
g4423
sg64
(lp4430
g57
(g78
g59
NtRp4431
(dp4432
g62
(dp4433
g82
g83
ssg71
g4427
sg64
(lp4434
S'X-Powered-By'
p4435
asbag57
(g78
g59
NtRp4436
(dp4437
g62
(dp4438
g89
g90
ssg71
g4427
sg64
(lp4439
S':'
asbag57
(g78
g59
NtRp4440
(dp4441
g62
(dp4442
sg71
g4427
sg64
(lp4443
g57
(g58
g59
NtRp4444
(dp4445
g62
(dp4446
g70
I4
ssg71
g4440
sg64
(lp4447
S'web2py'
p4448
asbasbasbasbasbasbasbag57
(g73
g59
NtRp4449
(dp4450
g62
(dp4451
sg71
g3907
sg64
(lp4452
g57
(g78
g59
NtRp4453
(dp4454
g62
(dp4455
g82
g83
ssg71
g4449
sg64
(lp4456
S'menu'
p4457
asbag57
(g78
g59
NtRp4458
(dp4459
g62
(dp4460
g89
g90
ssg71
g4449
sg64
(lp4461
S':'
asbag57
(g78
g59
NtRp4462
(dp4463
g62
(dp4464
sg71
g4449
sg64
(lp4465
g57
(g58
g59
NtRp4466
(dp4467
g62
(dp4468
g70
I5
ssg71
g4462
sg64
(lp4469
g57
(g66
g59
NtRp4470
(dp4471
g62
(dp4472
g70
I4
ssg71
Nsg64
(lp4473
g57
(g73
g59
NtRp4474
(dp4475
g62
(dp4476
sg71
g4470
sg64
(lp4477
g57
(g78
g59
NtRp4478
(dp4479
g62
(dp4480
sg71
g4474
sg64
(lp4481
g57
(g58
g59
NtRp4482
(dp4483
g62
(dp4484
g70
I4
ssg71
g4478
sg64
(lp4485
g57
(g66
g59
NtRp4486
(dp4487
g62
(dp4488
g70
I3
ssg71
Nsg64
(lp4489
g57
(g73
g59
NtRp4490
(dp4491
g62
(dp4492
sg71
g4486
sg64
(lp4493
g57
(g78
g59
NtRp4494
(dp4495
g62
(dp4496
sg71
g4490
sg64
(lp4497
g57
(g58
g59
NtRp4498
(dp4499
g62
(dp4500
g70
I3
ssg71
g4494
sg64
(lp4501
cgluon.languages
lazyT_unpickle
p4502
(S's\x04\x00\x00\x00Home'
tRp4503
asbasbasbag57
(g73
g59
NtRp4504
(dp4505
g62
(dp4506
sg71
g4486
sg64
(lp4507
g57
(g78
g59
NtRp4508
(dp4509
g62
(dp4510
sg71
g4504
sg64
(lp4511
g57
(g58
g59
NtRp4512
(dp4513
g62
(dp4514
g70
I3
ssg71
g4508
sg64
(lp4515
g100
asbasbasbag57
(g73
g59
NtRp4516
(dp4517
g62
(dp4518
sg71
g4486
sg64
(lp4519
g57
(g78
g59
NtRp4520
(dp4521
g62
(dp4522
sg71
g4516
sg64
(lp4523
g57
(g58
g59
NtRp4524
(dp4525
g62
(dp4526
g70
I3
ssg71
g4520
sg64
(lp4527
S'/Betsy/default/index'
p4528
asbasbasbag57
(g73
g59
NtRp4529
(dp4530
g62
(dp4531
sg71
g4486
sg64
(lp4532
g57
(g78
g59
NtRp4533
(dp4534
g62
(dp4535
sg71
g4529
sg64
(lp4536
g57
(g58
g59
NtRp4537
(dp4538
g62
(dp4539
g70
I3
ssg71
g4533
sg64
(lp4540
g57
(g66
g59
NtRp4541
(dp4542
g62
(dp4543
g70
I2
ssg71
Nsg64
(lp4544
sbasbasbasbasbasbasbasbag57
(g73
g59
NtRp4545
(dp4546
g62
(dp4547
sg71
g4470
sg64
(lp4548
g57
(g78
g59
NtRp4549
(dp4550
g62
(dp4551
sg71
g4545
sg64
(lp4552
g57
(g58
g59
NtRp4553
(dp4554
g62
(dp4555
g70
I4
ssg71
g4549
sg64
(lp4556
g57
(g66
g59
NtRp4557
(dp4558
g62
(dp4559
g70
I3
ssg71
Nsg64
(lp4560
g57
(g73
g59
NtRp4561
(dp4562
g62
(dp4563
sg71
g4557
sg64
(lp4564
g57
(g78
g59
NtRp4565
(dp4566
g62
(dp4567
sg71
g4561
sg64
(lp4568
g57
(g58
g59
NtRp4569
(dp4570
g62
(dp4571
g70
I3
ssg71
g4565
sg64
(lp4572
g57
(cgluon.html
SPAN
p4573
g59
NtRp4574
(dp4575
g62
(dp4576
S'_class'
p4577
S'highlighted'
p4578
ssg71
g57
(cgluon.html
A
p4579
g59
NtRp4580
(dp4581
g62
(dp4582
S'_href'
p4583
S'http://web2py.com'
p4584
ssg71
g57
(cgluon.html
LI
p4585
g59
NtRp4586
(dp4587
g62
(dp4588
g4577
S'dropdown'
p4589
ssg71
g57
(cgluon.html
UL
p4590
g59
NtRp4591
(dp4592
g62
(dp4593
S'li_class'
p4594
g4589
sS'mobile'
p4595
I00
sg4577
S'nav'
p4596
sS'ul_class'
p4597
S'dropdown-menu'
p4598
sS'li_active'
p4599
S'web2py-menu-active'
p4600
ssg71
Nsg64
(lp4601
g57
(g4585
g59
NtRp4602
(dp4603
g62
(dp4604
sg71
g4591
sg64
(lp4605
g57
(g4579
g59
NtRp4606
(dp4607
g62
(dp4608
g4583
g4528
ssg71
g4602
sg64
(lp4609
g4503
asbasbag4586
asbsg64
(lp4610
g4580
ag57
(g4590
g59
NtRp4611
(dp4612
g62
(dp4613
g4577
g4598
ssg71
g4586
sg64
(lp4614
g57
(g4585
g59
NtRp4615
(dp4616
g62
(dp4617
sg71
g4611
sg64
(lp4618
g57
(g4579
g59
NtRp4619
(dp4620
g62
(dp4621
g4583
S'/admin/default/site'
p4622
ssg71
g4615
sg64
(lp4623
g4502
(S's\x08\x00\x00\x00My Sites'
tRp4624
asbasbag57
(g4585
g59
NtRp4625
(dp4626
g62
(dp4627
g4577
g4589
ssg71
g4611
sg64
(lp4628
g57
(g4579
g59
NtRp4629
(dp4630
g62
(dp4631
g4583
S'/admin/default/design/Betsy'
p4632
ssg71
g4625
sg64
(lp4633
g4502
(S's\x08\x00\x00\x00This App'
tRp4634
asbag57
(g4590
g59
NtRp4635
(dp4636
g62
(dp4637
g4577
g4598
ssg71
g4625
sg64
(lp4638
g57
(g4585
g59
NtRp4639
(dp4640
g62
(dp4641
sg71
g4635
sg64
(lp4642
g57
(g4579
g59
NtRp4643
(dp4644
g62
(dp4645
g4583
S'/admin/default/edit/Betsy/controllers/default.py'
p4646
ssg71
g4639
sg64
(lp4647
g4502
(S's\n\x00\x00\x00Controller'
tRp4648
asbasbag57
(g4585
g59
NtRp4649
(dp4650
g62
(dp4651
sg71
g4635
sg64
(lp4652
g57
(g4579
g59
NtRp4653
(dp4654
g62
(dp4655
g4583
S'/admin/default/edit/Betsy/views/default/show_job.html'
p4656
ssg71
g4649
sg64
(lp4657
g4502
(S's\x04\x00\x00\x00View'
tRp4658
asbasbag57
(g4585
g59
NtRp4659
(dp4660
g62
(dp4661
sg71
g4635
sg64
(lp4662
g57
(g4579
g59
NtRp4663
(dp4664
g62
(dp4665
g4583
S'/admin/default/edit/Betsy/views/layout.html'
p4666
ssg71
g4659
sg64
(lp4667
g4502
(S's\x06\x00\x00\x00Layout'
tRp4668
asbasbag57
(g4585
g59
NtRp4669
(dp4670
g62
(dp4671
sg71
g4635
sg64
(lp4672
g57
(g4579
g59
NtRp4673
(dp4674
g62
(dp4675
g4583
S'/admin/default/edit/Betsy/static/css/web2py.css'
p4676
ssg71
g4669
sg64
(lp4677
g4502
(S's\n\x00\x00\x00Stylesheet'
tRp4678
asbasbag57
(g4585
g59
NtRp4679
(dp4680
g62
(dp4681
sg71
g4635
sg64
(lp4682
g57
(g4579
g59
NtRp4683
(dp4684
g62
(dp4685
g4583
S'/admin/default/edit/Betsy/models/db.py'
p4686
ssg71
g4679
sg64
(lp4687
g4502
(S's\x08\x00\x00\x00DB Model'
tRp4688
asbasbag57
(g4585
g59
NtRp4689
(dp4690
g62
(dp4691
sg71
g4635
sg64
(lp4692
g57
(g4579
g59
NtRp4693
(dp4694
g62
(dp4695
g4583
S'/admin/default/edit/Betsy/models/menu.py'
p4696
ssg71
g4689
sg64
(lp4697
g4502
(S's\n\x00\x00\x00Menu Model'
tRp4698
asbasbag57
(g4585
g59
NtRp4699
(dp4700
g62
(dp4701
sg71
g4635
sg64
(lp4702
g57
(g4579
g59
NtRp4703
(dp4704
g62
(dp4705
g4583
S'/Betsy/appadmin/index'
p4706
ssg71
g4699
sg64
(lp4707
g4502
(S's\x08\x00\x00\x00Database'
tRp4708
asbasbag57
(g4585
g59
NtRp4709
(dp4710
g62
(dp4711
sg71
g4635
sg64
(lp4712
g57
(g4579
g59
NtRp4713
(dp4714
g62
(dp4715
g4583
S'/admin/default/errors/Betsy'
p4716
ssg71
g4709
sg64
(lp4717
g4502
(S's\x06\x00\x00\x00Errors'
tRp4718
asbasbag57
(g4585
g59
NtRp4719
(dp4720
g62
(dp4721
sg71
g4635
sg64
(lp4722
g57
(g4579
g59
NtRp4723
(dp4724
g62
(dp4725
g4583
S'/admin/default/about/Betsy'
p4726
ssg71
g4719
sg64
(lp4727
g4502
(S's\x05\x00\x00\x00About'
tRp4728
asbasbasbasbag57
(g4585
g59
NtRp4729
(dp4730
g62
(dp4731
g4577
g4589
ssg71
g4611
sg64
(lp4732
g57
(g4579
g59
NtRp4733
(dp4734
g62
(dp4735
g4583
S'http://www.web2py.com'
p4736
ssg71
g4729
sg64
(lp4737
S'web2py.com'
p4738
asbag57
(g4590
g59
NtRp4739
(dp4740
g62
(dp4741
g4577
g4598
ssg71
g4729
sg64
(lp4742
g57
(g4585
g59
NtRp4743
(dp4744
g62
(dp4745
sg71
g4739
sg64
(lp4746
g57
(g4579
g59
NtRp4747
(dp4748
g62
(dp4749
g4583
S'http://www.web2py.com/examples/default/download'
p4750
ssg71
g4743
sg64
(lp4751
g4502
(S's\x08\x00\x00\x00Download'
tRp4752
asbasbag57
(g4585
g59
NtRp4753
(dp4754
g62
(dp4755
sg71
g4739
sg64
(lp4756
g57
(g4579
g59
NtRp4757
(dp4758
g62
(dp4759
g4583
S'http://www.web2py.com/examples/default/support'
p4760
ssg71
g4753
sg64
(lp4761
g4502
(S's\x07\x00\x00\x00Support'
tRp4762
asbasbag57
(g4585
g59
NtRp4763
(dp4764
g62
(dp4765
sg71
g4739
sg64
(lp4766
g57
(g4579
g59
NtRp4767
(dp4768
g62
(dp4769
g4583
S'http://web2py.com/demo_admin'
p4770
ssg71
g4763
sg64
(lp4771
g4502
(S's\x04\x00\x00\x00Demo'
tRp4772
asbasbag57
(g4585
g59
NtRp4773
(dp4774
g62
(dp4775
sg71
g4739
sg64
(lp4776
g57
(g4579
g59
NtRp4777
(dp4778
g62
(dp4779
g4583
S'http://web2py.com/examples/default/examples'
p4780
ssg71
g4773
sg64
(lp4781
g4502
(S's\x0e\x00\x00\x00Quick Examples'
tRp4782
asbasbag57
(g4585
g59
NtRp4783
(dp4784
g62
(dp4785
sg71
g4739
sg64
(lp4786
g57
(g4579
g59
NtRp4787
(dp4788
g62
(dp4789
g4583
S'http://web2py.com/AlterEgo'
p4790
ssg71
g4783
sg64
(lp4791
g4502
(S's\x03\x00\x00\x00FAQ'
tRp4792
asbasbag57
(g4585
g59
NtRp4793
(dp4794
g62
(dp4795
sg71
g4739
sg64
(lp4796
g57
(g4579
g59
NtRp4797
(dp4798
g62
(dp4799
g4583
S'http://www.web2py.com/examples/default/videos/'
p4800
ssg71
g4793
sg64
(lp4801
g4502
(S's\x06\x00\x00\x00Videos'
tRp4802
asbasbag57
(g4585
g59
NtRp4803
(dp4804
g62
(dp4805
sg71
g4739
sg64
(lp4806
g57
(g4579
g59
NtRp4807
(dp4808
g62
(dp4809
g4583
S'http://web2py.com/appliances'
p4810
ssg71
g4803
sg64
(lp4811
g4502
(S's\x11\x00\x00\x00Free Applications'
tRp4812
asbasbag57
(g4585
g59
NtRp4813
(dp4814
g62
(dp4815
sg71
g4739
sg64
(lp4816
g57
(g4579
g59
NtRp4817
(dp4818
g62
(dp4819
g4583
S'http://web2py.com/plugins'
p4820
ssg71
g4813
sg64
(lp4821
g4502
(S's\x07\x00\x00\x00Plugins'
tRp4822
asbasbag57
(g4585
g59
NtRp4823
(dp4824
g62
(dp4825
sg71
g4739
sg64
(lp4826
g57
(g4579
g59
NtRp4827
(dp4828
g62
(dp4829
g4583
S'http://web2py.com/layouts'
p4830
ssg71
g4823
sg64
(lp4831
g4502
(S's\x07\x00\x00\x00Layouts'
tRp4832
asbasbag57
(g4585
g59
NtRp4833
(dp4834
g62
(dp4835
sg71
g4739
sg64
(lp4836
g57
(g4579
g59
NtRp4837
(dp4838
g62
(dp4839
g4583
S'http://web2pyslices.com/'
p4840
ssg71
g4833
sg64
(lp4841
g4502
(S's\x07\x00\x00\x00Recipes'
tRp4842
asbasbag57
(g4585
g59
NtRp4843
(dp4844
g62
(dp4845
sg71
g4739
sg64
(lp4846
g57
(g4579
g59
NtRp4847
(dp4848
g62
(dp4849
g4583
S'http://web2py.com/semantic'
p4850
ssg71
g4843
sg64
(lp4851
g4502
(S's\x08\x00\x00\x00Semantic'
tRp4852
asbasbasbasbag57
(g4585
g59
NtRp4853
(dp4854
g62
(dp4855
g4577
g4589
ssg71
g4611
sg64
(lp4856
g57
(g4579
g59
NtRp4857
(dp4858
g62
(dp4859
g4583
S'http://www.web2py.com/book'
p4860
ssg71
g4853
sg64
(lp4861
g4502
(S's\r\x00\x00\x00Documentation'
tRp4862
asbag57
(g4590
g59
NtRp4863
(dp4864
g62
(dp4865
g4577
g4598
ssg71
g4853
sg64
(lp4866
g57
(g4585
g59
NtRp4867
(dp4868
g62
(dp4869
sg71
g4863
sg64
(lp4870
g57
(g4579
g59
NtRp4871
(dp4872
g62
(dp4873
g4583
S'http://www.web2py.com/book/default/chapter/00'
p4874
ssg71
g4867
sg64
(lp4875
g4502
(S's\x07\x00\x00\x00Preface'
tRp4876
asbasbag57
(g4585
g59
NtRp4877
(dp4878
g62
(dp4879
sg71
g4863
sg64
(lp4880
g57
(g4579
g59
NtRp4881
(dp4882
g62
(dp4883
g4583
S'http://www.web2py.com/book/default/chapter/01'
p4884
ssg71
g4877
sg64
(lp4885
g4502
(S's\x0c\x00\x00\x00Introduction'
tRp4886
asbasbag57
(g4585
g59
NtRp4887
(dp4888
g62
(dp4889
sg71
g4863
sg64
(lp4890
g57
(g4579
g59
NtRp4891
(dp4892
g62
(dp4893
g4583
S'http://www.web2py.com/book/default/chapter/02'
p4894
ssg71
g4887
sg64
(lp4895
g4502
(S's\x06\x00\x00\x00Python'
tRp4896
asbasbag57
(g4585
g59
NtRp4897
(dp4898
g62
(dp4899
sg71
g4863
sg64
(lp4900
g57
(g4579
g59
NtRp4901
(dp4902
g62
(dp4903
g4583
S'http://www.web2py.com/book/default/chapter/03'
p4904
ssg71
g4897
sg64
(lp4905
g4502
(S's\x08\x00\x00\x00Overview'
tRp4906
asbasbag57
(g4585
g59
NtRp4907
(dp4908
g62
(dp4909
sg71
g4863
sg64
(lp4910
g57
(g4579
g59
NtRp4911
(dp4912
g62
(dp4913
g4583
S'http://www.web2py.com/book/default/chapter/04'
p4914
ssg71
g4907
sg64
(lp4915
g4502
(S's\x08\x00\x00\x00The Core'
tRp4916
asbasbag57
(g4585
g59
NtRp4917
(dp4918
g62
(dp4919
sg71
g4863
sg64
(lp4920
g57
(g4579
g59
NtRp4921
(dp4922
g62
(dp4923
g4583
S'http://www.web2py.com/book/default/chapter/05'
p4924
ssg71
g4917
sg64
(lp4925
g4502
(S's\t\x00\x00\x00The Views'
tRp4926
asbasbag57
(g4585
g59
NtRp4927
(dp4928
g62
(dp4929
sg71
g4863
sg64
(lp4930
g57
(g4579
g59
NtRp4931
(dp4932
g62
(dp4933
g4583
S'http://www.web2py.com/book/default/chapter/06'
p4934
ssg71
g4927
sg64
(lp4935
g4502
(S's\x08\x00\x00\x00Database'
tRp4936
asbasbag57
(g4585
g59
NtRp4937
(dp4938
g62
(dp4939
sg71
g4863
sg64
(lp4940
g57
(g4579
g59
NtRp4941
(dp4942
g62
(dp4943
g4583
S'http://www.web2py.com/book/default/chapter/07'
p4944
ssg71
g4937
sg64
(lp4945
g4502
(S's\x14\x00\x00\x00Forms and Validators'
tRp4946
asbasbag57
(g4585
g59
NtRp4947
(dp4948
g62
(dp4949
sg71
g4863
sg64
(lp4950
g57
(g4579
g59
NtRp4951
(dp4952
g62
(dp4953
g4583
S'http://www.web2py.com/book/default/chapter/08'
p4954
ssg71
g4947
sg64
(lp4955
g4502
(S's\r\x00\x00\x00Email and SMS'
tRp4956
asbasbag57
(g4585
g59
NtRp4957
(dp4958
g62
(dp4959
sg71
g4863
sg64
(lp4960
g57
(g4579
g59
NtRp4961
(dp4962
g62
(dp4963
g4583
S'http://www.web2py.com/book/default/chapter/09'
p4964
ssg71
g4957
sg64
(lp4965
g4502
(S's\x0e\x00\x00\x00Access Control'
tRp4966
asbasbag57
(g4585
g59
NtRp4967
(dp4968
g62
(dp4969
sg71
g4863
sg64
(lp4970
g57
(g4579
g59
NtRp4971
(dp4972
g62
(dp4973
g4583
S'http://www.web2py.com/book/default/chapter/10'
p4974
ssg71
g4967
sg64
(lp4975
g4502
(S's\x08\x00\x00\x00Services'
tRp4976
asbasbag57
(g4585
g59
NtRp4977
(dp4978
g62
(dp4979
sg71
g4863
sg64
(lp4980
g57
(g4579
g59
NtRp4981
(dp4982
g62
(dp4983
g4583
S'http://www.web2py.com/book/default/chapter/11'
p4984
ssg71
g4977
sg64
(lp4985
g4502
(S's\x0c\x00\x00\x00Ajax Recipes'
tRp4986
asbasbag57
(g4585
g59
NtRp4987
(dp4988
g62
(dp4989
sg71
g4863
sg64
(lp4990
g57
(g4579
g59
NtRp4991
(dp4992
g62
(dp4993
g4583
S'http://www.web2py.com/book/default/chapter/12'
p4994
ssg71
g4987
sg64
(lp4995
g4502
(S's\x16\x00\x00\x00Components and Plugins'
tRp4996
asbasbag57
(g4585
g59
NtRp4997
(dp4998
g62
(dp4999
sg71
g4863
sg64
(lp5000
g57
(g4579
g59
NtRp5001
(dp5002
g62
(dp5003
g4583
S'http://www.web2py.com/book/default/chapter/13'
p5004
ssg71
g4997
sg64
(lp5005
g4502
(S's\x12\x00\x00\x00Deployment Recipes'
tRp5006
asbasbag57
(g4585
g59
NtRp5007
(dp5008
g62
(dp5009
sg71
g4863
sg64
(lp5010
g57
(g4579
g59
NtRp5011
(dp5012
g62
(dp5013
g4583
S'http://www.web2py.com/book/default/chapter/14'
p5014
ssg71
g5007
sg64
(lp5015
g4502
(S's\r\x00\x00\x00Other Recipes'
tRp5016
asbasbag57
(g4585
g59
NtRp5017
(dp5018
g62
(dp5019
sg71
g4863
sg64
(lp5020
g57
(g4579
g59
NtRp5021
(dp5022
g62
(dp5023
g4583
S'http://stores.lulu.com/web2py'
p5024
ssg71
g5017
sg64
(lp5025
g4502
(S's\r\x00\x00\x00Buy this book'
tRp5026
asbasbasbasbag57
(g4585
g59
NtRp5027
(dp5028
g62
(dp5029
g4577
g4589
ssg71
g4611
sg64
(lp5030
g57
(g4579
g59
NtRp5031
(dp5032
g62
(dp5033
S'_onclick'
p5034
S'javascript:void(0);return false;'
p5035
sg4583
S'#'
ssg71
g5027
sg64
(lp5036
g4502
(S's\t\x00\x00\x00Community'
tRp5037
asbag57
(g4590
g59
NtRp5038
(dp5039
g62
(dp5040
g4577
g4598
ssg71
g5027
sg64
(lp5041
g57
(g4585
g59
NtRp5042
(dp5043
g62
(dp5044
sg71
g5038
sg64
(lp5045
g57
(g4579
g59
NtRp5046
(dp5047
g62
(dp5048
g4583
S'http://www.web2py.com/examples/default/usergroups'
p5049
ssg71
g5042
sg64
(lp5050
g4502
(S's\x06\x00\x00\x00Groups'
tRp5051
asbasbag57
(g4585
g59
NtRp5052
(dp5053
g62
(dp5054
sg71
g5038
sg64
(lp5055
g57
(g4579
g59
NtRp5056
(dp5057
g62
(dp5058
g4583
S'http://twitter.com/web2py'
p5059
ssg71
g5052
sg64
(lp5060
g4502
(S's\x07\x00\x00\x00Twitter'
tRp5061
asbasbag57
(g4585
g59
NtRp5062
(dp5063
g62
(dp5064
sg71
g5038
sg64
(lp5065
g57
(g4579
g59
NtRp5066
(dp5067
g62
(dp5068
g4583
S'http://webchat.freenode.net/?channels=web2py'
p5069
ssg71
g5062
sg64
(lp5070
g4502
(S's\t\x00\x00\x00Live Chat'
tRp5071
asbasbasbasbag57
(g4585
g59
NtRp5072
(dp5073
g62
(dp5074
g4577
g4589
ssg71
g4611
sg64
(lp5075
g57
(g4579
g59
NtRp5076
(dp5077
g62
(dp5078
g5034
g5035
sg4583
S'#'
ssg71
g5072
sg64
(lp5079
g4502
(S's\x07\x00\x00\x00Plugins'
tRp5080
asbag57
(g4590
g59
NtRp5081
(dp5082
g62
(dp5083
g4577
g4598
ssg71
g5072
sg64
(lp5084
g57
(g4585
g59
NtRp5085
(dp5086
g62
(dp5087
sg71
g5081
sg64
(lp5088
g57
(g4579
g59
NtRp5089
(dp5090
g62
(dp5091
g4583
S'http://web2py.com/examples/default/download'
p5092
ssg71
g5085
sg64
(lp5093
S'plugin_wiki'
p5094
asbasbag57
(g4585
g59
NtRp5095
(dp5096
g62
(dp5097
sg71
g5081
sg64
(lp5098
g57
(g4579
g59
NtRp5099
(dp5100
g62
(dp5101
g4583
g4820
ssg71
g5095
sg64
(lp5102
g4502
(S's\r\x00\x00\x00Other Plugins'
tRp5103
asbasbag57
(g4585
g59
NtRp5104
(dp5105
g62
(dp5106
sg71
g5081
sg64
(lp5107
g57
(g4579
g59
NtRp5108
(dp5109
g62
(dp5110
g4583
g4830
ssg71
g5104
sg64
(lp5111
g4502
(S's\x0e\x00\x00\x00Layout Plugins'
tRp5112
asbasbasbasbasbasbsg64
(lp5113
g4574
asbsg64
(lp5114
g4448
asbasbasbasbag57
(g73
g59
NtRp5115
(dp5116
g62
(dp5117
sg71
g4557
sg64
(lp5118
g57
(g78
g59
NtRp5119
(dp5120
g62
(dp5121
sg71
g5115
sg64
(lp5122
g57
(g58
g59
NtRp5123
(dp5124
g62
(dp5125
g70
I3
ssg71
g5119
sg64
(lp5126
g100
asbasbasbag57
(g73
g59
NtRp5127
(dp5128
g62
(dp5129
sg71
g4557
sg64
(lp5130
g57
(g78
g59
NtRp5131
(dp5132
g62
(dp5133
sg71
g5127
sg64
(lp5134
g57
(g58
g59
NtRp5135
(dp5136
g62
(dp5137
g70
I3
ssg71
g5131
sg64
(lp5138
g4584
asbasbasbag57
(g73
g59
NtRp5139
(dp5140
g62
(dp5141
sg71
g4557
sg64
(lp5142
g57
(g78
g59
NtRp5143
(dp5144
g62
(dp5145
sg71
g5139
sg64
(lp5146
g57
(g58
g59
NtRp5147
(dp5148
g62
(dp5149
g70
I3
ssg71
g5143
sg64
(lp5150
g57
(g66
g59
NtRp5151
(dp5152
g62
(dp5153
g70
I2
ssg71
Nsg64
(lp5154
g57
(g73
g59
NtRp5155
(dp5156
g62
(dp5157
sg71
g5151
sg64
(lp5158
g57
(g78
g59
NtRp5159
(dp5160
g62
(dp5161
sg71
g5155
sg64
(lp5162
g57
(g58
g59
NtRp5163
(dp5164
g62
(dp5165
g70
I2
ssg71
g5159
sg64
(lp5166
g57
(g66
g59
NtRp5167
(dp5168
g62
(dp5169
g70
I1
ssg71
Nsg64
(lp5170
g57
(g73
g59
NtRp5171
(dp5172
g62
(dp5173
sg71
g5167
sg64
(lp5174
g57
(g78
g59
NtRp5175
(dp5176
g62
(dp5177
sg71
g5171
sg64
(lp5178
g57
(g58
g59
NtRp5179
(dp5180
g62
(dp5181
g70
I1
ssg71
g5175
sg64
(lp5182
g4624
asbasbasbag57
(g73
g59
NtRp5183
(dp5184
g62
(dp5185
sg71
g5167
sg64
(lp5186
g57
(g78
g59
NtRp5187
(dp5188
g62
(dp5189
sg71
g5183
sg64
(lp5190
g57
(g58
g59
NtRp5191
(dp5192
g62
(dp5193
g70
I1
ssg71
g5187
sg64
(lp5194
I00
asbasbasbag57
(g73
g59
NtRp5195
(dp5196
g62
(dp5197
sg71
g5167
sg64
(lp5198
g57
(g78
g59
NtRp5199
(dp5200
g62
(dp5201
sg71
g5195
sg64
(lp5202
g57
(g58
g59
NtRp5203
(dp5204
g62
(dp5205
g70
I1
ssg71
g5199
sg64
(lp5206
g4622
asbasbasbasbasbasbasbag57
(g73
g59
NtRp5207
(dp5208
g62
(dp5209
sg71
g5151
sg64
(lp5210
g57
(g78
g59
NtRp5211
(dp5212
g62
(dp5213
sg71
g5207
sg64
(lp5214
g57
(g58
g59
NtRp5215
(dp5216
g62
(dp5217
g70
I2
ssg71
g5211
sg64
(lp5218
g57
(g66
g59
NtRp5219
(dp5220
g62
(dp5221
g70
I1
ssg71
Nsg64
(lp5222
g57
(g73
g59
NtRp5223
(dp5224
g62
(dp5225
sg71
g5219
sg64
(lp5226
g57
(g78
g59
NtRp5227
(dp5228
g62
(dp5229
sg71
g5223
sg64
(lp5230
g57
(g58
g59
NtRp5231
(dp5232
g62
(dp5233
g70
I1
ssg71
g5227
sg64
(lp5234
g4634
asbasbasbag57
(g73
g59
NtRp5235
(dp5236
g62
(dp5237
sg71
g5219
sg64
(lp5238
g57
(g78
g59
NtRp5239
(dp5240
g62
(dp5241
sg71
g5235
sg64
(lp5242
g57
(g58
g59
NtRp5243
(dp5244
g62
(dp5245
g70
I1
ssg71
g5239
sg64
(lp5246
I00
asbasbasbag57
(g73
g59
NtRp5247
(dp5248
g62
(dp5249
sg71
g5219
sg64
(lp5250
g57
(g78
g59
NtRp5251
(dp5252
g62
(dp5253
sg71
g5247
sg64
(lp5254
g57
(g58
g59
NtRp5255
(dp5256
g62
(dp5257
g70
I1
ssg71
g5251
sg64
(lp5258
g4632
asbasbasbag57
(g73
g59
NtRp5259
(dp5260
g62
(dp5261
sg71
g5219
sg64
(lp5262
g57
(g78
g59
NtRp5263
(dp5264
g62
(dp5265
sg71
g5259
sg64
(lp5266
g57
(g58
g59
NtRp5267
(dp5268
g62
(dp5269
g70
I1
ssg71
g5263
sg64
(lp5270
(lp5271
(g4648
I00
g4646
tp5272
a(g4658
I00
g4656
tp5273
a(g4668
I00
g4666
tp5274
a(g4678
I00
g4676
tp5275
a(g4688
I00
g4686
tp5276
a(g4698
I00
g4696
tp5277
a(g4708
I00
g4706
tp5278
a(g4718
I00
g4716
tp5279
a(g4728
I00
g4726
tp5280
aasbasbasbasbasbasbasbag57
(g73
g59
NtRp5281
(dp5282
g62
(dp5283
sg71
g5151
sg64
(lp5284
g57
(g78
g59
NtRp5285
(dp5286
g62
(dp5287
sg71
g5281
sg64
(lp5288
g57
(g58
g59
NtRp5289
(dp5290
g62
(dp5291
g70
I2
ssg71
g5285
sg64
(lp5292
g57
(g66
g59
NtRp5293
(dp5294
g62
(dp5295
g70
I1
ssg71
Nsg64
(lp5296
g57
(g73
g59
NtRp5297
(dp5298
g62
(dp5299
sg71
g5293
sg64
(lp5300
g57
(g78
g59
NtRp5301
(dp5302
g62
(dp5303
sg71
g5297
sg64
(lp5304
g57
(g58
g59
NtRp5305
(dp5306
g62
(dp5307
g70
I1
ssg71
g5301
sg64
(lp5308
g4738
asbasbasbag57
(g73
g59
NtRp5309
(dp5310
g62
(dp5311
sg71
g5293
sg64
(lp5312
g57
(g78
g59
NtRp5313
(dp5314
g62
(dp5315
sg71
g5309
sg64
(lp5316
g57
(g58
g59
NtRp5317
(dp5318
g62
(dp5319
g70
I1
ssg71
g5313
sg64
(lp5320
I00
asbasbasbag57
(g73
g59
NtRp5321
(dp5322
g62
(dp5323
sg71
g5293
sg64
(lp5324
g57
(g78
g59
NtRp5325
(dp5326
g62
(dp5327
sg71
g5321
sg64
(lp5328
g57
(g58
g59
NtRp5329
(dp5330
g62
(dp5331
g70
I1
ssg71
g5325
sg64
(lp5332
g4736
asbasbasbag57
(g73
g59
NtRp5333
(dp5334
g62
(dp5335
sg71
g5293
sg64
(lp5336
g57
(g78
g59
NtRp5337
(dp5338
g62
(dp5339
sg71
g5333
sg64
(lp5340
g57
(g58
g59
NtRp5341
(dp5342
g62
(dp5343
g70
I1
ssg71
g5337
sg64
(lp5344
(lp5345
(g4752
I00
g4750
tp5346
a(g4762
I00
g4760
tp5347
a(g4772
I00
g4770
tp5348
a(g4782
I00
g4780
tp5349
a(g4792
I00
g4790
tp5350
a(g4802
I00
g4800
tp5351
a(g4812
I00
g4810
tp5352
a(g4822
I00
g4820
tp5353
a(g4832
I00
g4830
tp5354
a(g4842
I00
g4840
tp5355
a(g4852
I00
g4850
tp5356
aasbasbasbasbasbasbasbag57
(g73
g59
NtRp5357
(dp5358
g62
(dp5359
sg71
g5151
sg64
(lp5360
g57
(g78
g59
NtRp5361
(dp5362
g62
(dp5363
sg71
g5357
sg64
(lp5364
g57
(g58
g59
NtRp5365
(dp5366
g62
(dp5367
g70
I2
ssg71
g5361
sg64
(lp5368
g57
(g66
g59
NtRp5369
(dp5370
g62
(dp5371
g70
I1
ssg71
Nsg64
(lp5372
g57
(g73
g59
NtRp5373
(dp5374
g62
(dp5375
sg71
g5369
sg64
(lp5376
g57
(g78
g59
NtRp5377
(dp5378
g62
(dp5379
sg71
g5373
sg64
(lp5380
g57
(g58
g59
NtRp5381
(dp5382
g62
(dp5383
g70
I1
ssg71
g5377
sg64
(lp5384
g4862
asbasbasbag57
(g73
g59
NtRp5385
(dp5386
g62
(dp5387
sg71
g5369
sg64
(lp5388
g57
(g78
g59
NtRp5389
(dp5390
g62
(dp5391
sg71
g5385
sg64
(lp5392
g57
(g58
g59
NtRp5393
(dp5394
g62
(dp5395
g70
I1
ssg71
g5389
sg64
(lp5396
I00
asbasbasbag57
(g73
g59
NtRp5397
(dp5398
g62
(dp5399
sg71
g5369
sg64
(lp5400
g57
(g78
g59
NtRp5401
(dp5402
g62
(dp5403
sg71
g5397
sg64
(lp5404
g57
(g58
g59
NtRp5405
(dp5406
g62
(dp5407
g70
I1
ssg71
g5401
sg64
(lp5408
g4860
asbasbasbag57
(g73
g59
NtRp5409
(dp5410
g62
(dp5411
sg71
g5369
sg64
(lp5412
g57
(g78
g59
NtRp5413
(dp5414
g62
(dp5415
sg71
g5409
sg64
(lp5416
g57
(g58
g59
NtRp5417
(dp5418
g62
(dp5419
g70
I1
ssg71
g5413
sg64
(lp5420
(lp5421
(g4876
I00
g4874
tp5422
a(g4886
I00
g4884
tp5423
a(g4896
I00
g4894
tp5424
a(g4906
I00
g4904
tp5425
a(g4916
I00
g4914
tp5426
a(g4926
I00
g4924
tp5427
a(g4936
I00
g4934
tp5428
a(g4946
I00
g4944
tp5429
a(g4956
I00
g4954
tp5430
a(g4966
I00
g4964
tp5431
a(g4976
I00
g4974
tp5432
a(g4986
I00
g4984
tp5433
a(g4996
I00
g4994
tp5434
a(g5006
I00
g5004
tp5435
a(g5016
I00
g5014
tp5436
a(g5026
I00
g5024
tp5437
aasbasbasbasbasbasbasbag57
(g73
g59
NtRp5438
(dp5439
g62
(dp5440
sg71
g5151
sg64
(lp5441
g57
(g78
g59
NtRp5442
(dp5443
g62
(dp5444
sg71
g5438
sg64
(lp5445
g57
(g58
g59
NtRp5446
(dp5447
g62
(dp5448
g70
I2
ssg71
g5442
sg64
(lp5449
g57
(g66
g59
NtRp5450
(dp5451
g62
(dp5452
g70
I1
ssg71
Nsg64
(lp5453
g57
(g73
g59
NtRp5454
(dp5455
g62
(dp5456
sg71
g5450
sg64
(lp5457
g57
(g78
g59
NtRp5458
(dp5459
g62
(dp5460
sg71
g5454
sg64
(lp5461
g57
(g58
g59
NtRp5462
(dp5463
g62
(dp5464
g70
I1
ssg71
g5458
sg64
(lp5465
g5037
asbasbasbag57
(g73
g59
NtRp5466
(dp5467
g62
(dp5468
sg71
g5450
sg64
(lp5469
g57
(g78
g59
NtRp5470
(dp5471
g62
(dp5472
sg71
g5466
sg64
(lp5473
g57
(g58
g59
NtRp5474
(dp5475
g62
(dp5476
g70
I1
ssg71
g5470
sg64
(lp5477
I00
asbasbasbag57
(g73
g59
NtRp5478
(dp5479
g62
(dp5480
sg71
g5450
sg64
(lp5481
g57
(g78
g59
NtRp5482
(dp5483
g62
(dp5484
sg71
g5478
sg64
(lp5485
g57
(g58
g59
NtRp5486
(dp5487
g62
(dp5488
g70
I1
ssg71
g5482
sg64
(lp5489
Nasbasbasbag57
(g73
g59
NtRp5490
(dp5491
g62
(dp5492
sg71
g5450
sg64
(lp5493
g57
(g78
g59
NtRp5494
(dp5495
g62
(dp5496
sg71
g5490
sg64
(lp5497
g57
(g58
g59
NtRp5498
(dp5499
g62
(dp5500
g70
I1
ssg71
g5494
sg64
(lp5501
(lp5502
(g5051
I00
g5049
tp5503
a(g5061
I00
g5059
tp5504
a(g5071
I00
g5069
tp5505
aasbasbasbasbasbasbasbag57
(g73
g59
NtRp5506
(dp5507
g62
(dp5508
sg71
g5151
sg64
(lp5509
g57
(g78
g59
NtRp5510
(dp5511
g62
(dp5512
sg71
g5506
sg64
(lp5513
g57
(g58
g59
NtRp5514
(dp5515
g62
(dp5516
g70
I2
ssg71
g5510
sg64
(lp5517
g57
(g66
g59
NtRp5518
(dp5519
g62
(dp5520
g70
I1
ssg71
Nsg64
(lp5521
g57
(g73
g59
NtRp5522
(dp5523
g62
(dp5524
sg71
g5518
sg64
(lp5525
g57
(g78
g59
NtRp5526
(dp5527
g62
(dp5528
sg71
g5522
sg64
(lp5529
g57
(g58
g59
NtRp5530
(dp5531
g62
(dp5532
g70
I1
ssg71
g5526
sg64
(lp5533
g5080
asbasbasbag57
(g73
g59
NtRp5534
(dp5535
g62
(dp5536
sg71
g5518
sg64
(lp5537
g57
(g78
g59
NtRp5538
(dp5539
g62
(dp5540
sg71
g5534
sg64
(lp5541
g57
(g58
g59
NtRp5542
(dp5543
g62
(dp5544
g70
I1
ssg71
g5538
sg64
(lp5545
I00
asbasbasbag57
(g73
g59
NtRp5546
(dp5547
g62
(dp5548
sg71
g5518
sg64
(lp5549
g57
(g78
g59
NtRp5550
(dp5551
g62
(dp5552
sg71
g5546
sg64
(lp5553
g57
(g58
g59
NtRp5554
(dp5555
g62
(dp5556
g70
I1
ssg71
g5550
sg64
(lp5557
Nasbasbasbag57
(g73
g59
NtRp5558
(dp5559
g62
(dp5560
sg71
g5518
sg64
(lp5561
g57
(g78
g59
NtRp5562
(dp5563
g62
(dp5564
sg71
g5558
sg64
(lp5565
g57
(g58
g59
NtRp5566
(dp5567
g62
(dp5568
g70
I1
ssg71
g5562
sg64
(lp5569
(lp5570
(g5094
I00
g5092
tp5571
a(g5103
I00
g4820
tp5572
a(g5112
I00
g4830
tp5573
aasbasbasbasbasbasbasbasbasbasbasbasbasbasbasbasbasbasbasbag57
(g73
g59
NtRp5574
(dp5575
g62
(dp5576
sg71
g3907
sg64
(lp5577
g57
(g78
g59
NtRp5578
(dp5579
g62
(dp5580
g82
g83
ssg71
g5574
sg64
(lp5581
S'meta'
p5582
asbag57
(g78
g59
NtRp5583
(dp5584
g62
(dp5585
g89
g90
ssg71
g5574
sg64
(lp5586
S':'
asbag57
(g78
g59
NtRp5587
(dp5588
g62
(dp5589
sg71
g5574
sg64
(lp5590
g57
(g58
g59
NtRp5591
(dp5592
g62
(dp5593
g70
I5
ssg71
g5587
sg64
(lp5594
g57
(g66
g59
NtRp5595
(dp5596
g62
(dp5597
g70
I4
ssg71
Nsg64
(lp5598
g57
(g73
g59
NtRp5599
(dp5600
g62
(dp5601
sg71
g5595
sg64
(lp5602
g57
(g78
g59
NtRp5603
(dp5604
g62
(dp5605
g82
g83
ssg71
g5599
sg64
(lp5606
S'author'
p5607
asbag57
(g78
g59
NtRp5608
(dp5609
g62
(dp5610
g89
g90
ssg71
g5599
sg64
(lp5611
S':'
asbag57
(g78
g59
NtRp5612
(dp5613
g62
(dp5614
sg71
g5599
sg64
(lp5615
g57
(g58
g59
NtRp5616
(dp5617
g62
(dp5618
g70
I4
ssg71
g5612
sg64
(lp5619
S'Your Name <you@example.com>'
p5620
asbasbasbag57
(g73
g59
NtRp5621
(dp5622
g62
(dp5623
sg71
g5595
sg64
(lp5624
g57
(g78
g59
NtRp5625
(dp5626
g62
(dp5627
g82
g83
ssg71
g5621
sg64
(lp5628
S'description'
p5629
asbag57
(g78
g59
NtRp5630
(dp5631
g62
(dp5632
g89
g90
ssg71
g5621
sg64
(lp5633
S':'
asbag57
(g78
g59
NtRp5634
(dp5635
g62
(dp5636
sg71
g5621
sg64
(lp5637
g57
(g58
g59
NtRp5638
(dp5639
g62
(dp5640
g70
I4
ssg71
g5634
sg64
(lp5641
S'a cool new app'
p5642
asbasbasbag57
(g73
g59
NtRp5643
(dp5644
g62
(dp5645
sg71
g5595
sg64
(lp5646
g57
(g78
g59
NtRp5647
(dp5648
g62
(dp5649
g82
g83
ssg71
g5643
sg64
(lp5650
S'generator'
p5651
asbag57
(g78
g59
NtRp5652
(dp5653
g62
(dp5654
g89
g90
ssg71
g5643
sg64
(lp5655
S':'
asbag57
(g78
g59
NtRp5656
(dp5657
g62
(dp5658
sg71
g5643
sg64
(lp5659
g57
(g58
g59
NtRp5660
(dp5661
g62
(dp5662
g70
I4
ssg71
g5656
sg64
(lp5663
S'Web2py Web Framework'
p5664
asbasbasbag57
(g73
g59
NtRp5665
(dp5666
g62
(dp5667
sg71
g5595
sg64
(lp5668
g57
(g78
g59
NtRp5669
(dp5670
g62
(dp5671
g82
g83
ssg71
g5665
sg64
(lp5672
S'keywords'
p5673
asbag57
(g78
g59
NtRp5674
(dp5675
g62
(dp5676
g89
g90
ssg71
g5665
sg64
(lp5677
S':'
asbag57
(g78
g59
NtRp5678
(dp5679
g62
(dp5680
sg71
g5665
sg64
(lp5681
g57
(g58
g59
NtRp5682
(dp5683
g62
(dp5684
g70
I4
ssg71
g5678
sg64
(lp5685
S'web2py, python, framework'
p5686
asbasbasbasbasbasbasbag57
(g73
g59
NtRp5687
(dp5688
g62
(dp5689
sg71
g3907
sg64
(lp5690
g57
(g78
g59
NtRp5691
(dp5692
g62
(dp5693
g82
g83
ssg71
g5687
sg64
(lp5694
S'models_to_run'
p5695
asbag57
(g78
g59
NtRp5696
(dp5697
g62
(dp5698
g89
g90
ssg71
g5687
sg64
(lp5699
S':'
asbag57
(g78
g59
NtRp5700
(dp5701
g62
(dp5702
sg71
g5687
sg64
(lp5703
g57
(g58
g59
NtRp5704
(dp5705
g62
(dp5706
g70
I5
ssg71
g5700
sg64
(lp5707
g57
(g66
g59
NtRp5708
(dp5709
g62
(dp5710
g70
I4
ssg71
Nsg64
(lp5711
g57
(g73
g59
NtRp5712
(dp5713
g62
(dp5714
sg71
g5708
sg64
(lp5715
g57
(g78
g59
NtRp5716
(dp5717
g62
(dp5718
sg71
g5712
sg64
(lp5719
g57
(g58
g59
NtRp5720
(dp5721
g62
(dp5722
g70
I4
ssg71
g5716
sg64
(lp5723
S'^\\w+\\.py$'
p5724
asbasbasbag57
(g73
g59
NtRp5725
(dp5726
g62
(dp5727
sg71
g5708
sg64
(lp5728
g57
(g78
g59
NtRp5729
(dp5730
g62
(dp5731
sg71
g5725
sg64
(lp5732
g57
(g58
g59
NtRp5733
(dp5734
g62
(dp5735
g70
I4
ssg71
g5729
sg64
(lp5736
S'^default/\\w+\\.py$'
p5737
asbasbasbag57
(g73
g59
NtRp5738
(dp5739
g62
(dp5740
sg71
g5708
sg64
(lp5741
g57
(g78
g59
NtRp5742
(dp5743
g62
(dp5744
sg71
g5738
sg64
(lp5745
g57
(g58
g59
NtRp5746
(dp5747
g62
(dp5748
g70
I4
ssg71
g5742
sg64
(lp5749
S'^default/show_job/\\w+\\.py$'
p5750
asbasbasbasbasbasbasbag57
(g73
g59
NtRp5751
(dp5752
g62
(dp5753
sg71
g3907
sg64
(lp5754
g57
(g78
g59
NtRp5755
(dp5756
g62
(dp5757
g82
g83
ssg71
g5751
sg64
(lp5758
S'postprocessing'
p5759
asbag57
(g78
g59
NtRp5760
(dp5761
g62
(dp5762
g89
g90
ssg71
g5751
sg64
(lp5763
S':'
asbag57
(g78
g59
NtRp5764
(dp5765
g62
(dp5766
sg71
g5751
sg64
(lp5767
g57
(g58
g59
NtRp5768
(dp5769
g62
(dp5770
g70
I5
ssg71
g5764
sg64
(lp5771
g57
(g66
g59
NtRp5772
(dp5773
g62
(dp5774
g70
I4
ssg71
Nsg64
(lp5775
sbasbasbasbag57
(g73
g59
NtRp5776
(dp5777
g62
(dp5778
sg71
g3907
sg64
(lp5779
g57
(g78
g59
NtRp5780
(dp5781
g62
(dp5782
g82
g83
ssg71
g5776
sg64
(lp5783
S'session_cookie_expires'
p5784
asbag57
(g78
g59
NtRp5785
(dp5786
g62
(dp5787
g89
g90
ssg71
g5776
sg64
(lp5788
S':'
asbag57
(g78
g59
NtRp5789
(dp5790
g62
(dp5791
sg71
g5776
sg64
(lp5792
g57
(g58
g59
NtRp5793
(dp5794
g62
(dp5795
g70
I5
ssg71
g5789
sg64
(lp5796
S'None'
p5797
asbasbasbag57
(g73
g59
NtRp5798
(dp5799
g62
(dp5800
sg71
g3907
sg64
(lp5801
g57
(g78
g59
NtRp5802
(dp5803
g62
(dp5804
g82
g83
ssg71
g5798
sg64
(lp5805
S'session_data_name'
p5806
asbag57
(g78
g59
NtRp5807
(dp5808
g62
(dp5809
g89
g90
ssg71
g5798
sg64
(lp5810
S':'
asbag57
(g78
g59
NtRp5811
(dp5812
g62
(dp5813
sg71
g5798
sg64
(lp5814
g57
(g58
g59
NtRp5815
(dp5816
g62
(dp5817
g70
I5
ssg71
g5811
sg64
(lp5818
S'session_data_betsy'
p5819
asbasbasbag57
(g73
g59
NtRp5820
(dp5821
g62
(dp5822
sg71
g3907
sg64
(lp5823
g57
(g78
g59
NtRp5824
(dp5825
g62
(dp5826
g82
g83
ssg71
g5820
sg64
(lp5827
S'session_file'
p5828
asbag57
(g78
g59
NtRp5829
(dp5830
g62
(dp5831
g89
g90
ssg71
g5820
sg64
(lp5832
S':'
asbag57
(g78
g59
NtRp5833
(dp5834
g62
(dp5835
sg71
g5820
sg64
(lp5836
g57
(g58
g59
NtRp5837
(dp5838
g62
(dp5839
g70
I5
ssg71
g5833
sg64
(lp5840
S"<open file '/home/xchen/web2py/applications/Betsy/sessions/127.0.0.1-70d52105-0f5d-4884-a4e3-dce6830f30e0', mode 'rb+' at 0x16e52660>"
p5841
asbasbasbag57
(g73
g59
NtRp5842
(dp5843
g62
(dp5844
sg71
g3907
sg64
(lp5845
g57
(g78
g59
NtRp5846
(dp5847
g62
(dp5848
g82
g83
ssg71
g5842
sg64
(lp5849
S'session_filename'
p5850
asbag57
(g78
g59
NtRp5851
(dp5852
g62
(dp5853
g89
g90
ssg71
g5842
sg64
(lp5854
S':'
asbag57
(g78
g59
NtRp5855
(dp5856
g62
(dp5857
sg71
g5842
sg64
(lp5858
g57
(g58
g59
NtRp5859
(dp5860
g62
(dp5861
g70
I5
ssg71
g5855
sg64
(lp5862
S'/home/xchen/web2py/applications/Betsy/sessions/127.0.0.1-70d52105-0f5d-4884-a4e3-dce6830f30e0'
p5863
asbasbasbag57
(g73
g59
NtRp5864
(dp5865
g62
(dp5866
sg71
g3907
sg64
(lp5867
g57
(g78
g59
NtRp5868
(dp5869
g62
(dp5870
g82
g83
ssg71
g5864
sg64
(lp5871
S'session_id'
p5872
asbag57
(g78
g59
NtRp5873
(dp5874
g62
(dp5875
g89
g90
ssg71
g5864
sg64
(lp5876
S':'
asbag57
(g78
g59
NtRp5877
(dp5878
g62
(dp5879
sg71
g5864
sg64
(lp5880
g57
(g58
g59
NtRp5881
(dp5882
g62
(dp5883
g70
I5
ssg71
g5877
sg64
(lp5884
g488
asbasbasbag57
(g73
g59
NtRp5885
(dp5886
g62
(dp5887
sg71
g3907
sg64
(lp5888
g57
(g78
g59
NtRp5889
(dp5890
g62
(dp5891
g82
g83
ssg71
g5885
sg64
(lp5892
S'session_id_name'
p5893
asbag57
(g78
g59
NtRp5894
(dp5895
g62
(dp5896
g89
g90
ssg71
g5885
sg64
(lp5897
S':'
asbag57
(g78
g59
NtRp5898
(dp5899
g62
(dp5900
sg71
g5885
sg64
(lp5901
g57
(g58
g59
NtRp5902
(dp5903
g62
(dp5904
g70
I5
ssg71
g5898
sg64
(lp5905
g3964
asbasbasbag57
(g73
g59
NtRp5906
(dp5907
g62
(dp5908
sg71
g3907
sg64
(lp5909
g57
(g78
g59
NtRp5910
(dp5911
g62
(dp5912
g82
g83
ssg71
g5906
sg64
(lp5913
S'session_locked'
p5914
asbag57
(g78
g59
NtRp5915
(dp5916
g62
(dp5917
g89
g90
ssg71
g5906
sg64
(lp5918
S':'
asbag57
(g78
g59
NtRp5919
(dp5920
g62
(dp5921
sg71
g5906
sg64
(lp5922
g57
(g58
g59
NtRp5923
(dp5924
g62
(dp5925
g70
I5
ssg71
g5919
sg64
(lp5926
g1617
asbasbasbag57
(g73
g59
NtRp5927
(dp5928
g62
(dp5929
sg71
g3907
sg64
(lp5930
g57
(g78
g59
NtRp5931
(dp5932
g62
(dp5933
g82
g83
ssg71
g5927
sg64
(lp5934
S'session_new'
p5935
asbag57
(g78
g59
NtRp5936
(dp5937
g62
(dp5938
g89
g90
ssg71
g5927
sg64
(lp5939
S':'
asbag57
(g78
g59
NtRp5940
(dp5941
g62
(dp5942
sg71
g5927
sg64
(lp5943
g57
(g58
g59
NtRp5944
(dp5945
g62
(dp5946
g70
I5
ssg71
g5940
sg64
(lp5947
g100
asbasbasbag57
(g73
g59
NtRp5948
(dp5949
g62
(dp5950
sg71
g3907
sg64
(lp5951
g57
(g78
g59
NtRp5952
(dp5953
g62
(dp5954
g82
g83
ssg71
g5948
sg64
(lp5955
S'session_storage_type'
p5956
asbag57
(g78
g59
NtRp5957
(dp5958
g62
(dp5959
g89
g90
ssg71
g5948
sg64
(lp5960
S':'
asbag57
(g78
g59
NtRp5961
(dp5962
g62
(dp5963
sg71
g5948
sg64
(lp5964
g57
(g58
g59
NtRp5965
(dp5966
g62
(dp5967
g70
I5
ssg71
g5961
sg64
(lp5968
g3070
asbasbasbag57
(g73
g59
NtRp5969
(dp5970
g62
(dp5971
sg71
g3907
sg64
(lp5972
g57
(g78
g59
NtRp5973
(dp5974
g62
(dp5975
g82
g83
ssg71
g5969
sg64
(lp5976
S'status'
p5977
asbag57
(g78
g59
NtRp5978
(dp5979
g62
(dp5980
g89
g90
ssg71
g5969
sg64
(lp5981
S':'
asbag57
(g78
g59
NtRp5982
(dp5983
g62
(dp5984
sg71
g5969
sg64
(lp5985
g57
(g58
g59
NtRp5986
(dp5987
g62
(dp5988
g70
I5
ssg71
g5982
sg64
(lp5989
S'200'
p5990
asbasbasbag57
(g73
g59
NtRp5991
(dp5992
g62
(dp5993
sg71
g3907
sg64
(lp5994
g57
(g78
g59
NtRp5995
(dp5996
g62
(dp5997
g82
g83
ssg71
g5991
sg64
(lp5998
S'subtitle'
p5999
asbag57
(g78
g59
NtRp6000
(dp6001
g62
(dp6002
g89
g90
ssg71
g5991
sg64
(lp6003
S':'
asbag57
(g78
g59
NtRp6004
(dp6005
g62
(dp6006
sg71
g5991
sg64
(lp6007
g57
(g58
g59
NtRp6008
(dp6009
g62
(dp6010
g70
I5
ssg71
g6004
sg64
(lp6011
g4502
(S's\r\x00\x00\x00customize me!'
tRp6012
asbasbasbag57
(g73
g59
NtRp6013
(dp6014
g62
(dp6015
sg71
g3907
sg64
(lp6016
g57
(g78
g59
NtRp6017
(dp6018
g62
(dp6019
g82
g83
ssg71
g6013
sg64
(lp6020
S'title'
p6021
asbag57
(g78
g59
NtRp6022
(dp6023
g62
(dp6024
g89
g90
ssg71
g6013
sg64
(lp6025
S':'
asbag57
(g78
g59
NtRp6026
(dp6027
g62
(dp6028
sg71
g6013
sg64
(lp6029
g57
(g58
g59
NtRp6030
(dp6031
g62
(dp6032
g70
I5
ssg71
g6026
sg64
(lp6033
S'Betsy'
p6034
asbasbasbag57
(g73
g59
NtRp6035
(dp6036
g62
(dp6037
sg71
g3907
sg64
(lp6038
g57
(g78
g59
NtRp6039
(dp6040
g62
(dp6041
g82
g83
ssg71
g6035
sg64
(lp6042
S'view'
p6043
asbag57
(g78
g59
NtRp6044
(dp6045
g62
(dp6046
g89
g90
ssg71
g6035
sg64
(lp6047
S':'
asbag57
(g78
g59
NtRp6048
(dp6049
g62
(dp6050
sg71
g6035
sg64
(lp6051
g57
(g58
g59
NtRp6052
(dp6053
g62
(dp6054
g70
I5
ssg71
g6048
sg64
(lp6055
S'default/show_job.html'
p6056
asbasbasbasbasbsS'locals'
p6057
(dp6058
S'Service'
p6059
S"<class 'gluon.tools.Service'>"
p6060
sS'text'
p6061
S"['Generating pipelines...', '6 pipelines have been generated.', '', 'Pipeline1: Preprocessing the signal file.\\r', '[ 3:36PM] 1.convert_signal_to_tdf', '[ 3:36PM] 2.log_signal', '[ 3:36PM] 3.fill_missing_with_zeros', '[ 3:36PM] 4.annotate_probes', '[ 3:43PM] Completed successfully and generated a file:', '/home/xchen/chencode/examples/sample_analysis/an...7627e694e.4368616e675f415230303431302e70636c.txt\\r', '\\r', 'Pipeline2: Making a PCA plot of the samples before normalization.\\r', '[ 3:43PM] 1.convert_signal_to_tdf', '[ 3:43PM] 2.log_signal', '[ 3:43PM] 3.fill_missing_with_median', '[ 3:43PM] 4.make_class_label_file', '[ 3:43PM] 5.convert_signal_to_tdf', '[ 3:44PM] 6.log_signal', '[ 3:44PM] 7.fill_missing_with_zeros', '[ 3:44PM] 8.analyze_samples_pca', ...]"
p6062
sS'OBJECT'
p6063
S"<class 'gluon.html.OBJECT'>"
p6064
sS'SQLDB'
p6065
S"<class 'gluon.dal.DAL'>"
p6066
sg3123
S"<Storage {'cmd': ['python', '/home/xchen/chencod...ssion_hash': 'd41cdd1ce89ade3c1026d3d812bf4805'}>"
p6067
sS'LINK'
p6068
S"<class 'gluon.html.LINK'>"
p6069
sS'BR'
p6070
S"<class 'gluon.html.BR'>"
p6071
sS'local_import'
p6072
S'<function <lambda>>'
p6073
sS'OPTGROUP'
p6074
S"<class 'gluon.html.OPTGROUP'>"
p6075
sS'__package__'
p6076
S'None'
p6077
sS'PRE'
p6078
S"<class 'gluon.html.PRE'>"
p6079
sS'IS_INT_IN_RANGE'
p6080
S"<class 'gluon.validators.IS_INT_IN_RANGE'>"
p6081
sS'left_sidebar_enabled'
p6082
g100
sS'IS_LOWER'
p6083
S"<class 'gluon.validators.IS_LOWER'>"
p6084
sS'IS_STRONG'
p6085
S"<class 'gluon.validators.IS_STRONG'>"
p6086
sS'cache'
p6087
S'<gluon.cache.Cache object>'
p6088
sS'IS_IN_DB'
p6089
S"<class 'gluon.validators.IS_IN_DB'>"
p6090
sS'TAG'
p6091
S'<gluon.html.__TAG__ object>'
p6092
sS'SQLField'
p6093
S"<class 'gluon.dal.Field'>"
p6094
sS'mail'
p6095
S'<gluon.tools.Mail object>'
p6096
sS'BODY'
p6097
S"<class 'gluon.html.BODY'>"
p6098
sS'IS_DATE_IN_RANGE'
p6099
S"<class 'gluon.validators.IS_DATE_IN_RANGE'>"
p6100
sS'IFRAME'
p6101
S"<class 'gluon.html.IFRAME'>"
p6102
sS'URL'
p6103
S'<function URL>'
p6104
sS'__file__'
p6105
S"'/home/xchen/web2py/applications/Betsy/views/default/show_job.html'"
p6106
sS'db'
p6107
S'<DAL uri="sqlite://storage.sqlite">'
p6108
sS'auth'
p6109
S'<gluon.tools.Auth object>'
p6110
sS'P'
S"<class 'gluon.html.P'>"
p6111
sS'TFOOT'
p6112
S"<class 'gluon.html.TFOOT'>"
p6113
sS'XHTML'
p6114
S"<class 'gluon.html.XHTML'>"
p6115
sS'ON'
p6116
g1617
sS'OL'
p6117
S"<class 'gluon.html.OL'>"
p6118
sS'TEXTAREA'
p6119
S"<class 'gluon.html.TEXTAREA'>"
p6120
sS'MENU'
p6121
S"<class 'gluon.html.MENU'>"
p6122
sS'IS_IMAGE'
p6123
S"<class 'gluon.validators.IS_IMAGE'>"
p6124
sS'EM'
p6125
S"<class 'gluon.html.EM'>"
p6126
sS'CODE'
p6127
S"<class 'gluon.html.CODE'>"
p6128
sS'HTTP'
p6129
S"<class 'gluon.http.HTTP'>"
p6130
sS'HR'
p6131
S"<class 'gluon.html.HR'>"
p6132
sS'IS_DATETIME'
p6133
S"<class 'gluon.validators.IS_DATETIME'>"
p6134
sS'STYLE'
p6135
S"<class 'gluon.html.STYLE'>"
p6136
sS'LABEL'
p6137
S"<class 'gluon.html.LABEL'>"
p6138
sS'CLEANUP'
p6139
S"<class 'gluon.validators.CLEANUP'>"
p6140
sS'plugins'
p6141
S'<gluon.tools.PluginManager object>'
p6142
sS'SELECT'
p6143
S"<class 'gluon.html.SELECT'>"
p6144
sS'use_janrain'
p6145
S'<function use_janrain>'
p6146
sS'CENTER'
p6147
S"<class 'gluon.html.CENTER'>"
p6148
sS'prettydate'
p6149
S'<function prettydate>'
p6150
sS'Crud'
p6151
S"<class 'gluon.tools.Crud'>"
p6152
sS'Auth'
p6153
S"<class 'gluon.tools.Auth'>"
p6154
sS'__builtins__'
p6155
S"{'ArithmeticError': <type 'exceptions.ArithmeticError'>, 'AssertionError': <type 'exceptions.AssertionError'>, 'AttributeError': <type 'exceptions.AttributeError'>, 'BaseException': <type 'exceptions.BaseException'>, 'BufferError': <type 'exceptions.BufferError'>, 'BytesWarning': <type 'exceptions.BytesWarning'>, 'DeprecationWarning': <type 'exceptions.DeprecationWarning'>, 'EOFError': <type 'exceptions.EOFError'>, 'Ellipsis': Ellipsis, 'EnvironmentError': <type 'exceptions.EnvironmentError'>, ...}"
p6156
sS'HTML'
p6157
S"<class 'gluon.html.HTML'>"
p6158
sS'SQLFORM'
p6159
S"<class 'gluon.sqlhtml.SQLFORM'>"
p6160
sS'LOAD'
p6161
S'<function LOAD>'
p6162
sS'redirect'
p6163
S'<function redirect>'
p6164
sS'FIELDSET'
p6165
S"<class 'gluon.html.FIELDSET'>"
p6166
sS'IS_EQUAL_TO'
p6167
S"<class 'gluon.validators.IS_EQUAL_TO'>"
p6168
sS'embed64'
p6169
S'<function embed64>'
p6170
sS'IS_LIST_OF'
p6171
S"<class 'gluon.validators.IS_LIST_OF'>"
p6172
sS'newtext'
p6173
S"['Generating pipelines...', '6 pipelines have been generated.', '', 'Pipeline1: Preprocessing the signal file.\\r', '[ 3:36PM] 1.convert_signal_to_tdf', '[ 3:36PM] 2.log_signal', '[ 3:36PM] 3.fill_missing_with_zeros', '[ 3:36PM] 4.annotate_probes', '[ 3:43PM] Completed successfully and generated a file:', '/Users/xchen2/Desktop/unicron/chencode/examples/...67627e694e.4368616e675f415230303431302e70636c.txt', '\\r', 'Pipeline2: Making a PCA plot of the samples before normalization.\\r', '[ 3:43PM] 1.convert_signal_to_tdf', '[ 3:43PM] 2.log_signal', '[ 3:43PM] 3.fill_missing_with_median', '[ 3:43PM] 4.make_class_label_file', '[ 3:43PM] 5.convert_signal_to_tdf', '[ 3:44PM] 6.log_signal', '[ 3:44PM] 7.fill_missing_with_zeros', '[ 3:44PM] 8.analyze_samples_pca', ...]"
p6174
sS'INPUT'
p6175
S"<class 'gluon.html.INPUT'>"
p6176
sS'EMBED'
p6177
S"<class 'gluon.html.EMBED'>"
p6178
sS'_'
S'<function _>'
p6179
sS'H2'
p6180
S"<class 'gluon.html.H2'>"
p6181
sS'H3'
p6182
S"<class 'gluon.html.H3'>"
p6183
sS'BUTTON'
p6184
S"<class 'gluon.html.BUTTON'>"
p6185
sS'H1'
p6186
S"<class 'gluon.html.H1'>"
p6187
sS'H6'
p6188
S"<class 'gluon.html.H6'>"
p6189
sS'job'
p6190
S"<Row {'Status': 'completed', 'Submitted': '02/06...bname': 'IWAMNY', 'id': 131, 'Jobnumber': '337'}>"
p6191
sS'H4'
p6192
S"<class 'gluon.html.H4'>"
p6193
sS'H5'
p6194
S"<class 'gluon.html.H5'>"
p6195
sS'UL'
p6196
S"<class 'gluon.html.UL'>"
p6197
sS'IS_UPPER'
p6198
S"<class 'gluon.validators.IS_UPPER'>"
p6199
sS'xmlescape'
p6200
S'<function xmlescape>'
p6201
sS'IS_TIME'
p6202
S"<class 'gluon.validators.IS_TIME'>"
p6203
sS'OPTION'
p6204
S"<class 'gluon.html.OPTION'>"
p6205
sS'TITLE'
p6206
S"<class 'gluon.html.TITLE'>"
p6207
sS'CRYPT'
p6208
S"<class 'gluon.validators.CRYPT'>"
p6209
sS'IS_EMPTY_OR'
p6210
S"<class 'gluon.validators.IS_EMPTY_OR'>"
p6211
sS'MARKMIN'
p6212
S"<class 'gluon.html.MARKMIN'>"
p6213
sS'__name__'
p6214
S"'__restricted__'"
p6215
sS'STRONG'
p6216
S"<class 'gluon.html.STRONG'>"
p6217
sS'COL'
p6218
S"<class 'gluon.html.COL'>"
p6219
sS'service'
p6220
S'<gluon.tools.Service object>'
p6221
sS'SCRIPT'
p6222
S"<class 'gluon.html.SCRIPT'>"
p6223
sS'is_mobile'
p6224
g100
sS'TABLE'
p6225
S"<class 'gluon.html.TABLE'>"
p6226
sS'IS_IPV4'
p6227
S"<class 'gluon.validators.IS_IPV4'>"
p6228
sS'IS_LENGTH'
p6229
S"<class 'gluon.validators.IS_LENGTH'>"
p6230
sS'XML'
p6231
S"<class 'gluon.html.XML'>"
p6232
sS'B'
S"<class 'gluon.html.B'>"
p6233
sS'IMG'
p6234
S"<class 'gluon.html.IMG'>"
p6235
sS'SQLTABLE'
p6236
S"<class 'gluon.sqlhtml.SQLTABLE'>"
p6237
sS'IS_MATCH'
p6238
S"<class 'gluon.validators.IS_MATCH'>"
p6239
sS'IS_ALPHANUMERIC'
p6240
S"<class 'gluon.validators.IS_ALPHANUMERIC'>"
p6241
sS'info'
p6242
S"'Job is completed'"
p6243
sS'SPAN'
p6244
S"<class 'gluon.html.SPAN'>"
p6245
sS'IS_SLUG'
p6246
S"<class 'gluon.validators.IS_SLUG'>"
p6247
sS'BEAUTIFY'
p6248
S"<class 'gluon.html.BEAUTIFY'>"
p6249
sS'META'
p6250
S"<class 'gluon.html.META'>"
p6251
sS'IS_DATE'
p6252
S"<class 'gluon.validators.IS_DATE'>"
p6253
sS'IS_EMAIL'
p6254
S"<class 'gluon.validators.IS_EMAIL'>"
p6255
sS'IS_NOT_EMPTY'
p6256
S"<class 'gluon.validators.IS_NOT_EMPTY'>"
p6257
sS'IS_FLOAT_IN_RANGE'
p6258
S"<class 'gluon.validators.IS_FLOAT_IN_RANGE'>"
p6259
sS'TBODY'
p6260
S"<class 'gluon.html.TBODY'>"
p6261
sS'CAT'
p6262
S"<class 'gluon.html.CAT'>"
p6263
sS'Field'
p6264
S"<class 'gluon.dal.Field'>"
p6265
sS'middle_columns'
p6266
S"'span12'"
p6267
sS'DIV'
p6268
S"<class 'gluon.html.DIV'>"
p6269
sS'LEGEND'
p6270
S"<class 'gluon.html.LEGEND'>"
p6271
sS'COLGROUP'
p6272
S"<class 'gluon.html.COLGROUP'>"
p6273
sS'DAL'
p6274
S"<class 'gluon.dal.DAL'>"
p6275
sS'TT'
p6276
S"<class 'gluon.html.TT'>"
p6277
sS'TR'
p6278
S"<class 'gluon.html.TR'>"
p6279
sS'LI'
p6280
S"<class 'gluon.html.LI'>"
p6281
sS'right_sidebar_enabled'
p6282
g100
sS'TH'
p6283
S"<class 'gluon.html.TH'>"
p6284
sS'TD'
p6285
S"<class 'gluon.html.TD'>"
p6286
sS'PluginManager'
p6287
S"<class 'gluon.tools.PluginManager'>"
p6288
sS'IS_URL'
p6289
S"<class 'gluon.validators.IS_URL'>"
p6290
sS'A'
S"<class 'gluon.html.A'>"
p6291
sS'HEAD'
p6292
S"<class 'gluon.html.HEAD'>"
p6293
sS'IS_DATETIME_IN_RANGE'
p6294
S"<class 'gluon.validators.IS_DATETIME_IN_RANGE'>"
p6295
sS'FORM'
p6296
S"<class 'gluon.html.FORM'>"
p6297
sS'I'
S"<class 'gluon.html.I'>"
p6298
sS'crud'
p6299
S'<gluon.tools.Crud object>'
p6300
sS'IS_NOT_IN_DB'
p6301
S"<class 'gluon.validators.IS_NOT_IN_DB'>"
p6302
sg3902
S"<Storage {'body': <cStringIO.StringO object at 0...at 0x17132aa0>, 'view': 'default/show_job.html'}>"
p6303
sS'THEAD'
p6304
S"<class 'gluon.html.THEAD'>"
p6305
sS'IS_NULL_OR'
p6306
S"<class 'gluon.validators.IS_EMPTY_OR'>"
p6307
sS'i'
S'9'
sg56
S"<Storage {'function': 'show_job', 'body': <cStri...applications/Betsy/', 'post_vars': <Storage {}>}>"
p6308
sS'IS_EXPR'
p6309
S"<class 'gluon.validators.IS_EXPR'>"
p6310
sS'T'
S'<gluon.languages.translator object>'
p6311
sS'IS_IN_SET'
p6312
S"<class 'gluon.validators.IS_IN_SET'>"
p6313
sS'IS_UPLOAD_FILENAME'
p6314
S"<class 'gluon.validators.IS_UPLOAD_FILENAME'>"
p6315
sS'IS_DECIMAL_IN_RANGE'
p6316
S"<class 'gluon.validators.IS_DECIMAL_IN_RANGE'>"
p6317
sssS'traceback'
p6318
S'Traceback (most recent call last):\n  File "/home/xchen/web2py/gluon/restricted.py", line 212, in restricted\n    exec ccode in environment\n  File "/home/xchen/web2py/applications/Betsy/views/default/show_job.html", line 91, in <module>\nNameError: name \'url\' is not defined\n'
p6319
s.